
sampleLight_9518.elf:     file format elf32-littleriscv
sampleLight_9518.elf
architecture: riscv:rv32, flags 0x00000112:
EXEC_P, HAS_SYMS, D_PAGED
start address 0x20000000

Program Header:
    LOAD off    0x00001000 vaddr 0x20000000 paddr 0x20000000 align 2**12
         filesz 0x00000156 memsz 0x00000156 flags r-x
    LOAD off    0x00002000 vaddr 0x00000000 paddr 0x20000158 align 2**12
         filesz 0x000000fc memsz 0x00000120 flags rwx
    LOAD off    0x00002200 vaddr 0x00000200 paddr 0x20000258 align 2**12
         filesz 0x00002202 memsz 0x00002202 flags r-x
    LOAD off    0x00004460 vaddr 0x20002460 paddr 0x20002460 align 2**12
         filesz 0x0001ef34 memsz 0x0001ef34 flags r-x
    LOAD off    0x00023408 vaddr 0x00002408 paddr 0x200213a0 align 2**12
         filesz 0x000001c6 memsz 0x00005268 flags rw-
0x70000000 off    0x00023605 vaddr 0x00000000 paddr 0x00000000 align 2**0
         filesz 0x0000003b memsz 0x00000000 flags r--

Sections:
Idx Name          Size      VMA       LMA       File off  Algn
  0 .vectors      00000156  20000000  20000000  00001000  2**2
                  CONTENTS, ALLOC, LOAD, READONLY, CODE
  1 .retention_reset 000000fc  00000000  20000158  00002000  2**2
                  CONTENTS, ALLOC, LOAD, READONLY, CODE
  2 .aes_data     00000020  00000100  20000258  000020fc  2**2
                  ALLOC
  3 .ram_code     00002202  00000200  20000258  00002200  2**8
                  CONTENTS, ALLOC, LOAD, READONLY, CODE
  4 .text         0001e58c  20002460  20002460  00004460  2**2
                  CONTENTS, ALLOC, LOAD, READONLY, CODE
  5 .rodata       000009a8  200209ec  200209ec  000229ec  2**2
                  CONTENTS, ALLOC, LOAD, READONLY, DATA
  6 .data         000001c6  00002408  200213a0  00023408  2**2
                  CONTENTS, ALLOC, LOAD, DATA
  7 .sbss         00000153  000025d0  20021568  000235ce  2**2
                  ALLOC
  8 .bss          00004f4c  00002724  200216bc  000235ce  2**2
                  ALLOC
  9 .comment      00000037  00000000  00000000  000235ce  2**0
                  CONTENTS, READONLY
 10 .riscv.attributes 0000003b  00000000  00000000  00023605  2**0
                  CONTENTS, READONLY
SYMBOL TABLE:
20000000 l    d  .vectors	00000000 .vectors
00000000 l    d  .retention_reset	00000000 .retention_reset
00000100 l    d  .aes_data	00000000 .aes_data
00000200 l    d  .ram_code	00000000 .ram_code
20002460 l    d  .text	00000000 .text
200209ec l    d  .rodata	00000000 .rodata
00002408 l    d  .data	00000000 .data
000025d0 l    d  .sbss	00000000 .sbss
00002724 l    d  .bss	00000000 .bss
00000000 l    d  .comment	00000000 .comment
00000000 l    d  .riscv.attributes	00000000 .riscv.attributes
00000000 l    df *ABS*	00000000 ./platform/boot/b91/cstartup_b91.o
20000028 l       .vectors	00000000 _START
2000007e l       .vectors	00000000 _RETENTION_RESET_INIT
20000096 l       .vectors	00000000 _RETENTION_RESET_BEGIN
200000a8 l       .vectors	00000000 _ZERO_AES
200000bc l       .vectors	00000000 _ZERO_AES_BEGIN
200000c8 l       .vectors	00000000 _RAMCODE_INIT
200000e0 l       .vectors	00000000 _RAMCODE_INIT_BEGIN
200000f2 l       .vectors	00000000 _DATA_INIT
2000010a l       .vectors	00000000 _DATA_INIT_BEGIN
2000011c l       .vectors	00000000 _ZERO_BSS
20000130 l       .vectors	00000000 _ZERO_BSS_BEGIN
2000013c l       .vectors	00000000 _FILL_STK
2000013c l       .vectors	00000000 _MAIN_FUNC
20000152 l       .vectors	00000000 _END
00000022 l       .retention_reset	00000000 _ISTART
00000078 l       .retention_reset	00000000 _WAKEUP_FLASH
00000092 l       .retention_reset	00000000 _MSPI_WAIT
000000ac l       .retention_reset	00000000 _WAIT_EFUSE_LOAD_FINISH
000000b2 l       .retention_reset	00000000 _MULTI_ADDRESS_BEGIN
000000c2 l       .retention_reset	00000000 _IZERO_AES
000000d6 l       .retention_reset	00000000 _IZERO_AES_BEGIN
000000e2 l       .retention_reset	00000000 _IDATA_INIT
000000e2 l       .retention_reset	00000000 _IFILL_STK
000000e2 l       .retention_reset	00000000 _IMAIN_FUNC
000000f8 l       .retention_reset	00000000 _IEND
00000040 l       *ABS*	00000000 irqno
00000000 l    df *ABS*	00000000 
200024f0 l     F .text	00000012 ll_zllAttrClr
20002504 l     F .text	00000032 zcl_reportingEntryActiveNumGet.part.2
20002538 l     F .text	0000022c reportableChangeValueChk
20002768 l     F .text	00000072 zcl_findAttribute
200027dc l     F .text	000000a8 zcl_getAttrSize
20002884 l     F .text	0000002c zcl_analogDataType
200028b4 l     F .text	00000046 rf_edDetect
200028fc l     F .text	00000002 bdb_commssionUtilityCallback
20002900 l     F .text	000000a8 uart_dma_send
200029a8 l     F .text	00000022 hwTimerSet.part.0
200029cc l     F .text	00000038 drv_gpio_write
00000200 l     F .ram_code	00000004 default_irq_handler
00000200 l     F .ram_code	00000004 analog_irq_handler
00000200 l     F .ram_code	00000004 dma_irq_handler
00000200 l     F .ram_code	00000004 bmc_irq_handler
00000200 l     F .ram_code	00000004 usb_ctrl_ep_setup_irq_handler
00000200 l     F .ram_code	00000004 usb_ctrl_ep_data_irq_handler
00000200 l     F .ram_code	00000004 usb_ctrl_ep_status_irq_handler
00000200 l     F .ram_code	00000004 usb_ctrl_ep_setinf_irq_handler
00000200 l     F .ram_code	00000004 usb_endpoint_irq_handler
00000200 l     F .ram_code	00000004 rf_dm_irq_handler
00000200 l     F .ram_code	00000004 rf_ble_irq_handler
00000200 l     F .ram_code	00000004 rf_bt_irq_handler
00000200 l     F .ram_code	00000004 pwm_irq_handler
00000200 l     F .ram_code	00000004 pke_irq_handler
00000200 l     F .ram_code	00000004 uart1_irq_handler
00000200 l     F .ram_code	00000004 audio_irq_handler
00000200 l     F .ram_code	00000004 i2c_irq_handler
00000200 l     F .ram_code	00000004 hspi_irq_handler
00000200 l     F .ram_code	00000004 pspi_irq_handler
00000200 l     F .ram_code	00000004 usb_pwdn_irq_handler
00000200 l     F .ram_code	00000004 soft_irq_handler
00000200 l     F .ram_code	00000004 npe_bus0_irq_handler
00000200 l     F .ram_code	00000004 npe_bus1_irq_handler
00000200 l     F .ram_code	00000004 npe_bus2_irq_handler
00000200 l     F .ram_code	00000004 npe_bus3_irq_handler
00000200 l     F .ram_code	00000004 npe_bus4_irq_handler
00000200 l     F .ram_code	00000004 usb_250us_irq_handler
00000200 l     F .ram_code	00000004 usb_reset_irq_handler
00000200 l     F .ram_code	00000004 npe_bus7_irq_handler
00000200 l     F .ram_code	00000004 npe_bus8_irq_handler
00000200 l     F .ram_code	00000004 npe_bus13_irq_handler
00000200 l     F .ram_code	00000004 npe_bus14_irq_handler
00000200 l     F .ram_code	00000004 npe_bus15_irq_handler
00000200 l     F .ram_code	00000004 npe_bus17_irq_handler
00000200 l     F .ram_code	00000004 npe_bus21_irq_handler
00000200 l     F .ram_code	00000004 npe_bus22_irq_handler
00000200 l     F .ram_code	00000004 npe_bus23_irq_handler
00000200 l     F .ram_code	00000004 npe_bus24_irq_handler
00000200 l     F .ram_code	00000004 npe_bus25_irq_handler
00000200 l     F .ram_code	00000004 npe_bus26_irq_handler
00000200 l     F .ram_code	00000004 npe_bus27_irq_handler
00000200 l     F .ram_code	00000004 npe_bus28_irq_handler
00000200 l     F .ram_code	00000004 npe_bus29_irq_handler
00000200 l     F .ram_code	00000004 npe_bus30_irq_handler
00000200 l     F .ram_code	00000004 npe_bus31_irq_handler
00000200 l     F .ram_code	00000004 npe_comb_irq_handler
00000200 l     F .ram_code	00000004 pm_irq_handler
00000200 l     F .ram_code	00000004 eoc_irq_handler
00000204 l     F .ram_code	00000044 flash_send_addr
00000248 l     F .ram_code	00000048 flash_send_cmd
00000290 l     F .ram_code	00000074 flash_wait_done
20002a04 l     F .text	00000004 sampleLight_nwkUpdateIndicateHandler
20002a10 l     F .text	00000002 sampleLight_leaveIndHandler
20002a14 l     F .text	00000010 sampleLight_softReset
20002a28 l     F .text	00000002 zbdemo_bdbIdentifyCb
20002a2c l     F .text	000000c4 hwLight_colorUpdate_colorTemperature
20002af0 l     F .text	00000024 led_wink
20002b14 l     F .text	000000aa CFG_Default
20002bc0 l     F .text	000002ea button_ticks
20002eac l     F .text	0000000e read_button3_GPIO
20002ebc l     F .text	0000000e read_button2_GPIO
20002ecc l     F .text	0000000e read_button1_GPIO
20002edc l     F .text	00000018 zcl_zllTouchLinkStartNetworkStartOrJoinTimeout
20002f08 l     F .text	00000014 zcl_touchLinkIdentifyRequestDone
20002f20 l     F .text	00000050 zcl_touchLinkDevStartIndicate
20003350 l     F .text	000000f6 zcl_zllTouchLinkNetworkStartDirectJoin
20004650 l     F .text	000004b6 zcl_zllTouchLinkNetworkStartOrJoin
20002f70 l     F .text	0000001c bdb_task_delay
20006e20 l     F .text	00000544 bdb_task
20002f8c l     F .text	0000005e bdb_findBindIdentifyQueryTimeout
20003f04 l     F .text	000000a8 bdb_simpleDescReqSend
20002fec l     F .text	00000020 bdb_simpleDescReqTimeoutCb
2000300c l     F .text	00000054 sampleLight_bdbNetworkSteerStart
20003064 l     F .text	00000010 my_uartRcvHandler
20007728 l     F .text	00000c98 my_uart_data_handler
200030dc l     F .text	000000c2 zcl_zllTouchLinkDiscoverydone
200031a0 l     F .text	000000ea zcl_zllTouchLinkNetworkJoinRealjoin
2000328c l     F .text	00000084 zcl_zllTouchLinkStartRouteRequest
20003310 l     F .text	0000003c zcl_zllTouchLinkLeaveCnfCb
00000304 l     F .ram_code	00000010 plic_enter_critical_sec
20003448 l     F .text	00000082 rf_setChannel.part.1
00000314 l     F .ram_code	00000008 plic_exit_critical_sec
0000031c l     F .ram_code	000000cc flash_read_mid_ram
000003e8 l     F .ram_code	000000e4 flash_read_page_ram
000004cc l     F .ram_code	000000b0 flash_write_page_ram
0000057c l     F .ram_code	00000084 flash_erase_sector_ram
20002460 l     F .text	0000001c flash_erase_sector
00000600 l     F .ram_code	0000006c rf_tx_irq_handler
0000066c l     F .ram_code	0000040c rf_rx_irq_handler
200034cc l     F .text	00000074 rf_irq_handler
20003544 l     F .text	000000c6 bdb_touchLinkCallback
00000a78 l     F .ram_code	00000048 plic_isr.part.0
2000360c l     F .text	000000b2 my_set_gpio_level.part.2
20003ae0 l     F .text	000000b4 ev_unon_timer
20003bf0 l     F .text	00000088 bdb_topLevelCommissiongConfirm
20003cc4 l     F .text	000000aa bdb_retrieveTcLinkKeyTimeout
20003e88 l     F .text	0000007a bdb_retrieveTcLinkKeyStart
20003fac l     F .text	00000028 sampleLight_leaveCnfHandler
20003fd4 l     F .text	000000b8 zbdemo_bdbCommissioningCb
2000408c l     F .text	00000078 zbdemo_bdbInitCb
20004104 l     F .text	000000d4 BTN_LONG_PRESS_HOLD_Handler
20004f48 l     F .text	00000030 periodic_broadcast
20004320 l     F .text	00000128 uart0_irq_handler
20004b08 l     F .text	00000148 zcl_touchLinkScanStart
20004c54 l     F .text	000000ea bdb_commissioningFindBind
2000526c l     F .text	00000090 bdb_findBindIdentifyTimeout
20004d40 l     F .text	00000152 drv_hwTmr_irq_process
20004e94 l     F .text	0000002c stimer_irq_handler
20004ec0 l     F .text	0000001a timer1_irq_handler
20004edc l     F .text	0000001a timer0_irq_handler
20004ef8 l     F .text	0000004e my_data_broadcast
20004f78 l     F .text	0000002e BTN_DOUBLE_Click_Handler
20004fa8 l     F .text	0000002e BTN_SINGLE_Click_Handler
20004fd8 l     F .text	0000006c button_init
200050dc l     F .text	00000116 reportAttr
200052fc l     F .text	000000ae drv_uart_tx_start
200053ac l     F .text	00000048 afTest_rx_handler
20005428 l     F .text	0000020a tl_zbNwkZllCommissionScanConfirm
200057ac l     F .text	00000146 reportAttrTimerCb
200058f4 l     F .text	000000aa bdb_commissioningNetworkFormation
200059a0 l     F .text	000001b6 bdb_binding
20005b58 l     F .text	0000021a bdb_SimpleDescResp
20005d74 l     F .text	0000004a bdb_ieeeAddrResp
20005dc0 l     F .text	0000022a app_task
20006000 l     F .text	0000004a drv_gpio_irq_process
2000604c l     F .text	00000020 gpio_risc1_irq_handler
2000606c l     F .text	00000020 gpio_risc0_irq_handler
2000608c l     F .text	00000020 gpio_irq_handler
20006168 l     F .text	0000010a nv_index_read
20006318 l     F .text	00000022 zdo_ssInfoKeyGet
2000633c l     F .text	00000210 bdb_zdoStartDevCnf
20006cf8 l     F .text	00000126 bdb_commissioningInfoSave
20006740 l     F .text	000001e8 nv_write_item
20007364 l     F .text	0000005e bdb_mgmtPermitJoiningConfirm
200073c4 l     F .text	0000012e sampleLightSysException
200074f4 l     F .text	000001e4 my_set_pwm_run.part.5
200076dc l     F .text	0000002e my_set_pwm_restart
2000770c l     F .text	0000001a CFG_Save
2000848c l     F .text	00000022 hwLight_onOffUpdate
00002620 l     O .sbss	00000004 size_0_pool
00002624 l     O .sbss	00000004 size_1_pool
00002628 l     O .sbss	00000004 size_2_pool
0000262c l     O .sbss	00000004 size_3_pool
00002970 l     O .bss	000000c0 size_0_mem
00002a30 l     O .bss	000001e0 size_1_mem
00002c10 l     O .bss	000004c0 size_2_mem
000030d0 l     O .bss	00000400 size_3_mem
00002724 l     O .bss	00000010 T_DBG_testIrq
00002734 l     O .bss	00000028 btn1
0000275c l     O .bss	00000028 btn2
00002784 l     O .bss	00000028 btn3
000027ac l     O .bss	0000000e colorInfo
000027bc l     O .bss	0000002d g_bdbCtx
000027ec l     O .bss	00000019 g_config_st
00002808 l     O .bss	00000100 g_txQueue
00002908 l     O .bss	00000040 my_uartRxBuf
00002948 l     O .bss	0000000c rf_ack_buf
00002954 l     O .bss	0000001c secondTimer
00002408 l     O .data	00000012 g_bdbCommissionSetting
20020da4 l     O .rodata	00000010 touchLinkKeyMaster
0000241c l     O .data	00000010 g_zbDemoBdbCb
0000242c l     O .data	0000000e g_zcl_colorCtrlAttrs
0000243c l     O .data	00000009 myUartDriver
20020b58 l     O .rodata	000000ea CSWTCH.165
20020c44 l     O .rodata	00000028 appCbLst
20020c6c l     O .rodata	00000030 g_bdbAttrsDft
20020c9c l     O .rodata	00000028 g_zbMacEventFromNwkTbl
20020cc4 l     O .rodata	00000046 g_zbNwkEventFromHighTbl
20020d0c l     O .rodata	00000041 g_zbNwkEventFromMacTbl
20020d50 l     O .rodata	00000012 gpio_group
20020d64 l     O .rodata	00000010 pwm_group
20020d74 l     O .rodata	00000010 sampleLight_inClusterList
20020d84 l     O .rodata	00000000 sampleLight_outClusterList
20020d84 l     O .rodata	00000010 sampleLight_simpleDesc
20020d94 l     O .rodata	00000010 sampleTestDesc
000025a8 l     O .data	00000008 sampleTest_inClusterList
000025b0 l     O .data	00000008 sampleTest_outClusterList
20020dbc l     O .rodata	00000017 zdoCfgAttrDefault
20020dd4 l     O .rodata	0000000e zdoIncluster
20020de4 l     O .rodata	00000010 zdoOutCluster
20020df4 l     O .rodata	00000010 zdoSd
000025d0 l     O .sbss	00000008 BB_debug_buf
000025d8 l     O .sbss	00000004 BB_debug_cnt
000025dc l     O .sbss	00000008 T_DBG_bdbSta
000025e4 l     O .sbss	00000008 T_evtExcept
000025ec l     O .sbss	00000001 assocPermit.16670
000025f0 l     O .sbss	00000004 brc_broadcastEvt
000025f4 l     O .sbss	00000004 brc_winkEvt
000025f8 l     O .sbss	00000004 g_pm_status_info
000025fc l     O .sbss	00000004 g_sysExceptCallbak
00002600 l     O .sbss	00000004 gpioIrqHandlerQ_list
00002604 l     O .sbss	00000004 head_handle
00002608 l     O .sbss	00000001 last_state
0000260c l     O .sbss	00000004 pUartRxBuf
00002610 l     O .sbss	00000004 prevSysTick
00002614 l     O .sbss	00000004 remSysTick
00002618 l     O .sbss	00000004 reportAttrTimerEvt
0000261c l     O .sbss	00000004 rf_rxBuf
00002630 l     O .sbss	00000001 sta.16665
00002634 l     O .sbss	00000004 timerIdentifyCnt.16620
00002638 l     O .sbss	00000004 uartDrvTxBuf
0000263c l     O .sbss	00000004 uartRxBufLen
00002640 l     O .sbss	00000002 uart_dma_tx_chn
00002642 l     O .sbss	00000001 zcl_seqNum
0000253a l     O .data	00000002 LONG_TICKS
0000253c l     O .data	00000001 SHORT_TICKS
0000253d l     O .data	00000001 flash_cnt
00002540 l     O .data	00000008 g_nwkTouchlinkCb
00002548 l     O .data	00000004 touchLinkCb
0000254c l     O .data	00000008 uart_rx_dma_config
00002554 l     O .data	00000008 uart_tx_dma_config
00002590 l     O .data	00000008 bdb_touchlinkCb
00002598 l     O .data	00000008 g_touchlinkAttrDft
000025a0 l     O .data	00000004 rf_rx_dma_config
000025a4 l     O .data	00000004 rf_tx_dma_config
00000000 l    df *ABS*	00000000 
20009fbc l     F .text	00000088 nwkBrcMsgAddSender
2000a080 l     F .text	00000010 nwkMsgSendCbDelay
2000a094 l     F .text	0000004c tl_zbMacIndirectDataTimerStart
2000b7bc l     F .text	000000c6 tl_zbNwkLinkStatusTimerEvtCb
2000a140 l     F .text	00000030 buf_type_get
000015f0 l     F .ram_code	000000e4 tl_zbTaskQPush
2000a618 l     F .text	00000070 tl_zbMacStartReqConfirm
2000a8b8 l     F .text	00000172 mac_csmaStart
2000aa48 l     F .text	00000038 mac_waitTxIrqCb
2000aa2c l     F .text	0000001c mac_ackWaitingTimerCb
2000aa84 l     F .text	0000003a tl_zbSwitchOffRx
2000daa4 l     F .text	00000014 mac_trigger_tx
2000aac0 l     F .text	00000014 tl_zbWaitForPendingDataTimeout
2000aad8 l     F .text	000000a6 tl_zbMacMcpsDataRequestSendConfirm
2000ab80 l     F .text	00000032 nwkBrcTransTabEntryRst
2000abb4 l     F .text	0000002c nwkBrcTransTabEntryClear
2000ae30 l     F .text	00000096 tl_zbMlmeCmdCoordRealignRecvd
2000aec8 l     F .text	000000fa macDataPending
2000afc4 l     F .text	0000005a tl_zbWaitForAssociationRespTimeout
2000b268 l     F .text	000000ba nwkBrcTimerStart
2000b884 l     F .text	000000c0 nwkHdrParse
2000bdd8 l     F .text	00000028 tl_zbMlmeCmdOrphanNotifyRecvd
2000be00 l     F .text	000000b8 tl_zbMlmeCmdAssociateRespRecvd
2000bebc l     F .text	0000002c tl_zbMlmeCmdAssociateReqRecvd
2000beec l     F .text	000000c2 tl_zbMacHdrParse
2000bfb0 l     F .text	0000034e mac_rxDataParse
2000c300 l     F .text	0000005c tl_zbMacCommStatusSend
2000c360 l     F .text	000000c0 tl_zbMacHdrBuilder
2000c424 l     F .text	0000011e tl_zbMacBeaconRequestCb.part.0
2000da74 l     F .text	0000002e tl_zbMacPacketDelaySend
2000c544 l     F .text	00000052 tl_zbMlmeCmdBeaconReqRecvd
2000c598 l     F .text	00000242 tl_zbMaxTxConfirmCb
2000dfe4 l     F .text	000000c0 tl_zbReadyToPullParentForAssoRsp
2000c7dc l     F .text	00000144 mac_sendTxCnf
2000dab8 l     F .text	00000040 macDataPendingListProc
2000cca8 l     F .text	00000026 mac_trigger_tx.part.2
2000ccd0 l     F .text	000000b8 tl_zbMacTx
2000cdf8 l     F .text	000002d0 tl_zbMacScanRunning
2000d1f4 l     F .text	0000011c tl_zbMacMlmeDataRequestCmdSend
2000db88 l     F .text	00000116 tl_zbMacMlmeCoordRealignmentCmdSend
2000dfbc l     F .text	00000024 tl_zbMlmeCmdDisassociateNotifyRecvd
20010a3c l     F .text	00000158 tl_zbMlmeCmdDataReqRecvd
00003508 l     O .bss	000000f0 g_brcTransTab
000035f8 l     O .bss	00000013 g_macScanParam
00003908 l     O .bss	00000084 rf_tx_buf
20021188 l     O .rodata	00000023 g_zbMacMlmeEventFromPhyTbl
200211ac l     O .rodata	00000090 g_zdpClientFunc
2002123c l     O .rodata	0000004c macPibDefault
20021288 l     O .rodata	00000010 nwkKeyDefault
20021298 l     O .rodata	0000003c nwkNibDefault
00002643 l     O .sbss	00000001 T_DBG_decFrameCnt
00002644 l     O .sbss	00000001 T_DBG_linkStatus
00002648 l     O .sbss	00000004 T_DBG_taskQPop_cb
0000264c l     O .sbss	00000004 T_DBG_taskQPop_data
00002650 l     O .sbss	00000001 T_DBG_taskQPop_idx
00002654 l     O .sbss	00000004 T_DBG_taskQPush_cb
00002658 l     O .sbss	00000004 T_DBG_taskQPush_data
0000265c l     O .sbss	00000001 T_DBG_taskQPush_idx
00002660 l     O .sbss	00000002 T_exceptTaskPost
00002664 l     O .sbss	00000004 T_zbBufDbg
00002668 l     O .sbss	00000004 T_zbBufFreeDbg
0000266c l     O .sbss	00000004 associationReqOrigBuffer
00002670 l     O .sbss	00000001 g_brcTransTabCnt
0000267c l     O .sbss	00000004 pNebEntry.13563
00002682 l     O .sbss	00000001 scanReqProfileInterop
00002683 l     O .sbss	00000001 soft_rssi
0000268c l     O .sbss	00000001 tx_fifo_rptr
0000268d l     O .sbss	00000001 tx_fifo_wptr
0000255c l     O .data	00000004 chan.13424
00002564 l     O .data	00000004 edChan.13426
00002568 l     O .data	00000004 g_brcTransJitter
000025b8 l     O .data	00000003 startIEEEAddr
00000000 l    df *ABS*	00000000 
2001ad7c l     F .text	00000094 zdo_cluster_list_match_process.constprop.3
000018ac l     F .ram_code	00000040 rf_set_rxmode
000018ec l     F .ram_code	00000060 clock_set_32k_tick
2001ae10 l     F .text	00000088 aes_set_key_data
2001aefc l     F .text	0000003e analog_read_reg32.constprop.88
0000194c l     F .ram_code	00000030 clock_get_32k_tick
2001f688 l     F .text	00000298 zdo_ieeeAddrReqDelayCb
2001f924 l     F .text	000002e4 zdo_nwkAddrReqDelayCb
2001afc4 l     F .text	00000018 zdoMgmtLeaveCmdProcessCb
2001afe0 l     F .text	00000038 zdo_start_ed_scan
2001b01c l     F .text	00000004 gpSecReqSend
2001d58c l     F .text	00000594 dGp_dataInd
2001b190 l     F .text	00000036 zdo_change_channel_cb
2001b2c4 l     F .text	0000005a zdo_auth_check_timer_cb
2001fc08 l     F .text	000001a6 zdo_parentAnnounceIndicateDelay
00001dbc l     F .ram_code	00000170 pm_sleep_start
2001d328 l     F .text	00000032 zb_factoryResetNotify
2001d35c l     F .text	0000022c gpDeviceAnnounceCkeckCb
2001ff9c l     F .text	00000038 gpAliasConflictTimeoutCb
2001db24 l     F .text	0000009e cGp_dataReq
2001dfdc l     F .text	000000a8 zdo_bind_unbind_req.constprop.2
2001e088 l     F .text	0000019c zdo_bind_unbind_after_toggle.isra.0
2001e224 l     F .text	0000002a zdo_bind_toggle_cb
2001e260 l     F .text	0000000e zdo_end_device_unbind_cb
2001e250 l     F .text	0000000e zdo_end_device_bind_cb
2001e270 l     F .text	000000f8 zdo_bind_toggle_action
2001ebbc l     F .text	00000052 zdo_end_device_bind_resp_send
2001edf4 l     F .text	00000062 zdo_end_device_bind_timeout_cb
2001fdb0 l     F .text	00000152 apsParentAnncePeriodic
2001ff04 l     F .text	00000094 zdo_devAnnce
00000100 l     O .aes_data	00000020 aes_data_buff
00006378 l     O .bss	00000032 ed_binding_ctx
00006400 l     O .bss	0000001c g_gpDataIndSecReqTab
0000641c l     O .bss	00000146 g_gpProxyTab
00006f70 l     O .bss	00000028 g_ssDevKeyPair
00007640 l     O .bss	00000009 zdo_nur
00002494 l     O .data	00000017 g_gpCtx
000024bc l     O .data	00000029 pmcd
2002134c l     O .rodata	0000001e rf_power_Level_list
2002136c l     O .rodata	00000028 timeoutsCb
000026d0 l     O .sbss	00000004 ent.13806
000026d8 l     O .sbss	00000001 g_pm_long_suspend
000026e0 l     O .sbss	00000004 g_pm_tick_32k_calib
000026e4 l     O .sbss	00000004 g_pm_tick_32k_cur
000026e8 l     O .sbss	00000004 g_pm_tick_cur
000026f8 l     O .sbss	00000001 g_single_tong_freqoffset
000026fc l     O .sbss	00000006 gpTxQueue
0000270c l     O .sbss	00000001 remainChildListNum.13807
0000271c l     O .sbss	00000004 zdo_bind_timer_event
00002721 l     O .sbss	00000001 zdpCblWptr
00002722 l     O .sbss	00000001 zdp_txSeqNo
00002572 l     O .data	00000001 dGpStubHandle
00002574 l     O .data	00000008 g_pm_early_wakeup_time_us
0000257c l     O .data	00000004 g_pm_r_delay_cycle
000025cc l     O .data	00000002 pdt
00000000 l    df *ABS*	00000000 
20012028 l     F .text	00000002 endDevTimeoutReq
200120f8 l     F .text	00000044 nwkRoutingTabGetNextHop
20012140 l     F .text	0000001e nwk_permitJoinTimeout
20012160 l     F .text	00000048 nwkTxDataPendTabEntryRtDiscFind
20012288 l     F .text	00000020 zdo_reset_confirm_cb
200122a8 l     F .text	00000054 aps_process_group_addressed_packet
200162ac l     F .text	00000138 aps_deliver_group_msg
200122fc l     F .text	00000004 aps_route_discovery_confirm
20012498 l     F .text	00000028 pollRateCb
200124c0 l     F .text	00000078 tl_zbNwkPanidConflictSetPanidCb
20012630 l     F .text	0000004e ss_zdoInsecureRejoin
20012680 l     F .text	00000034 tl_zbNwkPanidConflictDoubleCheck
200135a0 l     F .text	000000c4 apsDataFragmentRcvWinClear.part.2
20013668 l     F .text	00000050 aps_txCacheAsNoShortAddr
20015998 l     F .text	00000086 aps_nwk_addr_req_cb
200136bc l     F .text	000000a2 aps_data_fragment_process_timeout
20013760 l     F .text	000000e8 aps_indPrimBuild
2001384c l     F .text	000000fc aps_hdr_parse
20013b84 l     F .text	00000034 ss_devKeyPairTimeoutCb
20013e04 l     F .text	0000005a nwkRouteDiscTabEntryClear.part.0
20013eb0 l     F .text	0000008e nwkDiscDataPendClear
20014888 l     F .text	00000068 ss_zdoRemoveDeviceIndHandle
20014928 l     F .text	00000100 ss_devKeyPairFind
20014a2c l     F .text	00000204 nwkConcentDiscTimerCb
20014c30 l     F .text	000000fc tl_zbNwkParentChoose
20016578 l     F .text	000005a0 aps_data_request
2001595c l     F .text	0000003c aps_data_fragment_delay
20015218 l     F .text	0000012e apsTxDataPost
20015348 l     F .text	000000c2 aps_conf
2001540c l     F .text	000002c4 aps_txCacheConfirm
200156d4 l     F .text	00000130 apsTxDataSendStart
20015804 l     F .text	000000cc apsTxEventPost
200158d0 l     F .text	0000008a apsDataFragmentReSend.part.10
200176fc l     F .text	00000f0e aps_data_indication_process
20015d48 l     F .text	000003ee ss_zdoTransportKeyIndHandle
20016f2c l     F .text	00000142 ss_apsmeVerifyKeyReq
20016138 l     F .text	00000172 apsRcvingWindowHandling
200163e4 l     F .text	00000192 ss_apsSecureFrame
20016b18 l     F .text	000000b6 bindingTxBack
20016bd0 l     F .text	0000035a aps_cmd_send
20017320 l     F .text	0000006a ss_apsmeUpdateDevReqSend
200173f4 l     F .text	00000014 updateDeviceSendAgain
200174dc l     F .text	0000021e aps_ack_send
20018700 l     F .text	000000f4 nwkRouteReqInitialRetry
200189c8 l     F .text	000004be nwkRouteDiscStart
2001a954 l     F .text	000000e0 nwkLeaveReqSend
2001ab64 l     F .text	000000fe nwkLeaveReqStart
00003b60 l     O .bss	00000010 T_DBG_fgmt
00003b70 l     O .bss	0000000a aps_group_q
00003f08 l     O .bss	0000005a g_apsDataFragmentRcvWin
00003f64 l     O .bss	000001c1 g_apsTxCache
00005e7c l     O .bss	0000000d g_panIdConflictDected
2002131c l     O .rodata	00000010 g_null_securityKey
00002690 l     O .sbss	00000008 T_DBG_fgmtBlk
00002698 l     O .sbss	00000008 T_DBG_fgmtCnf
000026a0 l     O .sbss	00000001 T_DBG_fgmtTout
000026a1 l     O .sbss	00000001 apsDupliateCheckFlag
000026a4 l     O .sbss	00000004 concentratorDiscoveryTimer
000026a8 l     O .sbss	00000001 deviceInfoRsp
000026aa l     O .sbss	00000002 dstPanID
000026ad l     O .sbss	00000001 g_routeReqId
000026ae l     O .sbss	00000001 g_txDataPendTabCnt
000026b4 l     O .sbss	00000004 permitJoinTimerEvt
00002570 l     O .data	00000002 unknowEndDevAddr.13617
2001b9dc g     F .text	0000007a .hidden rf_set_power_level_index
20013020 g     F .text	00000054 .hidden tl_zbNeighborTableChildEDNumGet
00000c60 g     F .ram_code	0000001c entry_irq55
000012d4 g     F .ram_code	00000018 entry_irq13
2001253c g     F .text	000000f4 .hidden tl_zbNlmeRejoinRespTimeoutCb
00001210 g     F .ram_code	000000ac entry_irq15
200045ec g     F .text	00000060 .hidden touchlink_discovery_network.lto_priv.165
00000ea0 g     F .ram_code	000000ac entry_irq27
2001f40c g     F .text	0000027a .hidden zdo_descriptorsIndicate
00000bd4 g     F .ram_code	0000001c entry_irq60
2001b024 g     F .text	00000040 .hidden cGp_dataCnf
20018f30 g     F .text	00000098 .hidden nwkTxDataCachePacketCopy.part.1
00001ab4 g     F .ram_code	0000009c .hidden pm_stimer_recover
20019248 g     F .text	000001ea .hidden tl_zbNeighborTableInit
2000a334 g     F .text	00000050 .hidden getNwkHdrSize
0000151c g     F .ram_code	000000ac entry_irq1
20019b6c g     F .text	000006ce .hidden nwk_fwdPacket
00000cb4 g     F .ram_code	0000001c entry_irq52
00000cec g     F .ram_code	0000001c entry_irq50
20012e6c g     F .text	00000032 .hidden tl_zbNeighborEntryGetFromIdx
000026b0 g     O .sbss	00000004 .hidden panidConflictTimerEvt
00000b9c g     F .ram_code	0000001c entry_irq62
2001a3a0 g     F .text	000005b2 .hidden tl_zbMacMlmeBeaconNotifyIndicationHandler
00002c08 g       .data	00000000 __global_pointer$
2001dbc4 g     F .text	000001f2 .hidden af_dataSend
2001ccdc g     F .text	00000164 .hidden aes_ccmBaseTran.constprop.25
000026f0 g     O .sbss	00000004 .hidden g_rnd_m_z
20013bbc g     F .text	0000011e .hidden tl_cryHashFunction
00000c0c g     F .ram_code	0000001c entry_irq58
2001ce44 g     F .text	0000030a .hidden aes_ccmAuthTran.constprop.24
00003618 g     O .bss	00000294 .hidden g_zbTaskQ
2001b078 g     F .text	00000040 .hidden zdo_nlme_sync_confirm
2000dd44 g     F .text	00000094 .hidden tl_zbMacOrphanResponseHandler
2001ddb8 g     F .text	000000b2 .hidden zcl_sendCmd.constprop.84
2000e510 g     F .text	00000116 .hidden tl_zbMacMlmeStartConfirmHandler
2001233c g     F .text	0000008c .hidden tl_zbNwkNlmeStartRouterRequestHandler
20012264 g     F .text	00000020 .hidden zdo_nlme_ed_scan_confirm
00003b7c g     O .bss	000000e0 .hidden aps_group_tbl
2000391c g     F .text	0000005e .hidden af_clsuterIdMatched
2000247c g     F .text	0000001c .hidden flash_read_page
20013cdc g     F .text	00000046 .hidden nwkRoutingTabEntryDstDel
20012728 g     F .text	0000003c .hidden zdo_nwk_disc_req_send.lto_priv.180
2000a29c g     F .text	00000026 .hidden tl_zbExtAddrPtrByShortAddr
20003a48 g     F .text	00000070 .hidden ev_buf_allocate
20012bd8 g     F .text	00000026 .hidden nwkRoutingTabEntryDstFind
2002133c g     O .rodata	00000010 .hidden tcLinkKeyCentralDefault
00002588 g     O .data	00000006 .hidden sys_clk
20012ac8 g     F .text	0000006e .hidden ss_ccmEncryption
200131e8 g     F .text	00000038 .hidden tl_zbNeighborTableNumGet
20014f8c g     F .text	00000138 .hidden apsDataRequest
200041dc g     F .text	000000d8 .hidden ev_buf_free
00002718 g     O .sbss	00000004 .hidden zdoAppIndCbLst
20012d24 g     F .text	00000028 .hidden nwkRouteReqDstChk.part.1
20012dc4 g     F .text	0000003c .hidden tl_zbNeighborTableSearchFromExtAddr
20014180 g     F .text	000000e0 .hidden nwkNebManagePeriodic
2001738c g     F .text	00000066 .hidden ss_apsmeUpdateDevReq
20020618 g     F .text	0000004a .hidden zdo_nlme_network_discovery_confirm_cb
2001ae98 g     F .text	00000060 .hidden secondClockPeriodic
2000dca0 g     F .text	000000a0 .hidden tl_zbMacStartRequestHandler
00001800 g     F .ram_code	000000aa .hidden zb_macDataRecvHander
2000e628 g     F .text	0000028e .hidden zdp_rxDataIndication.lto_priv.172
2001e4f8 g     F .text	000001b2 .hidden zdo_mgmtLqiIndictate
2001b1f8 g     F .text	00000004 .hidden zdo_network_formation_confirm
0000398c g     O .bss	00000102 .hidden taskQ_user
00000000 g       .retention_reset	00000000 _RETENTION_RESET_VMA_START
00006234 g     O .bss	00000124 .hidden aps_binding_tbl
2001ee58 g     F .text	000000a2 .hidden zdo_bindOrUnbindIndicate
0000131c g     F .ram_code	00000018 entry_irq10
20018fc8 g     F .text	0000027e .hidden tl_zbNeighborTableUpdate
20006ce0 g     F .text	00000016 .hidden zdo_ssInfoSaveToFlash
000010ec g     F .ram_code	00000018 entry_irq21
20006274 g     F .text	000000a2 .hidden nv_flashReadNew
20003b94 g     F .text	0000002c .hidden ev_timer_taskCancel
2001b680 g     F .text	0000003c .hidden nv_itemDeleteByIndex.constprop.58
00000100 g       .aes_data	00000000 _AES_VMA_START
2002132c g     O .rodata	00000010 .hidden linkKeyDistributedMaster
20012c74 g     F .text	00000026 .hidden tl_zbNwkPanidConflictSetPanidStart.part.3
00007108 g     O .bss	0000045c .hidden g_zb_neighborTbl
00000d0c g     F .ram_code	00000004 entry_irq48
2000ac50 g     F .text	00000066 .hidden tl_zbNwkAddrMapRst
20015b64 g     F .text	000001e2 .hidden aps_nwk_data_indication_cb
20003850 g     F .text	00000022 .hidden tl_bdbAttrInit
00003a90 g     O .bss	000000ce .hidden zcl_vars
2000ddd8 g     F .text	000000be .hidden tl_zbMacAssociateResponseHandler
0000134c g     F .ram_code	00000018 entry_irq8
2000d514 g     F .text	000002c6 .hidden nwk_tx
2001c8c8 g     F .text	000002ee .hidden zdo_nlme_leave_indication_cb
00000e08 g     F .ram_code	0000001c entry_irq33
2001ac64 g     F .text	00000116 .hidden tl_zbNwkNlmeLeaveRequestHandler
20002ef4 g     F .text	00000014 .hidden zcl_zllTouchLinkNetwokJoinResponseHandler
00007670 g       .bss	00000000 _BSS_VMA_END
20005088 g     F .text	00000052 memcpy
2001c258 g     F .text	0000054a .hidden zdo_apsmeBindUnBind
20000158 g       *ABS*	00000000 _RETENTION_RESET_LMA_START
000063ac g     O .bss	00000023 .hidden gLightCtx
2000e8b8 g     F .text	00000054 .hidden tl_zbShortAddrByExtAddr
2001ec10 g     F .text	000001e4 .hidden zdo_endDeviceBindIndicate
2001b798 g     F .text	0000005a .hidden uart_is_prime.lto_priv.181
2000e308 g     F .text	00000054 .hidden tl_idxByExtAddr
00002708 g     O .sbss	00000004 .hidden macPendingQueue_list.lto_priv.160
000012ec g     F .ram_code	00000018 entry_irq12
2000b134 g     F .text	00000118 .hidden zcl_zllTouchLinkFinish
20003dec g     F .text	00000098 .hidden ev_timer_taskPost
20012e04 g     F .text	00000068 .hidden tl_zbMacMlmeOrphanIndicationHandler
20013fbc g     F .text	000001c2 .hidden nwkRouteDiscPeriodic
20012ce0 g     F .text	00000042 .hidden nwk_neTblGetByShortAddr
00006f98 g     O .bss	0000005b .hidden g_sysDiags
200197a4 g     F .text	000001aa .hidden tl_zbMacMlmeAssociateConfirmHandler
2000d314 g     F .text	00000082 .hidden tl_zbMacPollRequestHandler
000012bc g     F .ram_code	00000018 entry_irq14
20004578 g     F .text	00000072 .hidden zcl_zllTouchLinkNetworkStartOrJoinNwkLeave.lto_priv.158
2001be74 g     F .text	00000032 .hidden zb_routerStart
2001b600 g     F .text	0000007c .hidden light_blink_start.constprop.80
2000c920 g     F .text	00000386 .hidden mac_trxTask.lto_priv.178
200123cc g     F .text	000000ac .hidden tl_zbNwkNlmeNetworkFormationRequestHandler
2000a394 g     F .text	000000c4 .hidden tl_zbTaskQPop
20012c9c g     F .text	00000042 .hidden nwk_neTblGetByExtAddr
2000a258 g     F .text	00000042 .hidden tl_idxByShortAddr
20012d50 g     F .text	00000032 .hidden nwkVaildNeighborToFwd
00001504 g     F .ram_code	00000018 entry_irq2
00000cd0 g     F .ram_code	0000001c entry_irq51
20005634 g     F .text	00000176 .hidden zcl_zllTouchLinkIdentifyRequest.lto_priv.157
2001b068 g     F .text	00000004 .hidden zdo_permit_join_confirm
2001bdb0 g     F .text	00000048 .hidden aes_decrypt
20014d30 g     F .text	000001b8 .hidden tl_zbNwkRejoinScanConfirm
00000e88 g     F .ram_code	00000018 entry_irq28
2001efa4 g     F .text	00000356 .hidden zdo_matchDescriptorIndicate
0000256c g     O .data	00000004 .hidden g_u32MacFlashAddr
00000d50 g     F .ram_code	0000001c entry_irq43
2001ccc4 g     F .text	00000016 .hidden zdo_nwk_rejoin_req.constprop.76
000034d0 g     O .bss	00000020 .hidden ev_buf_vs
20013e60 g     F .text	00000050 .hidden nwkTxDataPendTabEntryClear
20014484 g     F .text	000000ea .hidden tl_zbNwkNlmePermitJoiningRequestHandler
0000199c g     F .ram_code	000000b8 .hidden tl_zbMacPendingDataCheck.constprop.63
2001a23c g     F .text	00000162 .hidden tl_zbNwkUpdateForPanidConflict.lto_priv.162
20015ab4 g     F .text	000000ae .hidden aps_nwk_data_confirm_cb
00001104 g     F .ram_code	00000018 entry_irq20
2001348c g     F .text	00000114 .hidden zdo_selfLeaveProcess.lto_priv.148
00002710 g     O .sbss	00000004 .hidden uart_dma_rev_size.lto_priv.170
20014570 g     F .text	000000ce .hidden tl_zbMacMlmeCommStatusIndicationHandler
2001e6ac g     F .text	000001b2 .hidden zdo_mgmtBindIndicate
20012c44 g     F .text	0000002e .hidden nwkRoutingTabEntryDstActiveGet
000025d0 g       .sbss	00000000 _BSS_VMA_START
00000b80 g     F .ram_code	0000001c entry_irq63
000025ce g       .data	00000000 _DATA_VMA_END
2000397c g     F .text	0000006e .hidden af_nodeDescriptorCopy
2000dafc g     F .text	0000008c .hidden macIndirPeriodic
00007630 g     O .bss	00000010 .hidden zdo_epDesc.lto_priv.174
00000d14 g     F .ram_code	0000001c entry_irq46
2000a69c g     F .text	0000008c .hidden tl_zbTaskPost
20019434 g     F .text	0000004e .hidden tl_zbMacMlmeResetConfirmHandler
200127bc g     F .text	0000004a .hidden bindDstAddrUsedMaskGet
00000e40 g     F .ram_code	00000018 entry_irq31
2001b1c8 g     F .text	00000030 .hidden zdo_nlme_start_router_confirm
000011f8 g     F .ram_code	00000018 entry_irq16
00002580 g     O .data	00000007 .hidden g_zcl_onOffAttrs
200104ac g     F .text	0000058e .hidden tl_zbMacMlmeScanConfirmHandler
00100000 g       *ABS*	00000000 FLASH_SIZE
200060e4 g     F .text	00000082 .hidden nv_flashReadByIndex
00002408 g       .data	00000000 _DATA_VMA_START
000026c4 g     O .sbss	00000004 .hidden addrConflictHandleTimer
2001c0e4 g     F .text	00000172 .hidden af_aps_data_entry
000034f0 g     O .bss	00000018 .hidden ev_poll
00000c98 g     F .ram_code	0000001c entry_irq53
00001304 g     F .ram_code	00000018 entry_irq11
20003874 g     F .text	000000a6 .hidden aps_group_search_by_addr
000026f4 g     O .sbss	00000004 .hidden g_secondCnt
2000d7dc g     F .text	000001d4 .hidden tl_zbNwkNldeDataRequestHandler
000000fc g       .retention_reset	00000000 _RETENTION_RESET_VMA_END
20006610 g     F .text	0000012e .hidden nv_nwkFrameCountSaveToFlash
200147d8 g     F .text	000000ae .hidden ss_securityModeSet
20020234 g     F .text	0000017c .hidden zdp_data_send
2000a128 g     F .text	00000016 .hidden zb_info_save
20012f1c g     F .text	00000090 .hidden tl_zbMacMlmePollConfirmHandler
00002560 g     O .data	00000004 .hidden cnt_rssi
0000270d g     O .sbss	00000001 .hidden s_rf_trxstate.lto_priv.166
2000e0a8 g     F .text	0000007c .hidden zb_nwkKeySet
00000ac0 g     F .ram_code	000000c0 .hidden rf_setTrxState
00002720 g     O .sbss	00000001 .hidden zdo_mgmt_nwk_flag
000024ac g     O .data	0000000d .hidden ndt.lto_priv.152
00001394 g     F .ram_code	00000018 entry_irq5
00002680 g     O .sbss	00000001 .hidden rfMode
2000acb8 g     F .text	00000042 .hidden tl_zbNwkNibInit.part.1
000010bc g     F .ram_code	00000018 entry_irq23
200042b8 g     F .text	00000066 .hidden zcl_zllTouchLinkNetworkStartResponseHandler
2000d398 g     F .text	00000178 .hidden tl_zbMacMcpsDataRequestProc
20012b38 g     F .text	0000009e .hidden ss_nwkKeyStore
20002498 g     F .text	00000056 .hidden flash_write_page
00000dec g     F .ram_code	0000001c entry_irq34
200051f4 g     F .text	00000076 .hidden bdb_nodeDescRespHandler.lto_priv.143
2000b33c g     F .text	0000004c .hidden tl_zbExtAddrByShortAddr
20014338 g     F .text	00000074 .hidden tl_zbNwkNlmeResetRequestHandler
2001b6bc g     F .text	00000032 .hidden zdo_nlme_permit_join.constprop.49
20006928 g     F .text	000003b8 .hidden nv_flashWriteNew
20010f14 g     F .text	00001114 .hidden zcl_touchLinkCmdHandler
20003834 g     F .text	00000004 .hidden rf_setTxPower
00000db4 g     F .ram_code	0000001c entry_irq36
000026ac g     O .sbss	00000001 .hidden g_routeDiscTabCnt
20020780 g     F .text	0000026a .hidden zdo_nlme_join_indication
00000d34 g     F .ram_code	0000001c entry_irq44
000026b8 g     O .sbss	00000001 .hidden pullCnt.lto_priv.155
000038fc g     O .bss	0000000c .hidden mac_trx_vars.lto_priv.167
200203b0 g     F .text	00000064 .hidden zb_mgmtPermitJoinReq.constprop.48
2000b324 g     F .text	00000016 .hidden tl_zbExtAddrByIdx
00000d30 g     F .ram_code	00000004 entry_irq45
200083c0 g     F .text	00000026 .hidden hwLight_onOffUpdate.part.2
20012a44 g     F .text	00000082 .hidden ss_ccmDecryption
00000f4c g     F .ram_code	000000ac entry_irq26
2001af9c g     F .text	00000012 .hidden zdo_ieeeAddrIndicate
2000b3e0 g     F .text	000003dc .hidden tl_zbNwkSendLinkStatus
200148f4 g     F .text	00000030 .hidden ss_securityModeIsDistributed
2000b020 g     F .text	00000022 .hidden zb_buf_clear
200083e8 g     F .text	000000a2 .hidden light_blink_TimerEvtCb
20019640 g     F .text	00000072 .hidden tl_zbMacMlmeAssociateIndicationHandler
20012d84 g     F .text	0000003c .hidden tl_zbNeighborTableSearchFromShortAddr
2001bfe8 g     F .text	00000074 .hidden nwkReportCmdSend.constprop.17
0000197c g     F .ram_code	00000020 .hidden delay_ms.constprop.85
200121a8 g     F .text	000000bc .hidden zdo_rejoin_backOff_cb.lto_priv.147
20013220 g     F .text	00000036 .hidden tl_zbNwkJoinCnfSend.lto_priv.161
00000d88 g     F .ram_code	00000004 entry_irq41
2001bea8 g     F .text	00000066 .hidden bdb_nwkTimeBtwnScansGet.lto_priv.179
000026c9 g     O .sbss	00000001 .hidden available_active_ep_num.lto_priv.153
2001aa38 g     F .text	0000012a .hidden tl_zbMacMlmePollIndicationHandler
00000bb8 g     F .ram_code	0000001c entry_irq61
20013078 g     F .text	0000016c .hidden tl_zbNeighborTableDelete
00007564 g     O .bss	0000001b .hidden g_zdo_nwk_manager
20000000 g       .vectors	00000000 BIN_BEGIN
2001b320 g     F .text	00000128 .hidden nv_nwkFrameCountSearch.constprop.142
2001cbb8 g     F .text	0000010a .hidden zdo_nwk_rejoin_req.part.4.constprop.77
2000a044 g     F .text	0000003c .hidden nwkMsgSendCb
2000654c g     F .text	000000c2 .hidden nv_resetToFactoryNew
00002704 g     O .sbss	00000004 .hidden linkStTimer
000026cc g     O .sbss	00000004 .hidden conflictInfo
2001b828 g     F .text	000001b2 .hidden zdo_nlme_join_confirm
2000e910 g     F .text	00001a12 .hidden tl_zbMacMcpsDataIndicationHandler
000024e8 g     O .data	00000051 .hidden ss_ib
20013d24 g     F .text	000000e0 .hidden nwkRoutingTabEntryCreate
00002674 g     O .sbss	00000004 .hidden g_pTxQueue
00000d94 g     F .ram_code	00000004 entry_irq38
20014640 g     F .text	000000c2 .hidden aps_me_find_dst_ref
00001f2c g     F .ram_code	0000031e .hidden pm_sleep_wakeup.constprop.87
2001c05c g     F .text	00000086 .hidden zb_nlmeLeaveReq
20015a20 g     F .text	00000092 .hidden apsAckPeriodic
20014ee8 g     F .text	000000a4 .hidden nwkEndDevTimeoutInfoNVStore
2000acfc g     F .text	00000132 .hidden tl_zbNwkInit
000025c4 g     O .data	00000008 .hidden g_zero_addr
2000e128 g     F .text	0000011e .hidden nwk_nodeAddrInfoDelete
00002300 g       .ram_code	00000000 __vectors
2000de98 g     F .text	00000124 .hidden tl_zbMacAssociateRequestHandler
00021566 g       *ABS*	00000000 BIN_SIZE
2001b070 g     F .text	00000004 .hidden zdo_nlme_direct_join_confirm
20010b94 g     F .text	00000132 .hidden tl_zbMacDisassociateRequestHandler
20018e88 g     F .text	000000a6 .hidden tl_zbNwkNlmeRouteDiscRequestHandler
20017070 g     F .text	000002ac .hidden ss_apsmeTransportKeyReq
200128ac g     F .text	00000004 .hidden nwkEndDevTimeoutRspCnfHandler
2001af3c g     F .text	0000005e .hidden af_dataCnfHandler
2001b0bc g     F .text	000000d4 .hidden cGp_mcpsDataInd
00005e70 g     O .bss	0000000c .hidden g_nwkUpLayerCb
2000b388 g     F .text	00000054 .hidden tl_zbNwkStochasticAddrCal
20019950 g     F .text	00000218 .hidden tl_zbNwkNlmeJoinRequestHandler
00000000 g       *ABS*	00000000 __FW_OFFSET
20000258 g       *ABS*	00000000 _RAMCODE_LMA_START
20003078 g     F .text	00000064 .hidden zcl_zllTouchLinkDeviceInformationRequest
2001e860 g     F .text	00000196 .hidden zdo_mgmNwkUpdateIndicate
2000a0e4 g     F .text	00000042 .hidden nwk_linkStPeriodic
20003d70 g     F .text	00000078 .hidden ev_on_timer
00003c5c g     O .bss	000002ac .hidden ev_timer
00000bf0 g     F .ram_code	0000001c entry_irq59
20005048 g     F .text	0000003e bcopy
200053f4 g     F .text	00000032 memcmp
2000b250 g     F .text	00000018 .hidden zcl_zllTouchLinkTimeout
2001bf80 g     F .text	00000064 .hidden nwkRouteReqCmdSend.constprop.20
0000764c g     O .bss	00000020 .hidden zdp_cbl
2001ffe8 g     F .text	0000024a .hidden zdo_deviceAnnounceIndicate
2001c7a4 g     F .text	00000122 .hidden zdo_nlme_leave_confirm_cb
00001b50 g     F .ram_code	0000003c .hidden analog_write_reg8
20012900 g     F .text	00000038 .hidden ss_keyPreconfigured
0000137c g     F .ram_code	00000018 entry_irq6
2001b534 g     F .text	00000026 .hidden tl_addrMappingForBind.constprop.109
00004128 g     O .bss	00001d48 .hidden g_mPool
20020664 g     F .text	0000011a .hidden zdo_nlme_status_indication
00001a98 g     F .ram_code	0000001c .hidden delay_us
200213a0 g       *ABS*	00000000 _DATA_LMA_START
00001bcc g     F .ram_code	0000013c .hidden clock_init.constprop.89
000061b4 g     O .bss	00000080 .hidden aed.lto_priv.154
00001a54 g     F .ram_code	00000044 .hidden trng_rand
20000000 g       *ABS*	00000000 NDS_SAG_LMA_FLASH
20009fb8 g     F .text	00000002 .hidden zdp_txCnfCb.lto_priv.173
200044a4 g     F .text	000000d2 .hidden zcl_zllTouchLinNetworkStartRespCmdSend.lto_priv.159
000070b4 g     O .bss	00000054 .hidden g_zbNwkCtx
20012ea0 g     F .text	00000038 .hidden tl_zbNeighborTabSearchForChildEndDev
2000a58c g     F .text	0000008a .hidden tl_zbPrimitivePost
200126b8 g     F .text	0000006e .hidden zdo_set_pollRate
20000000  w      .vectors	00000000 _RELAX_END_
20012478 g     F .text	0000001c .hidden tl_zbNwkNlmeNwkDiscRequestHandler
2001ffd4 g     F .text	00000012 .hidden zdo_device_announce_send
20004448 g     F .text	0000005a memset
20010324 g     F .text	00000188 .hidden tl_zbNwkNeighborAddrConflictHandle
000026ec g     O .sbss	00000004 .hidden g_rnd_m_w
200084b0 g     F .text	00001b08 main
20014704 g     F .text	000000d2 .hidden aps_bindingTblSave2Flash
2000d9b0 g     F .text	000000c4 .hidden nwkBrcMsgAllDevicesCb
00001458 g     F .ram_code	000000ac entry_irq3
000015c8 g     F .ram_code	00000024 trap_entry
00000120 g       .aes_data	00000000 _AES_VMA_END
2001d2e4 g     F .text	00000042 .hidden zb_factoryReset
20019484 g     F .text	000001ba .hidden tl_zbNwkJoinAccept.isra.0.lto_priv.163
200150c4 g     F .text	00000154 .hidden aps_data_fragment.lto_priv.144
00000000 g       *ABS*	00000000 __FW_RAMCODE_SIZE_MAX
2000a220 g     F .text	00000038 .hidden nwkBrcTransEntryFind
00000d90 g     F .ram_code	00000004 entry_irq39
00000d08 g     F .ram_code	00000004 entry_irq49
200036c0 g     F .text	0000013a .hidden ll_decrypt_network_key
200039ec g     F .text	0000005a .hidden is_ev_buf
200128b4 g     F .text	00000048 .hidden ss_zdoGetNwkKeyBySeqNum
20020414 g     F .text	00000040 .hidden zb_zdoNodeDescReq.constprop.38
2000e248 g     F .text	000000c0 .hidden nwk_nodeAddrInfoStore
200187f8 g     F .text	00000116 .hidden nwkRouteReplySendDelay
00006564 g     O .bss	00000a0c .hidden g_nwkAddrMap
00000c28 g     F .ram_code	0000001c entry_irq57
000026a2 g     O .sbss	00000001 .hidden aps_group_entry_num.lto_priv.169
00000d10 g     F .ram_code	00000004 entry_irq47
20012304 g     F .text	00000038 .hidden tl_zbNwkNlmeEDScanRequestHandler
00002448 g     O .data	00000049 .hidden g_zllTouchLink
2000a458 g     F .text	00000132 .hidden zb_buf_free
20000000 g     F .vectors	00000000 _RESET_ENTRY
2001b200 g     F .text	000000c2 .hidden af_aps_data_fragment_entry
2001bd0c g     F .text	000000a2 .hidden gpio_input_en
200060ac g     F .text	00000036 .hidden listRemove
0000636c g     O .bss	0000000a .hidden bindTblExtAddr.lto_priv.151
20012fb0 g     F .text	0000006c .hidden tl_zbNwkNlmeSyncRequestHandler
2000e360 g     F .text	000001ac .hidden tl_zbNwkAddrMapAdd
000013ac g     F .ram_code	000000ac entry_irq4
00020000 g       *ABS*	00000000 _STACK_TOP
20012808 g     F .text	0000005c .hidden aps_me_find_src_ref
000010d4 g     F .ram_code	00000018 entry_irq22
00001b8c g     F .ram_code	00000040 .hidden analog_read_reg8
20012c00 g     F .text	00000040 .hidden nwkRoutingTabEntryFind
00000e58 g     F .ram_code	00000018 entry_irq30
2001bbc8 g     F .text	00000096 .hidden gpio_set_up_down_res
2001394c g     F .text	0000011e .hidden aps_interPanDataIndCb
000026a3 g     O .sbss	00000001 .hidden aps_handle.lto_priv.175
00005e8c g     O .bss	000000dc .hidden g_routeDiscTab
2000a72c g     F .text	0000018c .hidden nwkBrcMsgPassiveAckTimeoutCb
00002678 g     O .sbss	00000004 .hidden g_zllCommission
2001202c g     F .text	0000006a .hidden apsDuplicatePeriodic
2001be48 g     F .text	0000002a .hidden zdo_nlmeChannelShift
20002a0c g     F .text	00000002 .hidden afTest_dataSendConfirm
00000d6c g     F .ram_code	0000001c entry_irq42
20017408 g     F .text	000000d2 .hidden ss_apsmeRequestKeyReq
00006358 g     O .bss	00000013 .hidden aps_ib
00007618 g     O .bss	00000017 .hidden zdo_cfg_attributes
000010a4 g     F .ram_code	00000018 entry_irq24
200128ac g     F .text	00000004 .hidden tl_zbMacMlmeSyncLossIndicationHandler
20005fec g     F .text	00000012 .hidden listLength
2000d0cc g     F .text	00000126 .hidden tl_zbMacScanRequestHandler
00002402 g       .ram_code	00000000 _RAMCODE_VMA_END
2001b448 g     F .text	0000009e .hidden nv_sector_read.constprop.141
2000a2c4 g     F .text	0000006c .hidden tl_zbNwkAddrMapDelete
2000cd88 g     F .text	0000006e .hidden tl_zbMacMlmeBeaconRequestCmdSend
20010cc8 g     F .text	0000024a .hidden mac_pibNvInit
000016d4 g     F .ram_code	0000003c .hidden tl_zbMacHdrSize
000025bc g     O .data	00000008 .hidden g_invalid_addr
2000a174 g     F .text	000000ac .hidden nwkBrcTransEntryCreate
2000b044 g     F .text	000000ee .hidden nwk_addrConflictCb.lto_priv.145
00002714 g     O .sbss	00000002 .hidden uart_dma_rx_chn.lto_priv.171
00000000  w      *ABS*	00000000 _ITB_BASE_
2001bf10 g     F .text	00000070 .hidden nwkRouteRecordCmdSend.constprop.21
00002681 g     O .sbss	00000001 .hidden rf_busyFlag
0000111c g     F .ram_code	000000ac entry_irq19
00005f68 g     O .bss	00000180 .hidden g_routingTab
000026bc g     O .sbss	00000004 .hidden rejoinRespTimeoutEvt
2000a388 g     F .text	00000008 .hidden tl_zbMacChannelSet
20013f40 g     F .text	0000007a .hidden nwkDiscDataPendSend.lto_priv.164
00007670 g       .bss	00000000 _end
2001b4e8 g     F .text	0000004a .hidden zcl_reportCfgInfoEntryFind.constprop.124
000011e0 g     F .ram_code	00000018 entry_irq17
0000360c g     O .bss	0000000c .hidden g_macTimerEvt
2001bc60 g     F .text	000000ac .hidden gpio_input_dis
2001b6f0 g     F .text	000000a6 .hidden ss_ttlMAC.part.0.constprop.5
00001334 g     F .ram_code	00000018 entry_irq9
2001e368 g     F .text	0000018e .hidden zdo_mgmtLeaveIndicate
2001eaf4 g     F .text	000000c6 .hidden zdo_mgmtPermitJoinIndicate
00000c44 g     F .ram_code	0000001c entry_irq56
000038ac g     O .bss	00000050 .hidden hwTmr_vars
00000dd0 g     F .ram_code	0000001c entry_irq35
00000d98 g     F .ram_code	0000001c entry_irq37
000026dc g     O .sbss	00000004 g_pm_mspi_cfg
2001b55c g     F .text	000000a0 .hidden uart_receive_dma.constprop.104
00000c7c g     F .ram_code	0000001c entry_irq54
20018910 g     F .text	000000b8 .hidden nwkRouteDiscCachePacketCopy
00000d8c g     F .ram_code	00000004 entry_irq40
2001860c g     F .text	000000f4 .hidden nwkRouteReqRetry
00000000 g       *ABS*	00000000 __BOOT_LOADER_IMAGE
2001f2fc g     F .text	0000010e .hidden zdo_activeEpIndicate
20003bc4 g     F .text	0000002a .hidden zcl_zllTouchLinkStartNetworkStartOrJoinTimerStop
2001de6c g     F .text	000000a6 .hidden zcl_sendInterPANCmd.constprop.35
20013a6c g     F .text	00000116 .hidden ss_zdoInit
00002688 g     O .sbss	00000004 .hidden sysTimerPerUs
000026d4 g     O .sbss	00000004 .hidden g_chip_version
2001b7f4 g     F .text	00000032 .hidden zdo_parentAnnounceIndicate
20012edc g     F .text	0000003e .hidden tl_zbNeighborTableSearchForParent
00000200 g       .ram_code	00000000 _RAMCODE_VMA_START
00007580 g     O .bss	00000095 .hidden reportingTab
20014284 g     F .text	000000b2 .hidden zdo_startup_complete.lto_priv.146
2001df14 g     F .text	000000c4 .hidden zdo_send_req
20014260 g     F .text	00000024 .hidden tl_zbAdditionNeighborReset
2000a688 g     F .text	00000012 .hidden tl_zbMacResetRequestHandler
000061a8 g     O .bss	0000000c .hidden g_zbMacCtx
20012768 g     F .text	00000050 .hidden zdo_nwk_disc_req_auto.lto_priv.168
000026c8 g     O .sbss	00000001 .hidden aps_counter_value.lto_priv.149
2000b944 g     F .text	00000492 .hidden tl_zbMacMcpsDataConfirmHandler
2000383c g     F .text	00000012 .hidden rf_setChannel
2001ba58 g     F .text	00000170 .hidden rf_set_trx_state
00002684 g     O .sbss	00000004 .hidden sum_rssi
20013258 g     F .text	00000232 .hidden aps_me_init
00000e70 g     F .ram_code	00000018 entry_irq29
20012868 g     F .text	00000042 .hidden aps_bindingTblMatched
2001d150 g     F .text	00000194 .hidden tl_zbNwkSendNwkStatusCmd.constprop.16
00001d08 g     F .ram_code	000000b4 .hidden pm_wait_bbpll_done
00001710 g     F .ram_code	000000f0 .hidden zb_buf_get
200037fc g     F .text	00000036 .hidden rf_lqi2cost
00002702 g     O .sbss	00000001 .hidden linkStExpiry.lto_priv.150
000063d0 g     O .bss	00000030 .hidden g_apsDataFragmentTransWin
2001eefc g     F .text	000000a8 .hidden zdo_SysServerDiscoveryIndiate
200129b0 g     F .text	00000092 .hidden ss_zdoChildTableStore
000060e8 g     O .bss	000000c0 .hidden g_txDataPendTab
20003c78 g     F .text	0000004a .hidden bdb_retrieveTcLinkKeyDone
00001364 g     F .ram_code	00000018 entry_irq7
200196b4 g     F .text	000000ee .hidden tl_zbNwkNlmeDirectJoinRequestHandler
20020454 g     F .text	000001c2 .hidden zdo_nwk_candidateAssociateJoinStart
20003abc g     F .text	00000024 .hidden sys_exceptionPost
00000e24 g     F .ram_code	0000001c entry_irq32
00000000 g     F .retention_reset	00000000 _IRESET_ENTRY
20012938 g     F .text	00000078 .hidden ss_zdoNwkKeySwitch
20012098 g     F .text	0000005e .hidden nwkRoutingTabPeriodic
2000abe0 g     F .text	0000006c .hidden nwkBrcPeriodic
000011c8 g     F .ram_code	00000018 entry_irq18
000026c0 g     O .sbss	00000004 .hidden zdoTouchLinkCb
2001e9f8 g     F .text	000000f8 .hidden zdo_nwkUpdateNotifyRespSend
2001afb0 g     F .text	00000012 .hidden zdo_nwkAddrIndicate
00000ff8 g     F .ram_code	000000ac entry_irq25
2001bdfc g     F .text	00000048 .hidden aes_encrypt
200143ac g     F .text	000000d4 .hidden tl_zbNwkBeaconPayloadUpdate
00006ff4 g     O .bss	000000c0 .hidden g_zbInfo



Disassembly of section .vectors:

20000000 <_RESET_ENTRY>:
20000000:	a025                	c.j	20000028 <_START>
20000002:	3001                	c.jal	1ffff802 <FLASH_SIZE+0x1feff802>
20000004:	1001                	c.nop	-32
	...
20000012:	1141                	c.addi	sp,-16
20000014:	0501                	c.addi	a0,0
20000016:	0000                	unimp
20000018:	1566                	c.slli	a0,0x39
2000001a:	0002                	c.slli64	zero
2000001c:	0000                	unimp
2000001e:	0000                	unimp
20000020:	544c4e4b          	fnmsub.h	ft8,fs8,ft4,fa0,rmm
20000024:	0000                	unimp
20000026:	          	sllw	a4,zero,zero

20000028 <_START>:
20000028:	e0003197          	auipc	gp,0xe0003
2000002c:	be018193          	addi	gp,gp,-1056 # 2c08 <__global_pointer$>
20000030:	e0020297          	auipc	t0,0xe0020
20000034:	fd028293          	addi	t0,t0,-48 # 20000 <_STACK_TOP>
20000038:	8116                	c.mv	sp,t0
2000003a:	e0000297          	auipc	t0,0xe0000
2000003e:	fc628293          	addi	t0,t0,-58 # 0 <__BOOT_LOADER_IMAGE>
20000042:	80029073          	csrw	uitb,t0
20000046:	6299                	c.lui	t0,0x6
20000048:	3002a2f3          	csrrs	t0,mstatus,t0
2000004c:	00301073          	fssr	zero
20000050:	e0002297          	auipc	t0,0xe0002
20000054:	2b028293          	addi	t0,t0,688 # 2300 <__vectors>
20000058:	30529073          	csrw	mtvec,t0
2000005c:	7d016073          	csrsi	mmisc_ctl,2
20000060:	e40002b7          	lui	t0,0xe4000
20000064:	4309                	c.li	t1,2
20000066:	0062a023          	sw	t1,0(t0) # e4000000 <_DATA_LMA_START+0xc3fdec60>
2000006a:	7ca022f3          	csrr	t0,mcache_ctl
2000006e:	0012e293          	ori	t0,t0,1
20000072:	0022e293          	ori	t0,t0,2
20000076:	7ca29073          	csrw	mcache_ctl,t0
2000007a:	0000100f          	fence.i

2000007e <_RETENTION_RESET_INIT>:
2000007e:	00000317          	auipc	t1,0x0
20000082:	0da30313          	addi	t1,t1,218 # 20000158 <_RETENTION_RESET_LMA_START>
20000086:	e0000397          	auipc	t2,0xe0000
2000008a:	f7a38393          	addi	t2,t2,-134 # 0 <__BOOT_LOADER_IMAGE>
2000008e:	e0000e17          	auipc	t3,0xe0000
20000092:	06ee0e13          	addi	t3,t3,110 # fc <_RETENTION_RESET_VMA_END>

20000096 <_RETENTION_RESET_BEGIN>:
20000096:	01c3f963          	bgeu	t2,t3,200000a8 <_ZERO_AES>
2000009a:	00032283          	lw	t0,0(t1)
2000009e:	0053a023          	sw	t0,0(t2)
200000a2:	0311                	c.addi	t1,4
200000a4:	0391                	c.addi	t2,4
200000a6:	bfc5                	c.j	20000096 <_RETENTION_RESET_BEGIN>

200000a8 <_ZERO_AES>:
200000a8:	000002b7          	lui	t0,0x0
200000ac:	e0000397          	auipc	t2,0xe0000
200000b0:	05438393          	addi	t2,t2,84 # 100 <_AES_VMA_START>
200000b4:	e0000e17          	auipc	t3,0xe0000
200000b8:	06ce0e13          	addi	t3,t3,108 # 120 <_AES_VMA_END>

200000bc <_ZERO_AES_BEGIN>:
200000bc:	01c3f663          	bgeu	t2,t3,200000c8 <_RAMCODE_INIT>
200000c0:	0053a023          	sw	t0,0(t2)
200000c4:	0391                	c.addi	t2,4
200000c6:	bfdd                	c.j	200000bc <_ZERO_AES_BEGIN>

200000c8 <_RAMCODE_INIT>:
200000c8:	00000317          	auipc	t1,0x0
200000cc:	19030313          	addi	t1,t1,400 # 20000258 <_RAMCODE_LMA_START>
200000d0:	e0000397          	auipc	t2,0xe0000
200000d4:	13038393          	addi	t2,t2,304 # 200 <analog_irq_handler>
200000d8:	e0002e17          	auipc	t3,0xe0002
200000dc:	32ae0e13          	addi	t3,t3,810 # 2402 <_RAMCODE_VMA_END>

200000e0 <_RAMCODE_INIT_BEGIN>:
200000e0:	01c3f963          	bgeu	t2,t3,200000f2 <_DATA_INIT>
200000e4:	00032283          	lw	t0,0(t1)
200000e8:	0053a023          	sw	t0,0(t2)
200000ec:	0311                	c.addi	t1,4
200000ee:	0391                	c.addi	t2,4
200000f0:	bfc5                	c.j	200000e0 <_RAMCODE_INIT_BEGIN>

200000f2 <_DATA_INIT>:
200000f2:	00021317          	auipc	t1,0x21
200000f6:	2ae30313          	addi	t1,t1,686 # 200213a0 <_DATA_LMA_START>
200000fa:	e0002397          	auipc	t2,0xe0002
200000fe:	30e38393          	addi	t2,t2,782 # 2408 <_DATA_VMA_START>
20000102:	e0002e17          	auipc	t3,0xe0002
20000106:	4cce0e13          	addi	t3,t3,1228 # 25ce <_DATA_VMA_END>

2000010a <_DATA_INIT_BEGIN>:
2000010a:	01c3f963          	bgeu	t2,t3,2000011c <_ZERO_BSS>
2000010e:	00032283          	lw	t0,0(t1)
20000112:	0053a023          	sw	t0,0(t2)
20000116:	0311                	c.addi	t1,4
20000118:	0391                	c.addi	t2,4
2000011a:	bfc5                	c.j	2000010a <_DATA_INIT_BEGIN>

2000011c <_ZERO_BSS>:
2000011c:	000002b7          	lui	t0,0x0
20000120:	e0002397          	auipc	t2,0xe0002
20000124:	4b038393          	addi	t2,t2,1200 # 25d0 <_BSS_VMA_START>
20000128:	e0007e17          	auipc	t3,0xe0007
2000012c:	548e0e13          	addi	t3,t3,1352 # 7670 <_BSS_VMA_END>

20000130 <_ZERO_BSS_BEGIN>:
20000130:	01c3f663          	bgeu	t2,t3,2000013c <_FILL_STK>
20000134:	0053a023          	sw	t0,0(t2)
20000138:	0391                	c.addi	t2,4
2000013a:	bfdd                	c.j	20000130 <_ZERO_BSS_BEGIN>

2000013c <_FILL_STK>:
2000013c:	0001                	c.nop
2000013e:	00008297          	auipc	t0,0x8
20000142:	37228293          	addi	t0,t0,882 # 200084b0 <main>
20000146:	9282                	c.jalr	t0
20000148:	0001                	c.nop
2000014a:	0001                	c.nop
2000014c:	0001                	c.nop
2000014e:	0001                	c.nop
20000150:	0001                	c.nop

20000152 <_END>:
20000152:	a001                	c.j	20000152 <_END>
20000154:	0001                	c.nop

Disassembly of section .retention_reset:

00000000 <_IRESET_ENTRY>:
   0:	a00d                	c.j	22 <_ISTART>
	...

00000022 <_ISTART>:
  22:	00003197          	auipc	gp,0x3
  26:	be618193          	addi	gp,gp,-1050 # 2c08 <__global_pointer$>
  2a:	00020297          	auipc	t0,0x20
  2e:	fd628293          	addi	t0,t0,-42 # 20000 <_STACK_TOP>
  32:	8116                	c.mv	sp,t0
  34:	00000297          	auipc	t0,0x0
  38:	fcc28293          	addi	t0,t0,-52 # 0 <_IRESET_ENTRY>
  3c:	80029073          	csrw	uitb,t0
  40:	6299                	c.lui	t0,0x6
  42:	3002a2f3          	csrrs	t0,mstatus,t0
  46:	00301073          	fssr	zero
  4a:	00002297          	auipc	t0,0x2
  4e:	2b628293          	addi	t0,t0,694 # 2300 <__vectors>
  52:	30529073          	csrw	mtvec,t0
  56:	7d016073          	csrsi	mmisc_ctl,2
  5a:	e40002b7          	lui	t0,0xe4000
  5e:	4309                	c.li	t1,2
  60:	0062a023          	sw	t1,0(t0) # e4000000 <_DATA_LMA_START+0xc3fdec60>
  64:	7ca022f3          	csrr	t0,mcache_ctl
  68:	0012e293          	ori	t0,t0,1
  6c:	0022e293          	ori	t0,t0,2
  70:	7ca29073          	csrw	mcache_ctl,t0
  74:	0000100f          	fence.i

00000078 <_WAKEUP_FLASH>:
  78:	801402b7          	lui	t0,0x80140
  7c:	0ff00313          	li	t1,255
  80:	4381                	c.li	t2,0
  82:	0ab00e13          	li	t3,171
  86:	326284a3          	sb	t1,809(t0) # 80140329 <_DATA_LMA_START+0x6011ef89>
  8a:	107280a3          	sb	t2,257(t0)
  8e:	11c28023          	sb	t3,256(t0)

00000092 <_MSPI_WAIT>:
  92:	801402b7          	lui	t0,0x80140
  96:	10228383          	lb	t2,258(t0) # 80140102 <_DATA_LMA_START+0x6011ed62>
  9a:	4e05                	c.li	t3,1
  9c:	4ec1                	c.li	t4,16
  9e:	fe7e0ae3          	beq	t3,t2,92 <_MSPI_WAIT>
  a2:	11d280a3          	sb	t4,257(t0)
  a6:	4281                	c.li	t0,0
  a8:	0e200313          	li	t1,226

000000ac <_WAIT_EFUSE_LOAD_FINISH>:
  ac:	0285                	c.addi	t0,1
  ae:	fe537fe3          	bgeu	t1,t0,ac <_WAIT_EFUSE_LOAD_FINISH>

000000b2 <_MULTI_ADDRESS_BEGIN>:
  b2:	801402b7          	lui	t0,0x80140
  b6:	ad418313          	addi	t1,gp,-1324 # 26dc <g_pm_mspi_cfg>
  ba:	00032383          	lw	t2,0(t1)
  be:	1072a223          	sw	t2,260(t0) # 80140104 <_DATA_LMA_START+0x6011ed64>

000000c2 <_IZERO_AES>:
  c2:	000002b7          	lui	t0,0x0
  c6:	00000397          	auipc	t2,0x0
  ca:	03a38393          	addi	t2,t2,58 # 100 <_AES_VMA_START>
  ce:	00000e17          	auipc	t3,0x0
  d2:	052e0e13          	addi	t3,t3,82 # 120 <_AES_VMA_END>

000000d6 <_IZERO_AES_BEGIN>:
  d6:	01c3f663          	bgeu	t2,t3,e2 <_IDATA_INIT>
  da:	0053a023          	sw	t0,0(t2)
  de:	0391                	c.addi	t2,4
  e0:	bfdd                	c.j	d6 <_IZERO_AES_BEGIN>

000000e2 <_IDATA_INIT>:
  e2:	0001                	c.nop
  e4:	20008297          	auipc	t0,0x20008
  e8:	3cc28293          	addi	t0,t0,972 # 200084b0 <main>
  ec:	9282                	c.jalr	t0
  ee:	0001                	c.nop
  f0:	0001                	c.nop
  f2:	0001                	c.nop
  f4:	0001                	c.nop
  f6:	0001                	c.nop

000000f8 <_IEND>:
  f8:	a001                	c.j	f8 <_IEND>
  fa:	0001                	c.nop

Disassembly of section .ram_code:

00000200 <analog_irq_handler>:
     200:	00008067          	ret

00000204 <flash_send_addr>:
     204:	5d05275b          	bfoz	a4,a0,23,16
     208:	801407b7          	lui	a5,0x80140
     20c:	801406b7          	lui	a3,0x80140
     210:	10e78023          	sb	a4,256(a5) # 80140100 <_DATA_LMA_START+0x6011ed60>
     214:	10268783          	lb	a5,258(a3) # 80140102 <_DATA_LMA_START+0x6011ed62>
     218:	fe07fe5b          	bbs	a5,0,214 <flash_send_addr+0x10>
     21c:	3c8527db          	bfoz	a5,a0,15,8
     220:	80140737          	lui	a4,0x80140
     224:	10f68023          	sb	a5,256(a3)
     228:	10270783          	lb	a5,258(a4) # 80140102 <_DATA_LMA_START+0x6011ed62>
     22c:	fe07fe5b          	bbs	a5,0,228 <flash_send_addr+0x24>
     230:	0ff57513          	andi	a0,a0,255
     234:	801406b7          	lui	a3,0x80140
     238:	10a70023          	sb	a0,256(a4)
     23c:	10268783          	lb	a5,258(a3) # 80140102 <_DATA_LMA_START+0x6011ed62>
     240:	fe07fe5b          	bbs	a5,0,23c <flash_send_addr+0x38>
     244:	00008067          	ret

00000248 <flash_send_cmd>:
     248:	801407b7          	lui	a5,0x80140
     24c:	10178703          	lb	a4,257(a5) # 80140101 <_DATA_LMA_START+0x6011ed61>
     250:	0ff77713          	andi	a4,a4,255
     254:	01076713          	ori	a4,a4,16
     258:	10e780a3          	sb	a4,257(a5)
     25c:	0001                	c.nop
     25e:	0001                	c.nop
     260:	0001                	c.nop
     262:	0001                	c.nop
     264:	0001                	c.nop
     266:	0001                	c.nop
     268:	0001                	c.nop
     26a:	0001                	c.nop
     26c:	0001                	c.nop
     26e:	0001                	c.nop
     270:	10178683          	lb	a3,257(a5)
     274:	80140737          	lui	a4,0x80140
     278:	0ef6f693          	andi	a3,a3,239
     27c:	10d780a3          	sb	a3,257(a5)
     280:	10a78023          	sb	a0,256(a5)
     284:	10270783          	lb	a5,258(a4) # 80140102 <_DATA_LMA_START+0x6011ed62>
     288:	fe07fe5b          	bbs	a5,0,284 <flash_send_cmd+0x3c>
     28c:	00008067          	ret

00000290 <flash_wait_done>:
     290:	1141                	c.addi	sp,-16
     292:	4515                	c.li	a0,5
     294:	c606                	c.swsp	ra,12(sp)
     296:	3f4d                	c.jal	248 <flash_send_cmd>
     298:	009896b7          	lui	a3,0x989
     29c:	68068693          	addi	a3,a3,1664 # 989680 <FLASH_SIZE+0x889680>
     2a0:	80140737          	lui	a4,0x80140
     2a4:	10070023          	sb	zero,256(a4) # 80140100 <_DATA_LMA_START+0x6011ed60>
     2a8:	10270783          	lb	a5,258(a4)
     2ac:	fe07fe5b          	bbs	a5,0,2a8 <flash_wait_done+0x18>
     2b0:	10070783          	lb	a5,256(a4)
     2b4:	0207f25b          	bbc	a5,0,2d8 <flash_wait_done+0x48>
     2b8:	16fd                	c.addi	a3,-1
     2ba:	f6ed                	c.bnez	a3,2a4 <flash_wait_done+0x14>
     2bc:	80140737          	lui	a4,0x80140
     2c0:	10170783          	lb	a5,257(a4) # 80140101 <_DATA_LMA_START+0x6011ed61>
     2c4:	0ff7f793          	andi	a5,a5,255
     2c8:	0107e793          	ori	a5,a5,16
     2cc:	10f700a3          	sb	a5,257(a4)
     2d0:	40b2                	c.lwsp	ra,12(sp)
     2d2:	0141                	c.addi	sp,16
     2d4:	00008067          	ret
     2d8:	935fd70b          	addigp	a4,-1739 # 253d <flash_cnt>
     2dc:	00070783          	lb	a5,0(a4)
     2e0:	0785                	c.addi	a5,1
     2e2:	0ff7f793          	andi	a5,a5,255
     2e6:	00f70023          	sb	a5,0(a4)
     2ea:	80140737          	lui	a4,0x80140
     2ee:	10170783          	lb	a5,257(a4) # 80140101 <_DATA_LMA_START+0x6011ed61>
     2f2:	0ff7f793          	andi	a5,a5,255
     2f6:	0107e793          	ori	a5,a5,16
     2fa:	10f700a3          	sb	a5,257(a4)
     2fe:	40b2                	c.lwsp	ra,12(sp)
     300:	0141                	c.addi	sp,16
     302:	8082                	c.jr	ra

00000304 <plic_enter_critical_sec>:
     304:	30402573          	csrr	a0,mie
     308:	6785                	c.lui	a5,0x1
     30a:	88878793          	addi	a5,a5,-1912 # 888 <rf_rx_irq_handler+0x21c>
     30e:	3047b7f3          	csrrc	a5,mie,a5
     312:	8082                	c.jr	ra

00000314 <plic_exit_critical_sec>:
     314:	3045a5f3          	csrrs	a1,mie,a1
     318:	00008067          	ret

0000031c <flash_read_mid_ram>:
     31c:	1101                	c.addi	sp,-32
     31e:	4585                	c.li	a1,1
     320:	4501                	c.li	a0,0
     322:	ca26                	c.swsp	s1,20(sp)
     324:	ce06                	c.swsp	ra,28(sp)
     326:	cc22                	c.swsp	s0,24(sp)
     328:	c602                	c.swsp	zero,12(sp)
     32a:	3fe9                	c.jal	304 <plic_enter_critical_sec>
     32c:	80140737          	lui	a4,0x80140
     330:	00a004b3          	add	s1,zero,a0
     334:	10270783          	lb	a5,258(a4) # 80140102 <_DATA_LMA_START+0x6011ed62>
     338:	fe07fe5b          	bbs	a5,0,334 <flash_read_mid_ram+0x18>
     33c:	10170783          	lb	a5,257(a4)
     340:	80140437          	lui	s0,0x80140
     344:	0ff7f793          	andi	a5,a5,255
     348:	0107e793          	ori	a5,a5,16
     34c:	10f700a3          	sb	a5,257(a4)
     350:	32840783          	lb	a5,808(s0) # 80140328 <_DATA_LMA_START+0x6011ef88>
     354:	be37fe5b          	bbc	a5,3,350 <flash_read_mid_ram+0x34>
     358:	09f00513          	li	a0,159
     35c:	eedff0ef          	jal	ra,248 <flash_send_cmd>
     360:	80140737          	lui	a4,0x80140
     364:	10040023          	sb	zero,256(s0)
     368:	10270783          	lb	a5,258(a4) # 80140102 <_DATA_LMA_START+0x6011ed62>
     36c:	fe07fe5b          	bbs	a5,0,368 <flash_read_mid_ram+0x4c>
     370:	10170783          	lb	a5,257(a4)
     374:	801406b7          	lui	a3,0x80140
     378:	0ff7f793          	andi	a5,a5,255
     37c:	0017e793          	ori	a5,a5,1
     380:	10f700a3          	sb	a5,257(a4)
     384:	10268783          	lb	a5,258(a3) # 80140102 <_DATA_LMA_START+0x6011ed62>
     388:	fe07fe5b          	bbs	a5,0,384 <flash_read_mid_ram+0x68>
     38c:	00c10693          	addi	a3,sp,12
     390:	00f10613          	addi	a2,sp,15
     394:	80140737          	lui	a4,0x80140
     398:	10070783          	lb	a5,256(a4) # 80140100 <_DATA_LMA_START+0x6011ed60>
     39c:	00f68023          	sb	a5,0(a3)
     3a0:	10270783          	lb	a5,258(a4)
     3a4:	fe07fe5b          	bbs	a5,0,3a0 <flash_read_mid_ram+0x84>
     3a8:	0685                	c.addi	a3,1
     3aa:	fec697e3          	bne	a3,a2,398 <flash_read_mid_ram+0x7c>
     3ae:	10170783          	lb	a5,257(a4)
     3b2:	0fe7f793          	andi	a5,a5,254
     3b6:	10f700a3          	sb	a5,257(a4)
     3ba:	10170783          	lb	a5,257(a4)
     3be:	0ff7f793          	andi	a5,a5,255
     3c2:	0107e793          	ori	a5,a5,16
     3c6:	10f700a3          	sb	a5,257(a4)
     3ca:	0001                	c.nop
     3cc:	0001                	c.nop
     3ce:	0001                	c.nop
     3d0:	0001                	c.nop
     3d2:	0001                	c.nop
     3d4:	4501                	c.li	a0,0
     3d6:	85a6                	c.mv	a1,s1
     3d8:	f3dff0ef          	jal	ra,314 <plic_exit_critical_sec>
     3dc:	40f2                	c.lwsp	ra,28(sp)
     3de:	4462                	c.lwsp	s0,24(sp)
     3e0:	4532                	c.lwsp	a0,12(sp)
     3e2:	44d2                	c.lwsp	s1,20(sp)
     3e4:	6105                	c.addi16sp	sp,32
     3e6:	8082                	c.jr	ra

000003e8 <flash_read_page_ram>:
     3e8:	1101                	c.addi	sp,-32
     3ea:	ca26                	c.swsp	s1,20(sp)
     3ec:	c452                	c.swsp	s4,8(sp)
     3ee:	84ae                	c.mv	s1,a1
     3f0:	8a2a                	c.mv	s4,a0
     3f2:	4585                	c.li	a1,1
     3f4:	4501                	c.li	a0,0
     3f6:	cc22                	c.swsp	s0,24(sp)
     3f8:	c64e                	c.swsp	s3,12(sp)
     3fa:	ce06                	c.swsp	ra,28(sp)
     3fc:	c84a                	c.swsp	s2,16(sp)
     3fe:	8432                	c.mv	s0,a2
     400:	f05ff0ef          	jal	ra,304 <plic_enter_critical_sec>
     404:	80140737          	lui	a4,0x80140
     408:	00a009b3          	add	s3,zero,a0
     40c:	10270783          	lb	a5,258(a4) # 80140102 <_DATA_LMA_START+0x6011ed62>
     410:	fe07fe5b          	bbs	a5,0,40c <flash_read_page_ram+0x24>
     414:	10170783          	lb	a5,257(a4)
     418:	80140937          	lui	s2,0x80140
     41c:	0ff7f793          	andi	a5,a5,255
     420:	0107e793          	ori	a5,a5,16
     424:	10f700a3          	sb	a5,257(a4)
     428:	32890783          	lb	a5,808(s2) # 80140328 <_DATA_LMA_START+0x6011ef88>
     42c:	be37fe5b          	bbc	a5,3,428 <flash_read_page_ram+0x40>
     430:	450d                	c.li	a0,3
     432:	3d19                	c.jal	248 <flash_send_cmd>
     434:	01400533          	add	a0,zero,s4
     438:	dcdff0ef          	jal	ra,204 <flash_send_addr>
     43c:	80140737          	lui	a4,0x80140
     440:	10090023          	sb	zero,256(s2)
     444:	10270783          	lb	a5,258(a4) # 80140102 <_DATA_LMA_START+0x6011ed62>
     448:	fe07fe5b          	bbs	a5,0,444 <flash_read_page_ram+0x5c>
     44c:	10170783          	lb	a5,257(a4)
     450:	801406b7          	lui	a3,0x80140
     454:	0ff7f793          	andi	a5,a5,255
     458:	0017e793          	ori	a5,a5,1
     45c:	10f700a3          	sb	a5,257(a4)
     460:	10268783          	lb	a5,258(a3) # 80140102 <_DATA_LMA_START+0x6011ed62>
     464:	fe07fe5b          	bbs	a5,0,460 <flash_read_page_ram+0x78>
     468:	02048263          	beqz	s1,48c <flash_read_page_ram+0xa4>
     46c:	009406b3          	add	a3,s0,s1
     470:	80140737          	lui	a4,0x80140
     474:	10070783          	lb	a5,256(a4) # 80140100 <_DATA_LMA_START+0x6011ed60>
     478:	00140413          	addi	s0,s0,1
     47c:	fef40fa3          	sb	a5,-1(s0)
     480:	10270783          	lb	a5,258(a4)
     484:	fe07fe5b          	bbs	a5,0,480 <flash_read_page_ram+0x98>
     488:	fed416e3          	bne	s0,a3,474 <flash_read_page_ram+0x8c>
     48c:	80140737          	lui	a4,0x80140
     490:	10170783          	lb	a5,257(a4) # 80140101 <_DATA_LMA_START+0x6011ed61>
     494:	0fe7f793          	andi	a5,a5,254
     498:	10f700a3          	sb	a5,257(a4)
     49c:	10170783          	lb	a5,257(a4)
     4a0:	0ff7f793          	andi	a5,a5,255
     4a4:	0107e793          	ori	a5,a5,16
     4a8:	10f700a3          	sb	a5,257(a4)
     4ac:	0001                	c.nop
     4ae:	0001                	c.nop
     4b0:	0001                	c.nop
     4b2:	0001                	c.nop
     4b4:	0001                	c.nop
     4b6:	4462                	c.lwsp	s0,24(sp)
     4b8:	40f2                	c.lwsp	ra,28(sp)
     4ba:	44d2                	c.lwsp	s1,20(sp)
     4bc:	4942                	c.lwsp	s2,16(sp)
     4be:	4a22                	c.lwsp	s4,8(sp)
     4c0:	85ce                	c.mv	a1,s3
     4c2:	49b2                	c.lwsp	s3,12(sp)
     4c4:	4501                	c.li	a0,0
     4c6:	6105                	c.addi16sp	sp,32
     4c8:	e4dff06f          	j	314 <plic_exit_critical_sec>

000004cc <flash_write_page_ram>:
     4cc:	1101                	c.addi	sp,-32
     4ce:	ca26                	c.swsp	s1,20(sp)
     4d0:	c64e                	c.swsp	s3,12(sp)
     4d2:	84ae                	c.mv	s1,a1
     4d4:	89aa                	c.mv	s3,a0
     4d6:	4585                	c.li	a1,1
     4d8:	4501                	c.li	a0,0
     4da:	cc22                	c.swsp	s0,24(sp)
     4dc:	c84a                	c.swsp	s2,16(sp)
     4de:	ce06                	c.swsp	ra,28(sp)
     4e0:	8432                	c.mv	s0,a2
     4e2:	350d                	c.jal	304 <plic_enter_critical_sec>
     4e4:	80140737          	lui	a4,0x80140
     4e8:	00a00933          	add	s2,zero,a0
     4ec:	10270783          	lb	a5,258(a4) # 80140102 <_DATA_LMA_START+0x6011ed62>
     4f0:	fe07fe5b          	bbs	a5,0,4ec <flash_write_page_ram+0x20>
     4f4:	10170783          	lb	a5,257(a4)
     4f8:	801406b7          	lui	a3,0x80140
     4fc:	0ff7f793          	andi	a5,a5,255
     500:	0107e793          	ori	a5,a5,16
     504:	10f700a3          	sb	a5,257(a4)
     508:	32868783          	lb	a5,808(a3) # 80140328 <_DATA_LMA_START+0x6011ef88>
     50c:	be37fe5b          	bbc	a5,3,508 <flash_write_page_ram+0x3c>
     510:	4519                	c.li	a0,6
     512:	3b1d                	c.jal	248 <flash_send_cmd>
     514:	00200513          	li	a0,2
     518:	d31ff0ef          	jal	ra,248 <flash_send_cmd>
     51c:	01300533          	add	a0,zero,s3
     520:	ce5ff0ef          	jal	ra,204 <flash_send_addr>
     524:	c095                	c.beqz	s1,548 <flash_write_page_ram+0x7c>
     526:	8622                	c.mv	a2,s0
     528:	009406b3          	add	a3,s0,s1
     52c:	80140737          	lui	a4,0x80140
     530:	00064783          	lbu	a5,0(a2)
     534:	10f70023          	sb	a5,256(a4) # 80140100 <_DATA_LMA_START+0x6011ed60>
     538:	10270783          	lb	a5,258(a4)
     53c:	fe07fe5b          	bbs	a5,0,538 <flash_write_page_ram+0x6c>
     540:	00160613          	addi	a2,a2,1
     544:	fed616e3          	bne	a2,a3,530 <flash_write_page_ram+0x64>
     548:	80140737          	lui	a4,0x80140
     54c:	10170783          	lb	a5,257(a4) # 80140101 <_DATA_LMA_START+0x6011ed61>
     550:	0ff7f793          	andi	a5,a5,255
     554:	0107e793          	ori	a5,a5,16
     558:	10f700a3          	sb	a5,257(a4)
     55c:	d35ff0ef          	jal	ra,290 <flash_wait_done>
     560:	0001                	c.nop
     562:	0001                	c.nop
     564:	0001                	c.nop
     566:	0001                	c.nop
     568:	0001                	c.nop
     56a:	4462                	c.lwsp	s0,24(sp)
     56c:	40f2                	c.lwsp	ra,28(sp)
     56e:	44d2                	c.lwsp	s1,20(sp)
     570:	49b2                	c.lwsp	s3,12(sp)
     572:	85ca                	c.mv	a1,s2
     574:	4942                	c.lwsp	s2,16(sp)
     576:	4501                	c.li	a0,0
     578:	6105                	c.addi16sp	sp,32
     57a:	bb69                	c.j	314 <plic_exit_critical_sec>

0000057c <flash_erase_sector_ram>:
     57c:	1141                	c.addi	sp,-16
     57e:	c04a                	c.swsp	s2,0(sp)
     580:	4585                	c.li	a1,1
     582:	892a                	c.mv	s2,a0
     584:	4501                	c.li	a0,0
     586:	c226                	c.swsp	s1,4(sp)
     588:	c606                	c.swsp	ra,12(sp)
     58a:	c422                	c.swsp	s0,8(sp)
     58c:	d79ff0ef          	jal	ra,304 <plic_enter_critical_sec>
     590:	80140737          	lui	a4,0x80140
     594:	00a004b3          	add	s1,zero,a0
     598:	10270783          	lb	a5,258(a4) # 80140102 <_DATA_LMA_START+0x6011ed62>
     59c:	fe07fe5b          	bbs	a5,0,598 <flash_erase_sector_ram+0x1c>
     5a0:	10170783          	lb	a5,257(a4)
     5a4:	80140437          	lui	s0,0x80140
     5a8:	0ff7f793          	andi	a5,a5,255
     5ac:	0107e793          	ori	a5,a5,16
     5b0:	10f700a3          	sb	a5,257(a4)
     5b4:	32840783          	lb	a5,808(s0) # 80140328 <_DATA_LMA_START+0x6011ef88>
     5b8:	be37fe5b          	bbc	a5,3,5b4 <flash_erase_sector_ram+0x38>
     5bc:	4519                	c.li	a0,6
     5be:	3169                	c.jal	248 <flash_send_cmd>
     5c0:	02000513          	li	a0,32
     5c4:	c85ff0ef          	jal	ra,248 <flash_send_cmd>
     5c8:	01200533          	add	a0,zero,s2
     5cc:	c39ff0ef          	jal	ra,204 <flash_send_addr>
     5d0:	10140783          	lb	a5,257(s0)
     5d4:	0ff7f793          	andi	a5,a5,255
     5d8:	0107e793          	ori	a5,a5,16
     5dc:	10f400a3          	sb	a5,257(s0)
     5e0:	cb1ff0ef          	jal	ra,290 <flash_wait_done>
     5e4:	0001                	c.nop
     5e6:	0001                	c.nop
     5e8:	0001                	c.nop
     5ea:	0001                	c.nop
     5ec:	0001                	c.nop
     5ee:	4422                	c.lwsp	s0,8(sp)
     5f0:	40b2                	c.lwsp	ra,12(sp)
     5f2:	4902                	c.lwsp	s2,0(sp)
     5f4:	85a6                	c.mv	a1,s1
     5f6:	4492                	c.lwsp	s1,4(sp)
     5f8:	4501                	c.li	a0,0
     5fa:	0141                	c.addi	sp,16
     5fc:	d19ff06f          	j	314 <plic_exit_critical_sec>

00000600 <rf_tx_irq_handler>:
     600:	a79fc78b          	lbgp	a5,-1415 # 2681 <rf_busyFlag>
     604:	0fd7f793          	andi	a5,a5,253
     608:	a6fffc8b          	sbgp	a5,-1415 # 2681 <rf_busyFlag>
     60c:	3908178b          	addigp	a5,17296 # 6f98 <g_sysDiags>
     610:	05578703          	lb	a4,85(a5)
     614:	0705                	c.addi	a4,1
     616:	04e78aa3          	sb	a4,85(a5)
     61a:	a79fa70b          	lbugp	a4,-1416 # 2680 <rfMode>
     61e:	0017665b          	bnec	a4,1,62a <rf_tx_irq_handler+0x2a>
     622:	b05fe70b          	lbugp	a4,-1275 # 270d <s_rf_trxstate.lto_priv.166>
     626:	02175e5b          	beqc	a4,1,662 <rf_tx_irq_handler+0x62>
     62a:	4705                	c.li	a4,1
     62c:	a6efbc8b          	sbgp	a4,-1416 # 2680 <rfMode>
     630:	000077b7          	lui	a5,0x7
     634:	4328058b          	lbgp	a1,17458 # 703a <g_zbInfo+0x46>
     638:	4795                	c.li	a5,5
     63a:	15d9                	c.addi	a1,-10
     63c:	02f585b3          	mul	a1,a1,a5
     640:	1141                	c.addi	sp,-16
     642:	4505                	c.li	a0,1
     644:	00112623          	sw	ra,12(sp)
     648:	1c05b5db          	bfos	a1,a1,7,0
     64c:	2001b097          	auipc	ra,0x2001b
     650:	40c080e7          	jalr	1036(ra) # 2001ba58 <rf_set_trx_state>
     654:	40b2                	c.lwsp	ra,12(sp)
     656:	450d                	c.li	a0,3
     658:	0141                	c.addi	sp,16
     65a:	2000c317          	auipc	t1,0x2000c
     65e:	2c630067          	jr	710(t1) # 2000c920 <mac_trxTask.lto_priv.178>
     662:	450d                	c.li	a0,3
     664:	2000c317          	auipc	t1,0x2000c
     668:	2bc30067          	jr	700(t1) # 2000c920 <mac_trxTask.lto_priv.178>

0000066c <rf_rx_irq_handler>:
     66c:	7179                	c.addi16sp	sp,-48
     66e:	80100737          	lui	a4,0x80100
     672:	d422                	c.swsp	s0,40(sp)
     674:	ce4e                	c.swsp	s3,28(sp)
     676:	c85a                	c.swsp	s6,16(sp)
     678:	d606                	c.swsp	ra,44(sp)
     67a:	d226                	c.swsp	s1,36(sp)
     67c:	d04a                	c.swsp	s2,32(sp)
     67e:	cc52                	c.swsp	s4,24(sp)
     680:	ca56                	c.swsp	s5,20(sp)
     682:	c65e                	c.swsp	s7,12(sp)
     684:	c462                	c.swsp	s8,8(sp)
     686:	45870783          	lb	a5,1112(a4) # 80100458 <_DATA_LMA_START+0x600df0b8>
     68a:	0fe7f793          	andi	a5,a5,254
     68e:	a17fa42b          	lwgp	s0,-1516 # 261c <rf_rxBuf>
     692:	44f70c23          	sb	a5,1112(a4)
     696:	3908178b          	addigp	a5,17296 # 6f98 <g_sysDiags>
     69a:	05678703          	lb	a4,86(a5) # 7056 <g_zbInfo+0x62>
     69e:	a15f998b          	addigp	s3,-1516 # 261c <rf_rxBuf>
     6a2:	0705                	c.addi	a4,1
     6a4:	04e78b23          	sb	a4,86(a5)
     6a8:	00444a03          	lbu	s4,4(s0)
     6ac:	39081b0b          	addigp	s6,17296 # 6f98 <g_sysDiags>
     6b0:	01440733          	add	a4,s0,s4
     6b4:	00c70703          	lb	a4,12(a4)
     6b8:	05177713          	andi	a4,a4,81
     6bc:	e709                	c.bnez	a4,6c6 <rf_rx_irq_handler+0x5a>
     6be:	a79fc70b          	lbgp	a4,-1415 # 2681 <rf_busyFlag>
     6c2:	0017785b          	bbc	a4,1,6d2 <rf_rx_irq_handler+0x66>
     6c6:	004b2783          	lw	a5,4(s6)
     6ca:	0785                	c.addi	a5,1
     6cc:	00fb2223          	sw	a5,4(s6)
     6d0:	aa49                	c.j	862 <rf_rx_irq_handler+0x1f6>
     6d2:	ffda0713          	addi	a4,s4,-3
     6d6:	0ff77713          	andi	a4,a4,255
     6da:	07e00613          	li	a2,126
     6de:	00544683          	lbu	a3,5(s0)
     6e2:	00e67863          	bgeu	a2,a4,6f2 <rf_rx_irq_handler+0x86>
     6e6:	05778703          	lb	a4,87(a5)
     6ea:	0705                	c.addi	a4,1
     6ec:	04e78ba3          	sb	a4,87(a5)
     6f0:	aa8d                	c.j	862 <rf_rx_irq_handler+0x1f6>
     6f2:	0076f713          	andi	a4,a3,7
     6f6:	4f90278b          	lbugp	a5,3320 # 3900 <mac_trx_vars.lto_priv.167+0x4>
     6fa:	0037e95b          	bnec	a5,3,70c <rf_rx_irq_handler+0xa0>
     6fe:	0027675b          	bnec	a4,2,70c <rf_rx_irq_handler+0xa0>
     702:	165a605b          	bnec	s4,5,862 <rf_rx_irq_handler+0x1f6>
     706:	4905                	c.li	s2,1
     708:	4481                	c.li	s1,0
     70a:	a0e9                	c.j	7d4 <rf_rx_irq_handler+0x168>
     70c:	478d                	c.li	a5,3
     70e:	14e7ea63          	bltu	a5,a4,862 <rf_rx_irq_handler+0x1f6>
     712:	00644783          	lbu	a5,6(s0)
     716:	ef01                	c.bnez	a4,72e <rf_rx_irq_handler+0xc2>
     718:	14069563          	bnez	a3,862 <rf_rx_irq_handler+0x1f6>
     71c:	0bf7f793          	andi	a5,a5,191
     720:	08000713          	li	a4,128
     724:	12e79f63          	bne	a5,a4,862 <rf_rx_irq_handler+0x1f6>
     728:	4901                	c.li	s2,0
     72a:	4481                	c.li	s1,0
     72c:	a065                	c.j	7d4 <rf_rx_irq_handler+0x168>
     72e:	00c7f613          	andi	a2,a5,12
     732:	e611                	c.bnez	a2,73e <rf_rx_irq_handler+0xd2>
     734:	6741                	c.lui	a4,0x10
     736:	00840493          	addi	s1,s0,8
     73a:	177d                	c.addi	a4,-1
     73c:	a029                	c.j	746 <rf_rx_irq_handler+0xda>
     73e:	00845703          	lhu	a4,8(s0)
     742:	00a40493          	addi	s1,s0,10
     746:	0c07f793          	andi	a5,a5,192
     74a:	c781                	c.beqz	a5,752 <rf_rx_irq_handler+0xe6>
     74c:	4066f35b          	bbs	a3,6,752 <rf_rx_irq_handler+0xe6>
     750:	0489                	c.addi	s1,2
     752:	000077b7          	lui	a5,0x7
     756:	3ec8158b          	addigp	a1,17388 # 6ff4 <g_zbInfo>
     75a:	0185d583          	lhu	a1,24(a1)
     75e:	3ec8178b          	addigp	a5,17388 # 6ff4 <g_zbInfo>
     762:	00e58663          	beq	a1,a4,76e <rf_rx_irq_handler+0x102>
     766:	65c1                	c.lui	a1,0x10
     768:	15fd                	c.addi	a1,-1
     76a:	0eb71c63          	bne	a4,a1,862 <rf_rx_irq_handler+0x1f6>
     76e:	0286605b          	bnec	a2,8,78e <rf_rx_irq_handler+0x122>
     772:	00a45703          	lhu	a4,10(s0)
     776:	01a7d783          	lhu	a5,26(a5) # 701a <g_zbInfo+0x26>
     77a:	4901                	c.li	s2,0
     77c:	00e78763          	beq	a5,a4,78a <rf_rx_irq_handler+0x11e>
     780:	67c1                	c.lui	a5,0x10
     782:	17fd                	c.addi	a5,-1
     784:	00f70363          	beq	a4,a5,78a <rf_rx_irq_handler+0x11e>
     788:	4919                	c.li	s2,6
     78a:	0489                	c.addi	s1,2
     78c:	a091                	c.j	7d0 <rf_rx_irq_handler+0x164>
     78e:	02c66e5b          	bnec	a2,12,7ca <rf_rx_irq_handler+0x15e>
     792:	00a45603          	lhu	a2,10(s0)
     796:	00c7d703          	lhu	a4,12(a5) # 1000c <_BSS_VMA_END+0x899c>
     79a:	491d                	c.li	s2,7
     79c:	02e61563          	bne	a2,a4,7c6 <rf_rx_irq_handler+0x15a>
     7a0:	00c45603          	lhu	a2,12(s0)
     7a4:	00e7d703          	lhu	a4,14(a5)
     7a8:	00e61f63          	bne	a2,a4,7c6 <rf_rx_irq_handler+0x15a>
     7ac:	00e45603          	lhu	a2,14(s0)
     7b0:	0107d703          	lhu	a4,16(a5)
     7b4:	00e61963          	bne	a2,a4,7c6 <rf_rx_irq_handler+0x15a>
     7b8:	01045703          	lhu	a4,16(s0)
     7bc:	0127d783          	lhu	a5,18(a5)
     7c0:	00f71363          	bne	a4,a5,7c6 <rf_rx_irq_handler+0x15a>
     7c4:	4901                	c.li	s2,0
     7c6:	04a1                	c.addi	s1,8
     7c8:	a021                	c.j	7d0 <rf_rx_irq_handler+0x164>
     7ca:	4901                	c.li	s2,0
     7cc:	ca59                	c.beqz	a2,862 <rf_rx_irq_handler+0x1f6>
     7ce:	a019                	c.j	7d4 <rf_rx_irq_handler+0x168>
     7d0:	08091963          	bnez	s2,862 <rf_rx_irq_handler+0x1f6>
     7d4:	4a81                	c.li	s5,0
     7d6:	0256fd5b          	bbc	a3,5,810 <rf_rx_irq_handler+0x1a4>
     7da:	a79fa70b          	lbugp	a4,-1416 # 2680 <rfMode>
     7de:	e701                	c.bnez	a4,7e6 <rf_rx_irq_handler+0x17a>
     7e0:	b05fe70b          	lbugp	a4,-1275 # 270d <s_rf_trxstate.lto_priv.166>
     7e4:	c315                	c.beqz	a4,808 <rf_rx_irq_handler+0x19c>
     7e6:	a60fbc8b          	sbgp	zero,-1416 # 2680 <rfMode>
     7ea:	000077b7          	lui	a5,0x7
     7ee:	4328058b          	lbgp	a1,17458 # 703a <g_zbInfo+0x46>
     7f2:	4795                	c.li	a5,5
     7f4:	15d9                	c.addi	a1,-10
     7f6:	02f585b3          	mul	a1,a1,a5
     7fa:	4501                	c.li	a0,0
     7fc:	1c05b5db          	bfos	a1,a1,7,0
     800:	2001b097          	auipc	ra,0x2001b
     804:	258080e7          	jalr	600(ra) # 2001ba58 <rf_set_trx_state>
     808:	801407b7          	lui	a5,0x80140
     80c:	2007aa83          	lw	s5,512(a5) # 80140200 <_DATA_LMA_START+0x6011ee60>
     810:	701000ef          	jal	ra,1710 <zb_buf_get>
     814:	c501                	c.beqz	a0,81c <rf_rx_irq_handler+0x1b0>
     816:	02050793          	addi	a5,a0,32
     81a:	e3c1                	c.bnez	a5,89a <rf_rx_irq_handler+0x22e>
     81c:	00540783          	lb	a5,5(s0)
     820:	0257fc5b          	bbc	a5,5,858 <rf_rx_irq_handler+0x1ec>
     824:	a79fa70b          	lbugp	a4,-1416 # 2680 <rfMode>
     828:	0017665b          	bnec	a4,1,834 <rf_rx_irq_handler+0x1c8>
     82c:	b05fe70b          	lbugp	a4,-1275 # 270d <s_rf_trxstate.lto_priv.166>
     830:	0217545b          	beqc	a4,1,858 <rf_rx_irq_handler+0x1ec>
     834:	4705                	c.li	a4,1
     836:	a6efbc8b          	sbgp	a4,-1416 # 2680 <rfMode>
     83a:	000077b7          	lui	a5,0x7
     83e:	4328058b          	lbgp	a1,17458 # 703a <g_zbInfo+0x46>
     842:	4795                	c.li	a5,5
     844:	15d9                	c.addi	a1,-10
     846:	02f585b3          	mul	a1,a1,a5
     84a:	4505                	c.li	a0,1
     84c:	1c05b5db          	bfos	a1,a1,7,0
     850:	2001b097          	auipc	ra,0x2001b
     854:	208080e7          	jalr	520(ra) # 2001ba58 <rf_set_trx_state>
     858:	04eb1783          	lh	a5,78(s6)
     85c:	0785                	c.addi	a5,1
     85e:	04fb1723          	sh	a5,78(s6)
     862:	0009a783          	lw	a5,0(s3)
     866:	80100737          	lui	a4,0x80100
     86a:	00078023          	sb	zero,0(a5) # 7000 <g_zbInfo+0xc>
     86e:	00078223          	sb	zero,4(a5)
     872:	45870783          	lb	a5,1112(a4) # 80100458 <_DATA_LMA_START+0x600df0b8>
     876:	0ff7f793          	andi	a5,a5,255
     87a:	0017e793          	ori	a5,a5,1
     87e:	44f70c23          	sb	a5,1112(a4)
     882:	50b2                	c.lwsp	ra,44(sp)
     884:	5422                	c.lwsp	s0,40(sp)
     886:	5492                	c.lwsp	s1,36(sp)
     888:	5902                	c.lwsp	s2,32(sp)
     88a:	49f2                	c.lwsp	s3,28(sp)
     88c:	4a62                	c.lwsp	s4,24(sp)
     88e:	4ad2                	c.lwsp	s5,20(sp)
     890:	4b42                	c.lwsp	s6,16(sp)
     892:	4bb2                	c.lwsp	s7,12(sp)
     894:	4c22                	c.lwsp	s8,8(sp)
     896:	6145                	c.addi16sp	sp,48
     898:	8082                	c.jr	ra
     89a:	02050023          	sb	zero,32(a0)
     89e:	02050223          	sb	zero,36(a0)
     8a2:	00f9a023          	sw	a5,0(s3)
     8a6:	02450513          	addi	a0,a0,36
     8aa:	c01807b7          	lui	a5,0xc0180
     8ae:	953e                	c.add	a0,a5
     8b0:	801007b7          	lui	a5,0x80100
     8b4:	46a7a023          	sw	a0,1120(a5) # 80100460 <_DATA_LMA_START+0x600df0c0>
     8b8:	00540783          	lb	a5,5(s0)
     8bc:	00540b13          	addi	s6,s0,5
     8c0:	1457f85b          	bbc	a5,5,a10 <rf_rx_irq_handler+0x3a4>
     8c4:	00744703          	lbu	a4,7(s0)
     8c8:	d41f978b          	addigp	a5,-704 # 2948 <rf_ack_buf>
     8cc:	00e783a3          	sb	a4,7(a5)
     8d0:	00200713          	li	a4,2
     8d4:	00e782a3          	sb	a4,5(a5)
     8d8:	00544783          	lbu	a5,5(s0)
     8dc:	00644c03          	lbu	s8,6(s0)
     8e0:	d41f9b8b          	addigp	s7,-704 # 2948 <rf_ack_buf>
     8e4:	008c1993          	slli	s3,s8,0x8
     8e8:	00f9e9b3          	or	s3,s3,a5
     8ec:	3c09b9db          	bfos	s3,s3,15,0
     8f0:	3c09a55b          	bfoz	a0,s3,15,0
     8f4:	5e1000ef          	jal	ra,16d4 <tl_zbMacHdrSize>
     8f8:	0079f993          	andi	s3,s3,7
     8fc:	4781                	c.li	a5,0
     8fe:	0039e85b          	bnec	s3,3,90e <rf_rx_irq_handler+0x2a2>
     902:	955a                	c.add	a0,s6
     904:	00054783          	lbu	a5,0(a0)
     908:	17f1                	c.addi	a5,-4
     90a:	0017b793          	seqz	a5,a5
     90e:	0c0c7c13          	andi	s8,s8,192
     912:	08000713          	li	a4,128
     916:	00ec0763          	beq	s8,a4,924 <rf_rx_irq_handler+0x2b8>
     91a:	0c000713          	li	a4,192
     91e:	02ec1163          	bne	s8,a4,940 <rf_rx_irq_handler+0x2d4>
     922:	aa81                	c.j	a72 <rf_rx_irq_handler+0x406>
     924:	4509                	c.li	a0,2
     926:	cf89                	c.beqz	a5,940 <rf_rx_irq_handler+0x2d4>
     928:	009005b3          	add	a1,zero,s1
     92c:	070010ef          	jal	ra,199c <tl_zbMacPendingDataCheck.constprop.63>
     930:	00051863          	bnez	a0,940 <rf_rx_irq_handler+0x2d4>
     934:	005b8783          	lb	a5,5(s7)
     938:	0107e793          	ori	a5,a5,16
     93c:	00fb82a3          	sb	a5,5(s7)
     940:	801407b7          	lui	a5,0x80140
     944:	2007a503          	lw	a0,512(a5) # 80140200 <_DATA_LMA_START+0x6011ee60>
     948:	41550ab3          	sub	s5,a0,s5
     94c:	a83fa52b          	lwgp	a0,-1408 # 2688 <sysTimerPerUs>
     950:	05400793          	li	a5,84
     954:	02aadab3          	divu	s5,s5,a0
     958:	0157c863          	blt	a5,s5,968 <rf_rx_irq_handler+0x2fc>
     95c:	05500513          	li	a0,85
     960:	41550533          	sub	a0,a0,s5
     964:	134010ef          	jal	ra,1a98 <delay_us>
     968:	80141737          	lui	a4,0x80141
     96c:	a1c71783          	lh	a5,-1508(a4) # 80140a1c <_DATA_LMA_START+0x6011f67c>
     970:	80141637          	lui	a2,0x80141
     974:	9bf5                	c.andi	a5,-3
     976:	3c07a7db          	bfoz	a5,a5,15,0
     97a:	a0f71e23          	sh	a5,-1508(a4)
     97e:	c01807b7          	lui	a5,0xc0180
     982:	80100737          	lui	a4,0x80100
     986:	9bbe                	c.add	s7,a5
     988:	45772423          	sw	s7,1096(a4) # 80100448 <_DATA_LMA_START+0x600df0a8>
     98c:	44470783          	lb	a5,1092(a4)
     990:	801406b7          	lui	a3,0x80140
     994:	0ff7f793          	andi	a5,a5,255
     998:	0017e793          	ori	a5,a5,1
     99c:	44f70223          	sb	a5,1092(a4)
     9a0:	801407b7          	lui	a5,0x80140
     9a4:	2007a583          	lw	a1,512(a5) # 80140200 <_DATA_LMA_START+0x6011ee60>
     9a8:	6791                	c.lui	a5,0x4
     9aa:	e8078793          	addi	a5,a5,-384 # 3e80 <ev_timer+0x224>
     9ae:	a2061703          	lh	a4,-1504(a2) # 80140a20 <_DATA_LMA_START+0x6011f680>
     9b2:	4017775b          	bbs	a4,1,9c0 <rf_rx_irq_handler+0x354>
     9b6:	2006a703          	lw	a4,512(a3) # 80140200 <_DATA_LMA_START+0x6011ee60>
     9ba:	8f0d                	c.sub	a4,a1
     9bc:	fee7f9e3          	bgeu	a5,a4,9ae <rf_rx_irq_handler+0x342>
     9c0:	80141737          	lui	a4,0x80141
     9c4:	4789                	c.li	a5,2
     9c6:	a2f71023          	sh	a5,-1504(a4) # 80140a20 <_DATA_LMA_START+0x6011f680>
     9ca:	a1c71783          	lh	a5,-1508(a4)
     9ce:	3c07a7db          	bfoz	a5,a5,15,0
     9d2:	0027e793          	ori	a5,a5,2
     9d6:	a0f71e23          	sh	a5,-1508(a4)
     9da:	a79fa70b          	lbugp	a4,-1416 # 2680 <rfMode>
     9de:	0017665b          	bnec	a4,1,9ea <rf_rx_irq_handler+0x37e>
     9e2:	b05fe70b          	lbugp	a4,-1275 # 270d <s_rf_trxstate.lto_priv.166>
     9e6:	0217555b          	beqc	a4,1,a10 <rf_rx_irq_handler+0x3a4>
     9ea:	4705                	c.li	a4,1
     9ec:	a6efbc8b          	sbgp	a4,-1416 # 2680 <rfMode>
     9f0:	000077b7          	lui	a5,0x7
     9f4:	4328058b          	lbgp	a1,17458 # 703a <g_zbInfo+0x46>
     9f8:	4795                	c.li	a5,5
     9fa:	15d9                	c.addi	a1,-10
     9fc:	02f585b3          	mul	a1,a1,a5
     a00:	00100513          	li	a0,1
     a04:	1c05b5db          	bfos	a1,a1,7,0
     a08:	2001b097          	auipc	ra,0x2001b
     a0c:	050080e7          	jalr	80(ra) # 2001ba58 <rf_set_trx_state>
     a10:	80100737          	lui	a4,0x80100
     a14:	45870783          	lb	a5,1112(a4) # 80100458 <_DATA_LMA_START+0x600df0b8>
     a18:	8522                	c.mv	a0,s0
     a1a:	0ff7f793          	andi	a5,a5,255
     a1e:	0017e793          	ori	a5,a5,1
     a22:	44f70c23          	sb	a5,1112(a4)
     a26:	00444683          	lbu	a3,4(s0)
     a2a:	50b2                	c.lwsp	ra,44(sp)
     a2c:	96a2                	c.add	a3,s0
     a2e:	00668603          	lb	a2,6(a3)
     a32:	00568703          	lb	a4,5(a3)
     a36:	00b68783          	lb	a5,11(a3)
     a3a:	8f51                	c.or	a4,a2
     a3c:	00768603          	lb	a2,7(a3)
     a40:	00868683          	lb	a3,8(a3)
     a44:	8f51                	c.or	a4,a2
     a46:	5422                	c.lwsp	s0,40(sp)
     a48:	8f55                	c.or	a4,a3
     a4a:	5492                	c.lwsp	s1,36(sp)
     a4c:	49f2                	c.lwsp	s3,28(sp)
     a4e:	4ad2                	c.lwsp	s5,20(sp)
     a50:	4bb2                	c.lwsp	s7,12(sp)
     a52:	4c22                	c.lwsp	s8,8(sp)
     a54:	f9278793          	addi	a5,a5,-110 # 6f92 <g_ssDevKeyPair+0x22>
     a58:	86ca                	c.mv	a3,s2
     a5a:	8652                	c.mv	a2,s4
     a5c:	5902                	c.lwsp	s2,32(sp)
     a5e:	4a62                	c.lwsp	s4,24(sp)
     a60:	85da                	c.mv	a1,s6
     a62:	4b42                	c.lwsp	s6,16(sp)
     a64:	1c07b7db          	bfos	a5,a5,7,0
     a68:	0ff77713          	andi	a4,a4,255
     a6c:	6145                	c.addi16sp	sp,48
     a6e:	5930006f          	j	1800 <zb_macDataRecvHander>
     a72:	450d                	c.li	a0,3
     a74:	eb3ff06f          	j	926 <rf_rx_irq_handler+0x2ba>

00000a78 <plic_isr.part.0>:
     a78:	1101                	c.addi	sp,-32
     a7a:	cc22                	c.swsp	s0,24(sp)
     a7c:	842e                	c.mv	s0,a1
     a7e:	ce06                	c.swsp	ra,28(sp)
     a80:	ca26                	c.swsp	s1,20(sp)
     a82:	c84a                	c.swsp	s2,16(sp)
     a84:	c64e                	c.swsp	s3,12(sp)
     a86:	34102973          	csrr	s2,mepc
     a8a:	300029f3          	csrr	s3,mstatus
     a8e:	7c4024f3          	csrr	s1,mxstatus
     a92:	300467f3          	csrrsi	a5,mstatus,8
     a96:	9502                	c.jalr	a0
     a98:	300477f3          	csrrci	a5,mstatus,8
     a9c:	30099073          	csrw	mstatus,s3
     aa0:	34191073          	csrw	mepc,s2
     aa4:	7c449073          	csrw	mxstatus,s1
     aa8:	e42007b7          	lui	a5,0xe4200
     aac:	c3c0                	c.sw	s0,4(a5)
     aae:	0ff0000f          	fence
     ab2:	40f2                	c.lwsp	ra,28(sp)
     ab4:	4462                	c.lwsp	s0,24(sp)
     ab6:	44d2                	c.lwsp	s1,20(sp)
     ab8:	4942                	c.lwsp	s2,16(sp)
     aba:	49b2                	c.lwsp	s3,12(sp)
     abc:	6105                	c.addi16sp	sp,32
     abe:	8082                	c.jr	ra

00000ac0 <rf_setTrxState>:
     ac0:	fff50793          	addi	a5,a0,-1
     ac4:	0ff7f793          	andi	a5,a5,255
     ac8:	4605                	c.li	a2,1
     aca:	a79fa68b          	lbugp	a3,-1416 # 2680 <rfMode>
     ace:	06f67163          	bgeu	a2,a5,b30 <rf_setTrxState+0x70>
     ad2:	e91d                	c.bnez	a0,b08 <rf_setTrxState+0x48>
     ad4:	08068263          	beqz	a3,b58 <rf_setTrxState+0x98>
     ad8:	000077b7          	lui	a5,0x7
     adc:	4328058b          	lbgp	a1,17458 # 703a <g_zbInfo+0x46>
     ae0:	1141                	c.addi	sp,-16
     ae2:	15d9                	c.addi	a1,-10
     ae4:	0cb585db          	lea.w	a1,a1,a1
     ae8:	4501                	c.li	a0,0
     aea:	1c05b5db          	bfos	a1,a1,7,0
     aee:	c606                	c.swsp	ra,12(sp)
     af0:	a60fbc8b          	sbgp	zero,-1416 # 2680 <rfMode>
     af4:	2001b097          	auipc	ra,0x2001b
     af8:	f64080e7          	jalr	-156(ra) # 2001ba58 <rf_set_trx_state>
     afc:	40b2                	c.lwsp	ra,12(sp)
     afe:	05500513          	li	a0,85
     b02:	0141                	c.addi	sp,16
     b04:	7950006f          	j	1a98 <delay_us>
     b08:	0636d65b          	beqc	a3,3,b74 <rf_setTrxState+0xb4>
     b0c:	000077b7          	lui	a5,0x7
     b10:	4328058b          	lbgp	a1,17458 # 703a <g_zbInfo+0x46>
     b14:	450d                	c.li	a0,3
     b16:	15d9                	c.addi	a1,-10
     b18:	0cb585db          	lea.w	a1,a1,a1
     b1c:	00300793          	li	a5,3
     b20:	1c05b5db          	bfos	a1,a1,7,0
     b24:	a6ffbc8b          	sbgp	a5,-1416 # 2680 <rfMode>
     b28:	2001b317          	auipc	t1,0x2001b
     b2c:	f3030067          	jr	-208(t1) # 2001ba58 <rf_set_trx_state>
     b30:	0216dc5b          	beqc	a3,1,b68 <rf_setTrxState+0xa8>
     b34:	000077b7          	lui	a5,0x7
     b38:	4328058b          	lbgp	a1,17458 # 703a <g_zbInfo+0x46>
     b3c:	4505                	c.li	a0,1
     b3e:	15d9                	c.addi	a1,-10
     b40:	0cb585db          	lea.w	a1,a1,a1
     b44:	00100793          	li	a5,1
     b48:	1c05b5db          	bfos	a1,a1,7,0
     b4c:	a6ffbc8b          	sbgp	a5,-1416 # 2680 <rfMode>
     b50:	2001b317          	auipc	t1,0x2001b
     b54:	f0830067          	jr	-248(t1) # 2001ba58 <rf_set_trx_state>
     b58:	b05fe78b          	lbugp	a5,-1275 # 270d <s_rf_trxstate.lto_priv.166>
     b5c:	f6079ee3          	bnez	a5,ad8 <rf_setTrxState+0x18>
     b60:	05500513          	li	a0,85
     b64:	7350006f          	j	1a98 <delay_us>
     b68:	b05fe78b          	lbugp	a5,-1275 # 270d <s_rf_trxstate.lto_priv.166>
     b6c:	bc17e45b          	bnec	a5,1,b34 <rf_setTrxState+0x74>
     b70:	00008067          	ret
     b74:	b05fe78b          	lbugp	a5,-1275 # 270d <s_rf_trxstate.lto_priv.166>
     b78:	b837ea5b          	bnec	a5,3,b0c <rf_setTrxState+0x4c>
     b7c:	ff5ff06f          	j	b70 <rf_setTrxState+0xb0>

00000b80 <entry_irq63>:
     b80:	1141                	c.addi	sp,-16
     b82:	c63a                	c.swsp	a4,12(sp)
     b84:	c43e                	c.swsp	a5,8(sp)
     b86:	03f00713          	li	a4,63
     b8a:	e42007b7          	lui	a5,0xe4200
     b8e:	c3d8                	c.sw	a4,4(a5)
     b90:	4732                	c.lwsp	a4,12(sp)
     b92:	47a2                	c.lwsp	a5,8(sp)
     b94:	01010113          	addi	sp,sp,16
     b98:	30200073          	mret

00000b9c <entry_irq62>:
     b9c:	1141                	c.addi	sp,-16
     b9e:	c63a                	c.swsp	a4,12(sp)
     ba0:	c43e                	c.swsp	a5,8(sp)
     ba2:	03e00713          	li	a4,62
     ba6:	e42007b7          	lui	a5,0xe4200
     baa:	c3d8                	c.sw	a4,4(a5)
     bac:	4732                	c.lwsp	a4,12(sp)
     bae:	47a2                	c.lwsp	a5,8(sp)
     bb0:	01010113          	addi	sp,sp,16
     bb4:	30200073          	mret

00000bb8 <entry_irq61>:
     bb8:	1141                	c.addi	sp,-16
     bba:	c63a                	c.swsp	a4,12(sp)
     bbc:	c43e                	c.swsp	a5,8(sp)
     bbe:	03d00713          	li	a4,61
     bc2:	e42007b7          	lui	a5,0xe4200
     bc6:	c3d8                	c.sw	a4,4(a5)
     bc8:	4732                	c.lwsp	a4,12(sp)
     bca:	47a2                	c.lwsp	a5,8(sp)
     bcc:	01010113          	addi	sp,sp,16
     bd0:	30200073          	mret

00000bd4 <entry_irq60>:
     bd4:	1141                	c.addi	sp,-16
     bd6:	c63a                	c.swsp	a4,12(sp)
     bd8:	c43e                	c.swsp	a5,8(sp)
     bda:	03c00713          	li	a4,60
     bde:	e42007b7          	lui	a5,0xe4200
     be2:	c3d8                	c.sw	a4,4(a5)
     be4:	4732                	c.lwsp	a4,12(sp)
     be6:	47a2                	c.lwsp	a5,8(sp)
     be8:	01010113          	addi	sp,sp,16
     bec:	30200073          	mret

00000bf0 <entry_irq59>:
     bf0:	1141                	c.addi	sp,-16
     bf2:	c63a                	c.swsp	a4,12(sp)
     bf4:	c43e                	c.swsp	a5,8(sp)
     bf6:	03b00713          	li	a4,59
     bfa:	e42007b7          	lui	a5,0xe4200
     bfe:	c3d8                	c.sw	a4,4(a5)
     c00:	4732                	c.lwsp	a4,12(sp)
     c02:	47a2                	c.lwsp	a5,8(sp)
     c04:	01010113          	addi	sp,sp,16
     c08:	30200073          	mret

00000c0c <entry_irq58>:
     c0c:	1141                	c.addi	sp,-16
     c0e:	c63a                	c.swsp	a4,12(sp)
     c10:	c43e                	c.swsp	a5,8(sp)
     c12:	03a00713          	li	a4,58
     c16:	e42007b7          	lui	a5,0xe4200
     c1a:	c3d8                	c.sw	a4,4(a5)
     c1c:	4732                	c.lwsp	a4,12(sp)
     c1e:	47a2                	c.lwsp	a5,8(sp)
     c20:	01010113          	addi	sp,sp,16
     c24:	30200073          	mret

00000c28 <entry_irq57>:
     c28:	1141                	c.addi	sp,-16
     c2a:	c63a                	c.swsp	a4,12(sp)
     c2c:	c43e                	c.swsp	a5,8(sp)
     c2e:	03900713          	li	a4,57
     c32:	e42007b7          	lui	a5,0xe4200
     c36:	c3d8                	c.sw	a4,4(a5)
     c38:	4732                	c.lwsp	a4,12(sp)
     c3a:	47a2                	c.lwsp	a5,8(sp)
     c3c:	01010113          	addi	sp,sp,16
     c40:	30200073          	mret

00000c44 <entry_irq56>:
     c44:	1141                	c.addi	sp,-16
     c46:	c63a                	c.swsp	a4,12(sp)
     c48:	c43e                	c.swsp	a5,8(sp)
     c4a:	03800713          	li	a4,56
     c4e:	e42007b7          	lui	a5,0xe4200
     c52:	c3d8                	c.sw	a4,4(a5)
     c54:	4732                	c.lwsp	a4,12(sp)
     c56:	47a2                	c.lwsp	a5,8(sp)
     c58:	01010113          	addi	sp,sp,16
     c5c:	30200073          	mret

00000c60 <entry_irq55>:
     c60:	1141                	c.addi	sp,-16
     c62:	c63a                	c.swsp	a4,12(sp)
     c64:	c43e                	c.swsp	a5,8(sp)
     c66:	03700713          	li	a4,55
     c6a:	e42007b7          	lui	a5,0xe4200
     c6e:	c3d8                	c.sw	a4,4(a5)
     c70:	4732                	c.lwsp	a4,12(sp)
     c72:	47a2                	c.lwsp	a5,8(sp)
     c74:	01010113          	addi	sp,sp,16
     c78:	30200073          	mret

00000c7c <entry_irq54>:
     c7c:	1141                	c.addi	sp,-16
     c7e:	c63a                	c.swsp	a4,12(sp)
     c80:	c43e                	c.swsp	a5,8(sp)
     c82:	03600713          	li	a4,54
     c86:	e42007b7          	lui	a5,0xe4200
     c8a:	c3d8                	c.sw	a4,4(a5)
     c8c:	4732                	c.lwsp	a4,12(sp)
     c8e:	47a2                	c.lwsp	a5,8(sp)
     c90:	01010113          	addi	sp,sp,16
     c94:	30200073          	mret

00000c98 <entry_irq53>:
     c98:	1141                	c.addi	sp,-16
     c9a:	c63a                	c.swsp	a4,12(sp)
     c9c:	c43e                	c.swsp	a5,8(sp)
     c9e:	03500713          	li	a4,53
     ca2:	e42007b7          	lui	a5,0xe4200
     ca6:	c3d8                	c.sw	a4,4(a5)
     ca8:	4732                	c.lwsp	a4,12(sp)
     caa:	47a2                	c.lwsp	a5,8(sp)
     cac:	01010113          	addi	sp,sp,16
     cb0:	30200073          	mret

00000cb4 <entry_irq52>:
     cb4:	1141                	c.addi	sp,-16
     cb6:	c63a                	c.swsp	a4,12(sp)
     cb8:	c43e                	c.swsp	a5,8(sp)
     cba:	03400713          	li	a4,52
     cbe:	e42007b7          	lui	a5,0xe4200
     cc2:	c3d8                	c.sw	a4,4(a5)
     cc4:	4732                	c.lwsp	a4,12(sp)
     cc6:	47a2                	c.lwsp	a5,8(sp)
     cc8:	01010113          	addi	sp,sp,16
     ccc:	30200073          	mret

00000cd0 <entry_irq51>:
     cd0:	1141                	c.addi	sp,-16
     cd2:	c63a                	c.swsp	a4,12(sp)
     cd4:	c43e                	c.swsp	a5,8(sp)
     cd6:	03300713          	li	a4,51
     cda:	e42007b7          	lui	a5,0xe4200
     cde:	c3d8                	c.sw	a4,4(a5)
     ce0:	4732                	c.lwsp	a4,12(sp)
     ce2:	47a2                	c.lwsp	a5,8(sp)
     ce4:	01010113          	addi	sp,sp,16
     ce8:	30200073          	mret

00000cec <entry_irq50>:
     cec:	1141                	c.addi	sp,-16
     cee:	c63a                	c.swsp	a4,12(sp)
     cf0:	c43e                	c.swsp	a5,8(sp)
     cf2:	03200713          	li	a4,50
     cf6:	e42007b7          	lui	a5,0xe4200
     cfa:	c3d8                	c.sw	a4,4(a5)
     cfc:	4732                	c.lwsp	a4,12(sp)
     cfe:	47a2                	c.lwsp	a5,8(sp)
     d00:	01010113          	addi	sp,sp,16
     d04:	30200073          	mret

00000d08 <entry_irq49>:
     d08:	30200073          	mret

00000d0c <entry_irq48>:
     d0c:	30200073          	mret

00000d10 <entry_irq47>:
     d10:	30200073          	mret

00000d14 <entry_irq46>:
     d14:	1141                	c.addi	sp,-16
     d16:	c63a                	c.swsp	a4,12(sp)
     d18:	c43e                	c.swsp	a5,8(sp)
     d1a:	02e00713          	li	a4,46
     d1e:	e42007b7          	lui	a5,0xe4200
     d22:	c3d8                	c.sw	a4,4(a5)
     d24:	4732                	c.lwsp	a4,12(sp)
     d26:	47a2                	c.lwsp	a5,8(sp)
     d28:	01010113          	addi	sp,sp,16
     d2c:	30200073          	mret

00000d30 <entry_irq45>:
     d30:	30200073          	mret

00000d34 <entry_irq44>:
     d34:	1141                	c.addi	sp,-16
     d36:	c63a                	c.swsp	a4,12(sp)
     d38:	c43e                	c.swsp	a5,8(sp)
     d3a:	02c00713          	li	a4,44
     d3e:	e42007b7          	lui	a5,0xe4200
     d42:	c3d8                	c.sw	a4,4(a5)
     d44:	4732                	c.lwsp	a4,12(sp)
     d46:	47a2                	c.lwsp	a5,8(sp)
     d48:	01010113          	addi	sp,sp,16
     d4c:	30200073          	mret

00000d50 <entry_irq43>:
     d50:	1141                	c.addi	sp,-16
     d52:	c63a                	c.swsp	a4,12(sp)
     d54:	c43e                	c.swsp	a5,8(sp)
     d56:	02b00713          	li	a4,43
     d5a:	e42007b7          	lui	a5,0xe4200
     d5e:	c3d8                	c.sw	a4,4(a5)
     d60:	4732                	c.lwsp	a4,12(sp)
     d62:	47a2                	c.lwsp	a5,8(sp)
     d64:	01010113          	addi	sp,sp,16
     d68:	30200073          	mret

00000d6c <entry_irq42>:
     d6c:	1141                	c.addi	sp,-16
     d6e:	c63a                	c.swsp	a4,12(sp)
     d70:	c43e                	c.swsp	a5,8(sp)
     d72:	02a00713          	li	a4,42
     d76:	e42007b7          	lui	a5,0xe4200
     d7a:	c3d8                	c.sw	a4,4(a5)
     d7c:	4732                	c.lwsp	a4,12(sp)
     d7e:	47a2                	c.lwsp	a5,8(sp)
     d80:	01010113          	addi	sp,sp,16
     d84:	30200073          	mret

00000d88 <entry_irq41>:
     d88:	30200073          	mret

00000d8c <entry_irq40>:
     d8c:	30200073          	mret

00000d90 <entry_irq39>:
     d90:	30200073          	mret

00000d94 <entry_irq38>:
     d94:	30200073          	mret

00000d98 <entry_irq37>:
     d98:	1141                	c.addi	sp,-16
     d9a:	c63a                	c.swsp	a4,12(sp)
     d9c:	c43e                	c.swsp	a5,8(sp)
     d9e:	02500713          	li	a4,37
     da2:	e42007b7          	lui	a5,0xe4200
     da6:	c3d8                	c.sw	a4,4(a5)
     da8:	4732                	c.lwsp	a4,12(sp)
     daa:	47a2                	c.lwsp	a5,8(sp)
     dac:	01010113          	addi	sp,sp,16
     db0:	30200073          	mret

00000db4 <entry_irq36>:
     db4:	1141                	c.addi	sp,-16
     db6:	c63a                	c.swsp	a4,12(sp)
     db8:	c43e                	c.swsp	a5,8(sp)
     dba:	02400713          	li	a4,36
     dbe:	e42007b7          	lui	a5,0xe4200
     dc2:	c3d8                	c.sw	a4,4(a5)
     dc4:	4732                	c.lwsp	a4,12(sp)
     dc6:	47a2                	c.lwsp	a5,8(sp)
     dc8:	01010113          	addi	sp,sp,16
     dcc:	30200073          	mret

00000dd0 <entry_irq35>:
     dd0:	1141                	c.addi	sp,-16
     dd2:	c63a                	c.swsp	a4,12(sp)
     dd4:	c43e                	c.swsp	a5,8(sp)
     dd6:	02300713          	li	a4,35
     dda:	e42007b7          	lui	a5,0xe4200
     dde:	c3d8                	c.sw	a4,4(a5)
     de0:	4732                	c.lwsp	a4,12(sp)
     de2:	47a2                	c.lwsp	a5,8(sp)
     de4:	01010113          	addi	sp,sp,16
     de8:	30200073          	mret

00000dec <entry_irq34>:
     dec:	1141                	c.addi	sp,-16
     dee:	c63a                	c.swsp	a4,12(sp)
     df0:	c43e                	c.swsp	a5,8(sp)
     df2:	02200713          	li	a4,34
     df6:	e42007b7          	lui	a5,0xe4200
     dfa:	c3d8                	c.sw	a4,4(a5)
     dfc:	4732                	c.lwsp	a4,12(sp)
     dfe:	47a2                	c.lwsp	a5,8(sp)
     e00:	01010113          	addi	sp,sp,16
     e04:	30200073          	mret

00000e08 <entry_irq33>:
     e08:	1141                	c.addi	sp,-16
     e0a:	c63a                	c.swsp	a4,12(sp)
     e0c:	c43e                	c.swsp	a5,8(sp)
     e0e:	02100713          	li	a4,33
     e12:	e42007b7          	lui	a5,0xe4200
     e16:	c3d8                	c.sw	a4,4(a5)
     e18:	4732                	c.lwsp	a4,12(sp)
     e1a:	47a2                	c.lwsp	a5,8(sp)
     e1c:	01010113          	addi	sp,sp,16
     e20:	30200073          	mret

00000e24 <entry_irq32>:
     e24:	1141                	c.addi	sp,-16
     e26:	c63a                	c.swsp	a4,12(sp)
     e28:	c43e                	c.swsp	a5,8(sp)
     e2a:	02000713          	li	a4,32
     e2e:	e42007b7          	lui	a5,0xe4200
     e32:	c3d8                	c.sw	a4,4(a5)
     e34:	4732                	c.lwsp	a4,12(sp)
     e36:	47a2                	c.lwsp	a5,8(sp)
     e38:	01010113          	addi	sp,sp,16
     e3c:	30200073          	mret

00000e40 <entry_irq31>:
     e40:	1141                	c.addi	sp,-16
     e42:	c63a                	c.swsp	a4,12(sp)
     e44:	c43e                	c.swsp	a5,8(sp)
     e46:	477d                	c.li	a4,31
     e48:	e42007b7          	lui	a5,0xe4200
     e4c:	c3d8                	c.sw	a4,4(a5)
     e4e:	4732                	c.lwsp	a4,12(sp)
     e50:	47a2                	c.lwsp	a5,8(sp)
     e52:	0141                	c.addi	sp,16
     e54:	30200073          	mret

00000e58 <entry_irq30>:
     e58:	1141                	c.addi	sp,-16
     e5a:	c63a                	c.swsp	a4,12(sp)
     e5c:	c43e                	c.swsp	a5,8(sp)
     e5e:	4779                	c.li	a4,30
     e60:	e42007b7          	lui	a5,0xe4200
     e64:	c3d8                	c.sw	a4,4(a5)
     e66:	4732                	c.lwsp	a4,12(sp)
     e68:	47a2                	c.lwsp	a5,8(sp)
     e6a:	0141                	c.addi	sp,16
     e6c:	30200073          	mret

00000e70 <entry_irq29>:
     e70:	1141                	c.addi	sp,-16
     e72:	c63a                	c.swsp	a4,12(sp)
     e74:	c43e                	c.swsp	a5,8(sp)
     e76:	4775                	c.li	a4,29
     e78:	e42007b7          	lui	a5,0xe4200
     e7c:	c3d8                	c.sw	a4,4(a5)
     e7e:	4732                	c.lwsp	a4,12(sp)
     e80:	47a2                	c.lwsp	a5,8(sp)
     e82:	0141                	c.addi	sp,16
     e84:	30200073          	mret

00000e88 <entry_irq28>:
     e88:	1141                	c.addi	sp,-16
     e8a:	c63a                	c.swsp	a4,12(sp)
     e8c:	c43e                	c.swsp	a5,8(sp)
     e8e:	4771                	c.li	a4,28
     e90:	e42007b7          	lui	a5,0xe4200
     e94:	c3d8                	c.sw	a4,4(a5)
     e96:	4732                	c.lwsp	a4,12(sp)
     e98:	47a2                	c.lwsp	a5,8(sp)
     e9a:	0141                	c.addi	sp,16
     e9c:	30200073          	mret

00000ea0 <entry_irq27>:
     ea0:	7175                	c.addi16sp	sp,-144
     ea2:	d6ba                	c.swsp	a4,108(sp)
     ea4:	d4be                	c.swsp	a5,104(sp)
     ea6:	c706                	c.swsp	ra,140(sp)
     ea8:	c516                	c.swsp	t0,136(sp)
     eaa:	c31a                	c.swsp	t1,132(sp)
     eac:	c11e                	c.swsp	t2,128(sp)
     eae:	deaa                	c.swsp	a0,124(sp)
     eb0:	dcae                	c.swsp	a1,120(sp)
     eb2:	dab2                	c.swsp	a2,116(sp)
     eb4:	d8b6                	c.swsp	a3,112(sp)
     eb6:	d2c2                	c.swsp	a6,100(sp)
     eb8:	d0c6                	c.swsp	a7,96(sp)
     eba:	cef2                	c.swsp	t3,92(sp)
     ebc:	ccf6                	c.swsp	t4,88(sp)
     ebe:	cafa                	c.swsp	t5,84(sp)
     ec0:	05f12823          	sw	t6,80(sp)
     ec4:	e682                	c.fswsp	ft0,76(sp)
     ec6:	e486                	c.fswsp	ft1,72(sp)
     ec8:	e28a                	c.fswsp	ft2,68(sp)
     eca:	e08e                	c.fswsp	ft3,64(sp)
     ecc:	fe12                	c.fswsp	ft4,60(sp)
     ece:	fc16                	c.fswsp	ft5,56(sp)
     ed0:	fa1a                	c.fswsp	ft6,52(sp)
     ed2:	f81e                	c.fswsp	ft7,48(sp)
     ed4:	f62a                	c.fswsp	fa0,44(sp)
     ed6:	f42e                	c.fswsp	fa1,40(sp)
     ed8:	f232                	c.fswsp	fa2,36(sp)
     eda:	f036                	c.fswsp	fa3,32(sp)
     edc:	ee3a                	c.fswsp	fa4,28(sp)
     ede:	ec3e                	c.fswsp	fa5,24(sp)
     ee0:	ea42                	c.fswsp	fa6,20(sp)
     ee2:	e846                	c.fswsp	fa7,16(sp)
     ee4:	e672                	c.fswsp	ft8,12(sp)
     ee6:	e476                	c.fswsp	ft9,8(sp)
     ee8:	e27a                	c.fswsp	ft10,4(sp)
     eea:	e07e                	c.fswsp	ft11,0(sp)
     eec:	20005097          	auipc	ra,0x20005
     ef0:	160080e7          	jalr	352(ra) # 2000604c <gpio_risc1_irq_handler>
     ef4:	e42007b7          	lui	a5,0xe4200
     ef8:	476d                	c.li	a4,27
     efa:	c3d8                	c.sw	a4,4(a5)
     efc:	40ba                	c.lwsp	ra,140(sp)
     efe:	42aa                	c.lwsp	t0,136(sp)
     f00:	431a                	c.lwsp	t1,132(sp)
     f02:	438a                	c.lwsp	t2,128(sp)
     f04:	5576                	c.lwsp	a0,124(sp)
     f06:	55e6                	c.lwsp	a1,120(sp)
     f08:	5656                	c.lwsp	a2,116(sp)
     f0a:	56c6                	c.lwsp	a3,112(sp)
     f0c:	5736                	c.lwsp	a4,108(sp)
     f0e:	57a6                	c.lwsp	a5,104(sp)
     f10:	5816                	c.lwsp	a6,100(sp)
     f12:	5886                	c.lwsp	a7,96(sp)
     f14:	4e76                	c.lwsp	t3,92(sp)
     f16:	4ee6                	c.lwsp	t4,88(sp)
     f18:	4f56                	c.lwsp	t5,84(sp)
     f1a:	4fc6                	c.lwsp	t6,80(sp)
     f1c:	6036                	c.flwsp	ft0,76(sp)
     f1e:	60a6                	c.flwsp	ft1,72(sp)
     f20:	6116                	c.flwsp	ft2,68(sp)
     f22:	6186                	c.flwsp	ft3,64(sp)
     f24:	7272                	c.flwsp	ft4,60(sp)
     f26:	72e2                	c.flwsp	ft5,56(sp)
     f28:	7352                	c.flwsp	ft6,52(sp)
     f2a:	73c2                	c.flwsp	ft7,48(sp)
     f2c:	7532                	c.flwsp	fa0,44(sp)
     f2e:	75a2                	c.flwsp	fa1,40(sp)
     f30:	7612                	c.flwsp	fa2,36(sp)
     f32:	7682                	c.flwsp	fa3,32(sp)
     f34:	6772                	c.flwsp	fa4,28(sp)
     f36:	67e2                	c.flwsp	fa5,24(sp)
     f38:	6852                	c.flwsp	fa6,20(sp)
     f3a:	68c2                	c.flwsp	fa7,16(sp)
     f3c:	6e32                	c.flwsp	ft8,12(sp)
     f3e:	6ea2                	c.flwsp	ft9,8(sp)
     f40:	6f12                	c.flwsp	ft10,4(sp)
     f42:	6f82                	c.flwsp	ft11,0(sp)
     f44:	09010113          	addi	sp,sp,144
     f48:	30200073          	mret

00000f4c <entry_irq26>:
     f4c:	7175                	c.addi16sp	sp,-144
     f4e:	d6ba                	c.swsp	a4,108(sp)
     f50:	d4be                	c.swsp	a5,104(sp)
     f52:	c706                	c.swsp	ra,140(sp)
     f54:	c516                	c.swsp	t0,136(sp)
     f56:	c31a                	c.swsp	t1,132(sp)
     f58:	c11e                	c.swsp	t2,128(sp)
     f5a:	deaa                	c.swsp	a0,124(sp)
     f5c:	dcae                	c.swsp	a1,120(sp)
     f5e:	dab2                	c.swsp	a2,116(sp)
     f60:	d8b6                	c.swsp	a3,112(sp)
     f62:	d2c2                	c.swsp	a6,100(sp)
     f64:	d0c6                	c.swsp	a7,96(sp)
     f66:	cef2                	c.swsp	t3,92(sp)
     f68:	ccf6                	c.swsp	t4,88(sp)
     f6a:	cafa                	c.swsp	t5,84(sp)
     f6c:	05f12823          	sw	t6,80(sp)
     f70:	e682                	c.fswsp	ft0,76(sp)
     f72:	e486                	c.fswsp	ft1,72(sp)
     f74:	e28a                	c.fswsp	ft2,68(sp)
     f76:	e08e                	c.fswsp	ft3,64(sp)
     f78:	fe12                	c.fswsp	ft4,60(sp)
     f7a:	fc16                	c.fswsp	ft5,56(sp)
     f7c:	fa1a                	c.fswsp	ft6,52(sp)
     f7e:	f81e                	c.fswsp	ft7,48(sp)
     f80:	f62a                	c.fswsp	fa0,44(sp)
     f82:	f42e                	c.fswsp	fa1,40(sp)
     f84:	f232                	c.fswsp	fa2,36(sp)
     f86:	f036                	c.fswsp	fa3,32(sp)
     f88:	ee3a                	c.fswsp	fa4,28(sp)
     f8a:	ec3e                	c.fswsp	fa5,24(sp)
     f8c:	ea42                	c.fswsp	fa6,20(sp)
     f8e:	e846                	c.fswsp	fa7,16(sp)
     f90:	e672                	c.fswsp	ft8,12(sp)
     f92:	e476                	c.fswsp	ft9,8(sp)
     f94:	e27a                	c.fswsp	ft10,4(sp)
     f96:	e07e                	c.fswsp	ft11,0(sp)
     f98:	20005097          	auipc	ra,0x20005
     f9c:	0d4080e7          	jalr	212(ra) # 2000606c <gpio_risc0_irq_handler>
     fa0:	e42007b7          	lui	a5,0xe4200
     fa4:	4769                	c.li	a4,26
     fa6:	c3d8                	c.sw	a4,4(a5)
     fa8:	40ba                	c.lwsp	ra,140(sp)
     faa:	42aa                	c.lwsp	t0,136(sp)
     fac:	431a                	c.lwsp	t1,132(sp)
     fae:	438a                	c.lwsp	t2,128(sp)
     fb0:	5576                	c.lwsp	a0,124(sp)
     fb2:	55e6                	c.lwsp	a1,120(sp)
     fb4:	5656                	c.lwsp	a2,116(sp)
     fb6:	56c6                	c.lwsp	a3,112(sp)
     fb8:	5736                	c.lwsp	a4,108(sp)
     fba:	57a6                	c.lwsp	a5,104(sp)
     fbc:	5816                	c.lwsp	a6,100(sp)
     fbe:	5886                	c.lwsp	a7,96(sp)
     fc0:	4e76                	c.lwsp	t3,92(sp)
     fc2:	4ee6                	c.lwsp	t4,88(sp)
     fc4:	4f56                	c.lwsp	t5,84(sp)
     fc6:	4fc6                	c.lwsp	t6,80(sp)
     fc8:	6036                	c.flwsp	ft0,76(sp)
     fca:	60a6                	c.flwsp	ft1,72(sp)
     fcc:	6116                	c.flwsp	ft2,68(sp)
     fce:	6186                	c.flwsp	ft3,64(sp)
     fd0:	7272                	c.flwsp	ft4,60(sp)
     fd2:	72e2                	c.flwsp	ft5,56(sp)
     fd4:	7352                	c.flwsp	ft6,52(sp)
     fd6:	73c2                	c.flwsp	ft7,48(sp)
     fd8:	7532                	c.flwsp	fa0,44(sp)
     fda:	75a2                	c.flwsp	fa1,40(sp)
     fdc:	7612                	c.flwsp	fa2,36(sp)
     fde:	7682                	c.flwsp	fa3,32(sp)
     fe0:	6772                	c.flwsp	fa4,28(sp)
     fe2:	67e2                	c.flwsp	fa5,24(sp)
     fe4:	6852                	c.flwsp	fa6,20(sp)
     fe6:	68c2                	c.flwsp	fa7,16(sp)
     fe8:	6e32                	c.flwsp	ft8,12(sp)
     fea:	6ea2                	c.flwsp	ft9,8(sp)
     fec:	6f12                	c.flwsp	ft10,4(sp)
     fee:	6f82                	c.flwsp	ft11,0(sp)
     ff0:	09010113          	addi	sp,sp,144
     ff4:	30200073          	mret

00000ff8 <entry_irq25>:
     ff8:	7175                	c.addi16sp	sp,-144
     ffa:	d6ba                	c.swsp	a4,108(sp)
     ffc:	d4be                	c.swsp	a5,104(sp)
     ffe:	c706                	c.swsp	ra,140(sp)
    1000:	c516                	c.swsp	t0,136(sp)
    1002:	c31a                	c.swsp	t1,132(sp)
    1004:	c11e                	c.swsp	t2,128(sp)
    1006:	deaa                	c.swsp	a0,124(sp)
    1008:	dcae                	c.swsp	a1,120(sp)
    100a:	dab2                	c.swsp	a2,116(sp)
    100c:	d8b6                	c.swsp	a3,112(sp)
    100e:	d2c2                	c.swsp	a6,100(sp)
    1010:	d0c6                	c.swsp	a7,96(sp)
    1012:	cef2                	c.swsp	t3,92(sp)
    1014:	ccf6                	c.swsp	t4,88(sp)
    1016:	cafa                	c.swsp	t5,84(sp)
    1018:	05f12823          	sw	t6,80(sp)
    101c:	e682                	c.fswsp	ft0,76(sp)
    101e:	e486                	c.fswsp	ft1,72(sp)
    1020:	e28a                	c.fswsp	ft2,68(sp)
    1022:	e08e                	c.fswsp	ft3,64(sp)
    1024:	fe12                	c.fswsp	ft4,60(sp)
    1026:	fc16                	c.fswsp	ft5,56(sp)
    1028:	fa1a                	c.fswsp	ft6,52(sp)
    102a:	f81e                	c.fswsp	ft7,48(sp)
    102c:	f62a                	c.fswsp	fa0,44(sp)
    102e:	f42e                	c.fswsp	fa1,40(sp)
    1030:	f232                	c.fswsp	fa2,36(sp)
    1032:	f036                	c.fswsp	fa3,32(sp)
    1034:	ee3a                	c.fswsp	fa4,28(sp)
    1036:	ec3e                	c.fswsp	fa5,24(sp)
    1038:	ea42                	c.fswsp	fa6,20(sp)
    103a:	e846                	c.fswsp	fa7,16(sp)
    103c:	e672                	c.fswsp	ft8,12(sp)
    103e:	e476                	c.fswsp	ft9,8(sp)
    1040:	e27a                	c.fswsp	ft10,4(sp)
    1042:	e07e                	c.fswsp	ft11,0(sp)
    1044:	20005097          	auipc	ra,0x20005
    1048:	048080e7          	jalr	72(ra) # 2000608c <gpio_irq_handler>
    104c:	e42007b7          	lui	a5,0xe4200
    1050:	4765                	c.li	a4,25
    1052:	c3d8                	c.sw	a4,4(a5)
    1054:	40ba                	c.lwsp	ra,140(sp)
    1056:	42aa                	c.lwsp	t0,136(sp)
    1058:	431a                	c.lwsp	t1,132(sp)
    105a:	438a                	c.lwsp	t2,128(sp)
    105c:	5576                	c.lwsp	a0,124(sp)
    105e:	55e6                	c.lwsp	a1,120(sp)
    1060:	5656                	c.lwsp	a2,116(sp)
    1062:	56c6                	c.lwsp	a3,112(sp)
    1064:	5736                	c.lwsp	a4,108(sp)
    1066:	57a6                	c.lwsp	a5,104(sp)
    1068:	5816                	c.lwsp	a6,100(sp)
    106a:	5886                	c.lwsp	a7,96(sp)
    106c:	4e76                	c.lwsp	t3,92(sp)
    106e:	4ee6                	c.lwsp	t4,88(sp)
    1070:	4f56                	c.lwsp	t5,84(sp)
    1072:	4fc6                	c.lwsp	t6,80(sp)
    1074:	6036                	c.flwsp	ft0,76(sp)
    1076:	60a6                	c.flwsp	ft1,72(sp)
    1078:	6116                	c.flwsp	ft2,68(sp)
    107a:	6186                	c.flwsp	ft3,64(sp)
    107c:	7272                	c.flwsp	ft4,60(sp)
    107e:	72e2                	c.flwsp	ft5,56(sp)
    1080:	7352                	c.flwsp	ft6,52(sp)
    1082:	73c2                	c.flwsp	ft7,48(sp)
    1084:	7532                	c.flwsp	fa0,44(sp)
    1086:	75a2                	c.flwsp	fa1,40(sp)
    1088:	7612                	c.flwsp	fa2,36(sp)
    108a:	7682                	c.flwsp	fa3,32(sp)
    108c:	6772                	c.flwsp	fa4,28(sp)
    108e:	67e2                	c.flwsp	fa5,24(sp)
    1090:	6852                	c.flwsp	fa6,20(sp)
    1092:	68c2                	c.flwsp	fa7,16(sp)
    1094:	6e32                	c.flwsp	ft8,12(sp)
    1096:	6ea2                	c.flwsp	ft9,8(sp)
    1098:	6f12                	c.flwsp	ft10,4(sp)
    109a:	6f82                	c.flwsp	ft11,0(sp)
    109c:	09010113          	addi	sp,sp,144
    10a0:	30200073          	mret

000010a4 <entry_irq24>:
    10a4:	1141                	c.addi	sp,-16
    10a6:	c63a                	c.swsp	a4,12(sp)
    10a8:	c43e                	c.swsp	a5,8(sp)
    10aa:	4761                	c.li	a4,24
    10ac:	e42007b7          	lui	a5,0xe4200
    10b0:	c3d8                	c.sw	a4,4(a5)
    10b2:	4732                	c.lwsp	a4,12(sp)
    10b4:	47a2                	c.lwsp	a5,8(sp)
    10b6:	0141                	c.addi	sp,16
    10b8:	30200073          	mret

000010bc <entry_irq23>:
    10bc:	1141                	c.addi	sp,-16
    10be:	c63a                	c.swsp	a4,12(sp)
    10c0:	c43e                	c.swsp	a5,8(sp)
    10c2:	475d                	c.li	a4,23
    10c4:	e42007b7          	lui	a5,0xe4200
    10c8:	c3d8                	c.sw	a4,4(a5)
    10ca:	4732                	c.lwsp	a4,12(sp)
    10cc:	47a2                	c.lwsp	a5,8(sp)
    10ce:	0141                	c.addi	sp,16
    10d0:	30200073          	mret

000010d4 <entry_irq22>:
    10d4:	1141                	c.addi	sp,-16
    10d6:	c63a                	c.swsp	a4,12(sp)
    10d8:	c43e                	c.swsp	a5,8(sp)
    10da:	4759                	c.li	a4,22
    10dc:	e42007b7          	lui	a5,0xe4200
    10e0:	c3d8                	c.sw	a4,4(a5)
    10e2:	4732                	c.lwsp	a4,12(sp)
    10e4:	47a2                	c.lwsp	a5,8(sp)
    10e6:	0141                	c.addi	sp,16
    10e8:	30200073          	mret

000010ec <entry_irq21>:
    10ec:	1141                	c.addi	sp,-16
    10ee:	c63a                	c.swsp	a4,12(sp)
    10f0:	c43e                	c.swsp	a5,8(sp)
    10f2:	4755                	c.li	a4,21
    10f4:	e42007b7          	lui	a5,0xe4200
    10f8:	c3d8                	c.sw	a4,4(a5)
    10fa:	4732                	c.lwsp	a4,12(sp)
    10fc:	47a2                	c.lwsp	a5,8(sp)
    10fe:	0141                	c.addi	sp,16
    1100:	30200073          	mret

00001104 <entry_irq20>:
    1104:	1141                	c.addi	sp,-16
    1106:	c63a                	c.swsp	a4,12(sp)
    1108:	c43e                	c.swsp	a5,8(sp)
    110a:	4751                	c.li	a4,20
    110c:	e42007b7          	lui	a5,0xe4200
    1110:	c3d8                	c.sw	a4,4(a5)
    1112:	4732                	c.lwsp	a4,12(sp)
    1114:	47a2                	c.lwsp	a5,8(sp)
    1116:	0141                	c.addi	sp,16
    1118:	30200073          	mret

0000111c <entry_irq19>:
    111c:	7175                	c.addi16sp	sp,-144
    111e:	d6ba                	c.swsp	a4,108(sp)
    1120:	d4be                	c.swsp	a5,104(sp)
    1122:	c706                	c.swsp	ra,140(sp)
    1124:	c516                	c.swsp	t0,136(sp)
    1126:	c31a                	c.swsp	t1,132(sp)
    1128:	c11e                	c.swsp	t2,128(sp)
    112a:	deaa                	c.swsp	a0,124(sp)
    112c:	dcae                	c.swsp	a1,120(sp)
    112e:	dab2                	c.swsp	a2,116(sp)
    1130:	d8b6                	c.swsp	a3,112(sp)
    1132:	d2c2                	c.swsp	a6,100(sp)
    1134:	d0c6                	c.swsp	a7,96(sp)
    1136:	cef2                	c.swsp	t3,92(sp)
    1138:	ccf6                	c.swsp	t4,88(sp)
    113a:	cafa                	c.swsp	t5,84(sp)
    113c:	05f12823          	sw	t6,80(sp)
    1140:	e682                	c.fswsp	ft0,76(sp)
    1142:	e486                	c.fswsp	ft1,72(sp)
    1144:	e28a                	c.fswsp	ft2,68(sp)
    1146:	e08e                	c.fswsp	ft3,64(sp)
    1148:	fe12                	c.fswsp	ft4,60(sp)
    114a:	fc16                	c.fswsp	ft5,56(sp)
    114c:	fa1a                	c.fswsp	ft6,52(sp)
    114e:	f81e                	c.fswsp	ft7,48(sp)
    1150:	f62a                	c.fswsp	fa0,44(sp)
    1152:	f42e                	c.fswsp	fa1,40(sp)
    1154:	f232                	c.fswsp	fa2,36(sp)
    1156:	f036                	c.fswsp	fa3,32(sp)
    1158:	ee3a                	c.fswsp	fa4,28(sp)
    115a:	ec3e                	c.fswsp	fa5,24(sp)
    115c:	ea42                	c.fswsp	fa6,20(sp)
    115e:	e846                	c.fswsp	fa7,16(sp)
    1160:	e672                	c.fswsp	ft8,12(sp)
    1162:	e476                	c.fswsp	ft9,8(sp)
    1164:	e27a                	c.fswsp	ft10,4(sp)
    1166:	e07e                	c.fswsp	ft11,0(sp)
    1168:	20003097          	auipc	ra,0x20003
    116c:	1b8080e7          	jalr	440(ra) # 20004320 <uart0_irq_handler>
    1170:	e42007b7          	lui	a5,0xe4200
    1174:	474d                	c.li	a4,19
    1176:	c3d8                	c.sw	a4,4(a5)
    1178:	40ba                	c.lwsp	ra,140(sp)
    117a:	42aa                	c.lwsp	t0,136(sp)
    117c:	431a                	c.lwsp	t1,132(sp)
    117e:	438a                	c.lwsp	t2,128(sp)
    1180:	5576                	c.lwsp	a0,124(sp)
    1182:	55e6                	c.lwsp	a1,120(sp)
    1184:	5656                	c.lwsp	a2,116(sp)
    1186:	56c6                	c.lwsp	a3,112(sp)
    1188:	5736                	c.lwsp	a4,108(sp)
    118a:	57a6                	c.lwsp	a5,104(sp)
    118c:	5816                	c.lwsp	a6,100(sp)
    118e:	5886                	c.lwsp	a7,96(sp)
    1190:	4e76                	c.lwsp	t3,92(sp)
    1192:	4ee6                	c.lwsp	t4,88(sp)
    1194:	4f56                	c.lwsp	t5,84(sp)
    1196:	4fc6                	c.lwsp	t6,80(sp)
    1198:	6036                	c.flwsp	ft0,76(sp)
    119a:	60a6                	c.flwsp	ft1,72(sp)
    119c:	6116                	c.flwsp	ft2,68(sp)
    119e:	6186                	c.flwsp	ft3,64(sp)
    11a0:	7272                	c.flwsp	ft4,60(sp)
    11a2:	72e2                	c.flwsp	ft5,56(sp)
    11a4:	7352                	c.flwsp	ft6,52(sp)
    11a6:	73c2                	c.flwsp	ft7,48(sp)
    11a8:	7532                	c.flwsp	fa0,44(sp)
    11aa:	75a2                	c.flwsp	fa1,40(sp)
    11ac:	7612                	c.flwsp	fa2,36(sp)
    11ae:	7682                	c.flwsp	fa3,32(sp)
    11b0:	6772                	c.flwsp	fa4,28(sp)
    11b2:	67e2                	c.flwsp	fa5,24(sp)
    11b4:	6852                	c.flwsp	fa6,20(sp)
    11b6:	68c2                	c.flwsp	fa7,16(sp)
    11b8:	6e32                	c.flwsp	ft8,12(sp)
    11ba:	6ea2                	c.flwsp	ft9,8(sp)
    11bc:	6f12                	c.flwsp	ft10,4(sp)
    11be:	6f82                	c.flwsp	ft11,0(sp)
    11c0:	09010113          	addi	sp,sp,144
    11c4:	30200073          	mret

000011c8 <entry_irq18>:
    11c8:	1141                	c.addi	sp,-16
    11ca:	c63a                	c.swsp	a4,12(sp)
    11cc:	c43e                	c.swsp	a5,8(sp)
    11ce:	4749                	c.li	a4,18
    11d0:	e42007b7          	lui	a5,0xe4200
    11d4:	c3d8                	c.sw	a4,4(a5)
    11d6:	4732                	c.lwsp	a4,12(sp)
    11d8:	47a2                	c.lwsp	a5,8(sp)
    11da:	0141                	c.addi	sp,16
    11dc:	30200073          	mret

000011e0 <entry_irq17>:
    11e0:	1141                	c.addi	sp,-16
    11e2:	c63a                	c.swsp	a4,12(sp)
    11e4:	c43e                	c.swsp	a5,8(sp)
    11e6:	4745                	c.li	a4,17
    11e8:	e42007b7          	lui	a5,0xe4200
    11ec:	c3d8                	c.sw	a4,4(a5)
    11ee:	4732                	c.lwsp	a4,12(sp)
    11f0:	47a2                	c.lwsp	a5,8(sp)
    11f2:	0141                	c.addi	sp,16
    11f4:	30200073          	mret

000011f8 <entry_irq16>:
    11f8:	1141                	c.addi	sp,-16
    11fa:	c63a                	c.swsp	a4,12(sp)
    11fc:	c43e                	c.swsp	a5,8(sp)
    11fe:	4741                	c.li	a4,16
    1200:	e42007b7          	lui	a5,0xe4200
    1204:	c3d8                	c.sw	a4,4(a5)
    1206:	4732                	c.lwsp	a4,12(sp)
    1208:	47a2                	c.lwsp	a5,8(sp)
    120a:	0141                	c.addi	sp,16
    120c:	30200073          	mret

00001210 <entry_irq15>:
    1210:	7175                	c.addi16sp	sp,-144
    1212:	d6ba                	c.swsp	a4,108(sp)
    1214:	d4be                	c.swsp	a5,104(sp)
    1216:	c706                	c.swsp	ra,140(sp)
    1218:	c516                	c.swsp	t0,136(sp)
    121a:	c31a                	c.swsp	t1,132(sp)
    121c:	c11e                	c.swsp	t2,128(sp)
    121e:	deaa                	c.swsp	a0,124(sp)
    1220:	dcae                	c.swsp	a1,120(sp)
    1222:	dab2                	c.swsp	a2,116(sp)
    1224:	d8b6                	c.swsp	a3,112(sp)
    1226:	d2c2                	c.swsp	a6,100(sp)
    1228:	d0c6                	c.swsp	a7,96(sp)
    122a:	cef2                	c.swsp	t3,92(sp)
    122c:	ccf6                	c.swsp	t4,88(sp)
    122e:	cafa                	c.swsp	t5,84(sp)
    1230:	05f12823          	sw	t6,80(sp)
    1234:	e682                	c.fswsp	ft0,76(sp)
    1236:	e486                	c.fswsp	ft1,72(sp)
    1238:	e28a                	c.fswsp	ft2,68(sp)
    123a:	e08e                	c.fswsp	ft3,64(sp)
    123c:	fe12                	c.fswsp	ft4,60(sp)
    123e:	fc16                	c.fswsp	ft5,56(sp)
    1240:	fa1a                	c.fswsp	ft6,52(sp)
    1242:	f81e                	c.fswsp	ft7,48(sp)
    1244:	f62a                	c.fswsp	fa0,44(sp)
    1246:	f42e                	c.fswsp	fa1,40(sp)
    1248:	f232                	c.fswsp	fa2,36(sp)
    124a:	f036                	c.fswsp	fa3,32(sp)
    124c:	ee3a                	c.fswsp	fa4,28(sp)
    124e:	ec3e                	c.fswsp	fa5,24(sp)
    1250:	ea42                	c.fswsp	fa6,20(sp)
    1252:	e846                	c.fswsp	fa7,16(sp)
    1254:	e672                	c.fswsp	ft8,12(sp)
    1256:	e476                	c.fswsp	ft9,8(sp)
    1258:	e27a                	c.fswsp	ft10,4(sp)
    125a:	e07e                	c.fswsp	ft11,0(sp)
    125c:	20002097          	auipc	ra,0x20002
    1260:	270080e7          	jalr	624(ra) # 200034cc <rf_irq_handler>
    1264:	e42007b7          	lui	a5,0xe4200
    1268:	473d                	c.li	a4,15
    126a:	c3d8                	c.sw	a4,4(a5)
    126c:	40ba                	c.lwsp	ra,140(sp)
    126e:	42aa                	c.lwsp	t0,136(sp)
    1270:	431a                	c.lwsp	t1,132(sp)
    1272:	438a                	c.lwsp	t2,128(sp)
    1274:	5576                	c.lwsp	a0,124(sp)
    1276:	55e6                	c.lwsp	a1,120(sp)
    1278:	5656                	c.lwsp	a2,116(sp)
    127a:	56c6                	c.lwsp	a3,112(sp)
    127c:	5736                	c.lwsp	a4,108(sp)
    127e:	57a6                	c.lwsp	a5,104(sp)
    1280:	5816                	c.lwsp	a6,100(sp)
    1282:	5886                	c.lwsp	a7,96(sp)
    1284:	4e76                	c.lwsp	t3,92(sp)
    1286:	4ee6                	c.lwsp	t4,88(sp)
    1288:	4f56                	c.lwsp	t5,84(sp)
    128a:	4fc6                	c.lwsp	t6,80(sp)
    128c:	6036                	c.flwsp	ft0,76(sp)
    128e:	60a6                	c.flwsp	ft1,72(sp)
    1290:	6116                	c.flwsp	ft2,68(sp)
    1292:	6186                	c.flwsp	ft3,64(sp)
    1294:	7272                	c.flwsp	ft4,60(sp)
    1296:	72e2                	c.flwsp	ft5,56(sp)
    1298:	7352                	c.flwsp	ft6,52(sp)
    129a:	73c2                	c.flwsp	ft7,48(sp)
    129c:	7532                	c.flwsp	fa0,44(sp)
    129e:	75a2                	c.flwsp	fa1,40(sp)
    12a0:	7612                	c.flwsp	fa2,36(sp)
    12a2:	7682                	c.flwsp	fa3,32(sp)
    12a4:	6772                	c.flwsp	fa4,28(sp)
    12a6:	67e2                	c.flwsp	fa5,24(sp)
    12a8:	6852                	c.flwsp	fa6,20(sp)
    12aa:	68c2                	c.flwsp	fa7,16(sp)
    12ac:	6e32                	c.flwsp	ft8,12(sp)
    12ae:	6ea2                	c.flwsp	ft9,8(sp)
    12b0:	6f12                	c.flwsp	ft10,4(sp)
    12b2:	6f82                	c.flwsp	ft11,0(sp)
    12b4:	09010113          	addi	sp,sp,144
    12b8:	30200073          	mret

000012bc <entry_irq14>:
    12bc:	1141                	c.addi	sp,-16
    12be:	c63a                	c.swsp	a4,12(sp)
    12c0:	c43e                	c.swsp	a5,8(sp)
    12c2:	4739                	c.li	a4,14
    12c4:	e42007b7          	lui	a5,0xe4200
    12c8:	c3d8                	c.sw	a4,4(a5)
    12ca:	4732                	c.lwsp	a4,12(sp)
    12cc:	47a2                	c.lwsp	a5,8(sp)
    12ce:	0141                	c.addi	sp,16
    12d0:	30200073          	mret

000012d4 <entry_irq13>:
    12d4:	1141                	c.addi	sp,-16
    12d6:	c63a                	c.swsp	a4,12(sp)
    12d8:	c43e                	c.swsp	a5,8(sp)
    12da:	4735                	c.li	a4,13
    12dc:	e42007b7          	lui	a5,0xe4200
    12e0:	c3d8                	c.sw	a4,4(a5)
    12e2:	4732                	c.lwsp	a4,12(sp)
    12e4:	47a2                	c.lwsp	a5,8(sp)
    12e6:	0141                	c.addi	sp,16
    12e8:	30200073          	mret

000012ec <entry_irq12>:
    12ec:	1141                	c.addi	sp,-16
    12ee:	c63a                	c.swsp	a4,12(sp)
    12f0:	c43e                	c.swsp	a5,8(sp)
    12f2:	4731                	c.li	a4,12
    12f4:	e42007b7          	lui	a5,0xe4200
    12f8:	c3d8                	c.sw	a4,4(a5)
    12fa:	4732                	c.lwsp	a4,12(sp)
    12fc:	47a2                	c.lwsp	a5,8(sp)
    12fe:	0141                	c.addi	sp,16
    1300:	30200073          	mret

00001304 <entry_irq11>:
    1304:	1141                	c.addi	sp,-16
    1306:	c63a                	c.swsp	a4,12(sp)
    1308:	c43e                	c.swsp	a5,8(sp)
    130a:	472d                	c.li	a4,11
    130c:	e42007b7          	lui	a5,0xe4200
    1310:	c3d8                	c.sw	a4,4(a5)
    1312:	4732                	c.lwsp	a4,12(sp)
    1314:	47a2                	c.lwsp	a5,8(sp)
    1316:	0141                	c.addi	sp,16
    1318:	30200073          	mret

0000131c <entry_irq10>:
    131c:	1141                	c.addi	sp,-16
    131e:	c63a                	c.swsp	a4,12(sp)
    1320:	c43e                	c.swsp	a5,8(sp)
    1322:	4729                	c.li	a4,10
    1324:	e42007b7          	lui	a5,0xe4200
    1328:	c3d8                	c.sw	a4,4(a5)
    132a:	4732                	c.lwsp	a4,12(sp)
    132c:	47a2                	c.lwsp	a5,8(sp)
    132e:	0141                	c.addi	sp,16
    1330:	30200073          	mret

00001334 <entry_irq9>:
    1334:	1141                	c.addi	sp,-16
    1336:	c63a                	c.swsp	a4,12(sp)
    1338:	c43e                	c.swsp	a5,8(sp)
    133a:	4725                	c.li	a4,9
    133c:	e42007b7          	lui	a5,0xe4200
    1340:	c3d8                	c.sw	a4,4(a5)
    1342:	4732                	c.lwsp	a4,12(sp)
    1344:	47a2                	c.lwsp	a5,8(sp)
    1346:	0141                	c.addi	sp,16
    1348:	30200073          	mret

0000134c <entry_irq8>:
    134c:	1141                	c.addi	sp,-16
    134e:	c63a                	c.swsp	a4,12(sp)
    1350:	c43e                	c.swsp	a5,8(sp)
    1352:	4721                	c.li	a4,8
    1354:	e42007b7          	lui	a5,0xe4200
    1358:	c3d8                	c.sw	a4,4(a5)
    135a:	4732                	c.lwsp	a4,12(sp)
    135c:	47a2                	c.lwsp	a5,8(sp)
    135e:	0141                	c.addi	sp,16
    1360:	30200073          	mret

00001364 <entry_irq7>:
    1364:	1141                	c.addi	sp,-16
    1366:	c63a                	c.swsp	a4,12(sp)
    1368:	c43e                	c.swsp	a5,8(sp)
    136a:	471d                	c.li	a4,7
    136c:	e42007b7          	lui	a5,0xe4200
    1370:	c3d8                	c.sw	a4,4(a5)
    1372:	4732                	c.lwsp	a4,12(sp)
    1374:	47a2                	c.lwsp	a5,8(sp)
    1376:	0141                	c.addi	sp,16
    1378:	30200073          	mret

0000137c <entry_irq6>:
    137c:	1141                	c.addi	sp,-16
    137e:	c63a                	c.swsp	a4,12(sp)
    1380:	c43e                	c.swsp	a5,8(sp)
    1382:	4719                	c.li	a4,6
    1384:	e42007b7          	lui	a5,0xe4200
    1388:	c3d8                	c.sw	a4,4(a5)
    138a:	4732                	c.lwsp	a4,12(sp)
    138c:	47a2                	c.lwsp	a5,8(sp)
    138e:	0141                	c.addi	sp,16
    1390:	30200073          	mret

00001394 <entry_irq5>:
    1394:	1141                	c.addi	sp,-16
    1396:	c63a                	c.swsp	a4,12(sp)
    1398:	c43e                	c.swsp	a5,8(sp)
    139a:	4715                	c.li	a4,5
    139c:	e42007b7          	lui	a5,0xe4200
    13a0:	c3d8                	c.sw	a4,4(a5)
    13a2:	4732                	c.lwsp	a4,12(sp)
    13a4:	47a2                	c.lwsp	a5,8(sp)
    13a6:	0141                	c.addi	sp,16
    13a8:	30200073          	mret

000013ac <entry_irq4>:
    13ac:	7175                	c.addi16sp	sp,-144
    13ae:	d6ba                	c.swsp	a4,108(sp)
    13b0:	d4be                	c.swsp	a5,104(sp)
    13b2:	c706                	c.swsp	ra,140(sp)
    13b4:	c516                	c.swsp	t0,136(sp)
    13b6:	c31a                	c.swsp	t1,132(sp)
    13b8:	c11e                	c.swsp	t2,128(sp)
    13ba:	deaa                	c.swsp	a0,124(sp)
    13bc:	dcae                	c.swsp	a1,120(sp)
    13be:	dab2                	c.swsp	a2,116(sp)
    13c0:	d8b6                	c.swsp	a3,112(sp)
    13c2:	d2c2                	c.swsp	a6,100(sp)
    13c4:	d0c6                	c.swsp	a7,96(sp)
    13c6:	cef2                	c.swsp	t3,92(sp)
    13c8:	ccf6                	c.swsp	t4,88(sp)
    13ca:	cafa                	c.swsp	t5,84(sp)
    13cc:	05f12823          	sw	t6,80(sp)
    13d0:	e682                	c.fswsp	ft0,76(sp)
    13d2:	e486                	c.fswsp	ft1,72(sp)
    13d4:	e28a                	c.fswsp	ft2,68(sp)
    13d6:	e08e                	c.fswsp	ft3,64(sp)
    13d8:	fe12                	c.fswsp	ft4,60(sp)
    13da:	fc16                	c.fswsp	ft5,56(sp)
    13dc:	fa1a                	c.fswsp	ft6,52(sp)
    13de:	f81e                	c.fswsp	ft7,48(sp)
    13e0:	f62a                	c.fswsp	fa0,44(sp)
    13e2:	f42e                	c.fswsp	fa1,40(sp)
    13e4:	f232                	c.fswsp	fa2,36(sp)
    13e6:	f036                	c.fswsp	fa3,32(sp)
    13e8:	ee3a                	c.fswsp	fa4,28(sp)
    13ea:	ec3e                	c.fswsp	fa5,24(sp)
    13ec:	ea42                	c.fswsp	fa6,20(sp)
    13ee:	e846                	c.fswsp	fa7,16(sp)
    13f0:	e672                	c.fswsp	ft8,12(sp)
    13f2:	e476                	c.fswsp	ft9,8(sp)
    13f4:	e27a                	c.fswsp	ft10,4(sp)
    13f6:	e07e                	c.fswsp	ft11,0(sp)
    13f8:	20004097          	auipc	ra,0x20004
    13fc:	ae4080e7          	jalr	-1308(ra) # 20004edc <timer0_irq_handler>
    1400:	e42007b7          	lui	a5,0xe4200
    1404:	4711                	c.li	a4,4
    1406:	c3d8                	c.sw	a4,4(a5)
    1408:	40ba                	c.lwsp	ra,140(sp)
    140a:	42aa                	c.lwsp	t0,136(sp)
    140c:	431a                	c.lwsp	t1,132(sp)
    140e:	438a                	c.lwsp	t2,128(sp)
    1410:	5576                	c.lwsp	a0,124(sp)
    1412:	55e6                	c.lwsp	a1,120(sp)
    1414:	5656                	c.lwsp	a2,116(sp)
    1416:	56c6                	c.lwsp	a3,112(sp)
    1418:	5736                	c.lwsp	a4,108(sp)
    141a:	57a6                	c.lwsp	a5,104(sp)
    141c:	5816                	c.lwsp	a6,100(sp)
    141e:	5886                	c.lwsp	a7,96(sp)
    1420:	4e76                	c.lwsp	t3,92(sp)
    1422:	4ee6                	c.lwsp	t4,88(sp)
    1424:	4f56                	c.lwsp	t5,84(sp)
    1426:	4fc6                	c.lwsp	t6,80(sp)
    1428:	6036                	c.flwsp	ft0,76(sp)
    142a:	60a6                	c.flwsp	ft1,72(sp)
    142c:	6116                	c.flwsp	ft2,68(sp)
    142e:	6186                	c.flwsp	ft3,64(sp)
    1430:	7272                	c.flwsp	ft4,60(sp)
    1432:	72e2                	c.flwsp	ft5,56(sp)
    1434:	7352                	c.flwsp	ft6,52(sp)
    1436:	73c2                	c.flwsp	ft7,48(sp)
    1438:	7532                	c.flwsp	fa0,44(sp)
    143a:	75a2                	c.flwsp	fa1,40(sp)
    143c:	7612                	c.flwsp	fa2,36(sp)
    143e:	7682                	c.flwsp	fa3,32(sp)
    1440:	6772                	c.flwsp	fa4,28(sp)
    1442:	67e2                	c.flwsp	fa5,24(sp)
    1444:	6852                	c.flwsp	fa6,20(sp)
    1446:	68c2                	c.flwsp	fa7,16(sp)
    1448:	6e32                	c.flwsp	ft8,12(sp)
    144a:	6ea2                	c.flwsp	ft9,8(sp)
    144c:	6f12                	c.flwsp	ft10,4(sp)
    144e:	6f82                	c.flwsp	ft11,0(sp)
    1450:	09010113          	addi	sp,sp,144
    1454:	30200073          	mret

00001458 <entry_irq3>:
    1458:	7175                	c.addi16sp	sp,-144
    145a:	d6ba                	c.swsp	a4,108(sp)
    145c:	d4be                	c.swsp	a5,104(sp)
    145e:	c706                	c.swsp	ra,140(sp)
    1460:	c516                	c.swsp	t0,136(sp)
    1462:	c31a                	c.swsp	t1,132(sp)
    1464:	c11e                	c.swsp	t2,128(sp)
    1466:	deaa                	c.swsp	a0,124(sp)
    1468:	dcae                	c.swsp	a1,120(sp)
    146a:	dab2                	c.swsp	a2,116(sp)
    146c:	d8b6                	c.swsp	a3,112(sp)
    146e:	d2c2                	c.swsp	a6,100(sp)
    1470:	d0c6                	c.swsp	a7,96(sp)
    1472:	cef2                	c.swsp	t3,92(sp)
    1474:	ccf6                	c.swsp	t4,88(sp)
    1476:	cafa                	c.swsp	t5,84(sp)
    1478:	05f12823          	sw	t6,80(sp)
    147c:	e682                	c.fswsp	ft0,76(sp)
    147e:	e486                	c.fswsp	ft1,72(sp)
    1480:	e28a                	c.fswsp	ft2,68(sp)
    1482:	e08e                	c.fswsp	ft3,64(sp)
    1484:	fe12                	c.fswsp	ft4,60(sp)
    1486:	fc16                	c.fswsp	ft5,56(sp)
    1488:	fa1a                	c.fswsp	ft6,52(sp)
    148a:	f81e                	c.fswsp	ft7,48(sp)
    148c:	f62a                	c.fswsp	fa0,44(sp)
    148e:	f42e                	c.fswsp	fa1,40(sp)
    1490:	f232                	c.fswsp	fa2,36(sp)
    1492:	f036                	c.fswsp	fa3,32(sp)
    1494:	ee3a                	c.fswsp	fa4,28(sp)
    1496:	ec3e                	c.fswsp	fa5,24(sp)
    1498:	ea42                	c.fswsp	fa6,20(sp)
    149a:	e846                	c.fswsp	fa7,16(sp)
    149c:	e672                	c.fswsp	ft8,12(sp)
    149e:	e476                	c.fswsp	ft9,8(sp)
    14a0:	e27a                	c.fswsp	ft10,4(sp)
    14a2:	e07e                	c.fswsp	ft11,0(sp)
    14a4:	20004097          	auipc	ra,0x20004
    14a8:	a1c080e7          	jalr	-1508(ra) # 20004ec0 <timer1_irq_handler>
    14ac:	e42007b7          	lui	a5,0xe4200
    14b0:	470d                	c.li	a4,3
    14b2:	c3d8                	c.sw	a4,4(a5)
    14b4:	40ba                	c.lwsp	ra,140(sp)
    14b6:	42aa                	c.lwsp	t0,136(sp)
    14b8:	431a                	c.lwsp	t1,132(sp)
    14ba:	438a                	c.lwsp	t2,128(sp)
    14bc:	5576                	c.lwsp	a0,124(sp)
    14be:	55e6                	c.lwsp	a1,120(sp)
    14c0:	5656                	c.lwsp	a2,116(sp)
    14c2:	56c6                	c.lwsp	a3,112(sp)
    14c4:	5736                	c.lwsp	a4,108(sp)
    14c6:	57a6                	c.lwsp	a5,104(sp)
    14c8:	5816                	c.lwsp	a6,100(sp)
    14ca:	5886                	c.lwsp	a7,96(sp)
    14cc:	4e76                	c.lwsp	t3,92(sp)
    14ce:	4ee6                	c.lwsp	t4,88(sp)
    14d0:	4f56                	c.lwsp	t5,84(sp)
    14d2:	4fc6                	c.lwsp	t6,80(sp)
    14d4:	6036                	c.flwsp	ft0,76(sp)
    14d6:	60a6                	c.flwsp	ft1,72(sp)
    14d8:	6116                	c.flwsp	ft2,68(sp)
    14da:	6186                	c.flwsp	ft3,64(sp)
    14dc:	7272                	c.flwsp	ft4,60(sp)
    14de:	72e2                	c.flwsp	ft5,56(sp)
    14e0:	7352                	c.flwsp	ft6,52(sp)
    14e2:	73c2                	c.flwsp	ft7,48(sp)
    14e4:	7532                	c.flwsp	fa0,44(sp)
    14e6:	75a2                	c.flwsp	fa1,40(sp)
    14e8:	7612                	c.flwsp	fa2,36(sp)
    14ea:	7682                	c.flwsp	fa3,32(sp)
    14ec:	6772                	c.flwsp	fa4,28(sp)
    14ee:	67e2                	c.flwsp	fa5,24(sp)
    14f0:	6852                	c.flwsp	fa6,20(sp)
    14f2:	68c2                	c.flwsp	fa7,16(sp)
    14f4:	6e32                	c.flwsp	ft8,12(sp)
    14f6:	6ea2                	c.flwsp	ft9,8(sp)
    14f8:	6f12                	c.flwsp	ft10,4(sp)
    14fa:	6f82                	c.flwsp	ft11,0(sp)
    14fc:	09010113          	addi	sp,sp,144
    1500:	30200073          	mret

00001504 <entry_irq2>:
    1504:	1141                	c.addi	sp,-16
    1506:	c63a                	c.swsp	a4,12(sp)
    1508:	c43e                	c.swsp	a5,8(sp)
    150a:	4709                	c.li	a4,2
    150c:	e42007b7          	lui	a5,0xe4200
    1510:	c3d8                	c.sw	a4,4(a5)
    1512:	4732                	c.lwsp	a4,12(sp)
    1514:	47a2                	c.lwsp	a5,8(sp)
    1516:	0141                	c.addi	sp,16
    1518:	30200073          	mret

0000151c <entry_irq1>:
    151c:	7175                	c.addi16sp	sp,-144
    151e:	d6ba                	c.swsp	a4,108(sp)
    1520:	d4be                	c.swsp	a5,104(sp)
    1522:	c706                	c.swsp	ra,140(sp)
    1524:	c516                	c.swsp	t0,136(sp)
    1526:	c31a                	c.swsp	t1,132(sp)
    1528:	c11e                	c.swsp	t2,128(sp)
    152a:	deaa                	c.swsp	a0,124(sp)
    152c:	dcae                	c.swsp	a1,120(sp)
    152e:	dab2                	c.swsp	a2,116(sp)
    1530:	d8b6                	c.swsp	a3,112(sp)
    1532:	d2c2                	c.swsp	a6,100(sp)
    1534:	d0c6                	c.swsp	a7,96(sp)
    1536:	cef2                	c.swsp	t3,92(sp)
    1538:	ccf6                	c.swsp	t4,88(sp)
    153a:	cafa                	c.swsp	t5,84(sp)
    153c:	05f12823          	sw	t6,80(sp)
    1540:	e682                	c.fswsp	ft0,76(sp)
    1542:	e486                	c.fswsp	ft1,72(sp)
    1544:	e28a                	c.fswsp	ft2,68(sp)
    1546:	e08e                	c.fswsp	ft3,64(sp)
    1548:	fe12                	c.fswsp	ft4,60(sp)
    154a:	fc16                	c.fswsp	ft5,56(sp)
    154c:	fa1a                	c.fswsp	ft6,52(sp)
    154e:	f81e                	c.fswsp	ft7,48(sp)
    1550:	f62a                	c.fswsp	fa0,44(sp)
    1552:	f42e                	c.fswsp	fa1,40(sp)
    1554:	f232                	c.fswsp	fa2,36(sp)
    1556:	f036                	c.fswsp	fa3,32(sp)
    1558:	ee3a                	c.fswsp	fa4,28(sp)
    155a:	ec3e                	c.fswsp	fa5,24(sp)
    155c:	ea42                	c.fswsp	fa6,20(sp)
    155e:	e846                	c.fswsp	fa7,16(sp)
    1560:	e672                	c.fswsp	ft8,12(sp)
    1562:	e476                	c.fswsp	ft9,8(sp)
    1564:	e27a                	c.fswsp	ft10,4(sp)
    1566:	e07e                	c.fswsp	ft11,0(sp)
    1568:	20004097          	auipc	ra,0x20004
    156c:	92c080e7          	jalr	-1748(ra) # 20004e94 <stimer_irq_handler>
    1570:	e42007b7          	lui	a5,0xe4200
    1574:	4705                	c.li	a4,1
    1576:	c3d8                	c.sw	a4,4(a5)
    1578:	40ba                	c.lwsp	ra,140(sp)
    157a:	42aa                	c.lwsp	t0,136(sp)
    157c:	431a                	c.lwsp	t1,132(sp)
    157e:	438a                	c.lwsp	t2,128(sp)
    1580:	5576                	c.lwsp	a0,124(sp)
    1582:	55e6                	c.lwsp	a1,120(sp)
    1584:	5656                	c.lwsp	a2,116(sp)
    1586:	56c6                	c.lwsp	a3,112(sp)
    1588:	5736                	c.lwsp	a4,108(sp)
    158a:	57a6                	c.lwsp	a5,104(sp)
    158c:	5816                	c.lwsp	a6,100(sp)
    158e:	5886                	c.lwsp	a7,96(sp)
    1590:	4e76                	c.lwsp	t3,92(sp)
    1592:	4ee6                	c.lwsp	t4,88(sp)
    1594:	4f56                	c.lwsp	t5,84(sp)
    1596:	4fc6                	c.lwsp	t6,80(sp)
    1598:	6036                	c.flwsp	ft0,76(sp)
    159a:	60a6                	c.flwsp	ft1,72(sp)
    159c:	6116                	c.flwsp	ft2,68(sp)
    159e:	6186                	c.flwsp	ft3,64(sp)
    15a0:	7272                	c.flwsp	ft4,60(sp)
    15a2:	72e2                	c.flwsp	ft5,56(sp)
    15a4:	7352                	c.flwsp	ft6,52(sp)
    15a6:	73c2                	c.flwsp	ft7,48(sp)
    15a8:	7532                	c.flwsp	fa0,44(sp)
    15aa:	75a2                	c.flwsp	fa1,40(sp)
    15ac:	7612                	c.flwsp	fa2,36(sp)
    15ae:	7682                	c.flwsp	fa3,32(sp)
    15b0:	6772                	c.flwsp	fa4,28(sp)
    15b2:	67e2                	c.flwsp	fa5,24(sp)
    15b4:	6852                	c.flwsp	fa6,20(sp)
    15b6:	68c2                	c.flwsp	fa7,16(sp)
    15b8:	6e32                	c.flwsp	ft8,12(sp)
    15ba:	6ea2                	c.flwsp	ft9,8(sp)
    15bc:	6f12                	c.flwsp	ft10,4(sp)
    15be:	6f82                	c.flwsp	ft11,0(sp)
    15c0:	09010113          	addi	sp,sp,144
    15c4:	30200073          	mret

000015c8 <trap_entry>:
    15c8:	1101                	c.addi	sp,-32
    15ca:	ce3a                	c.swsp	a4,28(sp)
    15cc:	6741                	c.lui	a4,0x10
    15ce:	1779                	c.addi	a4,-2
    15d0:	00f12c23          	sw	a5,24(sp)
    15d4:	c602                	c.swsp	zero,12(sp)
    15d6:	47b2                	c.lwsp	a5,12(sp)
    15d8:	fef76ee3          	bltu	a4,a5,15d4 <trap_entry+0xc>
    15dc:	0001                	c.nop
    15de:	47b2                	c.lwsp	a5,12(sp)
    15e0:	0785                	c.addi	a5,1
    15e2:	c63e                	c.swsp	a5,12(sp)
    15e4:	47b2                	c.lwsp	a5,12(sp)
    15e6:	fef77be3          	bgeu	a4,a5,15dc <trap_entry+0x14>
    15ea:	b7ed                	c.j	15d4 <trap_entry+0xc>
    15ec:	0001                	c.nop
	...

000015f0 <tl_zbTaskQPush>:
    15f0:	1101                	c.addi	sp,-32
    15f2:	ce06                	c.swsp	ra,28(sp)
    15f4:	cc22                	c.swsp	s0,24(sp)
    15f6:	ca26                	c.swsp	s1,20(sp)
    15f8:	c84a                	c.swsp	s2,16(sp)
    15fa:	c64e                	c.swsp	s3,12(sp)
    15fc:	30402973          	csrr	s2,mie
    1600:	6785                	c.lui	a5,0x1
    1602:	88878793          	addi	a5,a5,-1912 # 888 <rf_rx_irq_handler+0x21c>
    1606:	3047b7f3          	csrrc	a5,mie,a5
    160a:	e11d                	c.bnez	a0,1630 <tl_zbTaskQPush+0x40>
    160c:	5850170b          	addigp	a4,3460 # 398c <taskQ_user>
    1610:	10074683          	lbu	a3,256(a4) # 10100 <_BSS_VMA_END+0x8a90>
    1614:	10174783          	lbu	a5,257(a4)
    1618:	467d                	c.li	a2,31
    161a:	40f687b3          	sub	a5,a3,a5
    161e:	08f64163          	blt	a2,a5,16a0 <tl_zbTaskQPush+0xb0>
    1622:	0c76a7db          	bfoz	a5,a3,3,7
    1626:	0685                	c.addi	a3,1
    1628:	97ba                	c.add	a5,a4
    162a:	10d70023          	sb	a3,256(a4)
    162e:	a81d                	c.j	1664 <tl_zbTaskQPush+0x74>
    1630:	08400793          	li	a5,132
    1634:	fff50713          	addi	a4,a0,-1
    1638:	02f70733          	mul	a4,a4,a5
    163c:	2110178b          	addigp	a5,2576 # 3618 <g_zbTaskQ>
    1640:	48bd                	c.li	a7,15
    1642:	00e78833          	add	a6,a5,a4
    1646:	08084683          	lbu	a3,128(a6)
    164a:	08184603          	lbu	a2,129(a6)
    164e:	40c68633          	sub	a2,a3,a2
    1652:	04c8c763          	blt	a7,a2,16a0 <tl_zbTaskQPush+0xb0>
    1656:	0c66a65b          	bfoz	a2,a3,3,6
    165a:	9732                	c.add	a4,a2
    165c:	0685                	c.addi	a3,1
    165e:	97ba                	c.add	a5,a4
    1660:	08d80023          	sb	a3,128(a6)
    1664:	4198                	c.lw	a4,0(a1)
    1666:	84aa                	c.mv	s1,a0
    1668:	c398                	c.sw	a4,0(a5)
    166a:	41d8                	c.lw	a4,4(a1)
    166c:	842e                	c.mv	s0,a1
    166e:	c3d8                	c.sw	a4,4(a5)
    1670:	0045a983          	lw	s3,4(a1) # 10004 <_BSS_VMA_END+0x8994>
    1674:	01300533          	add	a0,zero,s3
    1678:	20009097          	auipc	ra,0x20009
    167c:	ac8080e7          	jalr	-1336(ra) # 2000a140 <buf_type_get>
    1680:	00051663          	bnez	a0,168c <tl_zbTaskQPush+0x9c>
    1684:	0c398783          	lb	a5,195(s3)
    1688:	0207f65b          	bbc	a5,0,16b4 <tl_zbTaskQPush+0xc4>
    168c:	30492973          	csrrs	s2,mie,s2
    1690:	40f2                	c.lwsp	ra,28(sp)
    1692:	4462                	c.lwsp	s0,24(sp)
    1694:	44d2                	c.lwsp	s1,20(sp)
    1696:	4942                	c.lwsp	s2,16(sp)
    1698:	49b2                	c.lwsp	s3,12(sp)
    169a:	4501                	c.li	a0,0
    169c:	6105                	c.addi16sp	sp,32
    169e:	8082                	c.jr	ra
    16a0:	30492973          	csrrs	s2,mie,s2
    16a4:	40f2                	c.lwsp	ra,28(sp)
    16a6:	4462                	c.lwsp	s0,24(sp)
    16a8:	44d2                	c.lwsp	s1,20(sp)
    16aa:	4942                	c.lwsp	s2,16(sp)
    16ac:	49b2                	c.lwsp	s3,12(sp)
    16ae:	4505                	c.li	a0,1
    16b0:	6105                	c.addi16sp	sp,32
    16b2:	8082                	c.jr	ra
    16b4:	a49fba8b          	sbgp	s1,-1452 # 265c <T_DBG_taskQPush_idx>
    16b8:	4014                	c.lw	a3,0(s0)
    16ba:	a4dfc7ab          	swgp	a3,-1460 # 2654 <T_DBG_taskQPush_cb>
    16be:	45cd                	c.li	a1,19
    16c0:	07e00513          	li	a0,126
    16c4:	a53fc9ab          	swgp	s3,-1456 # 2658 <T_DBG_taskQPush_data>
    16c8:	20002097          	auipc	ra,0x20002
    16cc:	3f4080e7          	jalr	1012(ra) # 20003abc <sys_exceptionPost>
    16d0:	fbdff06f          	j	168c <tl_zbTaskQPush+0x9c>

000016d4 <tl_zbMacHdrSize>:
    16d4:	2ca526db          	bfoz	a3,a0,11,10
    16d8:	00e55713          	srli	a4,a0,0xe
    16dc:	478d                	c.li	a5,3
    16de:	c689                	c.beqz	a3,16e8 <tl_zbMacHdrSize+0x14>
    16e0:	00700793          	li	a5,7
    16e4:	0236d45b          	beqc	a3,3,170c <tl_zbMacHdrSize+0x38>
    16e8:	cf01                	c.beqz	a4,1700 <tl_zbMacHdrSize+0x2c>
    16ea:	00375d5b          	beqc	a4,3,1704 <tl_zbMacHdrSize+0x30>
    16ee:	0789                	c.addi	a5,2
    16f0:	0ff7f793          	andi	a5,a5,255
    16f4:	4065765b          	bbs	a0,6,1700 <tl_zbMacHdrSize+0x2c>
    16f8:	00278793          	addi	a5,a5,2
    16fc:	0ff7f793          	andi	a5,a5,255
    1700:	853e                	c.mv	a0,a5
    1702:	8082                	c.jr	ra
    1704:	07a1                	c.addi	a5,8
    1706:	0ff7f793          	andi	a5,a5,255
    170a:	b7ed                	c.j	16f4 <tl_zbMacHdrSize+0x20>
    170c:	47b5                	c.li	a5,13
    170e:	bfe9                	c.j	16e8 <tl_zbMacHdrSize+0x14>

00001710 <zb_buf_get>:
    1710:	1141                	c.addi	sp,-16
    1712:	c606                	c.swsp	ra,12(sp)
    1714:	c422                	c.swsp	s0,8(sp)
    1716:	c226                	c.swsp	s1,4(sp)
    1718:	c04a                	c.swsp	s2,0(sp)
    171a:	30402973          	csrr	s2,mie
    171e:	6785                	c.lui	a5,0x1
    1720:	88878793          	addi	a5,a5,-1912 # 888 <rf_rx_irq_handler+0x21c>
    1724:	3047b7f3          	csrrc	a5,mie,a5
    1728:	5202148b          	addigp	s1,5408 # 4128 <g_mPool>
    172c:	0044a703          	lw	a4,4(s1)
    1730:	02300793          	li	a5,35
    1734:	08e7e863          	bltu	a5,a4,17c4 <zb_buf_get+0xb4>
    1738:	520227ab          	lwgp	a5,5408 # 4128 <g_mPool>
    173c:	5282170b          	addigp	a4,5416 # 4130 <g_mPool+0x8>
    1740:	06e7ea63          	bltu	a5,a4,17b4 <zb_buf_get+0xa4>
    1744:	1986170b          	addigp	a4,12696 # 5da0 <g_mPool+0x1c78>
    1748:	00f77c63          	bgeu	a4,a5,1760 <zb_buf_get+0x50>
    174c:	01300593          	li	a1,19
    1750:	04300513          	li	a0,67
    1754:	20002097          	auipc	ra,0x20002
    1758:	368080e7          	jalr	872(ra) # 20003abc <sys_exceptionPost>
    175c:	520227ab          	lwgp	a5,5408 # 4128 <g_mPool>
    1760:	cfa1                	c.beqz	a5,17b8 <zb_buf_get+0xa8>
    1762:	0c47a703          	lw	a4,196(a5)
    1766:	0c000613          	li	a2,192
    176a:	4581                	c.li	a1,0
    176c:	00f00533          	add	a0,zero,a5
    1770:	52e2402b          	swgp	a4,5408 # 4128 <g_mPool>
    1774:	0c07a223          	sw	zero,196(a5)
    1778:	0c07a023          	sw	zero,192(a5)
    177c:	20003097          	auipc	ra,0x20003
    1780:	ccc080e7          	jalr	-820(ra) # 20004448 <memset>
    1784:	40d0                	c.lw	a2,4(s1)
    1786:	0c350683          	lb	a3,195(a0)
    178a:	0c852703          	lw	a4,200(a0)
    178e:	0605                	c.addi	a2,1
    1790:	0016e693          	ori	a3,a3,1
    1794:	0705                	c.addi	a4,1
    1796:	87aa                	c.mv	a5,a0
    1798:	c0d0                	c.sw	a2,4(s1)
    179a:	0cd501a3          	sb	a3,195(a0)
    179e:	0ce52423          	sw	a4,200(a0)
    17a2:	30492973          	csrrs	s2,mie,s2
    17a6:	40b2                	c.lwsp	ra,12(sp)
    17a8:	4422                	c.lwsp	s0,8(sp)
    17aa:	4492                	c.lwsp	s1,4(sp)
    17ac:	4902                	c.lwsp	s2,0(sp)
    17ae:	853e                	c.mv	a0,a5
    17b0:	0141                	c.addi	sp,16
    17b2:	8082                	c.jr	ra
    17b4:	f8079ce3          	bnez	a5,174c <zb_buf_get+0x3c>
    17b8:	0044a703          	lw	a4,4(s1)
    17bc:	02300793          	li	a5,35
    17c0:	02e7f463          	bgeu	a5,a4,17e8 <zb_buf_get+0xd8>
    17c4:	30492973          	csrrs	s2,mie,s2
    17c8:	3908170b          	addigp	a4,17296 # 6f98 <g_sysDiags>
    17cc:	04a71683          	lh	a3,74(a4)
    17d0:	4781                	c.li	a5,0
    17d2:	0685                	c.addi	a3,1
    17d4:	04d71523          	sh	a3,74(a4)
    17d8:	40b2                	c.lwsp	ra,12(sp)
    17da:	4422                	c.lwsp	s0,8(sp)
    17dc:	4492                	c.lwsp	s1,4(sp)
    17de:	4902                	c.lwsp	s2,0(sp)
    17e0:	853e                	c.mv	a0,a5
    17e2:	0141                	c.addi	sp,16
    17e4:	00008067          	ret
    17e8:	01300593          	li	a1,19
    17ec:	05500513          	li	a0,85
    17f0:	20002097          	auipc	ra,0x20002
    17f4:	2cc080e7          	jalr	716(ra) # 20003abc <sys_exceptionPost>
    17f8:	30492973          	csrrs	s2,mie,s2
    17fc:	fcdff06f          	j	17c8 <zb_buf_get+0xb8>

00001800 <zb_macDataRecvHander>:
    1800:	1141                	c.addi	sp,-16
    1802:	c422                	c.swsp	s0,8(sp)
    1804:	c606                	c.swsp	ra,12(sp)
    1806:	fe050413          	addi	s0,a0,-32
    180a:	c6b9                	c.beqz	a3,1858 <zb_macDataRecvHander+0x58>
    180c:	4f50170b          	addigp	a4,3316 # 38fc <mac_trx_vars.lto_priv.167>
    1810:	00474683          	lbu	a3,4(a4)
    1814:	0036da5b          	beqc	a3,3,1828 <zb_macDataRecvHander+0x28>
    1818:	8522                	c.mv	a0,s0
    181a:	4422                	c.lwsp	s0,8(sp)
    181c:	40b2                	c.lwsp	ra,12(sp)
    181e:	0141                	c.addi	sp,16
    1820:	20009317          	auipc	t1,0x20009
    1824:	c3830067          	jr	-968(t1) # 2000a458 <zb_buf_free>
    1828:	00b74683          	lbu	a3,11(a4)
    182c:	0025c703          	lbu	a4,2(a1)
    1830:	fed714e3          	bne	a4,a3,1818 <zb_macDataRecvHander+0x18>
    1834:	00058503          	lb	a0,0(a1)
    1838:	20f7a7db          	bfoz	a5,a5,8,15
    183c:	0762                	c.slli	a4,0x18
    183e:	0057e793          	ori	a5,a5,5
    1842:	8941                	c.andi	a0,16
    1844:	8fd9                	c.or	a5,a4
    1846:	0542                	c.slli	a0,0x10
    1848:	00f56533          	or	a0,a0,a5
    184c:	2000b097          	auipc	ra,0x2000b
    1850:	0d4080e7          	jalr	212(ra) # 2000c920 <mac_trxTask.lto_priv.178>
    1854:	fc5ff06f          	j	1818 <zb_macDataRecvHander+0x18>
    1858:	a79fd68b          	addigp	a3,-1415 # 2681 <rf_busyFlag>
    185c:	5850180b          	addigp	a6,3460 # 398c <taskQ_user>
    1860:	1679                	c.addi	a2,-2
    1862:	feb52023          	sw	a1,-32(a0)
    1866:	fec504a3          	sb	a2,-23(a0)
    186a:	fee52223          	sw	a4,-28(a0)
    186e:	fef50423          	sb	a5,-24(a0)
    1872:	00068703          	lb	a4,0(a3)
    1876:	10080783          	lb	a5,256(a6)
    187a:	10180603          	lb	a2,257(a6)
    187e:	0fe77713          	andi	a4,a4,254
    1882:	8f91                	c.sub	a5,a2
    1884:	00e68023          	sb	a4,0(a3)
    1888:	0ff7f793          	andi	a5,a5,255
    188c:	4769                	c.li	a4,26
    188e:	f8f765e3          	bltu	a4,a5,1818 <zb_macDataRecvHander+0x18>
    1892:	85a2                	c.mv	a1,s0
    1894:	4422                	c.lwsp	s0,8(sp)
    1896:	40b2                	c.lwsp	ra,12(sp)
    1898:	2000c537          	lui	a0,0x2000c
    189c:	fb050513          	addi	a0,a0,-80 # 2000bfb0 <mac_rxDataParse>
    18a0:	0141                	c.addi	sp,16
    18a2:	20009317          	auipc	t1,0x20009
    18a6:	dfa30067          	jr	-518(t1) # 2000a69c <tl_zbTaskPost>
	...

000018ac <rf_set_rxmode>:
    18ac:	801417b7          	lui	a5,0x80141
    18b0:	04500713          	li	a4,69
    18b4:	a0e78123          	sb	a4,-1534(a5) # 80140a02 <_DATA_LMA_START+0x6011f662>
    18b8:	c2078703          	lb	a4,-992(a5)
    18bc:	0ff77713          	andi	a4,a4,255
    18c0:	00876713          	ori	a4,a4,8
    18c4:	c2e78023          	sb	a4,-992(a5)
    18c8:	a0278703          	lb	a4,-1534(a5)
    18cc:	0ff77713          	andi	a4,a4,255
    18d0:	02076713          	ori	a4,a4,32
    18d4:	a0e78123          	sb	a4,-1534(a5)
    18d8:	82878703          	lb	a4,-2008(a5)
    18dc:	0ff77713          	andi	a4,a4,255
    18e0:	00176713          	ori	a4,a4,1
    18e4:	82e78423          	sb	a4,-2008(a5)
    18e8:	00008067          	ret

000018ec <clock_set_32k_tick>:
    18ec:	801406b7          	lui	a3,0x80140
    18f0:	20a68703          	lb	a4,522(a3) # 8014020a <_DATA_LMA_START+0x6011ee6a>
    18f4:	801407b7          	lui	a5,0x80140
    18f8:	0ff77713          	andi	a4,a4,255
    18fc:	00176713          	ori	a4,a4,1
    1900:	20e68523          	sb	a4,522(a3)
    1904:	20b78703          	lb	a4,523(a5) # 8014020b <_DATA_LMA_START+0x6011ee6b>
    1908:	20b78693          	addi	a3,a5,523
    190c:	fe677c5b          	bbs	a4,6,1904 <clock_set_32k_tick+0x18>
    1910:	20a7a623          	sw	a0,524(a5)
    1914:	47a1                	c.li	a5,8
    1916:	00f68023          	sb	a5,0(a3)
    191a:	0001                	c.nop
    191c:	0001                	c.nop
    191e:	0001                	c.nop
    1920:	0001                	c.nop
    1922:	0001                	c.nop
    1924:	0001                	c.nop
    1926:	0001                	c.nop
    1928:	0001                	c.nop
    192a:	0001                	c.nop
    192c:	0001                	c.nop
    192e:	0001                	c.nop
    1930:	0001                	c.nop
    1932:	0001                	c.nop
    1934:	0001                	c.nop
    1936:	0001                	c.nop
    1938:	00000013          	nop
    193c:	80140737          	lui	a4,0x80140
    1940:	20b70783          	lb	a5,523(a4) # 8014020b <_DATA_LMA_START+0x6011ee6b>
    1944:	fe37fe5b          	bbs	a5,3,1940 <clock_set_32k_tick+0x54>
    1948:	00008067          	ret

0000194c <clock_get_32k_tick>:
    194c:	1141                	c.addi	sp,-16
    194e:	c422                	c.swsp	s0,8(sp)
    1950:	00112623          	sw	ra,12(sp)
    1954:	20019097          	auipc	ra,0x20019
    1958:	5a8080e7          	jalr	1448(ra) # 2001aefc <analog_read_reg32.constprop.88>
    195c:	00a00433          	add	s0,zero,a0
    1960:	20019097          	auipc	ra,0x20019
    1964:	59c080e7          	jalr	1436(ra) # 2001aefc <analog_read_reg32.constprop.88>
    1968:	40850733          	sub	a4,a0,s0
    196c:	842a                	c.mv	s0,a0
    196e:	be17695b          	bnec	a4,1,1960 <clock_get_32k_tick+0x14>
    1972:	40b2                	c.lwsp	ra,12(sp)
    1974:	4422                	c.lwsp	s0,8(sp)
    1976:	0141                	c.addi	sp,16
    1978:	00008067          	ret

0000197c <delay_ms.constprop.85>:
    197c:	801407b7          	lui	a5,0x80140
    1980:	00027737          	lui	a4,0x27
    1984:	2007a603          	lw	a2,512(a5) # 80140200 <_DATA_LMA_START+0x6011ee60>
    1988:	801406b7          	lui	a3,0x80140
    198c:	10070713          	addi	a4,a4,256 # 27100 <BIN_SIZE+0x5b9a>
    1990:	2006a783          	lw	a5,512(a3) # 80140200 <_DATA_LMA_START+0x6011ee60>
    1994:	8f91                	c.sub	a5,a2
    1996:	fef77de3          	bgeu	a4,a5,1990 <delay_ms.constprop.85+0x14>
    199a:	8082                	c.jr	ra

0000199c <tl_zbMacPendingDataCheck.constprop.63>:
    199c:	1141                	c.addi	sp,-16
    199e:	c422                	c.swsp	s0,8(sp)
    19a0:	842a                	c.mv	s0,a0
    19a2:	b01f950b          	addigp	a0,-1280 # 2708 <macPendingQueue_list.lto_priv.160>
    19a6:	c226                	c.swsp	s1,4(sp)
    19a8:	c04a                	c.swsp	s2,0(sp)
    19aa:	c606                	c.swsp	ra,12(sp)
    19ac:	00b004b3          	add	s1,zero,a1
    19b0:	b01f990b          	addigp	s2,-1280 # 2708 <macPendingQueue_list.lto_priv.160>
    19b4:	20004097          	auipc	ra,0x20004
    19b8:	638080e7          	jalr	1592(ra) # 20005fec <listLength>
    19bc:	c501                	c.beqz	a0,19c4 <tl_zbMacPendingDataCheck.constprop.63+0x28>
    19be:	00092783          	lw	a5,0(s2)
    19c2:	eb8d                	c.bnez	a5,19f4 <tl_zbMacPendingDataCheck.constprop.63+0x58>
    19c4:	0ed00513          	li	a0,237
    19c8:	40b2                	c.lwsp	ra,12(sp)
    19ca:	4422                	c.lwsp	s0,8(sp)
    19cc:	4492                	c.lwsp	s1,4(sp)
    19ce:	4902                	c.lwsp	s2,0(sp)
    19d0:	0141                	c.addi	sp,16
    19d2:	8082                	c.jr	ra
    19d4:	0004c603          	lbu	a2,0(s1)
    19d8:	0234565b          	beqc	s0,3,1a04 <tl_zbMacPendingDataCheck.constprop.63+0x68>
    19dc:	0014c703          	lbu	a4,1(s1)
    19e0:	0087d683          	lhu	a3,8(a5)
    19e4:	0722                	c.slli	a4,0x8
    19e6:	9732                	c.add	a4,a2
    19e8:	3c07275b          	bfoz	a4,a4,15,0
    19ec:	04e68063          	beq	a3,a4,1a2c <tl_zbMacPendingDataCheck.constprop.63+0x90>
    19f0:	439c                	c.lw	a5,0(a5)
    19f2:	dbe9                	c.beqz	a5,19c4 <tl_zbMacPendingDataCheck.constprop.63+0x28>
    19f4:	43d8                	c.lw	a4,4(a5)
    19f6:	df6d                	c.beqz	a4,19f0 <tl_zbMacPendingDataCheck.constprop.63+0x54>
    19f8:	0107c703          	lbu	a4,16(a5)
    19fc:	fe871ae3          	bne	a4,s0,19f0 <tl_zbMacPendingDataCheck.constprop.63+0x54>
    1a00:	fd5ff06f          	j	19d4 <tl_zbMacPendingDataCheck.constprop.63+0x38>
    1a04:	00878693          	addi	a3,a5,8
    1a08:	00148713          	addi	a4,s1,1
    1a0c:	01078513          	addi	a0,a5,16
    1a10:	00c0006f          	j	1a1c <tl_zbMacPendingDataCheck.constprop.63+0x80>
    1a14:	00074603          	lbu	a2,0(a4)
    1a18:	00170713          	addi	a4,a4,1
    1a1c:	0006c583          	lbu	a1,0(a3)
    1a20:	00168693          	addi	a3,a3,1
    1a24:	fcc596e3          	bne	a1,a2,19f0 <tl_zbMacPendingDataCheck.constprop.63+0x54>
    1a28:	fea696e3          	bne	a3,a0,1a14 <tl_zbMacPendingDataCheck.constprop.63+0x78>
    1a2c:	01378703          	lb	a4,19(a5)
    1a30:	4685                	c.li	a3,1
    1a32:	177d                	c.addi	a4,-1
    1a34:	0ff77713          	andi	a4,a4,255
    1a38:	0ed00513          	li	a0,237
    1a3c:	f8e6e6e3          	bltu	a3,a4,19c8 <tl_zbMacPendingDataCheck.constprop.63+0x2c>
    1a40:	4709                	c.li	a4,2
    1a42:	00e789a3          	sb	a4,19(a5)
    1a46:	40b2                	c.lwsp	ra,12(sp)
    1a48:	4422                	c.lwsp	s0,8(sp)
    1a4a:	4492                	c.lwsp	s1,4(sp)
    1a4c:	4902                	c.lwsp	s2,0(sp)
    1a4e:	4501                	c.li	a0,0
    1a50:	0141                	c.addi	sp,16
    1a52:	8082                	c.jr	ra

00001a54 <trng_rand>:
    1a54:	ae5f958b          	addigp	a1,-1308 # 26ec <g_rnd_m_w>
    1a58:	4198                	c.lw	a4,0(a1)
    1a5a:	66c1                	c.lui	a3,0x10
    1a5c:	ae9f960b          	addigp	a2,-1304 # 26f0 <g_rnd_m_z>
    1a60:	16fd                	c.addi	a3,-1
    1a62:	6511                	c.lui	a0,0x4
    1a64:	421c                	c.lw	a5,0(a2)
    1a66:	00d77833          	and	a6,a4,a3
    1a6a:	65050513          	addi	a0,a0,1616 # 4650 <g_mPool+0x528>
    1a6e:	8341                	c.srli	a4,0x10
    1a70:	c4a8177f          	maddr32	a4,a6,a0
    1a74:	6525                	c.lui	a0,0x9
    1a76:	8efd                	c.and	a3,a5
    1a78:	06950513          	addi	a0,a0,105 # 9069 <_BSS_VMA_END+0x19f9>
    1a7c:	83c1                	c.srli	a5,0x10
    1a7e:	c4a697ff          	maddr32	a5,a3,a0
    1a82:	801406b7          	lui	a3,0x80140
    1a86:	c21c                	c.sw	a5,0(a2)
    1a88:	c198                	c.sw	a4,0(a1)
    1a8a:	07c2                	c.slli	a5,0x10
    1a8c:	2006a503          	lw	a0,512(a3) # 80140200 <_DATA_LMA_START+0x6011ee60>
    1a90:	97ba                	c.add	a5,a4
    1a92:	8d3d                	c.xor	a0,a5
    1a94:	00008067          	ret

00001a98 <delay_us>:
    1a98:	801407b7          	lui	a5,0x80140
    1a9c:	2007a683          	lw	a3,512(a5) # 80140200 <_DATA_LMA_START+0x6011ee60>
    1aa0:	00451513          	slli	a0,a0,0x4
    1aa4:	80140737          	lui	a4,0x80140
    1aa8:	20072783          	lw	a5,512(a4) # 80140200 <_DATA_LMA_START+0x6011ee60>
    1aac:	8f95                	c.sub	a5,a3
    1aae:	fef57de3          	bgeu	a0,a5,1aa8 <delay_us+0x10>
    1ab2:	8082                	c.jr	ra

00001ab4 <pm_stimer_recover>:
    1ab4:	1141                	c.addi	sp,-16
    1ab6:	c606                	c.swsp	ra,12(sp)
    1ab8:	80140737          	lui	a4,0x80140
    1abc:	4789                	c.li	a5,2
    1abe:	20f70c23          	sb	a5,536(a4) # 80140218 <_DATA_LMA_START+0x6011ee78>
    1ac2:	20a70783          	lb	a5,522(a4)
    1ac6:	0ff7f793          	andi	a5,a5,255
    1aca:	00c7e793          	ori	a5,a5,12
    1ace:	20f70523          	sb	a5,522(a4)
    1ad2:	3dad                	c.jal	194c <clock_get_32k_tick>
    1ad4:	ad1fa78b          	lbugp	a5,-1328 # 26d8 <g_pm_long_suspend>
    1ad8:	cbb1                	c.beqz	a5,1b2c <pm_stimer_recover+0x78>
    1ada:	8b5f978b          	addigp	a5,-1868 # 24bc <pmcd>
    1ade:	43d8                	c.lw	a4,4(a5)
    1ae0:	adbfa5ab          	lwgp	a1,-1320 # 26e0 <g_pm_tick_32k_calib>
    1ae4:	40e50733          	sub	a4,a0,a4
    1ae8:	4390                	c.lw	a2,0(a5)
    1aea:	0705                	c.addi	a4,1
    1aec:	8315                	c.srli	a4,0x5
    1aee:	c4b7167f          	maddr32	a2,a4,a1
    1af2:	ae1f968b          	addigp	a3,-1312 # 26e8 <g_pm_tick_cur>
    1af6:	c290                	c.sw	a2,0(a3)
    1af8:	43d8                	c.lw	a4,4(a5)
    1afa:	4294                	c.lw	a3,0(a3)
    1afc:	40e50733          	sub	a4,a0,a4
    1b00:	0705                	c.addi	a4,1
    1b02:	0505                	c.addi	a0,1
    1b04:	cf98                	c.sw	a4,24(a5)
    1b06:	cfc8                	c.sw	a0,28(a5)
    1b08:	80140737          	lui	a4,0x80140
    1b0c:	00168793          	addi	a5,a3,1
    1b10:	801406b7          	lui	a3,0x80140
    1b14:	20f6a023          	sw	a5,512(a3) # 80140200 <_DATA_LMA_START+0x6011ee60>
    1b18:	20b70783          	lb	a5,523(a4) # 8014020b <_DATA_LMA_START+0x6011ee6b>
    1b1c:	be77fe5b          	bbc	a5,7,1b18 <pm_stimer_recover+0x64>
    1b20:	20070c23          	sb	zero,536(a4)
    1b24:	40b2                	c.lwsp	ra,12(sp)
    1b26:	0141                	c.addi	sp,16
    1b28:	00008067          	ret
    1b2c:	8b5f978b          	addigp	a5,-1868 # 24bc <pmcd>
    1b30:	43d8                	c.lw	a4,4(a5)
    1b32:	adbfa6ab          	lwgp	a3,-1320 # 26e0 <g_pm_tick_32k_calib>
    1b36:	40e50733          	sub	a4,a0,a4
    1b3a:	0705                	c.addi	a4,1
    1b3c:	02d70733          	mul	a4,a4,a3
    1b40:	4390                	c.lw	a2,0(a5)
    1b42:	ae1f968b          	addigp	a3,-1312 # 26e8 <g_pm_tick_cur>
    1b46:	8315                	c.srli	a4,0x5
    1b48:	9732                	c.add	a4,a2
    1b4a:	c298                	c.sw	a4,0(a3)
    1b4c:	fadff06f          	j	1af8 <pm_stimer_recover+0x44>

00001b50 <analog_write_reg8>:
    1b50:	30402673          	csrr	a2,mie
    1b54:	000017b7          	lui	a5,0x1
    1b58:	88878793          	addi	a5,a5,-1912 # 888 <rf_rx_irq_handler+0x21c>
    1b5c:	3047b7f3          	csrrc	a5,mie,a5
    1b60:	80140737          	lui	a4,0x80140
    1b64:	18a70023          	sb	a0,384(a4) # 80140180 <_DATA_LMA_START+0x6011ede0>
    1b68:	18b70223          	sb	a1,388(a4)
    1b6c:	06000693          	li	a3,96
    1b70:	801407b7          	lui	a5,0x80140
    1b74:	18d70123          	sb	a3,386(a4)
    1b78:	18278703          	lb	a4,386(a5) # 80140182 <_DATA_LMA_START+0x6011ede2>
    1b7c:	fe777e5b          	bbs	a4,7,1b78 <analog_write_reg8+0x28>
    1b80:	18078123          	sb	zero,386(a5)
    1b84:	30462673          	csrrs	a2,mie,a2
    1b88:	00008067          	ret

00001b8c <analog_read_reg8>:
    1b8c:	304026f3          	csrr	a3,mie
    1b90:	6785                	c.lui	a5,0x1
    1b92:	88878793          	addi	a5,a5,-1912 # 888 <rf_rx_irq_handler+0x21c>
    1b96:	3047b7f3          	csrrc	a5,mie,a5
    1b9a:	801407b7          	lui	a5,0x80140
    1b9e:	18a78023          	sb	a0,384(a5) # 80140180 <_DATA_LMA_START+0x6011ede0>
    1ba2:	4705                	c.li	a4,1
    1ba4:	18e781a3          	sb	a4,387(a5)
    1ba8:	04000613          	li	a2,64
    1bac:	80140737          	lui	a4,0x80140
    1bb0:	18c78123          	sb	a2,386(a5)
    1bb4:	18270783          	lb	a5,386(a4) # 80140182 <_DATA_LMA_START+0x6011ede2>
    1bb8:	fe77fe5b          	bbs	a5,7,1bb4 <analog_read_reg8+0x28>
    1bbc:	18470503          	lb	a0,388(a4)
    1bc0:	0ff57513          	andi	a0,a0,255
    1bc4:	3046a6f3          	csrrs	a3,mie,a3
    1bc8:	00008067          	ret

00001bcc <clock_init.constprop.89>:
    1bcc:	1141                	c.addi	sp,-16
    1bce:	08000513          	li	a0,128
    1bd2:	c606                	c.swsp	ra,12(sp)
    1bd4:	c422                	c.swsp	s0,8(sp)
    1bd6:	3f5d                	c.jal	1b8c <analog_read_reg8>
    1bd8:	0e057593          	andi	a1,a0,224
    1bdc:	0105e593          	ori	a1,a1,16
    1be0:	08000513          	li	a0,128
    1be4:	f6dff0ef          	jal	ra,1b50 <analog_write_reg8>
    1be8:	00900513          	li	a0,9
    1bec:	fa1ff0ef          	jal	ra,1b8c <analog_read_reg8>
    1bf0:	0f357593          	andi	a1,a0,243
    1bf4:	0085e593          	ori	a1,a1,8
    1bf8:	4525                	c.li	a0,9
    1bfa:	3f99                	c.jal	1b50 <analog_write_reg8>
    1bfc:	0c000793          	li	a5,192
    1c00:	981f940b          	addigp	s0,-1664 # 2588 <sys_clk>
    1c04:	00f41023          	sh	a5,0(s0)
    1c08:	4711                	c.li	a4,4
    1c0a:	801407b7          	lui	a5,0x80140
    1c0e:	08100513          	li	a0,129
    1c12:	1ee78da3          	sb	a4,507(a5) # 801401fb <_DATA_LMA_START+0x6011ee5b>
    1c16:	3f9d                	c.jal	1b8c <analog_read_reg8>
    1c18:	04056593          	ori	a1,a0,64
    1c1c:	0ff5f593          	andi	a1,a1,255
    1c20:	08100513          	li	a0,129
    1c24:	f2dff0ef          	jal	ra,1b50 <analog_write_reg8>
    1c28:	08800513          	li	a0,136
    1c2c:	f61ff0ef          	jal	ra,1b8c <analog_read_reg8>
    1c30:	be557c5b          	bbc	a0,5,1c28 <clock_init.constprop.89+0x5c>
    1c34:	08100513          	li	a0,129
    1c38:	f55ff0ef          	jal	ra,1b8c <analog_read_reg8>
    1c3c:	0bf57593          	andi	a1,a0,191
    1c40:	08100513          	li	a0,129
    1c44:	f0dff0ef          	jal	ra,1b50 <analog_write_reg8>
    1c48:	80140737          	lui	a4,0x80140
    1c4c:	10270783          	lb	a5,258(a4) # 80140102 <_DATA_LMA_START+0x6011ed62>
    1c50:	fe07fe5b          	bbs	a5,0,1c4c <clock_init.constprop.89+0x80>
    1c54:	10170683          	lb	a3,257(a4)
    1c58:	801407b7          	lui	a5,0x80140
    1c5c:	0ff6f693          	andi	a3,a3,255
    1c60:	0106e693          	ori	a3,a3,16
    1c64:	10d700a3          	sb	a3,257(a4)
    1c68:	32878703          	lb	a4,808(a5) # 80140328 <_DATA_LMA_START+0x6011ef88>
    1c6c:	be377e5b          	bbc	a4,3,1c68 <clock_init.constprop.89+0x9c>
    1c70:	1e978703          	lb	a4,489(a5)
    1c74:	8b3d                	c.andi	a4,15
    1c76:	04076713          	ori	a4,a4,64
    1c7a:	1ee784a3          	sb	a4,489(a5)
    1c7e:	1e878703          	lb	a4,488(a5)
    1c82:	f8076713          	ori	a4,a4,-128
    1c86:	0ff77713          	andi	a4,a4,255
    1c8a:	1ee78423          	sb	a4,488(a5)
    1c8e:	1e878703          	lb	a4,488(a5)
    1c92:	f8076713          	ori	a4,a4,-128
    1c96:	0ff77713          	andi	a4,a4,255
    1c9a:	1ee78423          	sb	a4,488(a5)
    1c9e:	1d878703          	lb	a4,472(a5)
    1ca2:	00045683          	lhu	a3,0(s0)
    1ca6:	0fb77713          	andi	a4,a4,251
    1caa:	1ce78c23          	sb	a4,472(a5)
    1cae:	1d878703          	lb	a4,472(a5)
    1cb2:	8689                	c.srai	a3,0x2
    1cb4:	0fc77713          	andi	a4,a4,252
    1cb8:	00d402a3          	sb	a3,5(s0)
    1cbc:	00176713          	ori	a4,a4,1
    1cc0:	1ce78c23          	sb	a4,472(a5)
    1cc4:	1e878703          	lb	a4,488(a5)
    1cc8:	0f077713          	andi	a4,a4,240
    1ccc:	00476713          	ori	a4,a4,4
    1cd0:	1ee78423          	sb	a4,488(a5)
    1cd4:	1e878703          	lb	a4,488(a5)
    1cd8:	00045683          	lhu	a3,0(s0)
    1cdc:	08f77713          	andi	a4,a4,143
    1ce0:	8689                	c.srai	a3,0x2
    1ce2:	00d40123          	sb	a3,2(s0)
    1ce6:	02076713          	ori	a4,a4,32
    1cea:	0ff6f693          	andi	a3,a3,255
    1cee:	1ee78423          	sb	a4,488(a5)
    1cf2:	0016d613          	srli	a2,a3,0x1
    1cf6:	00d401a3          	sb	a3,3(s0)
    1cfa:	00c40223          	sb	a2,4(s0)
    1cfe:	40b2                	c.lwsp	ra,12(sp)
    1d00:	4422                	c.lwsp	s0,8(sp)
    1d02:	0141                	c.addi	sp,16
    1d04:	00008067          	ret

00001d08 <pm_wait_bbpll_done>:
    1d08:	1101                	c.addi	sp,-32
    1d0a:	08100513          	li	a0,129
    1d0e:	cc22                	c.swsp	s0,24(sp)
    1d10:	ca26                	c.swsp	s1,20(sp)
    1d12:	c84a                	c.swsp	s2,16(sp)
    1d14:	ce06                	c.swsp	ra,28(sp)
    1d16:	3d9d                	c.jal	1b8c <analog_read_reg8>
    1d18:	04056593          	ori	a1,a0,64
    1d1c:	892a                	c.mv	s2,a0
    1d1e:	0ff5f593          	andi	a1,a1,255
    1d22:	08100513          	li	a0,129
    1d26:	0bf97913          	andi	s2,s2,191
    1d2a:	4481                	c.li	s1,0
    1d2c:	4475                	c.li	s0,29
    1d2e:	350d                	c.jal	1b50 <analog_write_reg8>
    1d30:	000107a3          	sb	zero,15(sp)
    1d34:	00f10783          	lb	a5,15(sp)
    1d38:	0ff7f793          	andi	a5,a5,255
    1d3c:	02f46063          	bltu	s0,a5,1d5c <pm_wait_bbpll_done+0x54>
    1d40:	0001                	c.nop
    1d42:	00f10783          	lb	a5,15(sp)
    1d46:	0785                	c.addi	a5,1
    1d48:	0ff7f793          	andi	a5,a5,255
    1d4c:	00f107a3          	sb	a5,15(sp)
    1d50:	00f10783          	lb	a5,15(sp)
    1d54:	0ff7f793          	andi	a5,a5,255
    1d58:	fef474e3          	bgeu	s0,a5,1d40 <pm_wait_bbpll_done+0x38>
    1d5c:	08800513          	li	a0,136
    1d60:	e2dff0ef          	jal	ra,1b8c <analog_read_reg8>
    1d64:	4255765b          	bbs	a0,5,1d90 <pm_wait_bbpll_done+0x88>
    1d68:	cc95                	c.beqz	s1,1da4 <pm_wait_bbpll_done+0x9c>
    1d6a:	0414d35b          	beqc	s1,1,1db0 <pm_wait_bbpll_done+0xa8>
    1d6e:	85ca                	c.mv	a1,s2
    1d70:	08100513          	li	a0,129
    1d74:	dddff0ef          	jal	ra,1b50 <analog_write_reg8>
    1d78:	0024d65b          	beqc	s1,2,1d84 <pm_wait_bbpll_done+0x7c>
    1d7c:	0485                	c.addi	s1,1
    1d7e:	0ff4f493          	andi	s1,s1,255
    1d82:	b77d                	c.j	1d30 <pm_wait_bbpll_done+0x28>
    1d84:	40f2                	c.lwsp	ra,28(sp)
    1d86:	4462                	c.lwsp	s0,24(sp)
    1d88:	44d2                	c.lwsp	s1,20(sp)
    1d8a:	4942                	c.lwsp	s2,16(sp)
    1d8c:	6105                	c.addi16sp	sp,32
    1d8e:	8082                	c.jr	ra
    1d90:	4462                	c.lwsp	s0,24(sp)
    1d92:	40f2                	c.lwsp	ra,28(sp)
    1d94:	44d2                	c.lwsp	s1,20(sp)
    1d96:	85ca                	c.mv	a1,s2
    1d98:	4942                	c.lwsp	s2,16(sp)
    1d9a:	08100513          	li	a0,129
    1d9e:	6105                	c.addi16sp	sp,32
    1da0:	db1ff06f          	j	1b50 <analog_write_reg8>
    1da4:	04600593          	li	a1,70
    1da8:	4505                	c.li	a0,1
    1daa:	335d                	c.jal	1b50 <analog_write_reg8>
    1dac:	fd1ff06f          	j	1d7c <pm_wait_bbpll_done+0x74>
    1db0:	04300593          	li	a1,67
    1db4:	4505                	c.li	a0,1
    1db6:	3b69                	c.jal	1b50 <analog_write_reg8>
    1db8:	fc5ff06f          	j	1d7c <pm_wait_bbpll_done+0x74>

00001dbc <pm_sleep_start>:
    1dbc:	1101                	c.addi	sp,-32
    1dbe:	acffa72b          	lwgp	a4,-1332 # 26d4 <g_chip_version>
    1dc2:	ce06                	c.swsp	ra,28(sp)
    1dc4:	cc22                	c.swsp	s0,24(sp)
    1dc6:	0ff00793          	li	a5,255
    1dca:	14f70963          	beq	a4,a5,1f1c <pm_sleep_start+0x160>
    1dce:	08700593          	li	a1,135
    1dd2:	07d00513          	li	a0,125
    1dd6:	3bad                	c.jal	1b50 <analog_write_reg8>
    1dd8:	801407b7          	lui	a5,0x80140
    1ddc:	10178703          	lb	a4,257(a5) # 80140101 <_DATA_LMA_START+0x6011ed61>
    1de0:	80140437          	lui	s0,0x80140
    1de4:	0ef77713          	andi	a4,a4,239
    1de8:	10e780a3          	sb	a4,257(a5)
    1dec:	fb900713          	li	a4,-71
    1df0:	10e78023          	sb	a4,256(a5)
    1df4:	10240783          	lb	a5,258(s0) # 80140102 <_DATA_LMA_START+0x6011ed62>
    1df8:	fe07fe5b          	bbs	a5,0,1df4 <pm_sleep_start+0x38>
    1dfc:	10140783          	lb	a5,257(s0)
    1e00:	452d                	c.li	a0,11
    1e02:	0ff7f793          	andi	a5,a5,255
    1e06:	0107e793          	ori	a5,a5,16
    1e0a:	10f400a3          	sb	a5,257(s0)
    1e0e:	320404a3          	sb	zero,809(s0)
    1e12:	3bad                	c.jal	1b8c <analog_read_reg8>
    1e14:	0fc57593          	andi	a1,a0,252
    1e18:	452d                	c.li	a0,11
    1e1a:	3b1d                	c.jal	1b50 <analog_write_reg8>
    1e1c:	08100513          	li	a0,129
    1e20:	d6dff0ef          	jal	ra,1b8c <analog_read_reg8>
    1e24:	f8056593          	ori	a1,a0,-128
    1e28:	0ff5f593          	andi	a1,a1,255
    1e2c:	08100513          	li	a0,129
    1e30:	d21ff0ef          	jal	ra,1b50 <analog_write_reg8>
    1e34:	f8000793          	li	a5,-128
    1e38:	1ef407a3          	sb	a5,495(s0)
    1e3c:	c402                	c.swsp	zero,8(sp)
    1e3e:	4722                	c.lwsp	a4,8(sp)
    1e40:	03f00793          	li	a5,63
    1e44:	00e7ec63          	bltu	a5,a4,1e5c <pm_sleep_start+0xa0>
    1e48:	03f00713          	li	a4,63
    1e4c:	0001                	c.nop
    1e4e:	47a2                	c.lwsp	a5,8(sp)
    1e50:	0785                	c.addi	a5,1
    1e52:	c43e                	c.swsp	a5,8(sp)
    1e54:	00812783          	lw	a5,8(sp)
    1e58:	fef77ae3          	bgeu	a4,a5,1e4c <pm_sleep_start+0x90>
    1e5c:	08100513          	li	a0,129
    1e60:	d2dff0ef          	jal	ra,1b8c <analog_read_reg8>
    1e64:	07f57593          	andi	a1,a0,127
    1e68:	08100513          	li	a0,129
    1e6c:	ce5ff0ef          	jal	ra,1b50 <analog_write_reg8>
    1e70:	00b00513          	li	a0,11
    1e74:	d19ff0ef          	jal	ra,1b8c <analog_read_reg8>
    1e78:	00356593          	ori	a1,a0,3
    1e7c:	0ff5f593          	andi	a1,a1,255
    1e80:	452d                	c.li	a0,11
    1e82:	31f9                	c.jal	1b50 <analog_write_reg8>
    1e84:	08000593          	li	a1,128
    1e88:	07d00513          	li	a0,125
    1e8c:	cc5ff0ef          	jal	ra,1b50 <analog_write_reg8>
    1e90:	c602                	c.swsp	zero,12(sp)
    1e92:	4732                	c.lwsp	a4,12(sp)
    1e94:	12b00793          	li	a5,299
    1e98:	00e7ec63          	bltu	a5,a4,1eb0 <pm_sleep_start+0xf4>
    1e9c:	12b00713          	li	a4,299
    1ea0:	0001                	c.nop
    1ea2:	47b2                	c.lwsp	a5,12(sp)
    1ea4:	0785                	c.addi	a5,1
    1ea6:	c63e                	c.swsp	a5,12(sp)
    1ea8:	00c12783          	lw	a5,12(sp)
    1eac:	fef77ae3          	bgeu	a4,a5,1ea0 <pm_sleep_start+0xe4>
    1eb0:	08800513          	li	a0,136
    1eb4:	cd9ff0ef          	jal	ra,1b8c <analog_read_reg8>
    1eb8:	be757c5b          	bbc	a0,7,1eb0 <pm_sleep_start+0xf4>
    1ebc:	08800513          	li	a0,136
    1ec0:	ccdff0ef          	jal	ra,1b8c <analog_read_reg8>
    1ec4:	be757c5b          	bbc	a0,7,1ebc <pm_sleep_start+0x100>
    1ec8:	08800513          	li	a0,136
    1ecc:	cc1ff0ef          	jal	ra,1b8c <analog_read_reg8>
    1ed0:	be757c5b          	bbc	a0,7,1ec8 <pm_sleep_start+0x10c>
    1ed4:	e35ff0ef          	jal	ra,1d08 <pm_wait_bbpll_done>
    1ed8:	801407b7          	lui	a5,0x80140
    1edc:	03f00713          	li	a4,63
    1ee0:	32e784a3          	sb	a4,809(a5) # 80140329 <_DATA_LMA_START+0x6011ef89>
    1ee4:	10178683          	lb	a3,257(a5)
    1ee8:	80140737          	lui	a4,0x80140
    1eec:	0ef6f693          	andi	a3,a3,239
    1ef0:	10d780a3          	sb	a3,257(a5)
    1ef4:	fab00693          	li	a3,-85
    1ef8:	10d78023          	sb	a3,256(a5)
    1efc:	10270783          	lb	a5,258(a4) # 80140102 <_DATA_LMA_START+0x6011ed62>
    1f00:	fe07fe5b          	bbs	a5,0,1efc <pm_sleep_start+0x140>
    1f04:	10170783          	lb	a5,257(a4)
    1f08:	0ff7f793          	andi	a5,a5,255
    1f0c:	0107e793          	ori	a5,a5,16
    1f10:	10f700a3          	sb	a5,257(a4)
    1f14:	40f2                	c.lwsp	ra,28(sp)
    1f16:	4462                	c.lwsp	s0,24(sp)
    1f18:	6105                	c.addi16sp	sp,32
    1f1a:	8082                	c.jr	ra
    1f1c:	08600593          	li	a1,134
    1f20:	07d00513          	li	a0,125
    1f24:	c2dff0ef          	jal	ra,1b50 <analog_write_reg8>
    1f28:	eb1ff06f          	j	1dd8 <pm_sleep_start+0x1c>

00001f2c <pm_sleep_wakeup.constprop.87>:
    1f2c:	7179                	c.addi16sp	sp,-48
    1f2e:	d226                	c.swsp	s1,36(sp)
    1f30:	801407b7          	lui	a5,0x80140
    1f34:	84aa                	c.mv	s1,a0
    1f36:	d606                	c.swsp	ra,44(sp)
    1f38:	d422                	c.swsp	s0,40(sp)
    1f3a:	d04a                	c.swsp	s2,32(sp)
    1f3c:	ce4e                	c.swsp	s3,28(sp)
    1f3e:	cc52                	c.swsp	s4,24(sp)
    1f40:	ca56                	c.swsp	s5,20(sp)
    1f42:	c85a                	c.swsp	s6,16(sp)
    1f44:	c65e                	c.swsp	s7,12(sp)
    1f46:	c462                	c.swsp	s8,8(sp)
    1f48:	01912223          	sw	s9,4(sp)
    1f4c:	2147a703          	lw	a4,532(a5) # 80140214 <_DATA_LMA_START+0x6011ee74>
    1f50:	df75                	c.beqz	a4,1f4c <pm_sleep_wakeup.constprop.87+0x20>
    1f52:	2147a783          	lw	a5,532(a5)
    1f56:	8b5f9b8b          	addigp	s7,-1868 # 24bc <pmcd>
    1f5a:	014ba703          	lw	a4,20(s7)
    1f5e:	02fba223          	sw	a5,36(s7)
    1f62:	0792                	c.slli	a5,0x4
    1f64:	cb11                	c.beqz	a4,1f78 <pm_sleep_wakeup.constprop.87+0x4c>
    1f66:	028bc603          	lbu	a2,40(s7)
    1f6a:	4691                	c.li	a3,4
    1f6c:	8f99                	c.sub	a5,a4
    1f6e:	8e91                	c.sub	a3,a2
    1f70:	40d7d7b3          	sra	a5,a5,a3
    1f74:	00e787b3          	add	a5,a5,a4
    1f78:	00fbaa23          	sw	a5,20(s7)
    1f7c:	014ba783          	lw	a5,20(s7)
    1f80:	008bab03          	lw	s6,8(s7)
    1f84:	8791                	c.srai	a5,0x4
    1f86:	03678b33          	mul	s6,a5,s6
    1f8a:	ad9f9a0b          	addigp	s4,-1320 # 26e0 <g_pm_tick_32k_calib>
    1f8e:	80140437          	lui	s0,0x80140
    1f92:	e0000737          	lui	a4,0xe0000
    1f96:	412b5b13          	srai	s6,s6,0x12
    1f9a:	97da                	c.add	a5,s6
    1f9c:	00179b13          	slli	s6,a5,0x1
    1fa0:	016a2023          	sw	s6,0(s4)
    1fa4:	20042903          	lw	s2,512(s0) # 80140200 <_DATA_LMA_START+0x6011ee60>
    1fa8:	41248933          	sub	s2,s1,s2
    1fac:	27276063          	bltu	a4,s2,220c <pm_sleep_wakeup.constprop.87+0x2e0>
    1fb0:	96df9c8b          	addigp	s9,-1684 # 2574 <g_pm_early_wakeup_time_us>
    1fb4:	006c9783          	lh	a5,6(s9)
    1fb8:	1137a7db          	bfoz	a5,a5,4,19
    1fbc:	26f96063          	bltu	s2,a5,221c <pm_sleep_wakeup.constprop.87+0x2f0>
    1fc0:	304029f3          	csrr	s3,mie
    1fc4:	6785                	c.lui	a5,0x1
    1fc6:	88878793          	addi	a5,a5,-1912 # 888 <rf_rx_irq_handler+0x21c>
    1fca:	3047b7f3          	csrrc	a5,mie,a5
    1fce:	20840783          	lb	a5,520(s0)
    1fd2:	4c05                	c.li	s8,1
    1fd4:	0fe7f793          	andi	a5,a5,254
    1fd8:	20f40423          	sb	a5,520(s0)
    1fdc:	21840c23          	sb	s8,536(s0)
    1fe0:	20a40783          	lb	a5,522(s0)
    1fe4:	0f77f793          	andi	a5,a5,247
    1fe8:	20f40523          	sb	a5,522(s0)
    1fec:	961ff0ef          	jal	ra,194c <clock_get_32k_tick>
    1ff0:	addf970b          	addigp	a4,-1316 # 26e4 <g_pm_tick_32k_cur>
    1ff4:	c308                	c.sw	a0,0(a4)
    1ff6:	20042783          	lw	a5,512(s0)
    1ffa:	ae1f9a8b          	addigp	s5,-1312 # 26e8 <g_pm_tick_cur>
    1ffe:	00faa023          	sw	a5,0(s5)
    2002:	20b40783          	lb	a5,523(s0)
    2006:	01cba683          	lw	a3,28(s7)
    200a:	0ff7f793          	andi	a5,a5,255
    200e:	0027e793          	ori	a5,a5,2
    2012:	20f405a3          	sb	a5,523(s0)
    2016:	4310                	c.lw	a2,0(a4)
    2018:	000aa783          	lw	a5,0(s5)
    201c:	40d60733          	sub	a4,a2,a3
    2020:	0017e793          	ori	a5,a5,1
    2024:	02000593          	li	a1,32
    2028:	04b00513          	li	a0,75
    202c:	02eba023          	sw	a4,32(s7)
    2030:	00cba223          	sw	a2,4(s7)
    2034:	00fba023          	sw	a5,0(s7)
    2038:	020b8423          	sb	zero,40(s7)
    203c:	b15ff0ef          	jal	ra,1b50 <analog_write_reg8>
    2040:	45fd                	c.li	a1,31
    2042:	06400513          	li	a0,100
    2046:	3629                	c.jal	1b50 <analog_write_reg8>
    2048:	1e840903          	lb	s2,488(s0)
    204c:	03000593          	li	a1,48
    2050:	08f97793          	andi	a5,s2,143
    2054:	07e00513          	li	a0,126
    2058:	1ef40423          	sb	a5,488(s0)
    205c:	af5ff0ef          	jal	ra,1b50 <analog_write_reg8>
    2060:	0f900593          	li	a1,249
    2064:	04d00513          	li	a0,77
    2068:	ae9ff0ef          	jal	ra,1b50 <analog_write_reg8>
    206c:	4585                	c.li	a1,1
    206e:	07f00513          	li	a0,127
    2072:	3cf9                	c.jal	1b50 <analog_write_reg8>
    2074:	004c9783          	lh	a5,4(s9)
    2078:	0ee00593          	li	a1,238
    207c:	1137a7db          	bfoz	a5,a5,4,19
    2080:	04c00513          	li	a0,76
    2084:	40f48433          	sub	s0,s1,a5
    2088:	ac9ff0ef          	jal	ra,1b50 <analog_write_reg8>
    208c:	975f95ab          	lhgp	a1,-1676 # 257c <g_pm_r_delay_cycle>
    2090:	04000513          	li	a0,64
    2094:	0ff5f593          	andi	a1,a1,255
    2098:	ab9ff0ef          	jal	ra,1b50 <analog_write_reg8>
    209c:	000ba783          	lw	a5,0(s7)
    20a0:	07ff0737          	lui	a4,0x7ff0
    20a4:	40f407b3          	sub	a5,s0,a5
    20a8:	14f77263          	bgeu	a4,a5,21ec <pm_sleep_wakeup.constprop.87+0x2c0>
    20ac:	000a2503          	lw	a0,0(s4)
    20b0:	02a7d7b3          	divu	a5,a5,a0
    20b4:	004ba503          	lw	a0,4(s7)
    20b8:	ad1f940b          	addigp	s0,-1328 # 26d8 <g_pm_long_suspend>
    20bc:	01840023          	sb	s8,0(s0)
    20c0:	0796                	c.slli	a5,0x5
    20c2:	953e                	c.add	a0,a5
    20c4:	829ff0ef          	jal	ra,18ec <clock_set_32k_tick>
    20c8:	06400513          	li	a0,100
    20cc:	ac1ff0ef          	jal	ra,1b8c <analog_read_reg8>
    20d0:	01f57513          	andi	a0,a0,31
    20d4:	e511                	c.bnez	a0,20e0 <pm_sleep_wakeup.constprop.87+0x1b4>
    20d6:	31dd                	c.jal	1dbc <pm_sleep_start>
    20d8:	4585                	c.li	a1,1
    20da:	07f00513          	li	a0,127
    20de:	3c8d                	c.jal	1b50 <analog_write_reg8>
    20e0:	80140737          	lui	a4,0x80140
    20e4:	02000793          	li	a5,32
    20e8:	1ef707a3          	sb	a5,495(a4) # 801401ef <_DATA_LMA_START+0x6011ee4f>
    20ec:	00200793          	li	a5,2
    20f0:	20f70c23          	sb	a5,536(a4)
    20f4:	20a70783          	lb	a5,522(a4)
    20f8:	0ff7f793          	andi	a5,a5,255
    20fc:	00c7e793          	ori	a5,a5,12
    2100:	20f70523          	sb	a5,522(a4)
    2104:	849ff0ef          	jal	ra,194c <clock_get_32k_tick>
    2108:	00044783          	lbu	a5,0(s0)
    210c:	c3e1                	c.beqz	a5,21cc <pm_sleep_wakeup.constprop.87+0x2a0>
    210e:	004ba783          	lw	a5,4(s7)
    2112:	000a2683          	lw	a3,0(s4)
    2116:	40f507b3          	sub	a5,a0,a5
    211a:	000ba703          	lw	a4,0(s7)
    211e:	0785                	c.addi	a5,1
    2120:	0057d793          	srli	a5,a5,0x5
    2124:	c4d7977f          	maddr32	a4,a5,a3
    2128:	00eaa023          	sw	a4,0(s5)
    212c:	004ba783          	lw	a5,4(s7)
    2130:	000aa683          	lw	a3,0(s5)
    2134:	40f507b3          	sub	a5,a0,a5
    2138:	0785                	c.addi	a5,1
    213a:	0505                	c.addi	a0,1
    213c:	00fbac23          	sw	a5,24(s7)
    2140:	00168693          	addi	a3,a3,1
    2144:	00abae23          	sw	a0,28(s7)
    2148:	801407b7          	lui	a5,0x80140
    214c:	80140737          	lui	a4,0x80140
    2150:	20d7a023          	sw	a3,512(a5) # 80140200 <_DATA_LMA_START+0x6011ee60>
    2154:	20b70783          	lb	a5,523(a4) # 8014020b <_DATA_LMA_START+0x6011ee6b>
    2158:	be77fe5b          	bbc	a5,7,2154 <pm_sleep_wakeup.constprop.87+0x228>
    215c:	20070c23          	sb	zero,536(a4)
    2160:	20870783          	lb	a5,520(a4)
    2164:	06400513          	li	a0,100
    2168:	0ff7f793          	andi	a5,a5,255
    216c:	0017e793          	ori	a5,a5,1
    2170:	20f70423          	sb	a5,520(a4)
    2174:	1f270423          	sb	s2,488(a4)
    2178:	a15ff0ef          	jal	ra,1b8c <analog_read_reg8>
    217c:	00a00733          	add	a4,zero,a0
    2180:	00157e5b          	bbc	a0,1,219c <pm_sleep_wakeup.constprop.87+0x270>
    2184:	80140637          	lui	a2,0x80140
    2188:	400006b7          	lui	a3,0x40000
    218c:	20062783          	lw	a5,512(a2) # 80140200 <_DATA_LMA_START+0x6011ee60>
    2190:	8f85                	c.sub	a5,s1
    2192:	fef6ede3          	bltu	a3,a5,218c <pm_sleep_wakeup.constprop.87+0x260>
    2196:	3049a9f3          	csrrs	s3,mie,s3
    219a:	a039                	c.j	21a8 <pm_sleep_wakeup.constprop.87+0x27c>
    219c:	3049a9f3          	csrrs	s3,mie,s3
    21a0:	08000513          	li	a0,128
    21a4:	00070663          	beqz	a4,21b0 <pm_sleep_wakeup.constprop.87+0x284>
    21a8:	400007b7          	lui	a5,0x40000
    21ac:	00f76533          	or	a0,a4,a5
    21b0:	50b2                	c.lwsp	ra,44(sp)
    21b2:	5422                	c.lwsp	s0,40(sp)
    21b4:	5492                	c.lwsp	s1,36(sp)
    21b6:	5902                	c.lwsp	s2,32(sp)
    21b8:	49f2                	c.lwsp	s3,28(sp)
    21ba:	4a62                	c.lwsp	s4,24(sp)
    21bc:	4ad2                	c.lwsp	s5,20(sp)
    21be:	4b42                	c.lwsp	s6,16(sp)
    21c0:	4bb2                	c.lwsp	s7,12(sp)
    21c2:	4c22                	c.lwsp	s8,8(sp)
    21c4:	4c92                	c.lwsp	s9,4(sp)
    21c6:	6145                	c.addi16sp	sp,48
    21c8:	00008067          	ret
    21cc:	004ba783          	lw	a5,4(s7)
    21d0:	000a2703          	lw	a4,0(s4)
    21d4:	40f507b3          	sub	a5,a0,a5
    21d8:	0785                	c.addi	a5,1
    21da:	02e787b3          	mul	a5,a5,a4
    21de:	000ba703          	lw	a4,0(s7)
    21e2:	8395                	c.srli	a5,0x5
    21e4:	97ba                	c.add	a5,a4
    21e6:	00faa023          	sw	a5,0(s5)
    21ea:	b789                	c.j	212c <pm_sleep_wakeup.constprop.87+0x200>
    21ec:	000a2503          	lw	a0,0(s4)
    21f0:	001b5b13          	srli	s6,s6,0x1
    21f4:	0796                	c.slli	a5,0x5
    21f6:	97da                	c.add	a5,s6
    21f8:	02a7d7b3          	divu	a5,a5,a0
    21fc:	004ba503          	lw	a0,4(s7)
    2200:	ad1f940b          	addigp	s0,-1328 # 26d8 <g_pm_long_suspend>
    2204:	00040023          	sb	zero,0(s0)
    2208:	953e                	c.add	a0,a5
    220a:	bd6d                	c.j	20c4 <pm_sleep_wakeup.constprop.87+0x198>
    220c:	06400513          	li	a0,100
    2210:	97dff0ef          	jal	ra,1b8c <analog_read_reg8>
    2214:	01f57513          	andi	a0,a0,31
    2218:	f99ff06f          	j	21b0 <pm_sleep_wakeup.constprop.87+0x284>
    221c:	45fd                	c.li	a1,31
    221e:	06400513          	li	a0,100
    2222:	801404b7          	lui	s1,0x80140
    2226:	20042403          	lw	s0,512(s0)
    222a:	321d                	c.jal	1b50 <analog_write_reg8>
    222c:	0080006f          	j	2234 <pm_sleep_wakeup.constprop.87+0x308>
    2230:	f80510e3          	bnez	a0,21b0 <pm_sleep_wakeup.constprop.87+0x284>
    2234:	06400513          	li	a0,100
    2238:	955ff0ef          	jal	ra,1b8c <analog_read_reg8>
    223c:	2004a783          	lw	a5,512(s1) # 80140200 <_DATA_LMA_START+0x6011ee60>
    2240:	897d                	c.andi	a0,31
    2242:	8f81                	c.sub	a5,s0
    2244:	ff27e6e3          	bltu	a5,s2,2230 <pm_sleep_wakeup.constprop.87+0x304>
    2248:	b7a5                	c.j	21b0 <pm_sleep_wakeup.constprop.87+0x284>
    224a:	0001                	c.nop
	...

00002300 <__vectors>:
    2300:	15c8                	c.addi4spn	a0,sp,740
    2302:	0000                	unimp
    2304:	151c                	c.addi4spn	a5,sp,672
    2306:	0000                	unimp
    2308:	1504                	c.addi4spn	s1,sp,672
    230a:	0000                	unimp
    230c:	1458                	c.addi4spn	a4,sp,548
    230e:	0000                	unimp
    2310:	13ac                	c.addi4spn	a1,sp,488
    2312:	0000                	unimp
    2314:	1394                	c.addi4spn	a3,sp,480
    2316:	0000                	unimp
    2318:	137c                	c.addi4spn	a5,sp,428
    231a:	0000                	unimp
    231c:	1364                	c.addi4spn	s1,sp,428
    231e:	0000                	unimp
    2320:	134c                	c.addi4spn	a1,sp,420
    2322:	0000                	unimp
    2324:	1334                	c.addi4spn	a3,sp,424
    2326:	0000                	unimp
    2328:	131c                	c.addi4spn	a5,sp,416
    232a:	0000                	unimp
    232c:	1304                	c.addi4spn	s1,sp,416
    232e:	0000                	unimp
    2330:	12ec                	c.addi4spn	a1,sp,364
    2332:	0000                	unimp
    2334:	12d4                	c.addi4spn	a3,sp,356
    2336:	0000                	unimp
    2338:	12bc                	c.addi4spn	a5,sp,360
    233a:	0000                	unimp
    233c:	1210                	c.addi4spn	a2,sp,288
    233e:	0000                	unimp
    2340:	11f8                	c.addi4spn	a4,sp,236
    2342:	0000                	unimp
    2344:	11e0                	c.addi4spn	s0,sp,236
    2346:	0000                	unimp
    2348:	11c8                	c.addi4spn	a0,sp,228
    234a:	0000                	unimp
    234c:	111c                	c.addi4spn	a5,sp,160
    234e:	0000                	unimp
    2350:	1104                	c.addi4spn	s1,sp,160
    2352:	0000                	unimp
    2354:	10ec                	c.addi4spn	a1,sp,108
    2356:	0000                	unimp
    2358:	10d4                	c.addi4spn	a3,sp,100
    235a:	0000                	unimp
    235c:	10bc                	c.addi4spn	a5,sp,104
    235e:	0000                	unimp
    2360:	10a4                	c.addi4spn	s1,sp,104
    2362:	0000                	unimp
    2364:	0ff8                	c.addi4spn	a4,sp,988
    2366:	0000                	unimp
    2368:	0f4c                	c.addi4spn	a1,sp,916
    236a:	0000                	unimp
    236c:	0ea0                	c.addi4spn	s0,sp,856
    236e:	0000                	unimp
    2370:	0e88                	c.addi4spn	a0,sp,848
    2372:	0000                	unimp
    2374:	0e70                	c.addi4spn	a2,sp,796
    2376:	0000                	unimp
    2378:	0e58                	c.addi4spn	a4,sp,788
    237a:	0000                	unimp
    237c:	0e40                	c.addi4spn	s0,sp,788
    237e:	0000                	unimp
    2380:	0e24                	c.addi4spn	s1,sp,792
    2382:	0000                	unimp
    2384:	0e08                	c.addi4spn	a0,sp,784
    2386:	0000                	unimp
    2388:	0dec                	c.addi4spn	a1,sp,732
    238a:	0000                	unimp
    238c:	0dd0                	c.addi4spn	a2,sp,724
    238e:	0000                	unimp
    2390:	0db4                	c.addi4spn	a3,sp,728
    2392:	0000                	unimp
    2394:	0d98                	c.addi4spn	a4,sp,720
    2396:	0000                	unimp
    2398:	0d94                	c.addi4spn	a3,sp,720
    239a:	0000                	unimp
    239c:	0d90                	c.addi4spn	a2,sp,720
    239e:	0000                	unimp
    23a0:	0d8c                	c.addi4spn	a1,sp,720
    23a2:	0000                	unimp
    23a4:	0d88                	c.addi4spn	a0,sp,720
    23a6:	0000                	unimp
    23a8:	0d6c                	c.addi4spn	a1,sp,668
    23aa:	0000                	unimp
    23ac:	0d50                	c.addi4spn	a2,sp,660
    23ae:	0000                	unimp
    23b0:	0d34                	c.addi4spn	a3,sp,664
    23b2:	0000                	unimp
    23b4:	0d30                	c.addi4spn	a2,sp,664
    23b6:	0000                	unimp
    23b8:	0d14                	c.addi4spn	a3,sp,656
    23ba:	0000                	unimp
    23bc:	0d10                	c.addi4spn	a2,sp,656
    23be:	0000                	unimp
    23c0:	0d0c                	c.addi4spn	a1,sp,656
    23c2:	0000                	unimp
    23c4:	0d08                	c.addi4spn	a0,sp,656
    23c6:	0000                	unimp
    23c8:	0cec                	c.addi4spn	a1,sp,604
    23ca:	0000                	unimp
    23cc:	0cd0                	c.addi4spn	a2,sp,596
    23ce:	0000                	unimp
    23d0:	0cb4                	c.addi4spn	a3,sp,600
    23d2:	0000                	unimp
    23d4:	0c98                	c.addi4spn	a4,sp,592
    23d6:	0000                	unimp
    23d8:	0c7c                	c.addi4spn	a5,sp,540
    23da:	0000                	unimp
    23dc:	0c60                	c.addi4spn	s0,sp,540
    23de:	0000                	unimp
    23e0:	0c44                	c.addi4spn	s1,sp,532
    23e2:	0000                	unimp
    23e4:	0c28                	c.addi4spn	a0,sp,536
    23e6:	0000                	unimp
    23e8:	0c0c                	c.addi4spn	a1,sp,528
    23ea:	0000                	unimp
    23ec:	0bf0                	c.addi4spn	a2,sp,476
    23ee:	0000                	unimp
    23f0:	0bd4                	c.addi4spn	a3,sp,468
    23f2:	0000                	unimp
    23f4:	0bb8                	c.addi4spn	a4,sp,472
    23f6:	0000                	unimp
    23f8:	0b9c                	c.addi4spn	a5,sp,464
    23fa:	0000                	unimp
    23fc:	0b80                	c.addi4spn	s0,sp,464
    23fe:	0000                	unimp
    2400:	0001                	c.nop

Disassembly of section .text:

20002460 <flash_erase_sector>:
20002460:	1141                	c.addi	sp,-16
20002462:	c606                	c.swsp	ra,12(sp)
20002464:	7d047073          	csrci	mmisc_ctl,8
20002468:	dfffe097          	auipc	ra,0xdfffe
2000246c:	114080e7          	jalr	276(ra) # 57c <flash_erase_sector_ram>
20002470:	7d046073          	csrsi	mmisc_ctl,8
20002474:	40b2                	c.lwsp	ra,12(sp)
20002476:	0141                	c.addi	sp,16
20002478:	00008067          	ret

2000247c <flash_read_page>:
2000247c:	1141                	c.addi	sp,-16
2000247e:	c606                	c.swsp	ra,12(sp)
20002480:	7d047073          	csrci	mmisc_ctl,8
20002484:	dfffe097          	auipc	ra,0xdfffe
20002488:	f64080e7          	jalr	-156(ra) # 3e8 <flash_read_page_ram>
2000248c:	7d046073          	csrsi	mmisc_ctl,8
20002490:	40b2                	c.lwsp	ra,12(sp)
20002492:	0141                	c.addi	sp,16
20002494:	00008067          	ret

20002498 <flash_write_page>:
20002498:	1101                	c.addi	sp,-32
2000249a:	0ff57713          	andi	a4,a0,255
2000249e:	10000793          	li	a5,256
200024a2:	ca26                	c.swsp	s1,20(sp)
200024a4:	c84a                	c.swsp	s2,16(sp)
200024a6:	c64e                	c.swsp	s3,12(sp)
200024a8:	892a                	c.mv	s2,a0
200024aa:	84ae                	c.mv	s1,a1
200024ac:	89b2                	c.mv	s3,a2
200024ae:	8f99                	c.sub	a5,a4
200024b0:	ce06                	c.swsp	ra,28(sp)
200024b2:	cc22                	c.swsp	s0,24(sp)
200024b4:	8426                	c.mv	s0,s1
200024b6:	0097f363          	bgeu	a5,s1,200024bc <flash_write_page+0x24>
200024ba:	843e                	c.mv	s0,a5
200024bc:	7d047073          	csrci	mmisc_ctl,8
200024c0:	864e                	c.mv	a2,s3
200024c2:	85a2                	c.mv	a1,s0
200024c4:	01200533          	add	a0,zero,s2
200024c8:	dfffe097          	auipc	ra,0xdfffe
200024cc:	004080e7          	jalr	4(ra) # 4cc <flash_write_page_ram>
200024d0:	7d046073          	csrsi	mmisc_ctl,8
200024d4:	8c81                	c.sub	s1,s0
200024d6:	9922                	c.add	s2,s0
200024d8:	99a2                	c.add	s3,s0
200024da:	10000793          	li	a5,256
200024de:	f8f9                	c.bnez	s1,200024b4 <flash_write_page+0x1c>
200024e0:	40f2                	c.lwsp	ra,28(sp)
200024e2:	4462                	c.lwsp	s0,24(sp)
200024e4:	44d2                	c.lwsp	s1,20(sp)
200024e6:	4942                	c.lwsp	s2,16(sp)
200024e8:	49b2                	c.lwsp	s3,12(sp)
200024ea:	6105                	c.addi16sp	sp,32
200024ec:	8082                	c.jr	ra
200024ee:	0001                	c.nop

200024f0 <ll_zllAttrClr>:
200024f0:	000077b7          	lui	a5,0x7
200024f4:	3ec8178b          	addigp	a5,17388 # 6ff4 <g_zbInfo>
200024f8:	0807a423          	sw	zero,136(a5) # 7088 <g_zbInfo+0x94>
200024fc:	0807a623          	sw	zero,140(a5)
20002500:	8082                	c.jr	ra
	...

20002504 <zcl_reportingEntryActiveNumGet.part.2>:
20002504:	1798178b          	addigp	a5,18808 # 7580 <reportingTab>
20002508:	66c1                	c.lui	a3,0x10
2000250a:	09478613          	addi	a2,a5,148
2000250e:	4501                	c.li	a0,0
20002510:	fff68693          	addi	a3,a3,-1 # ffff <_BSS_VMA_END+0x898f>
20002514:	0257c703          	lbu	a4,37(a5)
20002518:	00070a63          	beqz	a4,2000252c <zcl_reportingEntryActiveNumGet.part.2+0x28>
2000251c:	00d7d703          	lhu	a4,13(a5)
20002520:	00150593          	addi	a1,a0,1
20002524:	00d70463          	beq	a4,a3,2000252c <zcl_reportingEntryActiveNumGet.part.2+0x28>
20002528:	0ff5f513          	andi	a0,a1,255
2000252c:	02578793          	addi	a5,a5,37
20002530:	fec792e3          	bne	a5,a2,20002514 <zcl_reportingEntryActiveNumGet.part.2+0x10>
20002534:	8082                	c.jr	ra
	...

20002538 <reportableChangeValueChk>:
20002538:	1501                	c.addi	a0,-32
2000253a:	0ff57513          	andi	a0,a0,255
2000253e:	47ad                	c.li	a5,11
20002540:	22a7e063          	bltu	a5,a0,20002760 <reportableChangeValueChk+0x228>
20002544:	200217b7          	lui	a5,0x20021
20002548:	9ec78793          	addi	a5,a5,-1556 # 200209ec <zdo_nlme_join_indication+0x26c>
2000254c:	0ca7855b          	lea.w	a0,a5,a0
20002550:	411c                	c.lw	a5,0(a0)
20002552:	8782                	c.jr	a5
20002554:	00364703          	lbu	a4,3(a2)
20002558:	00264f03          	lbu	t5,2(a2)
2000255c:	0035c783          	lbu	a5,3(a1)
20002560:	0025ce83          	lbu	t4,2(a1)
20002564:	00164e03          	lbu	t3,1(a2)
20002568:	0015c303          	lbu	t1,1(a1)
2000256c:	0036c503          	lbu	a0,3(a3)
20002570:	0026c883          	lbu	a7,2(a3)
20002574:	0f42                	c.slli	t5,0x10
20002576:	0016c803          	lbu	a6,1(a3)
2000257a:	0762                	c.slli	a4,0x18
2000257c:	07e2                	c.slli	a5,0x18
2000257e:	0ec2                	c.slli	t4,0x10
20002580:	977a                	c.add	a4,t5
20002582:	0e22                	c.slli	t3,0x8
20002584:	00064f03          	lbu	t5,0(a2)
20002588:	97f6                	c.add	a5,t4
2000258a:	01089613          	slli	a2,a7,0x10
2000258e:	0322                	c.slli	t1,0x8
20002590:	0005c583          	lbu	a1,0(a1)
20002594:	0562                	c.slli	a0,0x18
20002596:	9532                	c.add	a0,a2
20002598:	9772                	c.add	a4,t3
2000259a:	979a                	c.add	a5,t1
2000259c:	00881613          	slli	a2,a6,0x8
200025a0:	0006c683          	lbu	a3,0(a3)
200025a4:	9532                	c.add	a0,a2
200025a6:	977a                	c.add	a4,t5
200025a8:	97ae                	c.add	a5,a1
200025aa:	9536                	c.add	a0,a3
200025ac:	00f75e63          	bge	a4,a5,200025c8 <reportableChangeValueChk+0x90>
200025b0:	8f99                	c.sub	a5,a4
200025b2:	00f52533          	slt	a0,a0,a5
200025b6:	8082                	c.jr	ra
200025b8:	00064703          	lbu	a4,0(a2)
200025bc:	0005c783          	lbu	a5,0(a1)
200025c0:	0006c503          	lbu	a0,0(a3)
200025c4:	fef766e3          	bltu	a4,a5,200025b0 <reportableChangeValueChk+0x78>
200025c8:	40f707b3          	sub	a5,a4,a5
200025cc:	00f52533          	slt	a0,a0,a5
200025d0:	00008067          	ret
200025d4:	00364503          	lbu	a0,3(a2)
200025d8:	00264f03          	lbu	t5,2(a2)
200025dc:	0035c703          	lbu	a4,3(a1)
200025e0:	0025ce83          	lbu	t4,2(a1)
200025e4:	00164e03          	lbu	t3,1(a2)
200025e8:	0015c303          	lbu	t1,1(a1)
200025ec:	0036c783          	lbu	a5,3(a3)
200025f0:	0026c883          	lbu	a7,2(a3)
200025f4:	0f42                	c.slli	t5,0x10
200025f6:	0016c803          	lbu	a6,1(a3)
200025fa:	0562                	c.slli	a0,0x18
200025fc:	0762                	c.slli	a4,0x18
200025fe:	0ec2                	c.slli	t4,0x10
20002600:	957a                	c.add	a0,t5
20002602:	0e22                	c.slli	t3,0x8
20002604:	00064f03          	lbu	t5,0(a2)
20002608:	9776                	c.add	a4,t4
2000260a:	01089613          	slli	a2,a7,0x10
2000260e:	0322                	c.slli	t1,0x8
20002610:	0005c583          	lbu	a1,0(a1)
20002614:	07e2                	c.slli	a5,0x18
20002616:	97b2                	c.add	a5,a2
20002618:	9572                	c.add	a0,t3
2000261a:	971a                	c.add	a4,t1
2000261c:	00881613          	slli	a2,a6,0x8
20002620:	0006c683          	lbu	a3,0(a3)
20002624:	97b2                	c.add	a5,a2
20002626:	957a                	c.add	a0,t5
20002628:	972e                	c.add	a4,a1
2000262a:	97b6                	c.add	a5,a3
2000262c:	12e56463          	bltu	a0,a4,20002754 <reportableChangeValueChk+0x21c>
20002630:	8d19                	c.sub	a0,a4
20002632:	00a7b533          	sltu	a0,a5,a0
20002636:	8082                	c.jr	ra
20002638:	00060703          	lb	a4,0(a2)
2000263c:	00058783          	lb	a5,0(a1)
20002640:	00068503          	lb	a0,0(a3)
20002644:	f6f746e3          	blt	a4,a5,200025b0 <reportableChangeValueChk+0x78>
20002648:	f81ff06f          	j	200025c8 <reportableChangeValueChk+0x90>
2000264c:	00164703          	lbu	a4,1(a2)
20002650:	0015c503          	lbu	a0,1(a1)
20002654:	00064803          	lbu	a6,0(a2)
20002658:	0016c783          	lbu	a5,1(a3)
2000265c:	0005c603          	lbu	a2,0(a1)
20002660:	0006c683          	lbu	a3,0(a3)
20002664:	0722                	c.slli	a4,0x8
20002666:	0522                	c.slli	a0,0x8
20002668:	9742                	c.add	a4,a6
2000266a:	9532                	c.add	a0,a2
2000266c:	07a2                	c.slli	a5,0x8
2000266e:	97b6                	c.add	a5,a3
20002670:	3c07375b          	bfos	a4,a4,15,0
20002674:	3c05355b          	bfos	a0,a0,15,0
20002678:	3c07b7db          	bfos	a5,a5,15,0
2000267c:	04a74a63          	blt	a4,a0,200026d0 <reportableChangeValueChk+0x198>
20002680:	40a70533          	sub	a0,a4,a0
20002684:	00a7a533          	slt	a0,a5,a0
20002688:	00008067          	ret
2000268c:	00264503          	lbu	a0,2(a2)
20002690:	00164303          	lbu	t1,1(a2)
20002694:	0025c703          	lbu	a4,2(a1)
20002698:	0015c883          	lbu	a7,1(a1)
2000269c:	0026c783          	lbu	a5,2(a3)
200026a0:	0016c803          	lbu	a6,1(a3)
200026a4:	00064e03          	lbu	t3,0(a2)
200026a8:	0542                	c.slli	a0,0x10
200026aa:	00889613          	slli	a2,a7,0x8
200026ae:	0322                	c.slli	t1,0x8
200026b0:	0742                	c.slli	a4,0x10
200026b2:	0005c583          	lbu	a1,0(a1)
200026b6:	9732                	c.add	a4,a2
200026b8:	951a                	c.add	a0,t1
200026ba:	07c2                	c.slli	a5,0x10
200026bc:	00881613          	slli	a2,a6,0x8
200026c0:	0006c683          	lbu	a3,0(a3)
200026c4:	97b2                	c.add	a5,a2
200026c6:	9572                	c.add	a0,t3
200026c8:	972e                	c.add	a4,a1
200026ca:	97b6                	c.add	a5,a3
200026cc:	fae54ae3          	blt	a0,a4,20002680 <reportableChangeValueChk+0x148>
200026d0:	8d19                	c.sub	a0,a4
200026d2:	00a7a533          	slt	a0,a5,a0
200026d6:	8082                	c.jr	ra
200026d8:	00164703          	lbu	a4,1(a2)
200026dc:	0015c503          	lbu	a0,1(a1)
200026e0:	00064803          	lbu	a6,0(a2)
200026e4:	0016c783          	lbu	a5,1(a3)
200026e8:	0005c603          	lbu	a2,0(a1)
200026ec:	0006c683          	lbu	a3,0(a3)
200026f0:	0722                	c.slli	a4,0x8
200026f2:	0522                	c.slli	a0,0x8
200026f4:	9742                	c.add	a4,a6
200026f6:	9532                	c.add	a0,a2
200026f8:	07a2                	c.slli	a5,0x8
200026fa:	97b6                	c.add	a5,a3
200026fc:	3c07275b          	bfoz	a4,a4,15,0
20002700:	3c05255b          	bfoz	a0,a0,15,0
20002704:	3c07a7db          	bfoz	a5,a5,15,0
20002708:	fca764e3          	bltu	a4,a0,200026d0 <reportableChangeValueChk+0x198>
2000270c:	f75ff06f          	j	20002680 <reportableChangeValueChk+0x148>
20002710:	00264503          	lbu	a0,2(a2)
20002714:	00164303          	lbu	t1,1(a2)
20002718:	0025c703          	lbu	a4,2(a1)
2000271c:	0015c883          	lbu	a7,1(a1)
20002720:	0026c783          	lbu	a5,2(a3)
20002724:	0016c803          	lbu	a6,1(a3)
20002728:	00064e03          	lbu	t3,0(a2)
2000272c:	0542                	c.slli	a0,0x10
2000272e:	00889613          	slli	a2,a7,0x8
20002732:	0322                	c.slli	t1,0x8
20002734:	0742                	c.slli	a4,0x10
20002736:	0005c583          	lbu	a1,0(a1)
2000273a:	9732                	c.add	a4,a2
2000273c:	951a                	c.add	a0,t1
2000273e:	07c2                	c.slli	a5,0x10
20002740:	00881613          	slli	a2,a6,0x8
20002744:	0006c683          	lbu	a3,0(a3)
20002748:	97b2                	c.add	a5,a2
2000274a:	9572                	c.add	a0,t3
2000274c:	972e                	c.add	a4,a1
2000274e:	97b6                	c.add	a5,a3
20002750:	eee570e3          	bgeu	a0,a4,20002630 <reportableChangeValueChk+0xf8>
20002754:	40a70533          	sub	a0,a4,a0
20002758:	00a7b533          	sltu	a0,a5,a0
2000275c:	00008067          	ret
20002760:	4501                	c.li	a0,0
20002762:	8082                	c.jr	ra
20002764:	0001                	c.nop
	...

20002768 <zcl_findAttribute>:
20002768:	69d0178b          	addigp	a5,3740 # 3aa4 <zcl_vars+0x14>
2000276c:	4701                	c.li	a4,0
2000276e:	a029                	c.j	20002778 <zcl_findAttribute+0x10>
20002770:	0705                	c.addi	a4,1
20002772:	07c9                	c.addi	a5,18
20002774:	06b7505b          	beqc	a4,11,200027d4 <zcl_findAttribute+0x6c>
20002778:	0047c683          	lbu	a3,4(a5)
2000277c:	fea69ae3          	bne	a3,a0,20002770 <zcl_findAttribute+0x8>
20002780:	0007d683          	lhu	a3,0(a5)
20002784:	feb696e3          	bne	a3,a1,20002770 <zcl_findAttribute+0x8>
20002788:	47c9                	c.li	a5,18
2000278a:	02f70733          	mul	a4,a4,a5
2000278e:	6890178b          	addigp	a5,3720 # 3a90 <zcl_vars>
20002792:	4501                	c.li	a0,0
20002794:	00870693          	addi	a3,a4,8
20002798:	96be                	c.add	a3,a5
2000279a:	ce9d                	c.beqz	a3,200027d8 <zcl_findAttribute+0x70>
2000279c:	973e                	c.add	a4,a5
2000279e:	01974783          	lbu	a5,25(a4)
200027a2:	cb9d                	c.beqz	a5,200027d8 <zcl_findAttribute+0x70>
200027a4:	4708                	c.lw	a0,8(a4)
200027a6:	00055703          	lhu	a4,0(a0)
200027aa:	02c70763          	beq	a4,a2,200027d8 <zcl_findAttribute+0x70>
200027ae:	fff78693          	addi	a3,a5,-1
200027b2:	0ca6a6db          	bfoz	a3,a3,3,10
200027b6:	00850793          	addi	a5,a0,8
200027ba:	96be                	c.add	a3,a5
200027bc:	0100006f          	j	200027cc <zcl_findAttribute+0x64>
200027c0:	00878793          	addi	a5,a5,8
200027c4:	ff87d703          	lhu	a4,-8(a5)
200027c8:	00c70863          	beq	a4,a2,200027d8 <zcl_findAttribute+0x70>
200027cc:	00f00533          	add	a0,zero,a5
200027d0:	fed798e3          	bne	a5,a3,200027c0 <zcl_findAttribute+0x58>
200027d4:	00000513          	li	a0,0
200027d8:	8082                	c.jr	ra
	...

200027dc <zcl_getAttrSize>:
200027dc:	fbd50793          	addi	a5,a0,-67
200027e0:	0ff7f793          	andi	a5,a5,255
200027e4:	4705                	c.li	a4,1
200027e6:	02f77763          	bgeu	a4,a5,20002814 <zcl_getAttrSize+0x38>
200027ea:	fbf50793          	addi	a5,a0,-65
200027ee:	0ff7f793          	andi	a5,a5,255
200027f2:	00f77d63          	bgeu	a4,a5,2000280c <zcl_getAttrSize+0x30>
200027f6:	44c5515b          	beqc	a0,76,20002838 <zcl_getAttrSize+0x5c>
200027fa:	1561                	c.addi	a0,-8
200027fc:	0ff57793          	andi	a5,a0,255
20002800:	0e900713          	li	a4,233
20002804:	4501                	c.li	a0,0
20002806:	02f77163          	bgeu	a4,a5,20002828 <zcl_getAttrSize+0x4c>
2000280a:	8082                	c.jr	ra
2000280c:	0005c503          	lbu	a0,0(a1)
20002810:	0505                	c.addi	a0,1
20002812:	8082                	c.jr	ra
20002814:	0015c503          	lbu	a0,1(a1)
20002818:	0005c783          	lbu	a5,0(a1)
2000281c:	0522                	c.slli	a0,0x8
2000281e:	0789                	c.addi	a5,2
20002820:	953e                	c.add	a0,a5
20002822:	3c05255b          	bfoz	a0,a0,15,0
20002826:	8082                	c.jr	ra
20002828:	20021537          	lui	a0,0x20021
2000282c:	b5850513          	addi	a0,a0,-1192 # 20020b58 <CSWTCH.165>
20002830:	97aa                	c.add	a5,a0
20002832:	0007c503          	lbu	a0,0(a5)
20002836:	8082                	c.jr	ra
20002838:	0005c883          	lbu	a7,0(a1)
2000283c:	04088263          	beqz	a7,20002880 <zcl_getAttrSize+0xa4>
20002840:	20021837          	lui	a6,0x20021
20002844:	4701                	c.li	a4,0
20002846:	4509                	c.li	a0,2
20002848:	0e900313          	li	t1,233
2000284c:	b5880813          	addi	a6,a6,-1192 # 20020b58 <CSWTCH.165>
20002850:	00a587b3          	add	a5,a1,a0
20002854:	00078783          	lb	a5,0(a5)
20002858:	0705                	c.addi	a4,1
2000285a:	17e1                	c.addi	a5,-8
2000285c:	0ff7f793          	andi	a5,a5,255
20002860:	0ff77713          	andi	a4,a4,255
20002864:	00f80633          	add	a2,a6,a5
20002868:	4685                	c.li	a3,1
2000286a:	00f36563          	bltu	t1,a5,20002874 <zcl_getAttrSize+0x98>
2000286e:	00064683          	lbu	a3,0(a2)
20002872:	0685                	c.addi	a3,1
20002874:	9536                	c.add	a0,a3
20002876:	3c05255b          	bfoz	a0,a0,15,0
2000287a:	fce89be3          	bne	a7,a4,20002850 <zcl_getAttrSize+0x74>
2000287e:	8082                	c.jr	ra
20002880:	4509                	c.li	a0,2
20002882:	8082                	c.jr	ra

20002884 <zcl_analogDataType>:
20002884:	03a00793          	li	a5,58
20002888:	00a7ec63          	bltu	a5,a0,200028a0 <zcl_analogDataType+0x1c>
2000288c:	03800793          	li	a5,56
20002890:	00f57e63          	bgeu	a0,a5,200028ac <zcl_analogDataType+0x28>
20002894:	1501                	c.addi	a0,-32
20002896:	47bd                	c.li	a5,15
20002898:	00a7fa63          	bgeu	a5,a0,200028ac <zcl_analogDataType+0x28>
2000289c:	4501                	c.li	a0,0
2000289e:	8082                	c.jr	ra
200028a0:	f2050513          	addi	a0,a0,-224
200028a4:	00200793          	li	a5,2
200028a8:	fea7eae3          	bltu	a5,a0,2000289c <zcl_analogDataType+0x18>
200028ac:	4505                	c.li	a0,1
200028ae:	8082                	c.jr	ra
200028b0:	0001                	c.nop
	...

200028b4 <rf_edDetect>:
200028b4:	801417b7          	lui	a5,0x80141
200028b8:	c5d78783          	lb	a5,-931(a5) # 80140c5d <_DATA_LMA_START+0x6011f8bd>
200028bc:	a7ffa62b          	lwgp	a2,-1412 # 2684 <sum_rssi>
200028c0:	f9278793          	addi	a5,a5,-110
200028c4:	1c07b7db          	bfos	a5,a5,7,0
200028c8:	97b2                	c.add	a5,a2
200028ca:	a6ffcfab          	swgp	a5,-1412 # 2684 <sum_rssi>
200028ce:	95bfa7ab          	lwgp	a5,-1704 # 2560 <cnt_rssi>
200028d2:	01000637          	lui	a2,0x1000
200028d6:	0785                	c.addi	a5,1
200028d8:	94ffcdab          	swgp	a5,-1704 # 2560 <cnt_rssi>
200028dc:	1675                	c.addi	a2,-3
200028de:	00f65d63          	bge	a2,a5,200028f8 <rf_edDetect+0x44>
200028e2:	a7ffa7ab          	lwgp	a5,-1412 # 2684 <sum_rssi>
200028e6:	95bfa62b          	lwgp	a2,-1704 # 2560 <cnt_rssi>
200028ea:	02c7c7b3          	div	a5,a5,a2
200028ee:	a6ffcfab          	swgp	a5,-1412 # 2684 <sum_rssi>
200028f2:	4785                	c.li	a5,1
200028f4:	94ffcdab          	swgp	a5,-1704 # 2560 <cnt_rssi>
200028f8:	8082                	c.jr	ra
200028fa:	0001                	c.nop

200028fc <bdb_commssionUtilityCallback>:
200028fc:	8082                	c.jr	ra
	...

20002900 <uart_dma_send>:
20002900:	00354783          	lbu	a5,3(a0)
20002904:	00254683          	lbu	a3,2(a0)
20002908:	00154703          	lbu	a4,1(a0)
2000290c:	06c2                	c.slli	a3,0x10
2000290e:	07e2                	c.slli	a5,0x18
20002910:	97b6                	c.add	a5,a3
20002912:	0722                	c.slli	a4,0x8
20002914:	00054683          	lbu	a3,0(a0)
20002918:	97ba                	c.add	a5,a4
2000291a:	97b6                	c.add	a5,a3
2000291c:	c7c1                	c.beqz	a5,200029a4 <uart_dma_send+0xa4>
2000291e:	801406b7          	lui	a3,0x80140
20002922:	08f68703          	lb	a4,143(a3) # 8014008f <_DATA_LMA_START+0x6011ecef>
20002926:	4651                	c.li	a2,20
20002928:	f8076713          	ori	a4,a4,-128
2000292c:	0ff77713          	andi	a4,a4,255
20002930:	08e687a3          	sb	a4,143(a3)
20002934:	a39fa70b          	lbugp	a4,-1480 # 2640 <uart_dma_tx_chn>
20002938:	001006b7          	lui	a3,0x100
2000293c:	02c70733          	mul	a4,a4,a2
20002940:	44868893          	addi	a7,a3,1096 # 100448 <FLASH_SIZE+0x448>
20002944:	c0180637          	lui	a2,0xc0180
20002948:	0511                	c.addi	a0,4
2000294a:	80000337          	lui	t1,0x80000
2000294e:	9532                	c.add	a0,a2
20002950:	44c68813          	addi	a6,a3,1100
20002954:	45068613          	addi	a2,a3,1104
20002958:	44468693          	addi	a3,a3,1092
2000295c:	00378593          	addi	a1,a5,3
20002960:	98ba                	c.add	a7,a4
20002962:	983a                	c.add	a6,a4
20002964:	963a                	c.add	a2,a4
20002966:	0068e8b3          	or	a7,a7,t1
2000296a:	9736                	c.add	a4,a3
2000296c:	001406b7          	lui	a3,0x140
20002970:	00a8a023          	sw	a0,0(a7)
20002974:	8189                	c.srli	a1,0x2
20002976:	00686533          	or	a0,a6,t1
2000297a:	08068693          	addi	a3,a3,128 # 140080 <FLASH_SIZE+0x40080>
2000297e:	5977a7db          	bfoz	a5,a5,22,23
20002982:	c114                	c.sw	a3,0(a0)
20002984:	00676733          	or	a4,a4,t1
20002988:	8fcd                	c.or	a5,a1
2000298a:	006666b3          	or	a3,a2,t1
2000298e:	c29c                	c.sw	a5,0(a3)
20002990:	00070783          	lb	a5,0(a4)
20002994:	4505                	c.li	a0,1
20002996:	0ff7f793          	andi	a5,a5,255
2000299a:	0017e793          	ori	a5,a5,1
2000299e:	00f70023          	sb	a5,0(a4)
200029a2:	8082                	c.jr	ra
200029a4:	4501                	c.li	a0,0
200029a6:	8082                	c.jr	ra

200029a8 <hwTimerSet.part.0>:
200029a8:	00140737          	lui	a4,0x140
200029ac:	050a                	c.slli	a0,0x2
200029ae:	15070793          	addi	a5,a4,336 # 140150 <FLASH_SIZE+0x40150>
200029b2:	800006b7          	lui	a3,0x80000
200029b6:	97aa                	c.add	a5,a0
200029b8:	14470713          	addi	a4,a4,324
200029bc:	8fd5                	c.or	a5,a3
200029be:	953a                	c.add	a0,a4
200029c0:	0007a023          	sw	zero,0(a5)
200029c4:	8d55                	c.or	a0,a3
200029c6:	c10c                	c.sw	a1,0(a0)
200029c8:	8082                	c.jr	ra
	...

200029cc <drv_gpio_write>:
200029cc:	00140737          	lui	a4,0x140
200029d0:	30370713          	addi	a4,a4,771 # 140303 <FLASH_SIZE+0x40303>
200029d4:	3c8527db          	bfoz	a5,a0,15,8
200029d8:	0ef707db          	lea.d	a5,a4,a5
200029dc:	80000737          	lui	a4,0x80000
200029e0:	8fd9                	c.or	a5,a4
200029e2:	00078703          	lb	a4,0(a5)
200029e6:	e989                	c.bnez	a1,200029f8 <drv_gpio_write+0x2c>
200029e8:	fff54513          	not	a0,a0
200029ec:	8d79                	c.and	a0,a4
200029ee:	0ff57513          	andi	a0,a0,255
200029f2:	00a78023          	sb	a0,0(a5)
200029f6:	8082                	c.jr	ra
200029f8:	8d59                	c.or	a0,a4
200029fa:	0ff57513          	andi	a0,a0,255
200029fe:	00a78023          	sb	a0,0(a5)
20002a02:	8082                	c.jr	ra

20002a04 <sampleLight_nwkUpdateIndicateHandler>:
20002a04:	4505                	c.li	a0,1
20002a06:	8082                	c.jr	ra
20002a08:	0001                	c.nop
	...

20002a0c <afTest_dataSendConfirm>:
20002a0c:	8082                	c.jr	ra
	...

20002a10 <sampleLight_leaveIndHandler>:
20002a10:	8082                	c.jr	ra
	...

20002a14 <sampleLight_softReset>:
20002a14:	801407b7          	lui	a5,0x80140
20002a18:	02000713          	li	a4,32
20002a1c:	1ee787a3          	sb	a4,495(a5) # 801401ef <_DATA_LMA_START+0x6011ee4f>
20002a20:	557d                	c.li	a0,-1
20002a22:	8082                	c.jr	ra
20002a24:	0001                	c.nop
	...

20002a28 <zbdemo_bdbIdentifyCb>:
20002a28:	8082                	c.jr	ra
	...

20002a2c <hwLight_colorUpdate_colorTemperature>:
20002a2c:	47c1                	c.li	a5,16
20002a2e:	0ff5f713          	andi	a4,a1,255
20002a32:	00f5f363          	bgeu	a1,a5,20002a38 <hwLight_colorUpdate_colorTemperature+0xc>
20002a36:	4741                	c.li	a4,16
20002a38:	825f968b          	addigp	a3,-2012 # 242c <g_zcl_colorCtrlAttrs>
20002a3c:	0086d603          	lhu	a2,8(a3) # 80000008 <_DATA_LMA_START+0x5ffdec68>
20002a40:	810208b7          	lui	a7,0x81020
20002a44:	40c507b3          	sub	a5,a0,a2
20002a48:	02e78533          	mul	a0,a5,a4
20002a4c:	00a6d783          	lhu	a5,10(a3)
20002a50:	40988893          	addi	a7,a7,1033 # 81020409 <_DATA_LMA_START+0x60fff069>
20002a54:	8f91                	c.sub	a5,a2
20002a56:	981f968b          	addigp	a3,-1664 # 2588 <sys_clk>
20002a5a:	0046c583          	lbu	a1,4(a3)
20002a5e:	06400e93          	li	t4,100
20002a62:	3e800e13          	li	t3,1000
20002a66:	03c58f33          	mul	t5,a1,t3
20002a6a:	14a43837          	lui	a6,0x14a43
20002a6e:	99b80813          	addi	a6,a6,-1637 # 14a4299b <FLASH_SIZE+0x1494299b>
20002a72:	86ae                	c.mv	a3,a1
20002a74:	80140637          	lui	a2,0x80140
20002a78:	02f547b3          	div	a5,a0,a5
20002a7c:	3e800513          	li	a0,1000
20002a80:	02a585b3          	mul	a1,a1,a0
20002a84:	8f1d                	c.sub	a4,a5
20002a86:	0ff77713          	andi	a4,a4,255
20002a8a:	02e70733          	mul	a4,a4,a4
20002a8e:	0ff7f793          	andi	a5,a5,255
20002a92:	3c05a5db          	bfoz	a1,a1,15,0
20002a96:	02f787b3          	mul	a5,a5,a5
20002a9a:	e117137f          	mulsr64	t1,a4,a7
20002a9e:	971e                	c.add	a4,t2
20002aa0:	871d                	c.srai	a4,0x7
20002aa2:	03d70733          	mul	a4,a4,t4
20002aa6:	e117937f          	mulsr64	t1,a5,a7
20002aaa:	979e                	c.add	a5,t2
20002aac:	879d                	c.srai	a5,0x7
20002aae:	03d787b3          	mul	a5,a5,t4
20002ab2:	3c07275b          	bfoz	a4,a4,15,0
20002ab6:	03e70733          	mul	a4,a4,t5
20002aba:	3c07a7db          	bfoz	a5,a5,15,0
20002abe:	03e787b3          	mul	a5,a5,t5
20002ac2:	830d                	c.srli	a4,0x3
20002ac4:	03073733          	mulhu	a4,a4,a6
20002ac8:	838d                	c.srli	a5,0x3
20002aca:	0307b7b3          	mulhu	a5,a5,a6
20002ace:	5c87275b          	bfoz	a4,a4,23,8
20002ad2:	40e61c23          	sh	a4,1048(a2) # 80140418 <_DATA_LMA_START+0x6011f078>
20002ad6:	02a686b3          	mul	a3,a3,a0
20002ada:	40b61d23          	sh	a1,1050(a2)
20002ade:	5c87a7db          	bfoz	a5,a5,23,8
20002ae2:	42f61023          	sh	a5,1056(a2)
20002ae6:	3c06a6db          	bfoz	a3,a3,15,0
20002aea:	42d61123          	sh	a3,1058(a2)
20002aee:	8082                	c.jr	ra

20002af0 <led_wink>:
20002af0:	1141                	c.addi	sp,-16
20002af2:	a29f978b          	addigp	a5,-1496 # 2630 <sta.16665>
20002af6:	c606                	c.swsp	ra,12(sp)
20002af8:	0007c703          	lbu	a4,0(a5)
20002afc:	14000513          	li	a0,320
20002b00:	00173713          	seqz	a4,a4
20002b04:	85ba                	c.mv	a1,a4
20002b06:	00e78023          	sb	a4,0(a5)
20002b0a:	35c9                	c.jal	200029cc <drv_gpio_write>
20002b0c:	40b2                	c.lwsp	ra,12(sp)
20002b0e:	4501                	c.li	a0,0
20002b10:	0141                	c.addi	sp,16
20002b12:	8082                	c.jr	ra

20002b14 <CFG_Default>:
20002b14:	be5f978b          	addigp	a5,-1052 # 27ec <g_config_st>
20002b18:	56fd                	c.li	a3,-1
20002b1a:	00d78023          	sb	a3,0(a5)
20002b1e:	00978703          	lb	a4,9(a5)
20002b22:	4609                	c.li	a2,2
20002b24:	9b75                	c.andi	a4,-3
20002b26:	00e784a3          	sb	a4,9(a5)
20002b2a:	00078123          	sb	zero,2(a5)
20002b2e:	fb400713          	li	a4,-76
20002b32:	00e781a3          	sb	a4,3(a5)
20002b36:	6771                	c.lui	a4,0x1c
20002b38:	00c78223          	sb	a2,4(a5)
20002b3c:	20070713          	addi	a4,a4,512 # 1c200 <_BSS_VMA_END+0x14b90>
20002b40:	00e7a2a3          	sw	a4,5(a5)
20002b44:	00978703          	lb	a4,9(a5)
20002b48:	9b79                	c.andi	a4,-2
20002b4a:	00e784a3          	sb	a4,9(a5)
20002b4e:	00978703          	lb	a4,9(a5)
20002b52:	9b6d                	c.andi	a4,-5
20002b54:	00e784a3          	sb	a4,9(a5)
20002b58:	00978703          	lb	a4,9(a5)
20002b5c:	9b5d                	c.andi	a4,-9
20002b5e:	00e784a3          	sb	a4,9(a5)
20002b62:	00c78523          	sb	a2,10(a5)
20002b66:	470d                	c.li	a4,3
20002b68:	00e785a3          	sb	a4,11(a5)
20002b6c:	00d78623          	sb	a3,12(a5)
20002b70:	0007a823          	sw	zero,16(a5)
20002b74:	000786a3          	sb	zero,13(a5)
20002b78:	4751                	c.li	a4,20
20002b7a:	00e78a23          	sb	a4,20(a5)
20002b7e:	0c800713          	li	a4,200
20002b82:	00e79aa3          	sh	a4,21(a5)
20002b86:	01579683          	lh	a3,21(a5)
20002b8a:	01478703          	lb	a4,20(a5)
20002b8e:	3c06a6db          	bfoz	a3,a3,15,0
20002b92:	0ff77713          	andi	a4,a4,255
20002b96:	0ae7075b          	lea.h	a4,a4,a4
20002b9a:	00d74d63          	blt	a4,a3,20002bb4 <CFG_Default+0xa0>
20002b9e:	01478703          	lb	a4,20(a5)
20002ba2:	468d                	c.li	a3,3
20002ba4:	0ff77713          	andi	a4,a4,255
20002ba8:	02d70733          	mul	a4,a4,a3
20002bac:	00e79aa3          	sh	a4,21(a5)
20002bb0:	00008067          	ret
20002bb4:	01579703          	lh	a4,21(a5)
20002bb8:	3c07275b          	bfoz	a4,a4,15,0
20002bbc:	bfc5                	c.j	20002bac <CFG_Default+0x98>
20002bbe:	0001                	c.nop

20002bc0 <button_ticks>:
20002bc0:	1101                	c.addi	sp,-32
20002bc2:	cc22                	c.swsp	s0,24(sp)
20002bc4:	9fffa42b          	lwgp	s0,-1540 # 2604 <head_handle>
20002bc8:	ce06                	c.swsp	ra,28(sp)
20002bca:	ca26                	c.swsp	s1,20(sp)
20002bcc:	c84a                	c.swsp	s2,16(sp)
20002bce:	c64e                	c.swsp	s3,12(sp)
20002bd0:	c452                	c.swsp	s4,8(sp)
20002bd2:	c256                	c.swsp	s5,4(sp)
20002bd4:	cc45                	c.beqz	s0,20002c8c <button_ticks+0xcc>
20002bd6:	200214b7          	lui	s1,0x20021
20002bda:	4985                	c.li	s3,1
20002bdc:	00400913          	li	s2,4
20002be0:	a1c48493          	addi	s1,s1,-1508 # 20020a1c <zdo_nlme_join_indication+0x29c>
20002be4:	405c                	c.lw	a5,4(s0)
20002be6:	9782                	c.jalr	a5
20002be8:	00340783          	lb	a5,3(s0)
20002bec:	8b9d                	c.andi	a5,7
20002bee:	c799                	c.beqz	a5,20002bfc <button_ticks+0x3c>
20002bf0:	00041783          	lh	a5,0(s0)
20002bf4:	00178793          	addi	a5,a5,1
20002bf8:	00f41023          	sh	a5,0(s0)
20002bfc:	00344783          	lbu	a5,3(s0)
20002c00:	0077d713          	srli	a4,a5,0x7
20002c04:	18e50663          	beq	a0,a4,20002d90 <button_ticks+0x1d0>
20002c08:	1437a7db          	bfoz	a5,a5,5,3
20002c0c:	00340703          	lb	a4,3(s0)
20002c10:	0785                	c.addi	a5,1
20002c12:	8b9d                	c.andi	a5,7
20002c14:	00379693          	slli	a3,a5,0x3
20002c18:	fc777713          	andi	a4,a4,-57
20002c1c:	8f55                	c.or	a4,a3
20002c1e:	00e401a3          	sb	a4,3(s0)
20002c22:	00f9f963          	bgeu	s3,a5,20002c34 <button_ticks+0x74>
20002c26:	051e                	c.slli	a0,0x7
20002c28:	04777713          	andi	a4,a4,71
20002c2c:	00a76733          	or	a4,a4,a0
20002c30:	00e401a3          	sb	a4,3(s0)
20002c34:	00340783          	lb	a5,3(s0)
20002c38:	8b9d                	c.andi	a5,7
20002c3a:	0ef96763          	bltu	s2,a5,20002d28 <button_ticks+0x168>
20002c3e:	0cf487db          	lea.w	a5,s1,a5
20002c42:	439c                	c.lw	a5,0(a5)
20002c44:	00078067          	jr	a5
20002c48:	00344783          	lbu	a5,3(s0)
20002c4c:	0077d713          	srli	a4,a5,0x7
20002c50:	1867a7db          	bfoz	a5,a5,6,6
20002c54:	1cf70863          	beq	a4,a5,20002e24 <button_ticks+0x264>
20002c58:	00240783          	lb	a5,2(s0)
20002c5c:	4458                	c.lw	a4,12(s0)
20002c5e:	8bbd                	c.andi	a5,15
20002c60:	0107e793          	ori	a5,a5,16
20002c64:	00f40123          	sb	a5,2(s0)
20002c68:	c701                	c.beqz	a4,20002c70 <button_ticks+0xb0>
20002c6a:	8522                	c.mv	a0,s0
20002c6c:	000700e7          	jalr	a4
20002c70:	00045703          	lhu	a4,0(s0)
20002c74:	935fa78b          	lbugp	a5,-1740 # 253c <SHORT_TICKS>
20002c78:	08f76e63          	bltu	a4,a5,20002d14 <button_ticks+0x154>
20002c7c:	00340783          	lb	a5,3(s0)
20002c80:	ff87f793          	andi	a5,a5,-8
20002c84:	00f401a3          	sb	a5,3(s0)
20002c88:	5040                	c.lw	s0,36(s0)
20002c8a:	fc29                	c.bnez	s0,20002be4 <button_ticks+0x24>
20002c8c:	40f2                	c.lwsp	ra,28(sp)
20002c8e:	4462                	c.lwsp	s0,24(sp)
20002c90:	44d2                	c.lwsp	s1,20(sp)
20002c92:	4942                	c.lwsp	s2,16(sp)
20002c94:	49b2                	c.lwsp	s3,12(sp)
20002c96:	4a22                	c.lwsp	s4,8(sp)
20002c98:	4a92                	c.lwsp	s5,4(sp)
20002c9a:	4501                	c.li	a0,0
20002c9c:	6105                	c.addi16sp	sp,32
20002c9e:	8082                	c.jr	ra
20002ca0:	00344783          	lbu	a5,3(s0)
20002ca4:	0077d713          	srli	a4,a5,0x7
20002ca8:	1867a7db          	bfoz	a5,a5,6,6
20002cac:	12f70663          	beq	a4,a5,20002dd8 <button_ticks+0x218>
20002cb0:	00045703          	lhu	a4,0(s0)
20002cb4:	935fa78b          	lbugp	a5,-1740 # 253c <SHORT_TICKS>
20002cb8:	06e7f863          	bgeu	a5,a4,20002d28 <button_ticks+0x168>
20002cbc:	00240783          	lb	a5,2(s0)
20002cc0:	00e7f713          	andi	a4,a5,14
20002cc4:	1c275a5b          	beqc	a4,2,20002e98 <button_ticks+0x2d8>
20002cc8:	ba476a5b          	bnec	a4,4,20002c7c <button_ticks+0xbc>
20002ccc:	8bbd                	c.andi	a5,15
20002cce:	0407e793          	ori	a5,a5,64
20002cd2:	4c18                	c.lw	a4,24(s0)
20002cd4:	00f40123          	sb	a5,2(s0)
20002cd8:	fa0702e3          	beqz	a4,20002c7c <button_ticks+0xbc>
20002cdc:	8522                	c.mv	a0,s0
20002cde:	9702                	c.jalr	a4
20002ce0:	00340783          	lb	a5,3(s0)
20002ce4:	9be1                	c.andi	a5,-8
20002ce6:	00f401a3          	sb	a5,3(s0)
20002cea:	bf79                	c.j	20002c88 <button_ticks+0xc8>
20002cec:	00344783          	lbu	a5,3(s0)
20002cf0:	0077d713          	srli	a4,a5,0x7
20002cf4:	1867a7db          	bfoz	a5,a5,6,6
20002cf8:	16f70663          	beq	a4,a5,20002e64 <button_ticks+0x2a4>
20002cfc:	00240783          	lb	a5,2(s0)
20002d00:	4458                	c.lw	a4,12(s0)
20002d02:	8bbd                	c.andi	a5,15
20002d04:	0107e793          	ori	a5,a5,16
20002d08:	00f40123          	sb	a5,2(s0)
20002d0c:	c701                	c.beqz	a4,20002d14 <button_ticks+0x154>
20002d0e:	8522                	c.mv	a0,s0
20002d10:	000700e7          	jalr	a4
20002d14:	00340783          	lb	a5,3(s0)
20002d18:	00041023          	sh	zero,0(s0)
20002d1c:	ff87f793          	andi	a5,a5,-8
20002d20:	0027e793          	ori	a5,a5,2
20002d24:	00f401a3          	sb	a5,3(s0)
20002d28:	5040                	c.lw	s0,36(s0)
20002d2a:	ea041de3          	bnez	s0,20002be4 <button_ticks+0x24>
20002d2e:	bfb9                	c.j	20002c8c <button_ticks+0xcc>
20002d30:	00344783          	lbu	a5,3(s0)
20002d34:	0077d713          	srli	a4,a5,0x7
20002d38:	1867a7db          	bfoz	a5,a5,6,6
20002d3c:	10f70063          	beq	a4,a5,20002e3c <button_ticks+0x27c>
20002d40:	00240783          	lb	a5,2(s0)
20002d44:	4458                	c.lw	a4,12(s0)
20002d46:	8bbd                	c.andi	a5,15
20002d48:	0107e793          	ori	a5,a5,16
20002d4c:	00f40123          	sb	a5,2(s0)
20002d50:	c701                	c.beqz	a4,20002d58 <button_ticks+0x198>
20002d52:	8522                	c.mv	a0,s0
20002d54:	000700e7          	jalr	a4
20002d58:	00340703          	lb	a4,3(s0)
20002d5c:	00240783          	lb	a5,2(s0)
20002d60:	9b61                	c.andi	a4,-8
20002d62:	9bf9                	c.andi	a5,-2
20002d64:	00e401a3          	sb	a4,3(s0)
20002d68:	00f40123          	sb	a5,2(s0)
20002d6c:	fbdff06f          	j	20002d28 <button_ticks+0x168>
20002d70:	00344783          	lbu	a5,3(s0)
20002d74:	0077d713          	srli	a4,a5,0x7
20002d78:	1867a7db          	bfoz	a5,a5,6,6
20002d7c:	02f70263          	beq	a4,a5,20002da0 <button_ticks+0x1e0>
20002d80:	00240783          	lb	a5,2(s0)
20002d84:	8bbd                	c.andi	a5,15
20002d86:	f807e793          	ori	a5,a5,-128
20002d8a:	00f40123          	sb	a5,2(s0)
20002d8e:	bf69                	c.j	20002d28 <button_ticks+0x168>
20002d90:	00340783          	lb	a5,3(s0)
20002d94:	fc77f793          	andi	a5,a5,-57
20002d98:	00f401a3          	sb	a5,3(s0)
20002d9c:	e99ff06f          	j	20002c34 <button_ticks+0x74>
20002da0:	00240783          	lb	a5,2(s0)
20002da4:	4418                	c.lw	a4,8(s0)
20002da6:	8bbd                	c.andi	a5,15
20002da8:	00f40123          	sb	a5,2(s0)
20002dac:	c701                	c.beqz	a4,20002db4 <button_ticks+0x1f4>
20002dae:	8522                	c.mv	a0,s0
20002db0:	000700e7          	jalr	a4
20002db4:	00240703          	lb	a4,2(s0)
20002db8:	00340783          	lb	a5,3(s0)
20002dbc:	9b45                	c.andi	a4,-15
20002dbe:	9be1                	c.andi	a5,-8
20002dc0:	00276713          	ori	a4,a4,2
20002dc4:	0017e793          	ori	a5,a5,1
20002dc8:	00041023          	sh	zero,0(s0)
20002dcc:	00e40123          	sb	a4,2(s0)
20002dd0:	00f401a3          	sb	a5,3(s0)
20002dd4:	f55ff06f          	j	20002d28 <button_ticks+0x168>
20002dd8:	00240783          	lb	a5,2(s0)
20002ddc:	4418                	c.lw	a4,8(s0)
20002dde:	8bbd                	c.andi	a5,15
20002de0:	00f40123          	sb	a5,2(s0)
20002de4:	c701                	c.beqz	a4,20002dec <button_ticks+0x22c>
20002de6:	8522                	c.mv	a0,s0
20002de8:	000700e7          	jalr	a4
20002dec:	00244783          	lbu	a5,2(s0)
20002df0:	00240703          	lb	a4,2(s0)
20002df4:	0c17a7db          	bfoz	a5,a5,3,1
20002df8:	0785                	c.addi	a5,1
20002dfa:	9b45                	c.andi	a4,-15
20002dfc:	0437a7db          	bfoz	a5,a5,1,3
20002e00:	8fd9                	c.or	a5,a4
20002e02:	4818                	c.lw	a4,16(s0)
20002e04:	00f40123          	sb	a5,2(s0)
20002e08:	c701                	c.beqz	a4,20002e10 <button_ticks+0x250>
20002e0a:	8522                	c.mv	a0,s0
20002e0c:	000700e7          	jalr	a4
20002e10:	00340783          	lb	a5,3(s0)
20002e14:	00041023          	sh	zero,0(s0)
20002e18:	9be1                	c.andi	a5,-8
20002e1a:	0037e793          	ori	a5,a5,3
20002e1e:	00f401a3          	sb	a5,3(s0)
20002e22:	b719                	c.j	20002d28 <button_ticks+0x168>
20002e24:	00045703          	lhu	a4,0(s0)
20002e28:	935fa78b          	lbugp	a5,-1740 # 253c <SHORT_TICKS>
20002e2c:	eee7fee3          	bgeu	a5,a4,20002d28 <button_ticks+0x168>
20002e30:	00340783          	lb	a5,3(s0)
20002e34:	9be1                	c.andi	a5,-8
20002e36:	00f401a3          	sb	a5,3(s0)
20002e3a:	b5b9                	c.j	20002c88 <button_ticks+0xc8>
20002e3c:	00240783          	lb	a5,2(s0)
20002e40:	8bbd                	c.andi	a5,15
20002e42:	0607e713          	ori	a4,a5,96
20002e46:	00e40123          	sb	a4,2(s0)
20002e4a:	ec077f5b          	bbs	a4,0,20002d28 <button_ticks+0x168>
20002e4e:	0617e793          	ori	a5,a5,97
20002e52:	5018                	c.lw	a4,32(s0)
20002e54:	00f40123          	sb	a5,2(s0)
20002e58:	ec0708e3          	beqz	a4,20002d28 <button_ticks+0x168>
20002e5c:	8522                	c.mv	a0,s0
20002e5e:	9702                	c.jalr	a4
20002e60:	ec9ff06f          	j	20002d28 <button_ticks+0x168>
20002e64:	00045703          	lhu	a4,0(s0)
20002e68:	933fd7ab          	lhugp	a5,-1742 # 253a <LONG_TICKS>
20002e6c:	eae7fee3          	bgeu	a5,a4,20002d28 <button_ticks+0x168>
20002e70:	00240783          	lb	a5,2(s0)
20002e74:	4c58                	c.lw	a4,28(s0)
20002e76:	8bbd                	c.andi	a5,15
20002e78:	0507e793          	ori	a5,a5,80
20002e7c:	00f40123          	sb	a5,2(s0)
20002e80:	c701                	c.beqz	a4,20002e88 <button_ticks+0x2c8>
20002e82:	8522                	c.mv	a0,s0
20002e84:	000700e7          	jalr	a4
20002e88:	00340783          	lb	a5,3(s0)
20002e8c:	9be1                	c.andi	a5,-8
20002e8e:	0047e793          	ori	a5,a5,4
20002e92:	00f401a3          	sb	a5,3(s0)
20002e96:	bd49                	c.j	20002d28 <button_ticks+0x168>
20002e98:	8bbd                	c.andi	a5,15
20002e9a:	0307e793          	ori	a5,a5,48
20002e9e:	4858                	c.lw	a4,20(s0)
20002ea0:	00f40123          	sb	a5,2(s0)
20002ea4:	e2071ce3          	bnez	a4,20002cdc <button_ticks+0x11c>
20002ea8:	bbd1                	c.j	20002c7c <button_ticks+0xbc>
20002eaa:	0001                	c.nop

20002eac <read_button3_GPIO>:
20002eac:	801407b7          	lui	a5,0x80140
20002eb0:	31078503          	lb	a0,784(a5) # 80140310 <_DATA_LMA_START+0x6011ef70>
20002eb4:	0825255b          	bfoz	a0,a0,2,2
20002eb8:	8082                	c.jr	ra
	...

20002ebc <read_button2_GPIO>:
20002ebc:	801407b7          	lui	a5,0x80140
20002ec0:	31878503          	lb	a0,792(a5) # 80140318 <_DATA_LMA_START+0x6011ef78>
20002ec4:	0415255b          	bfoz	a0,a0,1,1
20002ec8:	8082                	c.jr	ra
	...

20002ecc <read_button1_GPIO>:
20002ecc:	801407b7          	lui	a5,0x80140
20002ed0:	31878503          	lb	a0,792(a5) # 80140318 <_DATA_LMA_START+0x6011ef78>
20002ed4:	0825255b          	bfoz	a0,a0,2,2
20002ed8:	8082                	c.jr	ra
	...

20002edc <zcl_zllTouchLinkStartNetworkStartOrJoinTimeout>:
20002edc:	1141                	c.addi	sp,-16
20002ede:	4519                	c.li	a0,6
20002ee0:	00112623          	sw	ra,12(sp)
20002ee4:	840fc7ab          	swgp	zero,-1972 # 2454 <g_zllTouchLink+0xc>
20002ee8:	24c080ef          	jal	ra,2000b134 <zcl_zllTouchLinkFinish>
20002eec:	40b2                	c.lwsp	ra,12(sp)
20002eee:	557d                	c.li	a0,-1
20002ef0:	0141                	c.addi	sp,16
20002ef2:	8082                	c.jr	ra

20002ef4 <zcl_zllTouchLinkNetwokJoinResponseHandler>:
20002ef4:	1141                	c.addi	sp,-16
20002ef6:	4501                	c.li	a0,0
20002ef8:	00112623          	sw	ra,12(sp)
20002efc:	238080ef          	jal	ra,2000b134 <zcl_zllTouchLinkFinish>
20002f00:	40b2                	c.lwsp	ra,12(sp)
20002f02:	557d                	c.li	a0,-1
20002f04:	0141                	c.addi	sp,16
20002f06:	8082                	c.jr	ra

20002f08 <zcl_touchLinkIdentifyRequestDone>:
20002f08:	1141                	c.addi	sp,-16
20002f0a:	0ff57513          	andi	a0,a0,255
20002f0e:	c606                	c.swsp	ra,12(sp)
20002f10:	224080ef          	jal	ra,2000b134 <zcl_zllTouchLinkFinish>
20002f14:	40b2                	c.lwsp	ra,12(sp)
20002f16:	557d                	c.li	a0,-1
20002f18:	0141                	c.addi	sp,16
20002f1a:	8082                	c.jr	ra
20002f1c:	0001                	c.nop
	...

20002f20 <zcl_touchLinkDevStartIndicate>:
20002f20:	1141                	c.addi	sp,-16
20002f22:	c606                	c.swsp	ra,12(sp)
