
ADC_Demo.elf:     file format elf32-littleriscv
ADC_Demo.elf
architecture: riscv:rv32, flags 0x00000112:
EXEC_P, HAS_SYMS, D_PAGED
start address 0x20000000

Program Header:
    LOAD off    0x00001000 vaddr 0x20000000 paddr 0x20000000 align 2**12
         filesz 0x0000018a memsz 0x0000018a flags r-x
    LOAD off    0x00002000 vaddr 0x00000000 paddr 0x20000190 align 2**12
         filesz 0x000001c4 memsz 0x000001c4 flags rwx
    LOAD off    0x00002200 vaddr 0x00000200 paddr 0x20000358 align 2**12
         filesz 0x00000e02 memsz 0x00000e02 flags r-x
    LOAD off    0x00003160 vaddr 0x20001160 paddr 0x20001160 align 2**12
         filesz 0x00000b1c memsz 0x00000b1c flags r-x
    LOAD off    0x00004000 vaddr 0x00080000 paddr 0x20001c80 align 2**12
         filesz 0x0000000c memsz 0x0000000c flags rw-
    LOAD off    0x00004c80 vaddr 0x20001c80 paddr 0x20001c80 align 2**12
         filesz 0x00000000 memsz 0x00000000 flags r--
    LOAD off    0x00005048 vaddr 0x00080048 paddr 0x20001c8c align 2**12
         filesz 0x00000022 memsz 0x00000022 flags rw-
    LOAD off    0x00006010 vaddr 0x00080010 paddr 0x20001c90 align 2**12
         filesz 0x00000000 memsz 0x00000038 flags rw-
0x70000000 off    0x0000eeb6 vaddr 0x00000000 paddr 0x00000000 align 2**0
         filesz 0x0000003b memsz 0x00000000 flags r--

Sections:
Idx Name              Size      VMA       LMA       File off  Algn  Flags
  0 .vectors          0000018a  20000000  20000000  00001000  2**2  CONTENTS, ALLOC, LOAD, READONLY, CODE
  1 .retention_reset  00000154  00000000  20000190  00002000  2**2  CONTENTS, ALLOC, LOAD, READONLY, CODE
  2 .retention_data   0000006c  00000158  200002e8  00002158  2**2  CONTENTS, ALLOC, LOAD, DATA
  3 .ram_code         00000e02  00000200  20000358  00002200  2**8  CONTENTS, ALLOC, LOAD, READONLY, CODE
  4 .text             00000b0a  20001160  20001160  00003160  2**2  CONTENTS, ALLOC, LOAD, READONLY, CODE
  5 .rodata           00000010  20001c6c  20001c6c  00003c6c  2**2  CONTENTS, ALLOC, LOAD, READONLY, DATA
  6 .eh_frame         00000000  20001c80  20001c80  00004c80  2**2  CONTENTS, ALLOC, LOAD, READONLY, DATA
  7 .data             0000000c  00080000  20001c80  00004000  2**2  CONTENTS, ALLOC, LOAD, DATA
  8 .sbss             00000024  00080010  20001c90  00006010  2**2  ALLOC
  9 .bss              00000014  00080034  20001cb4  00006010  2**2  ALLOC
 10 .sdk_version      00000022  00080048  20001c8c  00005048  2**2  CONTENTS, ALLOC, LOAD, DATA
 11 .debug_info       000036c9  00000000  00000000  0000506a  2**0  CONTENTS, READONLY, DEBUGGING
 12 .debug_abbrev     00000615  00000000  00000000  00008733  2**0  CONTENTS, READONLY, DEBUGGING
 13 .debug_loc        00000ebc  00000000  00000000  00008d48  2**0  CONTENTS, READONLY, DEBUGGING
 14 .debug_aranges    00000140  00000000  00000000  00009c08  2**3  CONTENTS, READONLY, DEBUGGING
 15 .debug_ranges     00000948  00000000  00000000  00009d48  2**3  CONTENTS, READONLY, DEBUGGING
 16 .debug_line       00002180  00000000  00000000  0000a690  2**0  CONTENTS, READONLY, DEBUGGING
 17 .debug_str        0000266f  00000000  00000000  0000c810  2**0  CONTENTS, READONLY, DEBUGGING
 18 .comment          00000037  00000000  00000000  0000ee7f  2**0  CONTENTS, READONLY
 19 .riscv.attributes 0000003b  00000000  00000000  0000eeb6  2**0  CONTENTS, READONLY
 20 .debug_frame      00000384  00000000  00000000  0000eef4  2**2  CONTENTS, READONLY, DEBUGGING
SYMBOL TABLE:
20000000 l    d  .vectors	00000000 .vectors
00000000 l    d  .retention_reset	00000000 .retention_reset
00000158 l    d  .retention_data	00000000 .retention_data
00000200 l    d  .ram_code	00000000 .ram_code
20001160 l    d  .text	00000000 .text
20001c6c l    d  .rodata	00000000 .rodata
20001c80 l    d  .eh_frame	00000000 .eh_frame
00080000 l    d  .data	00000000 .data
00080010 l    d  .sbss	00000000 .sbss
00080034 l    d  .bss	00000000 .bss
00080048 l    d  .sdk_version	00000000 .sdk_version
00000000 l    d  .debug_info	00000000 .debug_info
00000000 l    d  .debug_abbrev	00000000 .debug_abbrev
00000000 l    d  .debug_loc	00000000 .debug_loc
00000000 l    d  .debug_aranges	00000000 .debug_aranges
00000000 l    d  .debug_ranges	00000000 .debug_ranges
00000000 l    d  .debug_line	00000000 .debug_line
00000000 l    d  .debug_str	00000000 .debug_str
00000000 l    d  .comment	00000000 .comment
00000000 l    d  .riscv.attributes	00000000 .riscv.attributes
00000000 l    d  .debug_frame	00000000 .debug_frame
00000000 l    df *ABS*	00000000 ./boot/cstartup_flash.o
20000028 l       .vectors	00000000 _START
2000008e l       .vectors	00000000 _RETENTION_RESET_INIT
200000a6 l       .vectors	00000000 _RETENTION_RESET_BEGIN
200000b8 l       .vectors	00000000 _RETENTION_DATA_INIT
200000cc l       .vectors	00000000 _RETENTION_DATA_INIT_BEGIN
200000de l       .vectors	00000000 _RAMCODE_INIT
200000f6 l       .vectors	00000000 _RAMCODE_INIT_BEGIN
20000108 l       .vectors	00000000 _DATA_INIT
20000120 l       .vectors	00000000 _DATA_INIT_BEGIN
20000132 l       .vectors	00000000 _ZERO_BSS
20000146 l       .vectors	00000000 _ZERO_BSS_BEGIN
20000152 l       .vectors	00000000 _ZERO_AES
20000166 l       .vectors	00000000 _ZERO_AES_BEGIN
20000172 l       .vectors	00000000 _FILL_STK
20000172 l       .vectors	00000000 _MAIN_FUNC
20000188 l       .vectors	00000000 _END
00000022 l       .retention_reset	00000000 _ISTART
0000002a l       .retention_reset	00000000 _ISWS_USB_DIS
00000088 l       .retention_reset	00000000 _WAKEUP_FLASH
000000a2 l       .retention_reset	00000000 _MSPI_WAIT
000000bc l       .retention_reset	00000000 _WAIT_EFUSE_LOAD_AND_FLASH_WAKEUP_FINISH
000000c2 l       .retention_reset	00000000 _MULTI_ADDRESS_BEGIN
000000d2 l       .retention_reset	00000000 _IZERO_BSS
000000e6 l       .retention_reset	00000000 _IZERO_BSS_BEGIN
000000f2 l       .retention_reset	00000000 _IZERO_AES
00000106 l       .retention_reset	00000000 _IZERO_AES_BEGIN
00000112 l       .retention_reset	00000000 _IFILL_STK
00000112 l       .retention_reset	00000000 _IDATA_INIT
0000012a l       .retention_reset	00000000 _IDATA_INIT_BEGIN
0000013c l       .retention_reset	00000000 _IMAIN_FUNC
00000152 l       .retention_reset	00000000 _IEND
00000040 l       *ABS*	00000000 irqno
00000000 l    df *ABS*	00000000 
200012ac l     F .text	0000014a user_calib_adc_vref.constprop.25
00000200 l     F .ram_code	00000020 delay_ms.constprop.2
00000220 l     F .ram_code	00000044 flash_send_addr
00000264 l     F .ram_code	00000048 flash_send_cmd
000002ac l     F .ram_code	00000060 clock_set_32k_tick
0000030c l     F .ram_code	0000004c analog_read_reg32.constprop.21
00000358 l     F .ram_code	00000024 clock_get_32k_tick
0000037c l     F .ram_code	00000094 pm_stimer_recover
00000410 l     F .ram_code	00000058 plic_exit_critical_sec
00000468 l     F .ram_code	00000060 plic_enter_critical_sec
000004c8 l     F .ram_code	00000180 flash_mspi_read_ram
20001160 l     F .text	0000002c flash_read_uid.constprop.23
2000118c l     F .text	0000002c flash_read_mid
200011b8 l     F .text	00000090 flash_read_mid_uid_with_check
20001248 l     F .text	0000002c flash_dread
00000648 l     F .ram_code	00000044 analog_write_reg8
0000068c l     F .ram_code	0000004c analog_read_reg8
200013f8 l     F .text	0000005c user_calib_freq_offset.constprop.24
000006d8 l     F .ram_code	00000140 clock_init_ram.constprop.1
20001274 l     F .text	0000001c clock_init.constprop.0
00000818 l     F .ram_code	000000b4 pm_wait_bbpll_done
000008cc l     F .ram_code	00000194 pm_sleep_start
00000a60 l     F .ram_code	00000308 pm_sleep_wakeup_ram.constprop.20
20001290 l     F .text	0000001a pm_sleep_wakeup.constprop.19
00080034 l     O .bss	00000010 adc_sample_buffer
00000158 l     O .retention_data	00000002 g_adc_gpio_calib_vref
0000015a l     O .retention_data	00000001 g_adc_gpio_calib_vref_offset
0000015c l     O .retention_data	00000004 flash_read_page
00000160 l     O .retention_data	00000001 g_pm_long_suspend
00000164 l     O .retention_data	00000004 g_pm_tick_cur
00000168 l     O .retention_data	00000029 pmcd
00000194 l     O .retention_data	00000004 g_pm_tick_32k_calib
00000198 l     O .retention_data	00000001 g_plic_preempt_en
0000019c l     O .retention_data	00000002 s_flash_preempt_config
0000019e l     O .retention_data	00000001 g_pm_suspend_power_cfg
000001a0 l     O .retention_data	00000008 g_pm_early_wakeup_time_us
000001a8 l     O .retention_data	00000004 g_pm_tick_32k_cur
000001ac l     O .retention_data	00000001 g_pm_tick_update_en
000001b0 l     O .retention_data	00000004 g_pm_r_delay_cycle
000001b4 l     O .retention_data	00000002 g_adc_vref
000001b6 l     O .retention_data	00000001 g_adc_vref_offset
000001b8 l     O .retention_data	00000008 g_pm_longsleep_early_wakeup_time_us
00080010 l     O .sbss	00000001 adc_dma_chn
00080012 l     O .sbss	00000002 adc_vol_mv_val
00080014 l     O .sbss	00000004 exception_mcause
00080018 l     O .sbss	00000004 exception_mdcause
0008001c l     O .sbss	00000004 exception_mepc
00080020 l     O .sbss	00000004 exception_mstatus
00080024 l     O .sbss	00000004 exception_mtval
00080028 l     O .sbss	00000001 g_adc_pre_scale
00080029 l     O .sbss	00000001 g_adc_vbat_divider
0008002c l     O .sbss	00000004 g_chip_version
00080030 l     O .sbss	00000004 g_pm_status_info
00080000 l     O .data	00000006 sys_clk
00080008 l     O .data	00000004 adc_rx_dma_config
00080048 l     O .sdk_version	00000022 sdk_version
20001c64  w      .text	00000000 entry_irq55
20001c64  w      .text	00000000 entry_irq13
20001c64  w      .text	00000000 entry_irq15
20001c64  w      .text	00000000 entry_irq27
20001c64  w      .text	00000000 entry_irq60
20001c64  w      .text	00000000 entry_irq1
20001c64  w      .text	00000000 entry_irq52
20001c64  w      .text	00000000 entry_irq50
20001c64  w      .text	00000000 entry_irq62
00080800 g       .data	00000000 __global_pointer$
20001c64  w      .text	00000000 entry_irq58
000001c4 g       .retention_data	00000000 _RETENTION_DATA_VMA_END
00000000 g       .retention_reset	00000000 _RETENTION_RESET_VMA_START
20001c64  w      .text	00000000 entry_irq10
20001c64  w      .text	00000000 entry_irq21
00000158 g       .retention_data	00000000 _AES_VMA_START
20001c64  w      .text	00000000 entry_irq48
20001c64  w      .text	00000000 entry_irq8
20001c64  w      .text	00000000 entry_irq33
00080048 g       .bss	00000000 _BSS_VMA_END
20000190 g       *ABS*	00000000 _RETENTION_RESET_LMA_START
20001c64  w      .text	00000000 entry_irq12
20001c64  w      .text	00000000 entry_irq14
20001c64  w      .text	00000000 entry_irq2
20001c64  w      .text	00000000 entry_irq51
20001c64  w      .text	00000000 entry_irq28
20001c64  w      .text	00000000 entry_irq43
20001c64  w      .text	00000000 entry_irq20
00080010 g       .sbss	00000000 _BSS_VMA_START
20001c64  w      .text	00000000 entry_irq63
0008000c g       .data	00000000 _DATA_VMA_END
20001c64  w      .text	00000000 entry_irq46
20001c64  w      .text	00000000 entry_irq31
20001c64  w      .text	00000000 entry_irq16
00100000 g       *ABS*	00000000 FLASH_SIZE
00080000 g       .data	00000000 _DATA_VMA_START
20001c64  w      .text	00000000 entry_irq53
20001c64  w      .text	00000000 entry_irq11
00000154 g       .retention_reset	00000000 _RETENTION_RESET_VMA_END
20001c64  w      .text	00000000 entry_irq5
20001c64  w      .text	00000000 entry_irq23
20001c66  w      .text	00000000 trap_handler
20001c64  w      .text	00000000 entry_irq34
20001c64  w      .text	00000000 entry_irq36
20001c64  w      .text	00000000 entry_irq44
20001c64  w      .text	00000000 entry_irq45
20001c64  w      .text	00000000 entry_irq26
20001c64  w      .text	00000000 entry_irq41
20001c64  w      .text	00000000 entry_irq61
20000000 g       .vectors	00000000 BIN_BEGIN
20001c64  w      .text	00000000 entry_irq38
00000f00 g       .ram_code	00000000 __vectors
00001cae g       *ABS*	00000000 BIN_SIZE
20000358 g       *ABS*	00000000 _RAMCODE_LMA_START
20001c64  w      .text	00000000 entry_irq59
20001c64  w      .text	00000000 entry_irq6
20001c80 g       *ABS*	00000000 _DATA_LMA_START
20000000 g       *ABS*	00000000 NDS_SAG_LMA_FLASH
20000000  w      .vectors	00000000 _RELAX_END_
20001458 g     F .text	0000080a main
20001c64 g       .text	00000000 default_irq_entry
20001c64  w      .text	00000000 entry_irq3
00000d68 g     F .ram_code	00000100 trap_entry
00000158 g       .retention_data	00000000 _AES_VMA_END
20001c64  w      .text	00000000 entry_irq39
20001c64  w      .text	00000000 entry_irq49
20001c64  w      .text	00000000 entry_irq57
20001c64  w      .text	00000000 entry_irq47
200002e8 g       *ABS*	00000000 _RETENTION_DATA_LMA_START
20000000 g     F .vectors	00000000 _RESET_ENTRY
00000158 g       .retention_data	00000000 _RETENTION_DATA_VMA_START
20001c64  w      .text	00000000 entry_irq4
000a0000 g       *ABS*	00000000 _STACK_TOP
20001c64  w      .text	00000000 entry_irq22
20001c64  w      .text	00000000 entry_irq30
20001c64  w      .text	00000000 entry_irq42
20001c64  w      .text	00000000 entry_irq24
00001002 g       .ram_code	00000000 _RAMCODE_VMA_END
00000000  w      *ABS*	00000000 _ITB_BASE_
20001c64  w      .text	00000000 entry_irq19
00080070 g       .sdk_version	00000000 _end
20001c64  w      .text	00000000 entry_irq17
20001c64  w      .text	00000000 entry_irq9
20001c64  w      .text	00000000 entry_irq56
20001c64  w      .text	00000000 entry_irq35
20001c64  w      .text	00000000 entry_irq37
000001c0 g     O .retention_data	00000004 g_pm_mspi_cfg
20001c64  w      .text	00000000 entry_irq54
20001c64  w      .text	00000000 entry_irq40
00000200 g       .ram_code	00000000 _RAMCODE_VMA_START
20001c64  w      .text	00000000 entry_irq29
20001c64  w      .text	00000000 entry_irq7
20001c64  w      .text	00000000 entry_irq32
00000000 g     F .retention_reset	00000000 _IRESET_ENTRY
20001c64  w      .text	00000000 entry_irq18
20001c64  w      .text	00000000 entry_irq25



Disassembly of section .vectors:

20000000 <_RESET_ENTRY>:
BIN_BEGIN():
E:/promotion/gitlab/opensdk/Mars_B91/telink_rocket_driver_sdk/chip/B91/boot/cstartup_flash.S:59
    .global _RESET_ENTRY
 	.type _RESET_ENTRY,@function

    .align 2
_RESET_ENTRY:
	j 		 _START
20000000:	a025                	c.j	20000028 <_START>
	...
20000016:	0000                	unimp
20000018:	1cae                	c.slli	s9,0x2b
2000001a:	0000                	unimp
2000001c:	0000                	unimp
2000001e:	0000                	unimp
20000020:	544c4e4b          	fnmsub.h	ft8,fs8,ft4,fa0,rmm
20000024:	0000                	unimp
20000026:	          	sllw	a4,zero,zero

20000028 <_START>:
_START():
E:/promotion/gitlab/opensdk/Mars_B91/telink_rocket_driver_sdk/chip/B91/boot/cstartup_flash.S:90
	sb		t2 , 0x30b(t0)		 //0x8014030b  PB output  =  0x10
#endif
	/* Initialize global pointer */
    .option push
    .option norelax
    la     gp, __global_pointer$
20000028:	e0080197          	auipc	gp,0xe0080
2000002c:	7d818193          	addi	gp,gp,2008 # 80800 <__global_pointer$>
E:/promotion/gitlab/opensdk/Mars_B91/telink_rocket_driver_sdk/chip/B91/boot/cstartup_flash.S:94
    .option pop

#if DP_THROUGH_SWIRE_DIS
	lui		t0, 0x80100
20000030:	801002b7          	lui	t0,0x80100
E:/promotion/gitlab/opensdk/Mars_B91/telink_rocket_driver_sdk/chip/B91/boot/cstartup_flash.S:95
	addi	t0 , t0 , 0x700
20000034:	70028293          	addi	t0,t0,1792 # 80100700 <_DATA_LMA_START+0x600fea80>
E:/promotion/gitlab/opensdk/Mars_B91/telink_rocket_driver_sdk/chip/B91/boot/cstartup_flash.S:96
	li		t1, 0x040
20000038:	04000313          	li	t1,64
E:/promotion/gitlab/opensdk/Mars_B91/telink_rocket_driver_sdk/chip/B91/boot/cstartup_flash.S:97
	sb		t1, 0x501(t0)  //0x80100c01 -> 0x40  <7>: 0 swire_usb_dis <6>:read-only bit
2000003c:	506280a3          	sb	t1,1281(t0)
E:/promotion/gitlab/opensdk/Mars_B91/telink_rocket_driver_sdk/chip/B91/boot/cstartup_flash.S:100
#endif
	/* Initialize stack pointer */
    la     t0, _STACK_TOP
20000040:	e00a0297          	auipc	t0,0xe00a0
20000044:	fc028293          	addi	t0,t0,-64 # a0000 <_STACK_TOP>
E:/promotion/gitlab/opensdk/Mars_B91/telink_rocket_driver_sdk/chip/B91/boot/cstartup_flash.S:101
    mv     sp, t0
20000048:	8116                	c.mv	sp,t0
E:/promotion/gitlab/opensdk/Mars_B91/telink_rocket_driver_sdk/chip/B91/boot/cstartup_flash.S:105

#ifdef __nds_execit
	/* Initialize EXEC.IT table */
	la t0, _ITB_BASE_
2000004a:	e0000297          	auipc	t0,0xe0000
2000004e:	fb628293          	addi	t0,t0,-74 # 0 <_ITB_BASE_>
E:/promotion/gitlab/opensdk/Mars_B91/telink_rocket_driver_sdk/chip/B91/boot/cstartup_flash.S:106
	csrw uitb, t0
20000052:	80029073          	csrw	uitb,t0
E:/promotion/gitlab/opensdk/Mars_B91/telink_rocket_driver_sdk/chip/B91/boot/cstartup_flash.S:111
#endif

#ifdef __riscv_flen
	/* Enable FPU */
	li t0, 0x00006000
20000056:	6299                	c.lui	t0,0x6
E:/promotion/gitlab/opensdk/Mars_B91/telink_rocket_driver_sdk/chip/B91/boot/cstartup_flash.S:112
	csrrs t0, mstatus, t0
20000058:	3002a2f3          	csrrs	t0,mstatus,t0
E:/promotion/gitlab/opensdk/Mars_B91/telink_rocket_driver_sdk/chip/B91/boot/cstartup_flash.S:114
	/* Initialize FCSR */
	fscsr zero
2000005c:	00301073          	fssr	zero
E:/promotion/gitlab/opensdk/Mars_B91/telink_rocket_driver_sdk/chip/B91/boot/cstartup_flash.S:118
#endif

    /* Initial machine trap-vector Base */
    la     t0, __vectors
20000060:	e0001297          	auipc	t0,0xe0001
20000064:	ea028293          	addi	t0,t0,-352 # f00 <__vectors>
E:/promotion/gitlab/opensdk/Mars_B91/telink_rocket_driver_sdk/chip/B91/boot/cstartup_flash.S:119
    csrw   mtvec, t0
20000068:	30529073          	csrw	mtvec,t0
E:/promotion/gitlab/opensdk/Mars_B91/telink_rocket_driver_sdk/chip/B91/boot/cstartup_flash.S:122

    /* Enable vectored external plic interrupt */
    csrsi  mmisc_ctl, 2
2000006c:	7d016073          	csrsi	mmisc_ctl,2
E:/promotion/gitlab/opensdk/Mars_B91/telink_rocket_driver_sdk/chip/B91/boot/cstartup_flash.S:125

	/*vector mode enable bit (VECTORED) of the Feature Enable Register */
    lui		t0, 0xe4000
20000070:	e40002b7          	lui	t0,0xe4000
E:/promotion/gitlab/opensdk/Mars_B91/telink_rocket_driver_sdk/chip/B91/boot/cstartup_flash.S:126
	li		t1, 0x02
20000074:	4309                	c.li	t1,2
E:/promotion/gitlab/opensdk/Mars_B91/telink_rocket_driver_sdk/chip/B91/boot/cstartup_flash.S:127
	sw		t1, 0x0(t0)		 //(*(volatile unsigned long*)(0xe4000000))= 0x02
20000076:	0062a023          	sw	t1,0(t0) # e4000000 <_DATA_LMA_START+0xc3ffe380>
E:/promotion/gitlab/opensdk/Mars_B91/telink_rocket_driver_sdk/chip/B91/boot/cstartup_flash.S:130

    /* Enable I/D-Cache */
    csrr   t0,  mcache_ctl
2000007a:	7ca022f3          	csrr	t0,mcache_ctl
E:/promotion/gitlab/opensdk/Mars_B91/telink_rocket_driver_sdk/chip/B91/boot/cstartup_flash.S:131
    ori    t0,  t0,  1  #/I-Cache
2000007e:	0012e293          	ori	t0,t0,1
E:/promotion/gitlab/opensdk/Mars_B91/telink_rocket_driver_sdk/chip/B91/boot/cstartup_flash.S:132
    ori    t0,  t0,  2  #/D-Cache
20000082:	0022e293          	ori	t0,t0,2
E:/promotion/gitlab/opensdk/Mars_B91/telink_rocket_driver_sdk/chip/B91/boot/cstartup_flash.S:133
    csrw   mcache_ctl,  t0
20000086:	7ca29073          	csrw	mcache_ctl,t0
E:/promotion/gitlab/opensdk/Mars_B91/telink_rocket_driver_sdk/chip/B91/boot/cstartup_flash.S:134
    fence.i
2000008a:	0000100f          	fence.i

2000008e <_RETENTION_RESET_INIT>:
_RETENTION_RESET_INIT():
E:/promotion/gitlab/opensdk/Mars_B91/telink_rocket_driver_sdk/chip/B91/boot/cstartup_flash.S:138
	/* Move retention reset from flash to sram */
_RETENTION_RESET_INIT:

    la     t1, _RETENTION_RESET_LMA_START
2000008e:	00000317          	auipc	t1,0x0
20000092:	10230313          	addi	t1,t1,258 # 20000190 <_RETENTION_RESET_LMA_START>
E:/promotion/gitlab/opensdk/Mars_B91/telink_rocket_driver_sdk/chip/B91/boot/cstartup_flash.S:139
    la     t2, _RETENTION_RESET_VMA_START
20000096:	e0000397          	auipc	t2,0xe0000
2000009a:	f6a38393          	addi	t2,t2,-150 # 0 <_ITB_BASE_>
E:/promotion/gitlab/opensdk/Mars_B91/telink_rocket_driver_sdk/chip/B91/boot/cstartup_flash.S:140
    la     t3, _RETENTION_RESET_VMA_END
2000009e:	e0000e17          	auipc	t3,0xe0000
200000a2:	0b6e0e13          	addi	t3,t3,182 # 154 <_RETENTION_RESET_VMA_END>

200000a6 <_RETENTION_RESET_BEGIN>:
_RETENTION_RESET_BEGIN():
E:/promotion/gitlab/opensdk/Mars_B91/telink_rocket_driver_sdk/chip/B91/boot/cstartup_flash.S:142
_RETENTION_RESET_BEGIN:
    bleu    t3, t2, _RETENTION_DATA_INIT
200000a6:	01c3f963          	bgeu	t2,t3,200000b8 <_RETENTION_DATA_INIT>
E:/promotion/gitlab/opensdk/Mars_B91/telink_rocket_driver_sdk/chip/B91/boot/cstartup_flash.S:143
    lw     t0, 0(t1)
200000aa:	00032283          	lw	t0,0(t1)
E:/promotion/gitlab/opensdk/Mars_B91/telink_rocket_driver_sdk/chip/B91/boot/cstartup_flash.S:144
    sw     t0, 0(t2)
200000ae:	0053a023          	sw	t0,0(t2)
E:/promotion/gitlab/opensdk/Mars_B91/telink_rocket_driver_sdk/chip/B91/boot/cstartup_flash.S:145
    addi   t1, t1, 4
200000b2:	0311                	c.addi	t1,4
E:/promotion/gitlab/opensdk/Mars_B91/telink_rocket_driver_sdk/chip/B91/boot/cstartup_flash.S:146
    addi   t2, t2, 4
200000b4:	0391                	c.addi	t2,4
E:/promotion/gitlab/opensdk/Mars_B91/telink_rocket_driver_sdk/chip/B91/boot/cstartup_flash.S:147
    j      _RETENTION_RESET_BEGIN
200000b6:	bfc5                	c.j	200000a6 <_RETENTION_RESET_BEGIN>

200000b8 <_RETENTION_DATA_INIT>:
_RETENTION_DATA_INIT():
E:/promotion/gitlab/opensdk/Mars_B91/telink_rocket_driver_sdk/chip/B91/boot/cstartup_flash.S:152

	/* Move retention from flash to sram */
_RETENTION_DATA_INIT:

    la     t1, _RETENTION_DATA_LMA_START
200000b8:	00000317          	auipc	t1,0x0
200000bc:	23030313          	addi	t1,t1,560 # 200002e8 <_RETENTION_DATA_LMA_START>
E:/promotion/gitlab/opensdk/Mars_B91/telink_rocket_driver_sdk/chip/B91/boot/cstartup_flash.S:153
    la     t2, _RETENTION_DATA_VMA_START
200000c0:	15800393          	li	t2,344
E:/promotion/gitlab/opensdk/Mars_B91/telink_rocket_driver_sdk/chip/B91/boot/cstartup_flash.S:154
    la     t3, _RETENTION_DATA_VMA_END
200000c4:	e0000e17          	auipc	t3,0xe0000
200000c8:	100e0e13          	addi	t3,t3,256 # 1c4 <_RETENTION_DATA_VMA_END>

200000cc <_RETENTION_DATA_INIT_BEGIN>:
_RETENTION_DATA_INIT_BEGIN():
E:/promotion/gitlab/opensdk/Mars_B91/telink_rocket_driver_sdk/chip/B91/boot/cstartup_flash.S:156
_RETENTION_DATA_INIT_BEGIN:
    bleu   t3, t2, _RAMCODE_INIT
200000cc:	01c3f963          	bgeu	t2,t3,200000de <_RAMCODE_INIT>
E:/promotion/gitlab/opensdk/Mars_B91/telink_rocket_driver_sdk/chip/B91/boot/cstartup_flash.S:157
    lw     t0, 0(t1)
200000d0:	00032283          	lw	t0,0(t1)
E:/promotion/gitlab/opensdk/Mars_B91/telink_rocket_driver_sdk/chip/B91/boot/cstartup_flash.S:158
    sw     t0, 0(t2)
200000d4:	0053a023          	sw	t0,0(t2)
E:/promotion/gitlab/opensdk/Mars_B91/telink_rocket_driver_sdk/chip/B91/boot/cstartup_flash.S:159
    addi   t1, t1, 4
200000d8:	0311                	c.addi	t1,4
E:/promotion/gitlab/opensdk/Mars_B91/telink_rocket_driver_sdk/chip/B91/boot/cstartup_flash.S:160
    addi   t2, t2, 4
200000da:	0391                	c.addi	t2,4
E:/promotion/gitlab/opensdk/Mars_B91/telink_rocket_driver_sdk/chip/B91/boot/cstartup_flash.S:161
    j      _RETENTION_DATA_INIT_BEGIN
200000dc:	bfc5                	c.j	200000cc <_RETENTION_DATA_INIT_BEGIN>

200000de <_RAMCODE_INIT>:
_RAMCODE_INIT():
E:/promotion/gitlab/opensdk/Mars_B91/telink_rocket_driver_sdk/chip/B91/boot/cstartup_flash.S:166

	/* Move ramcode from flash to sram */
_RAMCODE_INIT:

    la     t1, _RAMCODE_LMA_START
200000de:	00000317          	auipc	t1,0x0
200000e2:	27a30313          	addi	t1,t1,634 # 20000358 <_RAMCODE_LMA_START>
E:/promotion/gitlab/opensdk/Mars_B91/telink_rocket_driver_sdk/chip/B91/boot/cstartup_flash.S:167
    la     t2, _RAMCODE_VMA_START
200000e6:	e0000397          	auipc	t2,0xe0000
200000ea:	11a38393          	addi	t2,t2,282 # 200 <delay_ms.constprop.2>
E:/promotion/gitlab/opensdk/Mars_B91/telink_rocket_driver_sdk/chip/B91/boot/cstartup_flash.S:168
    la     t3, _RAMCODE_VMA_END
200000ee:	e0001e17          	auipc	t3,0xe0001
200000f2:	f14e0e13          	addi	t3,t3,-236 # 1002 <_RAMCODE_VMA_END>

200000f6 <_RAMCODE_INIT_BEGIN>:
_RAMCODE_INIT_BEGIN():
E:/promotion/gitlab/opensdk/Mars_B91/telink_rocket_driver_sdk/chip/B91/boot/cstartup_flash.S:170
_RAMCODE_INIT_BEGIN:
    bleu    t3, t2, _DATA_INIT
200000f6:	01c3f963          	bgeu	t2,t3,20000108 <_DATA_INIT>
E:/promotion/gitlab/opensdk/Mars_B91/telink_rocket_driver_sdk/chip/B91/boot/cstartup_flash.S:171
    lw     t0, 0(t1)
200000fa:	00032283          	lw	t0,0(t1)
E:/promotion/gitlab/opensdk/Mars_B91/telink_rocket_driver_sdk/chip/B91/boot/cstartup_flash.S:172
    sw     t0, 0(t2)
200000fe:	0053a023          	sw	t0,0(t2)
E:/promotion/gitlab/opensdk/Mars_B91/telink_rocket_driver_sdk/chip/B91/boot/cstartup_flash.S:173
    addi   t1, t1, 4
20000102:	0311                	c.addi	t1,4
E:/promotion/gitlab/opensdk/Mars_B91/telink_rocket_driver_sdk/chip/B91/boot/cstartup_flash.S:174
    addi   t2, t2, 4
20000104:	0391                	c.addi	t2,4
E:/promotion/gitlab/opensdk/Mars_B91/telink_rocket_driver_sdk/chip/B91/boot/cstartup_flash.S:175
    j      _RAMCODE_INIT_BEGIN
20000106:	bfc5                	c.j	200000f6 <_RAMCODE_INIT_BEGIN>

20000108 <_DATA_INIT>:
_DATA_INIT():
E:/promotion/gitlab/opensdk/Mars_B91/telink_rocket_driver_sdk/chip/B91/boot/cstartup_flash.S:180


	/* Move Data from flash to sram */
_DATA_INIT:
    la     t1, _DATA_LMA_START
20000108:	00002317          	auipc	t1,0x2
2000010c:	b7830313          	addi	t1,t1,-1160 # 20001c80 <_DATA_LMA_START>
E:/promotion/gitlab/opensdk/Mars_B91/telink_rocket_driver_sdk/chip/B91/boot/cstartup_flash.S:181
    la     t2, _DATA_VMA_START
20000110:	e0080397          	auipc	t2,0xe0080
20000114:	ef038393          	addi	t2,t2,-272 # 80000 <_DATA_VMA_START>
E:/promotion/gitlab/opensdk/Mars_B91/telink_rocket_driver_sdk/chip/B91/boot/cstartup_flash.S:182
    la     t3, _DATA_VMA_END
20000118:	e0080e17          	auipc	t3,0xe0080
2000011c:	ef4e0e13          	addi	t3,t3,-268 # 8000c <_DATA_VMA_END>

20000120 <_DATA_INIT_BEGIN>:
_DATA_INIT_BEGIN():
E:/promotion/gitlab/opensdk/Mars_B91/telink_rocket_driver_sdk/chip/B91/boot/cstartup_flash.S:184
_DATA_INIT_BEGIN:
    bleu   t3, t2, _ZERO_BSS
20000120:	01c3f963          	bgeu	t2,t3,20000132 <_ZERO_BSS>
E:/promotion/gitlab/opensdk/Mars_B91/telink_rocket_driver_sdk/chip/B91/boot/cstartup_flash.S:185
    lw     t0, 0(t1)
20000124:	00032283          	lw	t0,0(t1)
E:/promotion/gitlab/opensdk/Mars_B91/telink_rocket_driver_sdk/chip/B91/boot/cstartup_flash.S:186
    sw     t0, 0(t2)
20000128:	0053a023          	sw	t0,0(t2)
E:/promotion/gitlab/opensdk/Mars_B91/telink_rocket_driver_sdk/chip/B91/boot/cstartup_flash.S:187
    addi   t1, t1, 4
2000012c:	0311                	c.addi	t1,4
E:/promotion/gitlab/opensdk/Mars_B91/telink_rocket_driver_sdk/chip/B91/boot/cstartup_flash.S:188
    addi   t2, t2, 4
2000012e:	0391                	c.addi	t2,4
E:/promotion/gitlab/opensdk/Mars_B91/telink_rocket_driver_sdk/chip/B91/boot/cstartup_flash.S:189
    j      _DATA_INIT_BEGIN
20000130:	bfc5                	c.j	20000120 <_DATA_INIT_BEGIN>

20000132 <_ZERO_BSS>:
_ZERO_BSS():
E:/promotion/gitlab/opensdk/Mars_B91/telink_rocket_driver_sdk/chip/B91/boot/cstartup_flash.S:195



	/* Zero .bss section in sram */
_ZERO_BSS:
    lui    t0, 0
20000132:	000002b7          	lui	t0,0x0
E:/promotion/gitlab/opensdk/Mars_B91/telink_rocket_driver_sdk/chip/B91/boot/cstartup_flash.S:196
    la     t2, _BSS_VMA_START
20000136:	e0080397          	auipc	t2,0xe0080
2000013a:	eda38393          	addi	t2,t2,-294 # 80010 <_BSS_VMA_START>
E:/promotion/gitlab/opensdk/Mars_B91/telink_rocket_driver_sdk/chip/B91/boot/cstartup_flash.S:197
    la     t3, _BSS_VMA_END
2000013e:	e0080e17          	auipc	t3,0xe0080
20000142:	f0ae0e13          	addi	t3,t3,-246 # 80048 <_BSS_VMA_END>

20000146 <_ZERO_BSS_BEGIN>:
_ZERO_BSS_BEGIN():
E:/promotion/gitlab/opensdk/Mars_B91/telink_rocket_driver_sdk/chip/B91/boot/cstartup_flash.S:199
_ZERO_BSS_BEGIN:
    bleu   t3, t2, _ZERO_AES
20000146:	01c3f663          	bgeu	t2,t3,20000152 <_ZERO_AES>
E:/promotion/gitlab/opensdk/Mars_B91/telink_rocket_driver_sdk/chip/B91/boot/cstartup_flash.S:200
    sw     t0, 0(t2)
2000014a:	0053a023          	sw	t0,0(t2)
E:/promotion/gitlab/opensdk/Mars_B91/telink_rocket_driver_sdk/chip/B91/boot/cstartup_flash.S:201
    addi   t2, t2, 4
2000014e:	0391                	c.addi	t2,4
E:/promotion/gitlab/opensdk/Mars_B91/telink_rocket_driver_sdk/chip/B91/boot/cstartup_flash.S:202
    j      _ZERO_BSS_BEGIN
20000150:	bfdd                	c.j	20000146 <_ZERO_BSS_BEGIN>

20000152 <_ZERO_AES>:
_ZERO_AES():
E:/promotion/gitlab/opensdk/Mars_B91/telink_rocket_driver_sdk/chip/B91/boot/cstartup_flash.S:206

	/* Zero .aes section in sram */
_ZERO_AES:
    lui    t0, 0
20000152:	000002b7          	lui	t0,0x0
E:/promotion/gitlab/opensdk/Mars_B91/telink_rocket_driver_sdk/chip/B91/boot/cstartup_flash.S:207
    la     t2, _AES_VMA_START
20000156:	e0000397          	auipc	t2,0xe0000
2000015a:	00238393          	addi	t2,t2,2 # 158 <_AES_VMA_END>
E:/promotion/gitlab/opensdk/Mars_B91/telink_rocket_driver_sdk/chip/B91/boot/cstartup_flash.S:208
    la     t3, _AES_VMA_END
2000015e:	e0000e17          	auipc	t3,0xe0000
20000162:	ffae0e13          	addi	t3,t3,-6 # 158 <_AES_VMA_END>

20000166 <_ZERO_AES_BEGIN>:
_ZERO_AES_BEGIN():
E:/promotion/gitlab/opensdk/Mars_B91/telink_rocket_driver_sdk/chip/B91/boot/cstartup_flash.S:210
_ZERO_AES_BEGIN:
    bleu   t3, t2, _FILL_STK
20000166:	01c3f663          	bgeu	t2,t3,20000172 <_FILL_STK>
E:/promotion/gitlab/opensdk/Mars_B91/telink_rocket_driver_sdk/chip/B91/boot/cstartup_flash.S:211
    sw     t0, 0(t2)
2000016a:	0053a023          	sw	t0,0(t2)
E:/promotion/gitlab/opensdk/Mars_B91/telink_rocket_driver_sdk/chip/B91/boot/cstartup_flash.S:212
    addi   t2, t2, 4
2000016e:	0391                	c.addi	t2,4
E:/promotion/gitlab/opensdk/Mars_B91/telink_rocket_driver_sdk/chip/B91/boot/cstartup_flash.S:213
    j      _ZERO_AES_BEGIN
20000170:	bfdd                	c.j	20000166 <_ZERO_AES_BEGIN>

20000172 <_FILL_STK>:
_FILL_STK():
E:/promotion/gitlab/opensdk/Mars_B91/telink_rocket_driver_sdk/chip/B91/boot/cstartup_flash.S:230
    addi   t2, t2, 4
    j      _FILL_STK_BEGIN
#endif
	/* Jump to the main function */
_MAIN_FUNC:
    nop
20000172:	0001                	c.nop
E:/promotion/gitlab/opensdk/Mars_B91/telink_rocket_driver_sdk/chip/B91/boot/cstartup_flash.S:232

    la     t0, main
20000174:	00001297          	auipc	t0,0x1
20000178:	2e428293          	addi	t0,t0,740 # 20001458 <main>
E:/promotion/gitlab/opensdk/Mars_B91/telink_rocket_driver_sdk/chip/B91/boot/cstartup_flash.S:233
    jalr   t0
2000017c:	9282                	c.jalr	t0
E:/promotion/gitlab/opensdk/Mars_B91/telink_rocket_driver_sdk/chip/B91/boot/cstartup_flash.S:235

    nop
2000017e:	0001                	c.nop
E:/promotion/gitlab/opensdk/Mars_B91/telink_rocket_driver_sdk/chip/B91/boot/cstartup_flash.S:236
    nop
20000180:	0001                	c.nop
E:/promotion/gitlab/opensdk/Mars_B91/telink_rocket_driver_sdk/chip/B91/boot/cstartup_flash.S:237
    nop
20000182:	0001                	c.nop
E:/promotion/gitlab/opensdk/Mars_B91/telink_rocket_driver_sdk/chip/B91/boot/cstartup_flash.S:238
    nop
20000184:	0001                	c.nop
E:/promotion/gitlab/opensdk/Mars_B91/telink_rocket_driver_sdk/chip/B91/boot/cstartup_flash.S:239
    nop
20000186:	0001                	c.nop

20000188 <_END>:
_END():
E:/promotion/gitlab/opensdk/Mars_B91/telink_rocket_driver_sdk/chip/B91/boot/cstartup_flash.S:241
_END:
    j    _END
20000188:	a001                	c.j	20000188 <_END>

Disassembly of section .retention_reset:

00000000 <_IRESET_ENTRY>:
_RETENTION_RESET_VMA_START():
E:/promotion/gitlab/opensdk/Mars_B91/telink_rocket_driver_sdk/chip/B91/boot/cstartup_flash.S:253
 	.type _IRESET_ENTRY,@function

    .align 2
_IRESET_ENTRY:
	/* Decide whether this is an NMI or cold reset */
	j 		_ISTART
   0:	a00d                	c.j	22 <_ISTART>
	...

00000022 <_ISTART>:
_ISTART():
E:/promotion/gitlab/opensdk/Mars_B91/telink_rocket_driver_sdk/chip/B91/boot/cstartup_flash.S:267
	sb		t1 , 0x30a(t0)		 //0x8014030a  PB oen     =  0xef
	sb		t2 , 0x30b(t0)		 //0x8014030b  PB output  =  0x10
#endif
	/* Initialize global pointer */

    la     gp, __global_pointer$
  22:	00080197          	auipc	gp,0x80
  26:	7de18193          	addi	gp,gp,2014 # 80800 <__global_pointer$>

0000002a <_ISWS_USB_DIS>:
_ISWS_USB_DIS():
E:/promotion/gitlab/opensdk/Mars_B91/telink_rocket_driver_sdk/chip/B91/boot/cstartup_flash.S:275
/*
* swire usb enable default.when dp and dm use as GPIO, it has a risk to trigger the swire through usb function
* to do something unexcept when toggle dp pin
*/
_ISWS_USB_DIS:
	lui		t0, 0x80100
  2a:	801002b7          	lui	t0,0x80100
E:/promotion/gitlab/opensdk/Mars_B91/telink_rocket_driver_sdk/chip/B91/boot/cstartup_flash.S:276
	addi	t0 , t0 , 0x700
  2e:	70028293          	addi	t0,t0,1792 # 80100700 <_DATA_LMA_START+0x600fea80>
E:/promotion/gitlab/opensdk/Mars_B91/telink_rocket_driver_sdk/chip/B91/boot/cstartup_flash.S:277
	li		t1, 0x40
  32:	04000313          	li	t1,64
E:/promotion/gitlab/opensdk/Mars_B91/telink_rocket_driver_sdk/chip/B91/boot/cstartup_flash.S:278
	sb		t1, 0x501(t0)  //0x80100c01 -> 0x40  <7>: 0 swire_usb_dis
  36:	506280a3          	sb	t1,1281(t0)
E:/promotion/gitlab/opensdk/Mars_B91/telink_rocket_driver_sdk/chip/B91/boot/cstartup_flash.S:281

	/* Initialize stack pointer */
    la     t0, _STACK_TOP
  3a:	000a0297          	auipc	t0,0xa0
  3e:	fc628293          	addi	t0,t0,-58 # a0000 <_STACK_TOP>
E:/promotion/gitlab/opensdk/Mars_B91/telink_rocket_driver_sdk/chip/B91/boot/cstartup_flash.S:282
    mv     sp, t0
  42:	8116                	c.mv	sp,t0
E:/promotion/gitlab/opensdk/Mars_B91/telink_rocket_driver_sdk/chip/B91/boot/cstartup_flash.S:286

#ifdef __nds_execit
	/* Initialize EXEC.IT table */
	la t0, _ITB_BASE_
  44:	00000297          	auipc	t0,0x0
  48:	fbc28293          	addi	t0,t0,-68 # 0 <_IRESET_ENTRY>
E:/promotion/gitlab/opensdk/Mars_B91/telink_rocket_driver_sdk/chip/B91/boot/cstartup_flash.S:287
	csrw uitb, t0
  4c:	80029073          	csrw	uitb,t0
E:/promotion/gitlab/opensdk/Mars_B91/telink_rocket_driver_sdk/chip/B91/boot/cstartup_flash.S:292
#endif

#ifdef __riscv_flen
	/* Enable FPU */
	li t0, 0x00006000
  50:	6299                	c.lui	t0,0x6
E:/promotion/gitlab/opensdk/Mars_B91/telink_rocket_driver_sdk/chip/B91/boot/cstartup_flash.S:293
	csrrs t0, mstatus, t0
  52:	3002a2f3          	csrrs	t0,mstatus,t0
E:/promotion/gitlab/opensdk/Mars_B91/telink_rocket_driver_sdk/chip/B91/boot/cstartup_flash.S:295
	/* Initialize FCSR */
	fscsr zero
  56:	00301073          	fssr	zero
E:/promotion/gitlab/opensdk/Mars_B91/telink_rocket_driver_sdk/chip/B91/boot/cstartup_flash.S:299
#endif

    /* Initial machine trap-vector Base */
    la     t0, __vectors
  5a:	00001297          	auipc	t0,0x1
  5e:	ea628293          	addi	t0,t0,-346 # f00 <__vectors>
E:/promotion/gitlab/opensdk/Mars_B91/telink_rocket_driver_sdk/chip/B91/boot/cstartup_flash.S:300
    csrw   mtvec, t0
  62:	30529073          	csrw	mtvec,t0
E:/promotion/gitlab/opensdk/Mars_B91/telink_rocket_driver_sdk/chip/B91/boot/cstartup_flash.S:303

    /* Enable vectored external plic interrupt */
    csrsi  mmisc_ctl, 2
  66:	7d016073          	csrsi	mmisc_ctl,2
E:/promotion/gitlab/opensdk/Mars_B91/telink_rocket_driver_sdk/chip/B91/boot/cstartup_flash.S:306

	/*vector mode enable bit (VECTORED) of the Feature Enable Register */
    lui		t0, 0xe4000
  6a:	e40002b7          	lui	t0,0xe4000
E:/promotion/gitlab/opensdk/Mars_B91/telink_rocket_driver_sdk/chip/B91/boot/cstartup_flash.S:307
	li		t1, 0x02
  6e:	4309                	c.li	t1,2
E:/promotion/gitlab/opensdk/Mars_B91/telink_rocket_driver_sdk/chip/B91/boot/cstartup_flash.S:308
	sw		t1, 0x0(t0)		 //(*(volatile unsigned long*)(0xe4000000))= 0x02
  70:	0062a023          	sw	t1,0(t0) # e4000000 <_DATA_LMA_START+0xc3ffe380>
E:/promotion/gitlab/opensdk/Mars_B91/telink_rocket_driver_sdk/chip/B91/boot/cstartup_flash.S:311

    /* Enable I/D-Cache */
    csrr   t0,  mcache_ctl
  74:	7ca022f3          	csrr	t0,mcache_ctl
E:/promotion/gitlab/opensdk/Mars_B91/telink_rocket_driver_sdk/chip/B91/boot/cstartup_flash.S:312
    ori    t0,  t0,  1  #/I-Cache
  78:	0012e293          	ori	t0,t0,1
E:/promotion/gitlab/opensdk/Mars_B91/telink_rocket_driver_sdk/chip/B91/boot/cstartup_flash.S:313
    ori    t0,  t0,  2  #/D-Cache
  7c:	0022e293          	ori	t0,t0,2
E:/promotion/gitlab/opensdk/Mars_B91/telink_rocket_driver_sdk/chip/B91/boot/cstartup_flash.S:314
    csrw   mcache_ctl,  t0
  80:	7ca29073          	csrw	mcache_ctl,t0
E:/promotion/gitlab/opensdk/Mars_B91/telink_rocket_driver_sdk/chip/B91/boot/cstartup_flash.S:315
    fence.i
  84:	0000100f          	fence.i

00000088 <_WAKEUP_FLASH>:
_WAKEUP_FLASH():
E:/promotion/gitlab/opensdk/Mars_B91/telink_rocket_driver_sdk/chip/B91/boot/cstartup_flash.S:320


/* flash wakeup */
_WAKEUP_FLASH:
	lui		t0 , 0x80140
  88:	801402b7          	lui	t0,0x80140
E:/promotion/gitlab/opensdk/Mars_B91/telink_rocket_driver_sdk/chip/B91/boot/cstartup_flash.S:321
	li		t1 , 0xff
  8c:	0ff00313          	li	t1,255
E:/promotion/gitlab/opensdk/Mars_B91/telink_rocket_driver_sdk/chip/B91/boot/cstartup_flash.S:322
	li		t2 , 0x0
  90:	4381                	c.li	t2,0
E:/promotion/gitlab/opensdk/Mars_B91/telink_rocket_driver_sdk/chip/B91/boot/cstartup_flash.S:323
	li		t3 , 0xab
  92:	0ab00e13          	li	t3,171
E:/promotion/gitlab/opensdk/Mars_B91/telink_rocket_driver_sdk/chip/B91/boot/cstartup_flash.S:324
	sb		t1 , 0x329(t0)			 //mspi ie enable	:0x140329:0x1f
  96:	326284a3          	sb	t1,809(t0) # 80140329 <_DATA_LMA_START+0x6013e6a9>
E:/promotion/gitlab/opensdk/Mars_B91/telink_rocket_driver_sdk/chip/B91/boot/cstartup_flash.S:325
	sb		t2 , 0x101(t0)			 //cs_low			:0x140101:0x00
  9a:	107280a3          	sb	t2,257(t0)
E:/promotion/gitlab/opensdk/Mars_B91/telink_rocket_driver_sdk/chip/B91/boot/cstartup_flash.S:326
	sb		t3 , 0x100(t0)			 //wakeup_cmd		:0x140100:0xab
  9e:	11c28023          	sb	t3,256(t0)

000000a2 <_MSPI_WAIT>:
_MSPI_WAIT():
E:/promotion/gitlab/opensdk/Mars_B91/telink_rocket_driver_sdk/chip/B91/boot/cstartup_flash.S:328
_MSPI_WAIT:
	lui		t0 , 0x80140
  a2:	801402b7          	lui	t0,0x80140
E:/promotion/gitlab/opensdk/Mars_B91/telink_rocket_driver_sdk/chip/B91/boot/cstartup_flash.S:329
	lb		t2 , 0x102(t0)			//read reg_mspi_status FLD_MSPI_BUSY(bit0)
  a6:	10228383          	lb	t2,258(t0) # 80140102 <_DATA_LMA_START+0x6013e482>
E:/promotion/gitlab/opensdk/Mars_B91/telink_rocket_driver_sdk/chip/B91/boot/cstartup_flash.S:330
	li		t3 , 0x1
  aa:	4e05                	c.li	t3,1
E:/promotion/gitlab/opensdk/Mars_B91/telink_rocket_driver_sdk/chip/B91/boot/cstartup_flash.S:331
	li		t4 , 0x10
  ac:	4ec1                	c.li	t4,16
E:/promotion/gitlab/opensdk/Mars_B91/telink_rocket_driver_sdk/chip/B91/boot/cstartup_flash.S:332
	beq 	t3 , t2 ,_MSPI_WAIT
  ae:	fe7e0ae3          	beq	t3,t2,a2 <_MSPI_WAIT>
E:/promotion/gitlab/opensdk/Mars_B91/telink_rocket_driver_sdk/chip/B91/boot/cstartup_flash.S:333
	sb		t4 , 0x101(t0)			//cs_high			:0x140101:0x10
  b2:	11d280a3          	sb	t4,257(t0)
E:/promotion/gitlab/opensdk/Mars_B91/telink_rocket_driver_sdk/chip/B91/boot/cstartup_flash.S:344
	sb		t1, 0x30b(t0)		 	//0x8014030b  PB output  =  0x00
#endif

	/*flash wakeup need delay about 20us */
	/*efuse load need delay about 18us */
	li		t0, 0
  b6:	4281                	c.li	t0,0
E:/promotion/gitlab/opensdk/Mars_B91/telink_rocket_driver_sdk/chip/B91/boot/cstartup_flash.S:345
	li		t1, EFUSE_LOAD_AND_FLASH_WAKEUP_LOOP_NUM
  b8:	14000313          	li	t1,320

000000bc <_WAIT_EFUSE_LOAD_AND_FLASH_WAKEUP_FINISH>:
_WAIT_EFUSE_LOAD_AND_FLASH_WAKEUP_FINISH():
E:/promotion/gitlab/opensdk/Mars_B91/telink_rocket_driver_sdk/chip/B91/boot/cstartup_flash.S:347
_WAIT_EFUSE_LOAD_AND_FLASH_WAKEUP_FINISH:
	addi 	t0, t0 , 1
  bc:	0285                	c.addi	t0,1
E:/promotion/gitlab/opensdk/Mars_B91/telink_rocket_driver_sdk/chip/B91/boot/cstartup_flash.S:348
	bgeu 	t1, t0 , _WAIT_EFUSE_LOAD_AND_FLASH_WAKEUP_FINISH
  be:	fe537fe3          	bgeu	t1,t0,bc <_WAIT_EFUSE_LOAD_AND_FLASH_WAKEUP_FINISH>

000000c2 <_MULTI_ADDRESS_BEGIN>:
_MULTI_ADDRESS_BEGIN():
E:/promotion/gitlab/opensdk/Mars_B91/telink_rocket_driver_sdk/chip/B91/boot/cstartup_flash.S:358
	li		t1, 0x10
	sb		t1, 0x30b(t0)		 //0x8014030b  PB output  =  0x00
#endif

_MULTI_ADDRESS_BEGIN:
	lui		t0, 0x80140
  c2:	801402b7          	lui	t0,0x80140
E:/promotion/gitlab/opensdk/Mars_B91/telink_rocket_driver_sdk/chip/B91/boot/cstartup_flash.S:359
	la		t1, g_pm_mspi_cfg
  c6:	1c000313          	li	t1,448
E:/promotion/gitlab/opensdk/Mars_B91/telink_rocket_driver_sdk/chip/B91/boot/cstartup_flash.S:360
	lw		t2, 0(t1)
  ca:	00032383          	lw	t2,0(t1)
E:/promotion/gitlab/opensdk/Mars_B91/telink_rocket_driver_sdk/chip/B91/boot/cstartup_flash.S:361
	sw		t2, 0x104(t0)			 //g_pm_mspi_cfg->0x80140104
  ce:	1072a223          	sw	t2,260(t0) # 80140104 <_DATA_LMA_START+0x6013e484>

000000d2 <_IZERO_BSS>:
_IZERO_BSS():
E:/promotion/gitlab/opensdk/Mars_B91/telink_rocket_driver_sdk/chip/B91/boot/cstartup_flash.S:365

	/* Zero .bss section in sram */
_IZERO_BSS:
    lui    t0, 0
  d2:	000002b7          	lui	t0,0x0
E:/promotion/gitlab/opensdk/Mars_B91/telink_rocket_driver_sdk/chip/B91/boot/cstartup_flash.S:366
    la     t2, _BSS_VMA_START
  d6:	00080397          	auipc	t2,0x80
  da:	f3a38393          	addi	t2,t2,-198 # 80010 <_BSS_VMA_START>
E:/promotion/gitlab/opensdk/Mars_B91/telink_rocket_driver_sdk/chip/B91/boot/cstartup_flash.S:367
    la     t3, _BSS_VMA_END
  de:	00080e17          	auipc	t3,0x80
  e2:	f6ae0e13          	addi	t3,t3,-150 # 80048 <_BSS_VMA_END>

000000e6 <_IZERO_BSS_BEGIN>:
_IZERO_BSS_BEGIN():
E:/promotion/gitlab/opensdk/Mars_B91/telink_rocket_driver_sdk/chip/B91/boot/cstartup_flash.S:369
_IZERO_BSS_BEGIN:
    bleu   t3, t2, _IZERO_AES
  e6:	01c3f663          	bgeu	t2,t3,f2 <_IZERO_AES>
E:/promotion/gitlab/opensdk/Mars_B91/telink_rocket_driver_sdk/chip/B91/boot/cstartup_flash.S:370
    sw     t0, 0(t2)
  ea:	0053a023          	sw	t0,0(t2)
E:/promotion/gitlab/opensdk/Mars_B91/telink_rocket_driver_sdk/chip/B91/boot/cstartup_flash.S:371
    addi   t2, t2, 4
  ee:	0391                	c.addi	t2,4
E:/promotion/gitlab/opensdk/Mars_B91/telink_rocket_driver_sdk/chip/B91/boot/cstartup_flash.S:372
    j      _IZERO_BSS_BEGIN
  f0:	bfdd                	c.j	e6 <_IZERO_BSS_BEGIN>

000000f2 <_IZERO_AES>:
_IZERO_AES():
E:/promotion/gitlab/opensdk/Mars_B91/telink_rocket_driver_sdk/chip/B91/boot/cstartup_flash.S:376

	/* Zero .aes section in sram */
_IZERO_AES:
    lui    t0, 0
  f2:	000002b7          	lui	t0,0x0
E:/promotion/gitlab/opensdk/Mars_B91/telink_rocket_driver_sdk/chip/B91/boot/cstartup_flash.S:377
    la     t2, _AES_VMA_START
  f6:	00000397          	auipc	t2,0x0
  fa:	06238393          	addi	t2,t2,98 # 158 <_AES_VMA_END>
E:/promotion/gitlab/opensdk/Mars_B91/telink_rocket_driver_sdk/chip/B91/boot/cstartup_flash.S:378
    la     t3, _AES_VMA_END
  fe:	00000e17          	auipc	t3,0x0
 102:	05ae0e13          	addi	t3,t3,90 # 158 <_AES_VMA_END>

00000106 <_IZERO_AES_BEGIN>:
_IZERO_AES_BEGIN():
E:/promotion/gitlab/opensdk/Mars_B91/telink_rocket_driver_sdk/chip/B91/boot/cstartup_flash.S:380
_IZERO_AES_BEGIN:
    bleu   t3, t2, _IFILL_STK
 106:	01c3f663          	bgeu	t2,t3,112 <_IDATA_INIT>
E:/promotion/gitlab/opensdk/Mars_B91/telink_rocket_driver_sdk/chip/B91/boot/cstartup_flash.S:381
    sw     t0, 0(t2)
 10a:	0053a023          	sw	t0,0(t2)
E:/promotion/gitlab/opensdk/Mars_B91/telink_rocket_driver_sdk/chip/B91/boot/cstartup_flash.S:382
    addi   t2, t2, 4
 10e:	0391                	c.addi	t2,4
E:/promotion/gitlab/opensdk/Mars_B91/telink_rocket_driver_sdk/chip/B91/boot/cstartup_flash.S:383
    j      _IZERO_AES_BEGIN
 110:	bfdd                	c.j	106 <_IZERO_AES_BEGIN>

00000112 <_IDATA_INIT>:
_IFILL_STK():
E:/promotion/gitlab/opensdk/Mars_B91/telink_rocket_driver_sdk/chip/B91/boot/cstartup_flash.S:402
#endif

	/* Move Data from flash to sram */
//Read the flash as late as possible to lengthen the time from the wake up to the operation of the flash.
_IDATA_INIT:
    la     t1, _DATA_LMA_START
 112:	20002317          	auipc	t1,0x20002
 116:	b6e30313          	addi	t1,t1,-1170 # 20001c80 <_DATA_LMA_START>
E:/promotion/gitlab/opensdk/Mars_B91/telink_rocket_driver_sdk/chip/B91/boot/cstartup_flash.S:403
    la     t2, _DATA_VMA_START
 11a:	00080397          	auipc	t2,0x80
 11e:	ee638393          	addi	t2,t2,-282 # 80000 <_DATA_VMA_START>
E:/promotion/gitlab/opensdk/Mars_B91/telink_rocket_driver_sdk/chip/B91/boot/cstartup_flash.S:404
    la     t3, _DATA_VMA_END
 122:	00080e17          	auipc	t3,0x80
 126:	eeae0e13          	addi	t3,t3,-278 # 8000c <_DATA_VMA_END>

0000012a <_IDATA_INIT_BEGIN>:
_IDATA_INIT_BEGIN():
E:/promotion/gitlab/opensdk/Mars_B91/telink_rocket_driver_sdk/chip/B91/boot/cstartup_flash.S:406
_IDATA_INIT_BEGIN:
    bleu   t3, t2, _IMAIN_FUNC
 12a:	01c3f963          	bgeu	t2,t3,13c <_IMAIN_FUNC>
E:/promotion/gitlab/opensdk/Mars_B91/telink_rocket_driver_sdk/chip/B91/boot/cstartup_flash.S:407
    lw     t0, 0(t1)
 12e:	00032283          	lw	t0,0(t1)
E:/promotion/gitlab/opensdk/Mars_B91/telink_rocket_driver_sdk/chip/B91/boot/cstartup_flash.S:408
    sw     t0, 0(t2)
 132:	0053a023          	sw	t0,0(t2)
E:/promotion/gitlab/opensdk/Mars_B91/telink_rocket_driver_sdk/chip/B91/boot/cstartup_flash.S:409
    addi   t1, t1, 4
 136:	0311                	c.addi	t1,4
E:/promotion/gitlab/opensdk/Mars_B91/telink_rocket_driver_sdk/chip/B91/boot/cstartup_flash.S:410
    addi   t2, t2, 4
 138:	0391                	c.addi	t2,4
E:/promotion/gitlab/opensdk/Mars_B91/telink_rocket_driver_sdk/chip/B91/boot/cstartup_flash.S:411
    j      _IDATA_INIT_BEGIN
 13a:	bfc5                	c.j	12a <_IDATA_INIT_BEGIN>

0000013c <_IMAIN_FUNC>:
_IMAIN_FUNC():
E:/promotion/gitlab/opensdk/Mars_B91/telink_rocket_driver_sdk/chip/B91/boot/cstartup_flash.S:415

	/* Jump to the main function */
_IMAIN_FUNC:
    nop
 13c:	0001                	c.nop
E:/promotion/gitlab/opensdk/Mars_B91/telink_rocket_driver_sdk/chip/B91/boot/cstartup_flash.S:417

    la     t0, main
 13e:	20001297          	auipc	t0,0x20001
 142:	31a28293          	addi	t0,t0,794 # 20001458 <main>
E:/promotion/gitlab/opensdk/Mars_B91/telink_rocket_driver_sdk/chip/B91/boot/cstartup_flash.S:418
    jalr   t0
 146:	9282                	c.jalr	t0
E:/promotion/gitlab/opensdk/Mars_B91/telink_rocket_driver_sdk/chip/B91/boot/cstartup_flash.S:420

    nop
 148:	0001                	c.nop
E:/promotion/gitlab/opensdk/Mars_B91/telink_rocket_driver_sdk/chip/B91/boot/cstartup_flash.S:421
    nop
 14a:	0001                	c.nop
E:/promotion/gitlab/opensdk/Mars_B91/telink_rocket_driver_sdk/chip/B91/boot/cstartup_flash.S:422
    nop
 14c:	0001                	c.nop
E:/promotion/gitlab/opensdk/Mars_B91/telink_rocket_driver_sdk/chip/B91/boot/cstartup_flash.S:423
    nop
 14e:	0001                	c.nop
E:/promotion/gitlab/opensdk/Mars_B91/telink_rocket_driver_sdk/chip/B91/boot/cstartup_flash.S:424
    nop
 150:	0001                	c.nop

00000152 <_IEND>:
_IEND():
E:/promotion/gitlab/opensdk/Mars_B91/telink_rocket_driver_sdk/chip/B91/boot/cstartup_flash.S:426
_IEND:
    j    _IEND
 152:	a001                	c.j	152 <_IEND>

Disassembly of section .ram_code:

00000200 <delay_ms.constprop.2>:
stimer_get_tick():
E:/promotion/gitlab/opensdk/Mars_B91/telink_rocket_driver_sdk/chip/B91/drivers/stimer.h:169
 * @return    system timer tick value.
**/
static inline unsigned int stimer_get_tick(void)
{

	return reg_system_tick;
     200:	801407b7          	lui	a5,0x80140
delay_ms():
E:/promotion/gitlab/opensdk/Mars_B91/telink_rocket_driver_sdk/chip/B91/drivers/stimer.c:45
 * @return    none
*/
 void delay_ms(unsigned int millisec)
{
	unsigned long t = stimer_get_tick();
	while(!clock_time_exceed(t, millisec*1000)){
     204:	00f42737          	lui	a4,0xf42
stimer_get_tick():
E:/promotion/gitlab/opensdk/Mars_B91/telink_rocket_driver_sdk/chip/B91/drivers/stimer.h:169
     208:	2007a603          	lw	a2,512(a5) # 80140200 <_DATA_LMA_START+0x6013e580>
     20c:	801406b7          	lui	a3,0x80140
delay_ms():
E:/promotion/gitlab/opensdk/Mars_B91/telink_rocket_driver_sdk/chip/B91/drivers/stimer.c:45
     210:	40070713          	addi	a4,a4,1024 # f42400 <FLASH_SIZE+0xe42400>
stimer_get_tick():
E:/promotion/gitlab/opensdk/Mars_B91/telink_rocket_driver_sdk/chip/B91/drivers/stimer.h:169
     214:	2006a783          	lw	a5,512(a3) # 80140200 <_DATA_LMA_START+0x6013e580>
clock_time_exceed():
E:/promotion/gitlab/opensdk/Mars_B91/telink_rocket_driver_sdk/chip/B91/drivers/stimer.h:180
 * @param[in] us   - count by us.
 * @return    true - timeout, false - not timeout
 */
static inline _Bool clock_time_exceed(unsigned int ref, unsigned int us)
{
	return ((unsigned int)(stimer_get_tick() - ref) > us * SYSTEM_TIMER_TICK_1US);
     218:	8f91                	c.sub	a5,a2
delay_ms():
E:/promotion/gitlab/opensdk/Mars_B91/telink_rocket_driver_sdk/chip/B91/drivers/stimer.c:45
     21a:	fef77de3          	bgeu	a4,a5,214 <delay_ms.constprop.2+0x14>
E:/promotion/gitlab/opensdk/Mars_B91/telink_rocket_driver_sdk/chip/B91/drivers/stimer.c:47
	}
}
     21e:	8082                	c.jr	ra

00000220 <flash_send_addr>:
flash_send_addr():
E:/promotion/gitlab/opensdk/Mars_B91/telink_rocket_driver_sdk/chip/B91/drivers/flash.c:113
 * @brief		This function serves to send flash address.
 * @param[in]	addr	- the flash address.
 * @return		none.
 */
_attribute_ram_code_sec_noinline_ static void flash_send_addr(unsigned int addr){
	mspi_write((unsigned char)(addr>>16));
     220:	5d05275b          	bfoz	a4,a0,23,16
mspi_write():
E:/promotion/gitlab/opensdk/Mars_B91/telink_rocket_driver_sdk/chip/B91/drivers/mspi.h:120
 * @brief		This function servers to write the spi.
 * @param[in]	c	- the char need to be write.
 * @return		none.
 */
_attribute_ram_code_sec_ static inline void mspi_write(unsigned char c){
	reg_mspi_data = c;
     224:	801407b7          	lui	a5,0x80140
mspi_wait():
E:/promotion/gitlab/opensdk/Mars_B91/telink_rocket_driver_sdk/chip/B91/drivers/mspi.h:46
	while(reg_mspi_status & FLD_MSPI_BUSY);
     228:	801406b7          	lui	a3,0x80140
mspi_write():
E:/promotion/gitlab/opensdk/Mars_B91/telink_rocket_driver_sdk/chip/B91/drivers/mspi.h:120
	reg_mspi_data = c;
     22c:	10e78023          	sb	a4,256(a5) # 80140100 <_DATA_LMA_START+0x6013e480>
mspi_wait():
E:/promotion/gitlab/opensdk/Mars_B91/telink_rocket_driver_sdk/chip/B91/drivers/mspi.h:46
	while(reg_mspi_status & FLD_MSPI_BUSY);
     230:	10268783          	lb	a5,258(a3) # 80140102 <_DATA_LMA_START+0x6013e482>
     234:	fe07fe5b          	bbs	a5,0,230 <flash_send_addr+0x10>
flash_send_addr():
E:/promotion/gitlab/opensdk/Mars_B91/telink_rocket_driver_sdk/chip/B91/drivers/flash.c:115
	mspi_wait();
	mspi_write((unsigned char)(addr>>8));
     238:	3c8527db          	bfoz	a5,a0,15,8
mspi_wait():
E:/promotion/gitlab/opensdk/Mars_B91/telink_rocket_driver_sdk/chip/B91/drivers/mspi.h:46
     23c:	80140737          	lui	a4,0x80140
mspi_write():
E:/promotion/gitlab/opensdk/Mars_B91/telink_rocket_driver_sdk/chip/B91/drivers/mspi.h:120
	reg_mspi_data = c;
     240:	10f68023          	sb	a5,256(a3)
mspi_wait():
E:/promotion/gitlab/opensdk/Mars_B91/telink_rocket_driver_sdk/chip/B91/drivers/mspi.h:46
	while(reg_mspi_status & FLD_MSPI_BUSY);
     244:	10270783          	lb	a5,258(a4) # 80140102 <_DATA_LMA_START+0x6013e482>
     248:	fe07fe5b          	bbs	a5,0,244 <flash_send_addr+0x24>
flash_send_addr():
E:/promotion/gitlab/opensdk/Mars_B91/telink_rocket_driver_sdk/chip/B91/drivers/flash.c:117
	mspi_wait();
	mspi_write((unsigned char)(addr));
     24c:	0ff57513          	andi	a0,a0,255
mspi_wait():
E:/promotion/gitlab/opensdk/Mars_B91/telink_rocket_driver_sdk/chip/B91/drivers/mspi.h:46
     250:	801406b7          	lui	a3,0x80140
mspi_write():
E:/promotion/gitlab/opensdk/Mars_B91/telink_rocket_driver_sdk/chip/B91/drivers/mspi.h:120
	reg_mspi_data = c;
     254:	10a70023          	sb	a0,256(a4)
mspi_wait():
E:/promotion/gitlab/opensdk/Mars_B91/telink_rocket_driver_sdk/chip/B91/drivers/mspi.h:46
	while(reg_mspi_status & FLD_MSPI_BUSY);
     258:	10268783          	lb	a5,258(a3) # 80140102 <_DATA_LMA_START+0x6013e482>
     25c:	fe07fe5b          	bbs	a5,0,258 <flash_send_addr+0x38>
flash_send_addr():
E:/promotion/gitlab/opensdk/Mars_B91/telink_rocket_driver_sdk/chip/B91/drivers/flash.c:119
	mspi_wait();
}
     260:	00008067          	ret

00000264 <flash_send_cmd>:
mspi_high():
E:/promotion/gitlab/opensdk/Mars_B91/telink_rocket_driver_sdk/chip/B91/drivers/mspi.h:95
	reg_mspi_fm |= FLD_MSPI_CSN;
     264:	801407b7          	lui	a5,0x80140
     268:	10178703          	lb	a4,257(a5) # 80140101 <_DATA_LMA_START+0x6013e481>
     26c:	0ff77713          	andi	a4,a4,255
     270:	01076713          	ori	a4,a4,16
     274:	10e780a3          	sb	a4,257(a5)
flash_send_cmd():
E:/promotion/gitlab/opensdk/Mars_B91/telink_rocket_driver_sdk/chip/B91/drivers/flash.c:101
	CLOCK_DLY_10_CYC;
     278:	0001                	c.nop
     27a:	0001                	c.nop
     27c:	0001                	c.nop
     27e:	0001                	c.nop
     280:	0001                	c.nop
     282:	0001                	c.nop
     284:	0001                	c.nop
     286:	0001                	c.nop
     288:	0001                	c.nop
     28a:	0001                	c.nop
mspi_low():
E:/promotion/gitlab/opensdk/Mars_B91/telink_rocket_driver_sdk/chip/B91/drivers/mspi.h:103
	reg_mspi_fm &= ~FLD_MSPI_CSN;
     28c:	10178683          	lb	a3,257(a5)
mspi_wait():
E:/promotion/gitlab/opensdk/Mars_B91/telink_rocket_driver_sdk/chip/B91/drivers/mspi.h:46
	while(reg_mspi_status & FLD_MSPI_BUSY);
     290:	80140737          	lui	a4,0x80140
mspi_low():
E:/promotion/gitlab/opensdk/Mars_B91/telink_rocket_driver_sdk/chip/B91/drivers/mspi.h:103
	reg_mspi_fm &= ~FLD_MSPI_CSN;
     294:	0ef6f693          	andi	a3,a3,239
     298:	10d780a3          	sb	a3,257(a5)
mspi_write():
E:/promotion/gitlab/opensdk/Mars_B91/telink_rocket_driver_sdk/chip/B91/drivers/mspi.h:120
	reg_mspi_data = c;
     29c:	10a78023          	sb	a0,256(a5)
mspi_wait():
E:/promotion/gitlab/opensdk/Mars_B91/telink_rocket_driver_sdk/chip/B91/drivers/mspi.h:46
	while(reg_mspi_status & FLD_MSPI_BUSY);
     2a0:	10270783          	lb	a5,258(a4) # 80140102 <_DATA_LMA_START+0x6013e482>
     2a4:	fe07fe5b          	bbs	a5,0,2a0 <flash_send_cmd+0x3c>
flash_send_cmd():
E:/promotion/gitlab/opensdk/Mars_B91/telink_rocket_driver_sdk/chip/B91/drivers/flash.c:105
}
     2a8:	00008067          	ret

000002ac <clock_set_32k_tick>:
clock_set_32k_tick():
E:/promotion/gitlab/opensdk/Mars_B91/telink_rocket_driver_sdk/chip/B91/drivers/clock.c:205
 * @param  tick - the value of to be set to 32k.
 * @return none.
 */
_attribute_ram_code_sec_noinline_ void clock_set_32k_tick(unsigned int tick)
{
	reg_system_ctrl |= FLD_SYSTEM_32K_WR_EN;//r_32k_wr = 1;
     2ac:	801406b7          	lui	a3,0x80140
     2b0:	20a68783          	lb	a5,522(a3) # 8014020a <_DATA_LMA_START+0x6013e58a>
E:/promotion/gitlab/opensdk/Mars_B91/telink_rocket_driver_sdk/chip/B91/drivers/clock.c:206
	while(reg_system_st & FLD_SYSTEM_RD_BUSY);
     2b4:	80140737          	lui	a4,0x80140
E:/promotion/gitlab/opensdk/Mars_B91/telink_rocket_driver_sdk/chip/B91/drivers/clock.c:205
	reg_system_ctrl |= FLD_SYSTEM_32K_WR_EN;//r_32k_wr = 1;
     2b8:	0ff7f793          	andi	a5,a5,255
     2bc:	0017e793          	ori	a5,a5,1
     2c0:	20f68523          	sb	a5,522(a3)
E:/promotion/gitlab/opensdk/Mars_B91/telink_rocket_driver_sdk/chip/B91/drivers/clock.c:206
	while(reg_system_st & FLD_SYSTEM_RD_BUSY);
     2c4:	20b70683          	lb	a3,523(a4) # 8014020b <_DATA_LMA_START+0x6013e58b>
     2c8:	20b70793          	addi	a5,a4,523
     2cc:	fe66fc5b          	bbs	a3,6,2c4 <clock_set_32k_tick+0x18>
E:/promotion/gitlab/opensdk/Mars_B91/telink_rocket_driver_sdk/chip/B91/drivers/clock.c:207
	reg_system_timer_set_32k = tick;
     2d0:	20a72623          	sw	a0,524(a4)
E:/promotion/gitlab/opensdk/Mars_B91/telink_rocket_driver_sdk/chip/B91/drivers/clock.c:209

	reg_system_st = FLD_SYSTEM_CMD_SYNC;//cmd_sync = 1,trig write
     2d4:	4721                	c.li	a4,8
     2d6:	00e78023          	sb	a4,0(a5)
E:/promotion/gitlab/opensdk/Mars_B91/telink_rocket_driver_sdk/chip/B91/drivers/clock.c:211
	//delay 10us
	__asm__("nop");__asm__("nop");__asm__("nop");__asm__("nop");
     2da:	0001                	c.nop
     2dc:	0001                	c.nop
     2de:	0001                	c.nop
     2e0:	0001                	c.nop
E:/promotion/gitlab/opensdk/Mars_B91/telink_rocket_driver_sdk/chip/B91/drivers/clock.c:212
	__asm__("nop");__asm__("nop");__asm__("nop");__asm__("nop");
     2e2:	0001                	c.nop
     2e4:	0001                	c.nop
     2e6:	0001                	c.nop
     2e8:	0001                	c.nop
E:/promotion/gitlab/opensdk/Mars_B91/telink_rocket_driver_sdk/chip/B91/drivers/clock.c:213
	__asm__("nop");__asm__("nop");__asm__("nop");__asm__("nop");
     2ea:	0001                	c.nop
     2ec:	0001                	c.nop
     2ee:	0001                	c.nop
     2f0:	0001                	c.nop
E:/promotion/gitlab/opensdk/Mars_B91/telink_rocket_driver_sdk/chip/B91/drivers/clock.c:214
	__asm__("nop");__asm__("nop");__asm__("nop");__asm__("nop");
     2f2:	0001                	c.nop
     2f4:	0001                	c.nop
     2f6:	0001                	c.nop
     2f8:	00000013          	nop
E:/promotion/gitlab/opensdk/Mars_B91/telink_rocket_driver_sdk/chip/B91/drivers/clock.c:215
	while(reg_system_st & FLD_SYSTEM_CMD_SYNC);//wait wr_busy = 0
     2fc:	801407b7          	lui	a5,0x80140
     300:	20b78703          	lb	a4,523(a5) # 8014020b <_DATA_LMA_START+0x6013e58b>
     304:	fe377e5b          	bbs	a4,3,300 <clock_set_32k_tick+0x54>
E:/promotion/gitlab/opensdk/Mars_B91/telink_rocket_driver_sdk/chip/B91/drivers/clock.c:217

}
     308:	00008067          	ret

0000030c <analog_read_reg32.constprop.21>:
core_interrupt_disable():
E:/promotion/gitlab/opensdk/Mars_B91/telink_rocket_driver_sdk/chip/B91/drivers/core.h:114
 * @return  r - the MIE bit value of machine status register(MSTATUS).
 * @note  this function must be used when the system wants to disable all the interrupt.
 * @return     none
 */
static inline unsigned int core_interrupt_disable(void){
	unsigned int r = read_csr (NDS_MSTATUS)&FLD_MSTATUS_MIE;
     30c:	300027f3          	csrr	a5,mstatus
     310:	8ba1                	c.andi	a5,8
E:/promotion/gitlab/opensdk/Mars_B91/telink_rocket_driver_sdk/chip/B91/drivers/core.h:115
	if(r)
     312:	c789                	c.beqz	a5,31c <analog_read_reg32.constprop.21+0x10>
E:/promotion/gitlab/opensdk/Mars_B91/telink_rocket_driver_sdk/chip/B91/drivers/core.h:117
	{
		clear_csr(NDS_MSTATUS,FLD_MSTATUS_MIE);//global interrupts disable
     314:	30047773          	csrrci	a4,mstatus,8
E:/promotion/gitlab/opensdk/Mars_B91/telink_rocket_driver_sdk/chip/B91/drivers/core.h:118
        fence_iorw; /* Hardware may change this value, fence IO ensures that software changes are valid. */
     318:	0ff0000f          	fence
analog_read_reg32():
E:/promotion/gitlab/opensdk/Mars_B91/telink_rocket_driver_sdk/chip/B91/drivers/analog.c:176
 * @return     the result of read.
 */
_attribute_ram_code_sec_noinline_ unsigned int analog_read_reg32(unsigned char addr)
{
	unsigned int r=core_interrupt_disable();
	reg_ana_len = 4;
     31c:	80140737          	lui	a4,0x80140
     320:	00400693          	li	a3,4
     324:	18d701a3          	sb	a3,387(a4) # 80140183 <_DATA_LMA_START+0x6013e503>
E:/promotion/gitlab/opensdk/Mars_B91/telink_rocket_driver_sdk/chip/B91/drivers/analog.c:177
	reg_ana_addr = addr;
     328:	06000693          	li	a3,96
     32c:	18d70023          	sb	a3,384(a4)
E:/promotion/gitlab/opensdk/Mars_B91/telink_rocket_driver_sdk/chip/B91/drivers/analog.c:178
	reg_ana_ctrl = FLD_ANA_CYC;
     330:	04000613          	li	a2,64
analog_wait():
E:/promotion/gitlab/opensdk/Mars_B91/telink_rocket_driver_sdk/chip/B91/drivers/analog.c:432
/**
 * @brief      This function serves to judge whether analog write/read is busy .
 * @return     none.
 */
static inline void analog_wait(){
	while(reg_ana_ctrl & FLD_ANA_BUSY){}
     334:	801406b7          	lui	a3,0x80140
analog_read_reg32():
E:/promotion/gitlab/opensdk/Mars_B91/telink_rocket_driver_sdk/chip/B91/drivers/analog.c:178
	reg_ana_ctrl = FLD_ANA_CYC;
     338:	18c70123          	sb	a2,386(a4)
analog_wait():
E:/promotion/gitlab/opensdk/Mars_B91/telink_rocket_driver_sdk/chip/B91/drivers/analog.c:432
	while(reg_ana_ctrl & FLD_ANA_BUSY){}
     33c:	18268703          	lb	a4,386(a3) # 80140182 <_DATA_LMA_START+0x6013e502>
     340:	fe777e5b          	bbs	a4,7,33c <analog_read_reg32.constprop.21+0x30>
analog_read_reg32():
E:/promotion/gitlab/opensdk/Mars_B91/telink_rocket_driver_sdk/chip/B91/drivers/analog.c:180
	unsigned int data=reg_ana_addr_data32;
     344:	1846a503          	lw	a0,388(a3)
core_restore_interrupt():
E:/promotion/gitlab/opensdk/Mars_B91/telink_rocket_driver_sdk/chip/B91/drivers/core.h:131
 * this  parameter must be the return value of the core_interrupt_disable function.
 * @return     0
 * @note this function must be used when the system wants to restore all the interrupt.
 */
static inline unsigned int core_restore_interrupt(unsigned int en){
	if(en)
     348:	00078663          	beqz	a5,354 <analog_read_reg32.constprop.21+0x48>
E:/promotion/gitlab/opensdk/Mars_B91/telink_rocket_driver_sdk/chip/B91/drivers/core.h:133
	{
		set_csr(NDS_MSTATUS,en);//global interrupts enable
     34c:	3007a7f3          	csrrs	a5,mstatus,a5
E:/promotion/gitlab/opensdk/Mars_B91/telink_rocket_driver_sdk/chip/B91/drivers/core.h:134
        fence_iorw; /* Hardware may change this value, fence IO ensures that software changes are valid. */
     350:	0ff0000f          	fence
analog_read_reg32():
E:/promotion/gitlab/opensdk/Mars_B91/telink_rocket_driver_sdk/chip/B91/drivers/analog.c:183
}
     354:	00008067          	ret

00000358 <clock_get_32k_tick>:
clock_get_32k_tick():
E:/promotion/gitlab/opensdk/Mars_B91/telink_rocket_driver_sdk/chip/B91/drivers/clock.c:242
 * modify by yi.bao,confirmed by guangjun at 20210105
 * Use digital register way to get 32k tick may read error tick,cause the wakeup time is
 * incorrect with the setting time,the sleep time will very little or very big,will not wakeup on time.
 */
_attribute_ram_code_sec_noinline_ unsigned int clock_get_32k_tick(void)
{
     358:	1141                	c.addi	sp,-16
     35a:	c422                	c.swsp	s0,8(sp)
     35c:	c606                	c.swsp	ra,12(sp)
E:/promotion/gitlab/opensdk/Mars_B91/telink_rocket_driver_sdk/chip/B91/drivers/clock.c:250

    //In the system timer auto mode, when writing a tick value to the system tick, if the writing operation overlaps
    //with the 32k rising edge, the writing operation will be unsuccessful. When reading the 32k tick value,
    //first wait for the rising edge to pass to avoid overlap with the subsequent write tick value operation.
    //modify by weihua.zhang, confirmed by jianzhi at 20210126
	t0 = analog_read_reg32(0x60);
     35e:	377d                	c.jal	30c <analog_read_reg32.constprop.21>
     360:	00a00433          	add	s0,zero,a0
E:/promotion/gitlab/opensdk/Mars_B91/telink_rocket_driver_sdk/chip/B91/drivers/clock.c:253
	while(1)
	{
		t1 = analog_read_reg32(0x60);
     364:	fa9ff0ef          	jal	ra,30c <analog_read_reg32.constprop.21>
E:/promotion/gitlab/opensdk/Mars_B91/telink_rocket_driver_sdk/chip/B91/drivers/clock.c:254
		if((t1-t0) == 1)
     368:	40850733          	sub	a4,a0,s0
E:/promotion/gitlab/opensdk/Mars_B91/telink_rocket_driver_sdk/chip/B91/drivers/clock.c:253
		t1 = analog_read_reg32(0x60);
     36c:	842a                	c.mv	s0,a0
E:/promotion/gitlab/opensdk/Mars_B91/telink_rocket_driver_sdk/chip/B91/drivers/clock.c:254
		if((t1-t0) == 1)
     36e:	be176b5b          	bnec	a4,1,364 <clock_get_32k_tick+0xc>
E:/promotion/gitlab/opensdk/Mars_B91/telink_rocket_driver_sdk/chip/B91/drivers/clock.c:263
		else if(t1-t0)
		{
			t0 = t1;
		}
	}
}
     372:	40b2                	c.lwsp	ra,12(sp)
     374:	4422                	c.lwsp	s0,8(sp)
     376:	0141                	c.addi	sp,16
     378:	00008067          	ret

0000037c <pm_stimer_recover>:
pm_stimer_recover():
D:/release_sdk/v2_3_0_2/telink_b91m_driver_src/chip/B91/drivers/lib/src/pm.c:113
     37c:	1141                	c.addi	sp,-16
D:/release_sdk/v2_3_0_2/telink_b91m_driver_src/chip/B91/drivers/lib/src/pm.c:115
     37e:	80140737          	lui	a4,0x80140
D:/release_sdk/v2_3_0_2/telink_b91m_driver_src/chip/B91/drivers/lib/src/pm.c:113
     382:	c606                	c.swsp	ra,12(sp)
D:/release_sdk/v2_3_0_2/telink_b91m_driver_src/chip/B91/drivers/lib/src/pm.c:115
     384:	4789                	c.li	a5,2
     386:	20f70c23          	sb	a5,536(a4) # 80140218 <_DATA_LMA_START+0x6013e598>
D:/release_sdk/v2_3_0_2/telink_b91m_driver_src/chip/B91/drivers/lib/src/pm.c:116
     38a:	20a70783          	lb	a5,522(a4)
     38e:	0ff7f793          	andi	a5,a5,255
     392:	00c7e793          	ori	a5,a5,12
     396:	20f70523          	sb	a5,522(a4)
D:/release_sdk/v2_3_0_2/telink_b91m_driver_src/chip/B91/drivers/lib/src/pm.c:117
     39a:	3f7d                	c.jal	358 <clock_get_32k_tick>
D:/release_sdk/v2_3_0_2/telink_b91m_driver_src/chip/B91/drivers/lib/src/pm.c:118
     39c:	000007b7          	lui	a5,0x0
     3a0:	15878713          	addi	a4,a5,344 # 158 <_AES_VMA_END>
     3a4:	00874703          	lbu	a4,8(a4)
     3a8:	15878793          	addi	a5,a5,344
     3ac:	cf01                	c.beqz	a4,3c4 <pm_stimer_recover+0x48>
D:/release_sdk/v2_3_0_2/telink_b91m_driver_src/chip/B91/drivers/lib/src/pm.c:119
     3ae:	4bd8                	c.lw	a4,20(a5)
     3b0:	5fd0                	c.lw	a2,60(a5)
     3b2:	40e50733          	sub	a4,a0,a4
     3b6:	4b94                	c.lw	a3,16(a5)
     3b8:	0705                	c.addi	a4,1
     3ba:	8315                	c.srli	a4,0x5
     3bc:	c4c716ff          	maddr32	a3,a4,a2
     3c0:	c7d4                	c.sw	a3,12(a5)
     3c2:	a829                	c.j	3dc <pm_stimer_recover+0x60>
D:/release_sdk/v2_3_0_2/telink_b91m_driver_src/chip/B91/drivers/lib/src/pm.c:121
     3c4:	4bd8                	c.lw	a4,20(a5)
     3c6:	5fd4                	c.lw	a3,60(a5)
     3c8:	40e50733          	sub	a4,a0,a4
     3cc:	0705                	c.addi	a4,1
     3ce:	02d70733          	mul	a4,a4,a3
     3d2:	4b94                	c.lw	a3,16(a5)
     3d4:	8315                	c.srli	a4,0x5
     3d6:	9736                	c.add	a4,a3
     3d8:	00e7a623          	sw	a4,12(a5)
D:/release_sdk/v2_3_0_2/telink_b91m_driver_src/chip/B91/drivers/lib/src/pm.c:124
     3dc:	4bd8                	c.lw	a4,20(a5)
D:/release_sdk/v2_3_0_2/telink_b91m_driver_src/chip/B91/drivers/lib/src/pm.c:125
     3de:	47d4                	c.lw	a3,12(a5)
D:/release_sdk/v2_3_0_2/telink_b91m_driver_src/chip/B91/drivers/lib/src/pm.c:124
     3e0:	40e50733          	sub	a4,a0,a4
     3e4:	0705                	c.addi	a4,1
D:/release_sdk/v2_3_0_2/telink_b91m_driver_src/chip/B91/drivers/lib/src/pm.c:123
     3e6:	0505                	c.addi	a0,1
D:/release_sdk/v2_3_0_2/telink_b91m_driver_src/chip/B91/drivers/lib/src/pm.c:125
     3e8:	0685                	c.addi	a3,1
D:/release_sdk/v2_3_0_2/telink_b91m_driver_src/chip/B91/drivers/lib/src/pm.c:123
     3ea:	d7c8                	c.sw	a0,44(a5)
D:/release_sdk/v2_3_0_2/telink_b91m_driver_src/chip/B91/drivers/lib/src/pm.c:124
     3ec:	02e7a423          	sw	a4,40(a5)
D:/release_sdk/v2_3_0_2/telink_b91m_driver_src/chip/B91/drivers/lib/src/pm.c:128
     3f0:	80140637          	lui	a2,0x80140
D:/release_sdk/v2_3_0_2/telink_b91m_driver_src/chip/B91/drivers/lib/src/pm.c:125
     3f4:	801407b7          	lui	a5,0x80140
     3f8:	20d7a023          	sw	a3,512(a5) # 80140200 <_DATA_LMA_START+0x6013e580>
D:/release_sdk/v2_3_0_2/telink_b91m_driver_src/chip/B91/drivers/lib/src/pm.c:128
     3fc:	20b60783          	lb	a5,523(a2) # 8014020b <_DATA_LMA_START+0x6013e58b>
     400:	be77fe5b          	bbc	a5,7,3fc <pm_stimer_recover+0x80>
D:/release_sdk/v2_3_0_2/telink_b91m_driver_src/chip/B91/drivers/lib/src/pm.c:129
     404:	20060c23          	sb	zero,536(a2)
D:/release_sdk/v2_3_0_2/telink_b91m_driver_src/chip/B91/drivers/lib/src/pm.c:142
     408:	40b2                	c.lwsp	ra,12(sp)
     40a:	0141                	c.addi	sp,16
     40c:	00008067          	ret

00000410 <plic_exit_critical_sec>:
plic_exit_critical_sec():
D:/release_sdk/v2_3_0_2/telink_b91m_driver_src/chip/B91/drivers/lib/src/plic.c:80
     410:	000007b7          	lui	a5,0x0
     414:	15878793          	addi	a5,a5,344 # 158 <_AES_VMA_END>
     418:	04078783          	lb	a5,64(a5)
     41c:	0ff7f793          	andi	a5,a5,255
     420:	c795                	c.beqz	a5,44c <plic_exit_critical_sec+0x3c>
     422:	c50d                	c.beqz	a0,44c <plic_exit_critical_sec+0x3c>
core_interrupt_disable():
D:\release_sdk\v2_3_0_2\telink_b91m_driver_src\chip\B91\drivers/core.h:114
     424:	300027f3          	csrr	a5,mstatus
     428:	8ba1                	c.andi	a5,8
     42a:	0ff5f593          	andi	a1,a1,255
D:\release_sdk\v2_3_0_2\telink_b91m_driver_src\chip\B91\drivers/core.h:115
     42e:	c78d                	c.beqz	a5,458 <plic_exit_critical_sec+0x48>
D:\release_sdk\v2_3_0_2\telink_b91m_driver_src\chip\B91\drivers/core.h:117
     430:	30047773          	csrrci	a4,mstatus,8
D:\release_sdk\v2_3_0_2\telink_b91m_driver_src\chip\B91\drivers/core.h:118
     434:	0ff0000f          	fence
plic_set_threshold():
D:\release_sdk\v2_3_0_2\telink_b91m_driver_src\chip\B91\drivers/lib/include/plic.h:341
     438:	e4200737          	lui	a4,0xe4200
     43c:	c30c                	c.sw	a1,0(a4)
D:\release_sdk\v2_3_0_2\telink_b91m_driver_src\chip\B91\drivers/lib/include/plic.h:342
     43e:	0ff0000f          	fence
core_restore_interrupt():
D:\release_sdk\v2_3_0_2\telink_b91m_driver_src\chip\B91\drivers/core.h:133
     442:	3007a7f3          	csrrs	a5,mstatus,a5
D:\release_sdk\v2_3_0_2\telink_b91m_driver_src\chip\B91\drivers/core.h:134
     446:	0ff0000f          	fence
     44a:	8082                	c.jr	ra
D:\release_sdk\v2_3_0_2\telink_b91m_driver_src\chip\B91\drivers/core.h:131
     44c:	cd81                	c.beqz	a1,464 <plic_exit_critical_sec+0x54>
D:\release_sdk\v2_3_0_2\telink_b91m_driver_src\chip\B91\drivers/core.h:133
     44e:	3005a5f3          	csrrs	a1,mstatus,a1
D:\release_sdk\v2_3_0_2\telink_b91m_driver_src\chip\B91\drivers/core.h:134
     452:	0ff0000f          	fence
     456:	8082                	c.jr	ra
plic_set_threshold():
D:\release_sdk\v2_3_0_2\telink_b91m_driver_src\chip\B91\drivers/lib/include/plic.h:341
     458:	e42007b7          	lui	a5,0xe4200
     45c:	00b7a023          	sw	a1,0(a5) # e4200000 <_DATA_LMA_START+0xc41fe380>
D:\release_sdk\v2_3_0_2\telink_b91m_driver_src\chip\B91\drivers/lib/include/plic.h:342
     460:	0ff0000f          	fence
plic_exit_critical_sec():
D:/release_sdk/v2_3_0_2/telink_b91m_driver_src/chip/B91/drivers/lib/src/plic.c:88
     464:	00008067          	ret

00000468 <plic_enter_critical_sec>:
plic_enter_critical_sec():
D:/release_sdk/v2_3_0_2/telink_b91m_driver_src/chip/B91/drivers/lib/src/plic.c:50
     468:	000007b7          	lui	a5,0x0
     46c:	15878793          	addi	a5,a5,344 # 158 <_AES_VMA_END>
     470:	04078783          	lb	a5,64(a5)
     474:	0ff7f793          	andi	a5,a5,255
     478:	cb85                	c.beqz	a5,4a8 <plic_enter_critical_sec+0x40>
     47a:	c51d                	c.beqz	a0,4a8 <plic_enter_critical_sec+0x40>
D:/release_sdk/v2_3_0_2/telink_b91m_driver_src/chip/B91/drivers/lib/src/plic.c:56
     47c:	e4200737          	lui	a4,0xe4200
     480:	4308                	c.lw	a0,0(a4)
D:/release_sdk/v2_3_0_2/telink_b91m_driver_src/chip/B91/drivers/lib/src/plic.c:57
     482:	04b57163          	bgeu	a0,a1,4c4 <plic_enter_critical_sec+0x5c>
core_interrupt_disable():
D:\release_sdk\v2_3_0_2\telink_b91m_driver_src\chip\B91\drivers/core.h:114
     486:	300027f3          	csrr	a5,mstatus
     48a:	8ba1                	c.andi	a5,8
D:\release_sdk\v2_3_0_2\telink_b91m_driver_src\chip\B91\drivers/core.h:115
     48c:	cb85                	c.beqz	a5,4bc <plic_enter_critical_sec+0x54>
D:\release_sdk\v2_3_0_2\telink_b91m_driver_src\chip\B91\drivers/core.h:117
     48e:	300476f3          	csrrci	a3,mstatus,8
D:\release_sdk\v2_3_0_2\telink_b91m_driver_src\chip\B91\drivers/core.h:118
     492:	0ff0000f          	fence
plic_set_threshold():
D:\release_sdk\v2_3_0_2\telink_b91m_driver_src\chip\B91\drivers/lib/include/plic.h:341
     496:	c30c                	c.sw	a1,0(a4)
D:\release_sdk\v2_3_0_2\telink_b91m_driver_src\chip\B91\drivers/lib/include/plic.h:342
     498:	0ff0000f          	fence
core_restore_interrupt():
D:\release_sdk\v2_3_0_2\telink_b91m_driver_src\chip\B91\drivers/core.h:133
     49c:	3007a7f3          	csrrs	a5,mstatus,a5
D:\release_sdk\v2_3_0_2\telink_b91m_driver_src\chip\B91\drivers/core.h:134
     4a0:	0ff0000f          	fence
     4a4:	00008067          	ret
core_interrupt_disable():
D:\release_sdk\v2_3_0_2\telink_b91m_driver_src\chip\B91\drivers/core.h:114
     4a8:	30002573          	csrr	a0,mstatus
     4ac:	8921                	c.andi	a0,8
D:\release_sdk\v2_3_0_2\telink_b91m_driver_src\chip\B91\drivers/core.h:115
     4ae:	c919                	c.beqz	a0,4c4 <plic_enter_critical_sec+0x5c>
D:\release_sdk\v2_3_0_2\telink_b91m_driver_src\chip\B91\drivers/core.h:117
     4b0:	300477f3          	csrrci	a5,mstatus,8
D:\release_sdk\v2_3_0_2\telink_b91m_driver_src\chip\B91\drivers/core.h:118
     4b4:	0ff0000f          	fence
     4b8:	00008067          	ret
plic_set_threshold():
D:\release_sdk\v2_3_0_2\telink_b91m_driver_src\chip\B91\drivers/lib/include/plic.h:341
     4bc:	00b72023          	sw	a1,0(a4) # e4200000 <_DATA_LMA_START+0xc41fe380>
D:\release_sdk\v2_3_0_2\telink_b91m_driver_src\chip\B91\drivers/lib/include/plic.h:342
     4c0:	0ff0000f          	fence
plic_enter_critical_sec():
D:/release_sdk/v2_3_0_2/telink_b91m_driver_src/chip/B91/drivers/lib/src/plic.c:67
     4c4:	00008067          	ret

000004c8 <flash_mspi_read_ram>:
flash_mspi_read_ram():
E:/promotion/gitlab/opensdk/Mars_B91/telink_rocket_driver_sdk/chip/B91/drivers/flash.c:153
 * @param[out]  data		- the start address of the data buffer(ram address).
 * @param[in]   data_len	- the length(in byte, must be above 0) of content needs to read out.
 * @return 		none.
 */
_attribute_ram_code_sec_noinline_ void flash_mspi_read_ram(flash_command_e cmd, unsigned long addr, unsigned char addr_en, unsigned char dummy_cnt, unsigned char *data, unsigned long data_len)
{
     4c8:	7179                	c.addi16sp	sp,-48
     4ca:	d226                	c.swsp	s1,36(sp)
E:/promotion/gitlab/opensdk/Mars_B91/telink_rocket_driver_sdk/chip/B91/drivers/flash.c:154
	unsigned int r=plic_enter_critical_sec(s_flash_preempt_config.preempt_en,s_flash_preempt_config.threshold);
     4cc:	000004b7          	lui	s1,0x0
     4d0:	15848493          	addi	s1,s1,344 # 158 <_AES_VMA_END>
E:/promotion/gitlab/opensdk/Mars_B91/telink_rocket_driver_sdk/chip/B91/drivers/flash.c:153
{
     4d4:	d04a                	c.swsp	s2,32(sp)
     4d6:	c65e                	c.swsp	s7,12(sp)
     4d8:	892a                	c.mv	s2,a0
     4da:	8bae                	c.mv	s7,a1
E:/promotion/gitlab/opensdk/Mars_B91/telink_rocket_driver_sdk/chip/B91/drivers/flash.c:154
	unsigned int r=plic_enter_critical_sec(s_flash_preempt_config.preempt_en,s_flash_preempt_config.threshold);
     4dc:	0444c503          	lbu	a0,68(s1)
     4e0:	0454c583          	lbu	a1,69(s1)
E:/promotion/gitlab/opensdk/Mars_B91/telink_rocket_driver_sdk/chip/B91/drivers/flash.c:153
{
     4e4:	d422                	c.swsp	s0,40(sp)
     4e6:	ce4e                	c.swsp	s3,28(sp)
     4e8:	cc52                	c.swsp	s4,24(sp)
     4ea:	ca56                	c.swsp	s5,20(sp)
     4ec:	c85a                	c.swsp	s6,16(sp)
     4ee:	d606                	c.swsp	ra,44(sp)
     4f0:	8b32                	c.mv	s6,a2
     4f2:	8ab6                	c.mv	s5,a3
     4f4:	843a                	c.mv	s0,a4
     4f6:	8a3e                	c.mv	s4,a5
E:/promotion/gitlab/opensdk/Mars_B91/telink_rocket_driver_sdk/chip/B91/drivers/flash.c:154
	unsigned int r=plic_enter_critical_sec(s_flash_preempt_config.preempt_en,s_flash_preempt_config.threshold);
     4f8:	f71ff0ef          	jal	ra,468 <plic_enter_critical_sec>
mspi_wait():
E:/promotion/gitlab/opensdk/Mars_B91/telink_rocket_driver_sdk/chip/B91/drivers/mspi.h:46
     4fc:	80140637          	lui	a2,0x80140
flash_mspi_read_ram():
E:/promotion/gitlab/opensdk/Mars_B91/telink_rocket_driver_sdk/chip/B91/drivers/flash.c:154
     500:	00a009b3          	add	s3,zero,a0
mspi_wait():
E:/promotion/gitlab/opensdk/Mars_B91/telink_rocket_driver_sdk/chip/B91/drivers/mspi.h:46
     504:	10260783          	lb	a5,258(a2) # 80140102 <_DATA_LMA_START+0x6013e482>
     508:	fe07fe5b          	bbs	a5,0,504 <flash_mspi_read_ram+0x3c>
mspi_high():
E:/promotion/gitlab/opensdk/Mars_B91/telink_rocket_driver_sdk/chip/B91/drivers/mspi.h:95
	reg_mspi_fm |= FLD_MSPI_CSN;
     50c:	10160783          	lb	a5,257(a2)
gpio_get_level():
E:/promotion/gitlab/opensdk/Mars_B91/telink_rocket_driver_sdk/chip/B91/drivers/gpio.h:263
 * @return    1: the pin's level is high.
 * 			  0: the pin's level is low.
 */
static inline _Bool gpio_get_level(gpio_pin_e pin)
{
	return BM_IS_SET(reg_gpio_in(pin), pin & 0xff);
     510:	80140737          	lui	a4,0x80140
mspi_high():
E:/promotion/gitlab/opensdk/Mars_B91/telink_rocket_driver_sdk/chip/B91/drivers/mspi.h:95
     514:	0ff7f793          	andi	a5,a5,255
     518:	0107e793          	ori	a5,a5,16
     51c:	10f600a3          	sb	a5,257(a2)
gpio_get_level():
E:/promotion/gitlab/opensdk/Mars_B91/telink_rocket_driver_sdk/chip/B91/drivers/gpio.h:263
     520:	32870783          	lb	a5,808(a4) # 80140328 <_DATA_LMA_START+0x6013e6a8>
mspi_stop_xip():
E:/promotion/gitlab/opensdk/Mars_B91/telink_rocket_driver_sdk/chip/B91/drivers/mspi.h:150
 */
_attribute_ram_code_sec_ static inline void mspi_stop_xip(void)
{
	mspi_wait();	//wait xip busy=0
	mspi_high();	//mspi_cn=1, stop xip read
	while(gpio_get_level(GPIO_PF3) == 0);	//wait cn=1
     524:	be37fe5b          	bbc	a5,3,520 <flash_mspi_read_ram+0x58>
mspi_fm_write_en():
E:/promotion/gitlab/opensdk/Mars_B91/telink_rocket_driver_sdk/chip/B91/drivers/mspi.h:78
	reg_mspi_fm &= ~FLD_MSPI_RD_MODE;
     528:	10170783          	lb	a5,257(a4)
flash_mspi_read_ram():
E:/promotion/gitlab/opensdk/Mars_B91/telink_rocket_driver_sdk/chip/B91/drivers/flash.c:159
	mspi_stop_xip();
	/*Flash single line mode does not distinguish between mspi read and mspi write.This is just to be compatible with single line, dual line and quad line.*/
	mspi_fm_write_en();			/* write mode */
	mspi_fm_data_line(MSPI_SINGLE_LINE);
	flash_send_cmd(cmd);
     52c:	854a                	c.mv	a0,s2
mspi_fm_write_en():
E:/promotion/gitlab/opensdk/Mars_B91/telink_rocket_driver_sdk/chip/B91/drivers/mspi.h:78
     52e:	0fd7f793          	andi	a5,a5,253
     532:	10f700a3          	sb	a5,257(a4)
mspi_fm_data_line():
E:/promotion/gitlab/opensdk/Mars_B91/telink_rocket_driver_sdk/chip/B91/drivers/mspi.h:87
	reg_mspi_fm = (reg_mspi_fm & (~FLD_MSPI_DATA_LINE)) | line;
     536:	10170783          	lb	a5,257(a4)
     53a:	0f37f793          	andi	a5,a5,243
     53e:	10f700a3          	sb	a5,257(a4)
flash_mspi_read_ram():
E:/promotion/gitlab/opensdk/Mars_B91/telink_rocket_driver_sdk/chip/B91/drivers/flash.c:159
     542:	330d                	c.jal	264 <flash_send_cmd>
E:/promotion/gitlab/opensdk/Mars_B91/telink_rocket_driver_sdk/chip/B91/drivers/flash.c:164
	if(cmd == FLASH_X4READ_CMD)
	{
		mspi_fm_data_line(MSPI_QUAD_LINE);
	}
	if(addr_en)
     544:	0e0b1e63          	bnez	s6,640 <flash_mspi_read_ram+0x178>
E:/promotion/gitlab/opensdk/Mars_B91/telink_rocket_driver_sdk/chip/B91/drivers/flash.c:168
	{
		flash_send_addr(addr);
	}
	for(unsigned int i = 0; i < dummy_cnt; ++i)
     548:	020a8063          	beqz	s5,568 <flash_mspi_read_ram+0xa0>
     54c:	00000713          	li	a4,0
mspi_write():
E:/promotion/gitlab/opensdk/Mars_B91/telink_rocket_driver_sdk/chip/B91/drivers/mspi.h:120
	reg_mspi_data = c;
     550:	80140637          	lui	a2,0x80140
     554:	10060023          	sb	zero,256(a2) # 80140100 <_DATA_LMA_START+0x6013e480>
mspi_wait():
E:/promotion/gitlab/opensdk/Mars_B91/telink_rocket_driver_sdk/chip/B91/drivers/mspi.h:46
	while(reg_mspi_status & FLD_MSPI_BUSY);
     558:	10260783          	lb	a5,258(a2)
     55c:	fe07fe5b          	bbs	a5,0,558 <flash_mspi_read_ram+0x90>
flash_mspi_read_ram():
E:/promotion/gitlab/opensdk/Mars_B91/telink_rocket_driver_sdk/chip/B91/drivers/flash.c:168
     560:	00170713          	addi	a4,a4,1
     564:	ff5718e3          	bne	a4,s5,554 <flash_mspi_read_ram+0x8c>
E:/promotion/gitlab/opensdk/Mars_B91/telink_rocket_driver_sdk/chip/B91/drivers/flash.c:173
	{
		mspi_write(0x00);		/* dummy */
		mspi_wait();
	}
	if(cmd == FLASH_DREAD_CMD)
     568:	01b96cdb          	bnec	s2,59,580 <flash_mspi_read_ram+0xb8>
mspi_fm_data_line():
E:/promotion/gitlab/opensdk/Mars_B91/telink_rocket_driver_sdk/chip/B91/drivers/mspi.h:87
	reg_mspi_fm = (reg_mspi_fm & (~FLD_MSPI_DATA_LINE)) | line;
     56c:	80140737          	lui	a4,0x80140
     570:	10170783          	lb	a5,257(a4) # 80140101 <_DATA_LMA_START+0x6013e481>
     574:	0f37f793          	andi	a5,a5,243
     578:	0047e793          	ori	a5,a5,4
     57c:	10f700a3          	sb	a5,257(a4)
mspi_fm_read_en():
E:/promotion/gitlab/opensdk/Mars_B91/telink_rocket_driver_sdk/chip/B91/drivers/mspi.h:70
	reg_mspi_fm |= FLD_MSPI_RD_MODE;
     580:	801406b7          	lui	a3,0x80140
     584:	10168783          	lb	a5,257(a3) # 80140101 <_DATA_LMA_START+0x6013e481>
mspi_wait():
E:/promotion/gitlab/opensdk/Mars_B91/telink_rocket_driver_sdk/chip/B91/drivers/mspi.h:46
	while(reg_mspi_status & FLD_MSPI_BUSY);
     588:	80140737          	lui	a4,0x80140
mspi_fm_read_en():
E:/promotion/gitlab/opensdk/Mars_B91/telink_rocket_driver_sdk/chip/B91/drivers/mspi.h:70
	reg_mspi_fm |= FLD_MSPI_RD_MODE;
     58c:	0ff7f793          	andi	a5,a5,255
     590:	0027e793          	ori	a5,a5,2
     594:	10f680a3          	sb	a5,257(a3)
mspi_write():
E:/promotion/gitlab/opensdk/Mars_B91/telink_rocket_driver_sdk/chip/B91/drivers/mspi.h:120
	reg_mspi_data = c;
     598:	10068023          	sb	zero,256(a3)
mspi_wait():
E:/promotion/gitlab/opensdk/Mars_B91/telink_rocket_driver_sdk/chip/B91/drivers/mspi.h:46
	while(reg_mspi_status & FLD_MSPI_BUSY);
     59c:	10270783          	lb	a5,258(a4) # 80140102 <_DATA_LMA_START+0x6013e482>
     5a0:	fe07fe5b          	bbs	a5,0,59c <flash_mspi_read_ram+0xd4>
mspi_fm_rd_trig_en():
E:/promotion/gitlab/opensdk/Mars_B91/telink_rocket_driver_sdk/chip/B91/drivers/mspi.h:54
	reg_mspi_fm |= FLD_MSPI_RD_TRIG_EN;
     5a4:	10170783          	lb	a5,257(a4)
mspi_wait():
E:/promotion/gitlab/opensdk/Mars_B91/telink_rocket_driver_sdk/chip/B91/drivers/mspi.h:46
	while(reg_mspi_status & FLD_MSPI_BUSY);
     5a8:	801406b7          	lui	a3,0x80140
mspi_fm_rd_trig_en():
E:/promotion/gitlab/opensdk/Mars_B91/telink_rocket_driver_sdk/chip/B91/drivers/mspi.h:54
	reg_mspi_fm |= FLD_MSPI_RD_TRIG_EN;
     5ac:	0ff7f793          	andi	a5,a5,255
     5b0:	0017e793          	ori	a5,a5,1
     5b4:	10f700a3          	sb	a5,257(a4)
mspi_wait():
E:/promotion/gitlab/opensdk/Mars_B91/telink_rocket_driver_sdk/chip/B91/drivers/mspi.h:46
	while(reg_mspi_status & FLD_MSPI_BUSY);
     5b8:	10268783          	lb	a5,258(a3) # 80140102 <_DATA_LMA_START+0x6013e482>
     5bc:	fe07fe5b          	bbs	a5,0,5b8 <flash_mspi_read_ram+0xf0>
flash_mspi_read_ram():
E:/promotion/gitlab/opensdk/Mars_B91/telink_rocket_driver_sdk/chip/B91/drivers/flash.c:182
	mspi_fm_read_en();			/* read mode */
	mspi_write(0x00);			/* to issue clock */
	mspi_wait();
	mspi_fm_rd_trig_en();		/* auto mode, mspi_get() automatically triggers mspi_write(0x00) once. */
	mspi_wait();
	for(unsigned int i = 0; i < data_len; ++i)
     5c0:	020a0263          	beqz	s4,5e4 <flash_mspi_read_ram+0x11c>
     5c4:	008a0a33          	add	s4,s4,s0
mspi_get():
E:/promotion/gitlab/opensdk/Mars_B91/telink_rocket_driver_sdk/chip/B91/drivers/mspi.h:111
	return reg_mspi_data;
     5c8:	801406b7          	lui	a3,0x80140
     5cc:	10068783          	lb	a5,256(a3) # 80140100 <_DATA_LMA_START+0x6013e480>
flash_mspi_read_ram():
E:/promotion/gitlab/opensdk/Mars_B91/telink_rocket_driver_sdk/chip/B91/drivers/flash.c:184
	{
		*data++ = mspi_get();
     5d0:	00140413          	addi	s0,s0,1
     5d4:	fef40fa3          	sb	a5,-1(s0)
mspi_wait():
E:/promotion/gitlab/opensdk/Mars_B91/telink_rocket_driver_sdk/chip/B91/drivers/mspi.h:46
	while(reg_mspi_status & FLD_MSPI_BUSY);
     5d8:	10268783          	lb	a5,258(a3)
     5dc:	fe07fe5b          	bbs	a5,0,5d8 <flash_mspi_read_ram+0x110>
flash_mspi_read_ram():
E:/promotion/gitlab/opensdk/Mars_B91/telink_rocket_driver_sdk/chip/B91/drivers/flash.c:182
	for(unsigned int i = 0; i < data_len; ++i)
     5e0:	ff4416e3          	bne	s0,s4,5cc <flash_mspi_read_ram+0x104>
mspi_fm_rd_trig_dis():
E:/promotion/gitlab/opensdk/Mars_B91/telink_rocket_driver_sdk/chip/B91/drivers/mspi.h:62
	reg_mspi_fm &= ~FLD_MSPI_RD_TRIG_EN;
     5e4:	801407b7          	lui	a5,0x80140
     5e8:	10178703          	lb	a4,257(a5) # 80140101 <_DATA_LMA_START+0x6013e481>
     5ec:	0fe77713          	andi	a4,a4,254
     5f0:	10e780a3          	sb	a4,257(a5)
flash_mspi_read_ram():
E:/promotion/gitlab/opensdk/Mars_B91/telink_rocket_driver_sdk/chip/B91/drivers/flash.c:188
		mspi_wait();
	}
	mspi_fm_rd_trig_dis();		/* off read auto mode */
	if((cmd == FLASH_X4READ_CMD)||(cmd == FLASH_DREAD_CMD))
     5f4:	01b968db          	bnec	s2,59,604 <flash_mspi_read_ram+0x13c>
mspi_fm_data_line():
E:/promotion/gitlab/opensdk/Mars_B91/telink_rocket_driver_sdk/chip/B91/drivers/mspi.h:87
	reg_mspi_fm = (reg_mspi_fm & (~FLD_MSPI_DATA_LINE)) | line;
     5f8:	10178703          	lb	a4,257(a5)
     5fc:	0f377713          	andi	a4,a4,243
     600:	10e780a3          	sb	a4,257(a5)
mspi_high():
E:/promotion/gitlab/opensdk/Mars_B91/telink_rocket_driver_sdk/chip/B91/drivers/mspi.h:95
	reg_mspi_fm |= FLD_MSPI_CSN;
     604:	80140737          	lui	a4,0x80140
     608:	10170783          	lb	a5,257(a4) # 80140101 <_DATA_LMA_START+0x6013e481>
     60c:	0ff7f793          	andi	a5,a5,255
     610:	0107e793          	ori	a5,a5,16
     614:	10f700a3          	sb	a5,257(a4)
flash_mspi_read_ram():
E:/promotion/gitlab/opensdk/Mars_B91/telink_rocket_driver_sdk/chip/B91/drivers/flash.c:194
	{
		mspi_fm_data_line(MSPI_SINGLE_LINE);
	}
	mspi_high();

	CLOCK_DLY_5_CYC;
     618:	0001                	c.nop
     61a:	0001                	c.nop
     61c:	0001                	c.nop
     61e:	0001                	c.nop
     620:	0001                	c.nop
E:/promotion/gitlab/opensdk/Mars_B91/telink_rocket_driver_sdk/chip/B91/drivers/flash.c:196
	plic_exit_critical_sec(s_flash_preempt_config.preempt_en,r);
}
     622:	5422                	c.lwsp	s0,40(sp)
E:/promotion/gitlab/opensdk/Mars_B91/telink_rocket_driver_sdk/chip/B91/drivers/flash.c:195
	plic_exit_critical_sec(s_flash_preempt_config.preempt_en,r);
     624:	0444c503          	lbu	a0,68(s1)
E:/promotion/gitlab/opensdk/Mars_B91/telink_rocket_driver_sdk/chip/B91/drivers/flash.c:196
}
     628:	50b2                	c.lwsp	ra,44(sp)
     62a:	5492                	c.lwsp	s1,36(sp)
     62c:	5902                	c.lwsp	s2,32(sp)
     62e:	4a62                	c.lwsp	s4,24(sp)
     630:	4ad2                	c.lwsp	s5,20(sp)
     632:	4b42                	c.lwsp	s6,16(sp)
     634:	4bb2                	c.lwsp	s7,12(sp)
E:/promotion/gitlab/opensdk/Mars_B91/telink_rocket_driver_sdk/chip/B91/drivers/flash.c:195
	plic_exit_critical_sec(s_flash_preempt_config.preempt_en,r);
     636:	85ce                	c.mv	a1,s3
E:/promotion/gitlab/opensdk/Mars_B91/telink_rocket_driver_sdk/chip/B91/drivers/flash.c:196
}
     638:	49f2                	c.lwsp	s3,28(sp)
     63a:	6145                	c.addi16sp	sp,48
E:/promotion/gitlab/opensdk/Mars_B91/telink_rocket_driver_sdk/chip/B91/drivers/flash.c:195
	plic_exit_critical_sec(s_flash_preempt_config.preempt_en,r);
     63c:	dd5ff06f          	j	410 <plic_exit_critical_sec>
E:/promotion/gitlab/opensdk/Mars_B91/telink_rocket_driver_sdk/chip/B91/drivers/flash.c:166
		flash_send_addr(addr);
     640:	855e                	c.mv	a0,s7
     642:	3ef9                	c.jal	220 <flash_send_addr>
     644:	f05ff06f          	j	548 <flash_mspi_read_ram+0x80>

00000648 <analog_write_reg8>:
core_interrupt_disable():
E:/promotion/gitlab/opensdk/Mars_B91/telink_rocket_driver_sdk/chip/B91/drivers/core.h:114
	unsigned int r = read_csr (NDS_MSTATUS)&FLD_MSTATUS_MIE;
     648:	30002673          	csrr	a2,mstatus
     64c:	8a21                	c.andi	a2,8
E:/promotion/gitlab/opensdk/Mars_B91/telink_rocket_driver_sdk/chip/B91/drivers/core.h:115
	if(r)
     64e:	c609                	c.beqz	a2,658 <analog_write_reg8+0x10>
E:/promotion/gitlab/opensdk/Mars_B91/telink_rocket_driver_sdk/chip/B91/drivers/core.h:117
		clear_csr(NDS_MSTATUS,FLD_MSTATUS_MIE);//global interrupts disable
     650:	300477f3          	csrrci	a5,mstatus,8
E:/promotion/gitlab/opensdk/Mars_B91/telink_rocket_driver_sdk/chip/B91/drivers/core.h:118
        fence_iorw; /* Hardware may change this value, fence IO ensures that software changes are valid. */
     654:	0ff0000f          	fence
analog_write_reg8():
E:/promotion/gitlab/opensdk/Mars_B91/telink_rocket_driver_sdk/chip/B91/drivers/analog.c:125
	reg_ana_addr = addr;
     658:	80140737          	lui	a4,0x80140
     65c:	18a70023          	sb	a0,384(a4) # 80140180 <_DATA_LMA_START+0x6013e500>
E:/promotion/gitlab/opensdk/Mars_B91/telink_rocket_driver_sdk/chip/B91/drivers/analog.c:126
    reg_ana_data(0) = data;
     660:	18b70223          	sb	a1,388(a4)
E:/promotion/gitlab/opensdk/Mars_B91/telink_rocket_driver_sdk/chip/B91/drivers/analog.c:127
    reg_ana_ctrl = (FLD_ANA_CYC | FLD_ANA_RW);
     664:	06000693          	li	a3,96
analog_wait():
E:/promotion/gitlab/opensdk/Mars_B91/telink_rocket_driver_sdk/chip/B91/drivers/analog.c:432
	while(reg_ana_ctrl & FLD_ANA_BUSY){}
     668:	801407b7          	lui	a5,0x80140
analog_write_reg8():
E:/promotion/gitlab/opensdk/Mars_B91/telink_rocket_driver_sdk/chip/B91/drivers/analog.c:127
    reg_ana_ctrl = (FLD_ANA_CYC | FLD_ANA_RW);
     66c:	18d70123          	sb	a3,386(a4)
analog_wait():
E:/promotion/gitlab/opensdk/Mars_B91/telink_rocket_driver_sdk/chip/B91/drivers/analog.c:432
	while(reg_ana_ctrl & FLD_ANA_BUSY){}
     670:	18278703          	lb	a4,386(a5) # 80140182 <_DATA_LMA_START+0x6013e502>
     674:	fe777e5b          	bbs	a4,7,670 <analog_write_reg8+0x28>
analog_write_reg8():
E:/promotion/gitlab/opensdk/Mars_B91/telink_rocket_driver_sdk/chip/B91/drivers/analog.c:129
	reg_ana_ctrl =0x00;
     678:	18078123          	sb	zero,386(a5)
core_restore_interrupt():
E:/promotion/gitlab/opensdk/Mars_B91/telink_rocket_driver_sdk/chip/B91/drivers/core.h:131
	if(en)
     67c:	00060663          	beqz	a2,688 <analog_write_reg8+0x40>
E:/promotion/gitlab/opensdk/Mars_B91/telink_rocket_driver_sdk/chip/B91/drivers/core.h:133
		set_csr(NDS_MSTATUS,en);//global interrupts enable
     680:	30062673          	csrrs	a2,mstatus,a2
E:/promotion/gitlab/opensdk/Mars_B91/telink_rocket_driver_sdk/chip/B91/drivers/core.h:134
        fence_iorw; /* Hardware may change this value, fence IO ensures that software changes are valid. */
     684:	0ff0000f          	fence
analog_write_reg8():
E:/promotion/gitlab/opensdk/Mars_B91/telink_rocket_driver_sdk/chip/B91/drivers/analog.c:131
}
     688:	00008067          	ret

0000068c <analog_read_reg8>:
core_interrupt_disable():
E:/promotion/gitlab/opensdk/Mars_B91/telink_rocket_driver_sdk/chip/B91/drivers/core.h:114
	unsigned int r = read_csr (NDS_MSTATUS)&FLD_MSTATUS_MIE;
     68c:	300026f3          	csrr	a3,mstatus
     690:	8aa1                	c.andi	a3,8
E:/promotion/gitlab/opensdk/Mars_B91/telink_rocket_driver_sdk/chip/B91/drivers/core.h:115
	if(r)
     692:	c689                	c.beqz	a3,69c <analog_read_reg8+0x10>
E:/promotion/gitlab/opensdk/Mars_B91/telink_rocket_driver_sdk/chip/B91/drivers/core.h:117
		clear_csr(NDS_MSTATUS,FLD_MSTATUS_MIE);//global interrupts disable
     694:	300477f3          	csrrci	a5,mstatus,8
E:/promotion/gitlab/opensdk/Mars_B91/telink_rocket_driver_sdk/chip/B91/drivers/core.h:118
        fence_iorw; /* Hardware may change this value, fence IO ensures that software changes are valid. */
     698:	0ff0000f          	fence
analog_read_reg8():
E:/promotion/gitlab/opensdk/Mars_B91/telink_rocket_driver_sdk/chip/B91/drivers/analog.c:107
	reg_ana_addr = addr;
     69c:	801407b7          	lui	a5,0x80140
     6a0:	18a78023          	sb	a0,384(a5) # 80140180 <_DATA_LMA_START+0x6013e500>
E:/promotion/gitlab/opensdk/Mars_B91/telink_rocket_driver_sdk/chip/B91/drivers/analog.c:108
	reg_ana_len=0x1;
     6a4:	00100713          	li	a4,1
     6a8:	18e781a3          	sb	a4,387(a5)
E:/promotion/gitlab/opensdk/Mars_B91/telink_rocket_driver_sdk/chip/B91/drivers/analog.c:109
    reg_ana_ctrl = FLD_ANA_CYC;
     6ac:	04000613          	li	a2,64
analog_wait():
E:/promotion/gitlab/opensdk/Mars_B91/telink_rocket_driver_sdk/chip/B91/drivers/analog.c:432
	while(reg_ana_ctrl & FLD_ANA_BUSY){}
     6b0:	80140737          	lui	a4,0x80140
analog_read_reg8():
E:/promotion/gitlab/opensdk/Mars_B91/telink_rocket_driver_sdk/chip/B91/drivers/analog.c:109
    reg_ana_ctrl = FLD_ANA_CYC;
     6b4:	18c78123          	sb	a2,386(a5)
analog_wait():
E:/promotion/gitlab/opensdk/Mars_B91/telink_rocket_driver_sdk/chip/B91/drivers/analog.c:432
	while(reg_ana_ctrl & FLD_ANA_BUSY){}
     6b8:	18270783          	lb	a5,386(a4) # 80140182 <_DATA_LMA_START+0x6013e502>
     6bc:	fe77fe5b          	bbs	a5,7,6b8 <analog_read_reg8+0x2c>
analog_read_reg8():
E:/promotion/gitlab/opensdk/Mars_B91/telink_rocket_driver_sdk/chip/B91/drivers/analog.c:111
	unsigned char data= reg_ana_data(0);
     6c0:	18470503          	lb	a0,388(a4)
     6c4:	0ff57513          	andi	a0,a0,255
core_restore_interrupt():
E:/promotion/gitlab/opensdk/Mars_B91/telink_rocket_driver_sdk/chip/B91/drivers/core.h:131
	if(en)
     6c8:	00068663          	beqz	a3,6d4 <analog_read_reg8+0x48>
E:/promotion/gitlab/opensdk/Mars_B91/telink_rocket_driver_sdk/chip/B91/drivers/core.h:133
		set_csr(NDS_MSTATUS,en);//global interrupts enable
     6cc:	3006a6f3          	csrrs	a3,mstatus,a3
E:/promotion/gitlab/opensdk/Mars_B91/telink_rocket_driver_sdk/chip/B91/drivers/core.h:134
        fence_iorw; /* Hardware may change this value, fence IO ensures that software changes are valid. */
     6d0:	0ff0000f          	fence
analog_read_reg8():
E:/promotion/gitlab/opensdk/Mars_B91/telink_rocket_driver_sdk/chip/B91/drivers/analog.c:115
}
     6d4:	00008067          	ret

000006d8 <clock_init_ram.constprop.1>:
clock_init_ram():
E:/promotion/gitlab/opensdk/Mars_B91/telink_rocket_driver_sdk/chip/B91/drivers/clock.c:285
 * 			    because during the clock switching process, the system clock will be
 * 			    suspended for a period of time, which may cause data loss

 */
_attribute_ram_code_sec_noinline_
void clock_init_ram(sys_pll_clk_e pll,
     6d8:	1141                	c.addi	sp,-16
mspi_wait():
E:/promotion/gitlab/opensdk/Mars_B91/telink_rocket_driver_sdk/chip/B91/drivers/mspi.h:46
	while(reg_mspi_status & FLD_MSPI_BUSY);
     6da:	80140737          	lui	a4,0x80140
clock_init_ram():
E:/promotion/gitlab/opensdk/Mars_B91/telink_rocket_driver_sdk/chip/B91/drivers/clock.c:285
     6de:	c606                	c.swsp	ra,12(sp)
     6e0:	c422                	c.swsp	s0,8(sp)
     6e2:	c226                	c.swsp	s1,4(sp)
mspi_wait():
E:/promotion/gitlab/opensdk/Mars_B91/telink_rocket_driver_sdk/chip/B91/drivers/mspi.h:46
     6e4:	10270783          	lb	a5,258(a4) # 80140102 <_DATA_LMA_START+0x6013e482>
     6e8:	fe07fe5b          	bbs	a5,0,6e4 <clock_init_ram.constprop.1+0xc>
mspi_high():
E:/promotion/gitlab/opensdk/Mars_B91/telink_rocket_driver_sdk/chip/B91/drivers/mspi.h:95
	reg_mspi_fm |= FLD_MSPI_CSN;
     6ec:	10170783          	lb	a5,257(a4)
gpio_get_level():
E:/promotion/gitlab/opensdk/Mars_B91/telink_rocket_driver_sdk/chip/B91/drivers/gpio.h:263
     6f0:	801404b7          	lui	s1,0x80140
mspi_high():
E:/promotion/gitlab/opensdk/Mars_B91/telink_rocket_driver_sdk/chip/B91/drivers/mspi.h:95
     6f4:	0ff7f793          	andi	a5,a5,255
     6f8:	0107e793          	ori	a5,a5,16
     6fc:	10f700a3          	sb	a5,257(a4)
gpio_get_level():
E:/promotion/gitlab/opensdk/Mars_B91/telink_rocket_driver_sdk/chip/B91/drivers/gpio.h:263
     700:	32848783          	lb	a5,808(s1) # 80140328 <_DATA_LMA_START+0x6013e6a8>
mspi_stop_xip():
E:/promotion/gitlab/opensdk/Mars_B91/telink_rocket_driver_sdk/chip/B91/drivers/mspi.h:150
	while(gpio_get_level(GPIO_PF3) == 0);	//wait cn=1
     704:	be37fe5b          	bbc	a5,3,700 <clock_init_ram.constprop.1+0x28>
clock_init_ram():
E:/promotion/gitlab/opensdk/Mars_B91/telink_rocket_driver_sdk/chip/B91/drivers/clock.c:297
	//ensure mspi is not in busy status before change mspi clock
	mspi_stop_xip();

	//first cclk/mspi_clk switch to 24rc to avoid the risk of hclk/pclk/mspi_clk exceeding its maximum configurable frequency for a short period of time
	//when switching different clock frequencies using this interface.
	write_reg8(0x1401e8, read_reg8(0x1401e8) & 0x0f);				//cclk/mspi_clk to 24M rc clock
     708:	1e848783          	lb	a5,488(s1)
E:/promotion/gitlab/opensdk/Mars_B91/telink_rocket_driver_sdk/chip/B91/drivers/clock.c:300

	//pll clk
	analog_write_reg8(0x80, (analog_read_reg8(0x80) & 0xe0) | ((pll >> 2) & 0x1f));
     70c:	08000513          	li	a0,128
E:/promotion/gitlab/opensdk/Mars_B91/telink_rocket_driver_sdk/chip/B91/drivers/clock.c:297
	write_reg8(0x1401e8, read_reg8(0x1401e8) & 0x0f);				//cclk/mspi_clk to 24M rc clock
     710:	8bbd                	c.andi	a5,15
     712:	1ef48423          	sb	a5,488(s1)
E:/promotion/gitlab/opensdk/Mars_B91/telink_rocket_driver_sdk/chip/B91/drivers/clock.c:300
	analog_write_reg8(0x80, (analog_read_reg8(0x80) & 0xe0) | ((pll >> 2) & 0x1f));
     716:	3f9d                	c.jal	68c <analog_read_reg8>
     718:	0e057593          	andi	a1,a0,224
     71c:	0105e593          	ori	a1,a1,16
     720:	08000513          	li	a0,128
     724:	f25ff0ef          	jal	ra,648 <analog_write_reg8>
E:/promotion/gitlab/opensdk/Mars_B91/telink_rocket_driver_sdk/chip/B91/drivers/clock.c:301
	analog_write_reg8(0x09, (analog_read_reg8(0x09) & 0xf3) | ((pll&0x03) << 2));
     728:	00900513          	li	a0,9
     72c:	f61ff0ef          	jal	ra,68c <analog_read_reg8>
     730:	0f357593          	andi	a1,a0,243
     734:	0085e593          	ori	a1,a1,8
     738:	4525                	c.li	a0,9
     73a:	3739                	c.jal	648 <analog_write_reg8>
E:/promotion/gitlab/opensdk/Mars_B91/telink_rocket_driver_sdk/chip/B91/drivers/clock.c:302
	sys_clk.pll_clk = (pll >> 8);
     73c:	0c000793          	li	a5,192
     740:	801f940b          	addigp	s0,-2048 # 80000 <_DATA_VMA_START>
     744:	00f41023          	sh	a5,0(s0)
E:/promotion/gitlab/opensdk/Mars_B91/telink_rocket_driver_sdk/chip/B91/drivers/clock.c:308

	//usb clock (192M/4 =48M) pll clock should be the multiple of 48, because USB clock is 48M.
	write_reg8(0x1401fb, sys_clk.pll_clk/48);

	//wait for PLL stable
	analog_write_reg8(0x81, (analog_read_reg8(0x81) | BIT(6)));
     748:	08100513          	li	a0,129
E:/promotion/gitlab/opensdk/Mars_B91/telink_rocket_driver_sdk/chip/B91/drivers/clock.c:305
	write_reg8(0x1401fb, sys_clk.pll_clk/48);
     74c:	4791                	c.li	a5,4
     74e:	1ef48da3          	sb	a5,507(s1)
E:/promotion/gitlab/opensdk/Mars_B91/telink_rocket_driver_sdk/chip/B91/drivers/clock.c:308
	analog_write_reg8(0x81, (analog_read_reg8(0x81) | BIT(6)));
     752:	3f2d                	c.jal	68c <analog_read_reg8>
     754:	04056593          	ori	a1,a0,64
     758:	0ff5f593          	andi	a1,a1,255
     75c:	08100513          	li	a0,129
     760:	ee9ff0ef          	jal	ra,648 <analog_write_reg8>
E:/promotion/gitlab/opensdk/Mars_B91/telink_rocket_driver_sdk/chip/B91/drivers/clock.c:309
	while(BIT(5) != (analog_read_reg8(0x88) & BIT(5)));
     764:	08800513          	li	a0,136
     768:	f25ff0ef          	jal	ra,68c <analog_read_reg8>
     76c:	be557c5b          	bbc	a0,5,764 <clock_init_ram.constprop.1+0x8c>
E:/promotion/gitlab/opensdk/Mars_B91/telink_rocket_driver_sdk/chip/B91/drivers/clock.c:310
	analog_write_reg8(0x81, (analog_read_reg8(0x81) & ~BIT(6)));
     770:	08100513          	li	a0,129
     774:	f19ff0ef          	jal	ra,68c <analog_read_reg8>
     778:	0bf57593          	andi	a1,a0,191
     77c:	08100513          	li	a0,129
     780:	ec9ff0ef          	jal	ra,648 <analog_write_reg8>
E:/promotion/gitlab/opensdk/Mars_B91/telink_rocket_driver_sdk/chip/B91/drivers/clock.c:319
	{
		write_reg8(0x1401e8, read_reg8(0x1401e8) & 0x7f);  //bit7 0
	}
	else
	{
		write_reg8(0x1401e9, (read_reg8(0x1401e9) & 0x0f) | (mspi_clk_div<<4) );
     784:	801407b7          	lui	a5,0x80140
     788:	1e978703          	lb	a4,489(a5) # 801401e9 <_DATA_LMA_START+0x6013e569>
     78c:	8b3d                	c.andi	a4,15
     78e:	04076713          	ori	a4,a4,64
     792:	1ee784a3          	sb	a4,489(a5)
E:/promotion/gitlab/opensdk/Mars_B91/telink_rocket_driver_sdk/chip/B91/drivers/clock.c:320
		write_reg8(0x1401e8, read_reg8(0x1401e8) | BIT(7));  //if the div is odd, should set two times to ensure the correct sequence.
     796:	1e878703          	lb	a4,488(a5)
     79a:	f8076713          	ori	a4,a4,-128
     79e:	0ff77713          	andi	a4,a4,255
     7a2:	1ee78423          	sb	a4,488(a5)
E:/promotion/gitlab/opensdk/Mars_B91/telink_rocket_driver_sdk/chip/B91/drivers/clock.c:321
		write_reg8(0x1401e8, read_reg8(0x1401e8) | BIT(7));
     7a6:	1e878703          	lb	a4,488(a5)
     7aa:	f8076713          	ori	a4,a4,-128
     7ae:	0ff77713          	andi	a4,a4,255
     7b2:	1ee78423          	sb	a4,488(a5)
E:/promotion/gitlab/opensdk/Mars_B91/telink_rocket_driver_sdk/chip/B91/drivers/clock.c:328
	}

	//hclk and pclk should be set ahead of cclk, ensure the hclk and pclk not exceed the max clk(cclk max 96M, hclk max 48M, pclk max 24M)
	if(CCLK_DIV1_TO_HCLK == hclk_div)
	{
		write_reg8(0x1401d8, read_reg8(0x1401d8) & ~BIT(2));
     7b6:	1d878703          	lb	a4,472(a5)
E:/promotion/gitlab/opensdk/Mars_B91/telink_rocket_driver_sdk/chip/B91/drivers/clock.c:322
		sys_clk.mspi_clk = sys_clk.pll_clk / mspi_clk_div;
     7ba:	00045683          	lhu	a3,0(s0)
E:/promotion/gitlab/opensdk/Mars_B91/telink_rocket_driver_sdk/chip/B91/drivers/clock.c:328
		write_reg8(0x1401d8, read_reg8(0x1401d8) & ~BIT(2));
     7be:	0fb77713          	andi	a4,a4,251
     7c2:	1ce78c23          	sb	a4,472(a5)
E:/promotion/gitlab/opensdk/Mars_B91/telink_rocket_driver_sdk/chip/B91/drivers/clock.c:338
	}

	//pclk can div1/div2/div4 from hclk.
	if(HCLK_DIV1_TO_PCLK == pclk_div)
	{
		write_reg8(0x1401d8, read_reg8(0x1401d8) & 0xfc);
     7c6:	1d878703          	lb	a4,472(a5)
E:/promotion/gitlab/opensdk/Mars_B91/telink_rocket_driver_sdk/chip/B91/drivers/clock.c:322
		sys_clk.mspi_clk = sys_clk.pll_clk / mspi_clk_div;
     7ca:	8689                	c.srai	a3,0x2
     7cc:	00d402a3          	sb	a3,5(s0)
E:/promotion/gitlab/opensdk/Mars_B91/telink_rocket_driver_sdk/chip/B91/drivers/clock.c:338
		write_reg8(0x1401d8, read_reg8(0x1401d8) & 0xfc);
     7d0:	0fc77713          	andi	a4,a4,252
     7d4:	1ce78c23          	sb	a4,472(a5)
E:/promotion/gitlab/opensdk/Mars_B91/telink_rocket_driver_sdk/chip/B91/drivers/clock.c:348
	}

	//select cclk source(RC24M/PAD24M/PAD_PLL_DIV/PAD_PLL)
	if(PAD_PLL_DIV == src)
	{
		write_reg8(0x1401e8, (read_reg8(0x1401e8) & 0xf0) | cclk_div);
     7d8:	1e878703          	lb	a4,488(a5)
     7dc:	0f077713          	andi	a4,a4,240
     7e0:	00876713          	ori	a4,a4,8
     7e4:	1ee78423          	sb	a4,488(a5)
E:/promotion/gitlab/opensdk/Mars_B91/telink_rocket_driver_sdk/chip/B91/drivers/clock.c:359
	}
	else
	{
		sys_clk.cclk = 24;
	}
	write_reg8(0x1401e8, (read_reg8(0x1401e8) & 0x8f) | (src << 4));
     7e8:	1e878703          	lb	a4,488(a5)
E:/promotion/gitlab/opensdk/Mars_B91/telink_rocket_driver_sdk/chip/B91/drivers/clock.c:349
		sys_clk.cclk = sys_clk.pll_clk / cclk_div;
     7ec:	00045683          	lhu	a3,0(s0)
E:/promotion/gitlab/opensdk/Mars_B91/telink_rocket_driver_sdk/chip/B91/drivers/clock.c:359
	write_reg8(0x1401e8, (read_reg8(0x1401e8) & 0x8f) | (src << 4));
     7f0:	08f77713          	andi	a4,a4,143
E:/promotion/gitlab/opensdk/Mars_B91/telink_rocket_driver_sdk/chip/B91/drivers/clock.c:349
		sys_clk.cclk = sys_clk.pll_clk / cclk_div;
     7f4:	868d                	c.srai	a3,0x3
     7f6:	00d40123          	sb	a3,2(s0)
E:/promotion/gitlab/opensdk/Mars_B91/telink_rocket_driver_sdk/chip/B91/drivers/clock.c:359
	write_reg8(0x1401e8, (read_reg8(0x1401e8) & 0x8f) | (src << 4));
     7fa:	02076713          	ori	a4,a4,32
     7fe:	1ee78423          	sb	a4,488(a5)
E:/promotion/gitlab/opensdk/Mars_B91/telink_rocket_driver_sdk/chip/B91/drivers/clock.c:362

	//clk record.
	sys_clk.hclk = sys_clk.cclk/hclk_div;
     802:	0ff6f693          	andi	a3,a3,255
     806:	00d401a3          	sb	a3,3(s0)
E:/promotion/gitlab/opensdk/Mars_B91/telink_rocket_driver_sdk/chip/B91/drivers/clock.c:363
	sys_clk.pclk = sys_clk.hclk / pclk_div;
     80a:	00d40223          	sb	a3,4(s0)
E:/promotion/gitlab/opensdk/Mars_B91/telink_rocket_driver_sdk/chip/B91/drivers/clock.c:367
	if(CCLK_TO_MSPI_CLK == mspi_clk_div){
		sys_clk.mspi_clk = sys_clk.cclk;
	}
}
     80e:	40b2                	c.lwsp	ra,12(sp)
     810:	4422                	c.lwsp	s0,8(sp)
     812:	4492                	c.lwsp	s1,4(sp)
     814:	0141                	c.addi	sp,16
     816:	8082                	c.jr	ra

00000818 <pm_wait_bbpll_done>:
pm_wait_bbpll_done():
D:/release_sdk/v2_3_0_2/telink_b91m_driver_src/chip/B91/drivers/lib/src/pm.c:189
     818:	1101                	c.addi	sp,-32
D:/release_sdk/v2_3_0_2/telink_b91m_driver_src/chip/B91/drivers/lib/src/pm.c:190
     81a:	08100513          	li	a0,129
D:/release_sdk/v2_3_0_2/telink_b91m_driver_src/chip/B91/drivers/lib/src/pm.c:189
     81e:	cc22                	c.swsp	s0,24(sp)
     820:	ca26                	c.swsp	s1,20(sp)
     822:	c84a                	c.swsp	s2,16(sp)
     824:	ce06                	c.swsp	ra,28(sp)
D:/release_sdk/v2_3_0_2/telink_b91m_driver_src/chip/B91/drivers/lib/src/pm.c:190
     826:	359d                	c.jal	68c <analog_read_reg8>
D:/release_sdk/v2_3_0_2/telink_b91m_driver_src/chip/B91/drivers/lib/src/pm.c:191
     828:	04056593          	ori	a1,a0,64
D:/release_sdk/v2_3_0_2/telink_b91m_driver_src/chip/B91/drivers/lib/src/pm.c:190
     82c:	892a                	c.mv	s2,a0
D:/release_sdk/v2_3_0_2/telink_b91m_driver_src/chip/B91/drivers/lib/src/pm.c:191
     82e:	0ff5f593          	andi	a1,a1,255
     832:	08100513          	li	a0,129
     836:	0bf97913          	andi	s2,s2,191
     83a:	4481                	c.li	s1,0
D:/release_sdk/v2_3_0_2/telink_b91m_driver_src/chip/B91/drivers/lib/src/pm.c:194
     83c:	4475                	c.li	s0,29
D:/release_sdk/v2_3_0_2/telink_b91m_driver_src/chip/B91/drivers/lib/src/pm.c:191
     83e:	3529                	c.jal	648 <analog_write_reg8>
D:/release_sdk/v2_3_0_2/telink_b91m_driver_src/chip/B91/drivers/lib/src/pm.c:194
     840:	000107a3          	sb	zero,15(sp)
     844:	00f10783          	lb	a5,15(sp)
     848:	0ff7f793          	andi	a5,a5,255
     84c:	02f46063          	bltu	s0,a5,86c <pm_wait_bbpll_done+0x54>
D:/release_sdk/v2_3_0_2/telink_b91m_driver_src/chip/B91/drivers/lib/src/pm.c:195
     850:	0001                	c.nop
D:/release_sdk/v2_3_0_2/telink_b91m_driver_src/chip/B91/drivers/lib/src/pm.c:194
     852:	00f10783          	lb	a5,15(sp)
     856:	0785                	c.addi	a5,1
     858:	0ff7f793          	andi	a5,a5,255
     85c:	00f107a3          	sb	a5,15(sp)
     860:	00f10783          	lb	a5,15(sp)
     864:	0ff7f793          	andi	a5,a5,255
     868:	fef474e3          	bgeu	s0,a5,850 <pm_wait_bbpll_done+0x38>
D:/release_sdk/v2_3_0_2/telink_b91m_driver_src/chip/B91/drivers/lib/src/pm.c:197
     86c:	08800513          	li	a0,136
     870:	e1dff0ef          	jal	ra,68c <analog_read_reg8>
     874:	4255765b          	bbs	a0,5,8a0 <pm_wait_bbpll_done+0x88>
D:/release_sdk/v2_3_0_2/telink_b91m_driver_src/chip/B91/drivers/lib/src/pm.c:204
     878:	cc95                	c.beqz	s1,8b4 <pm_wait_bbpll_done+0x9c>
D:/release_sdk/v2_3_0_2/telink_b91m_driver_src/chip/B91/drivers/lib/src/pm.c:207
     87a:	0414d35b          	beqc	s1,1,8c0 <pm_wait_bbpll_done+0xa8>
D:/release_sdk/v2_3_0_2/telink_b91m_driver_src/chip/B91/drivers/lib/src/pm.c:211
     87e:	85ca                	c.mv	a1,s2
     880:	08100513          	li	a0,129
     884:	dc5ff0ef          	jal	ra,648 <analog_write_reg8>
D:/release_sdk/v2_3_0_2/telink_b91m_driver_src/chip/B91/drivers/lib/src/pm.c:192
     888:	0024d65b          	beqc	s1,2,894 <pm_wait_bbpll_done+0x7c>
     88c:	0485                	c.addi	s1,1
     88e:	0ff4f493          	andi	s1,s1,255
     892:	b77d                	c.j	840 <pm_wait_bbpll_done+0x28>
D:/release_sdk/v2_3_0_2/telink_b91m_driver_src/chip/B91/drivers/lib/src/pm.c:215
     894:	40f2                	c.lwsp	ra,28(sp)
     896:	4462                	c.lwsp	s0,24(sp)
     898:	44d2                	c.lwsp	s1,20(sp)
     89a:	4942                	c.lwsp	s2,16(sp)
     89c:	6105                	c.addi16sp	sp,32
     89e:	8082                	c.jr	ra
     8a0:	4462                	c.lwsp	s0,24(sp)
     8a2:	40f2                	c.lwsp	ra,28(sp)
     8a4:	44d2                	c.lwsp	s1,20(sp)
D:/release_sdk/v2_3_0_2/telink_b91m_driver_src/chip/B91/drivers/lib/src/pm.c:199
     8a6:	85ca                	c.mv	a1,s2
D:/release_sdk/v2_3_0_2/telink_b91m_driver_src/chip/B91/drivers/lib/src/pm.c:215
     8a8:	4942                	c.lwsp	s2,16(sp)
D:/release_sdk/v2_3_0_2/telink_b91m_driver_src/chip/B91/drivers/lib/src/pm.c:199
     8aa:	08100513          	li	a0,129
D:/release_sdk/v2_3_0_2/telink_b91m_driver_src/chip/B91/drivers/lib/src/pm.c:215
     8ae:	6105                	c.addi16sp	sp,32
D:/release_sdk/v2_3_0_2/telink_b91m_driver_src/chip/B91/drivers/lib/src/pm.c:199
     8b0:	d99ff06f          	j	648 <analog_write_reg8>
D:/release_sdk/v2_3_0_2/telink_b91m_driver_src/chip/B91/drivers/lib/src/pm.c:205
     8b4:	04600593          	li	a1,70
     8b8:	4505                	c.li	a0,1
     8ba:	3379                	c.jal	648 <analog_write_reg8>
     8bc:	fd1ff06f          	j	88c <pm_wait_bbpll_done+0x74>
D:/release_sdk/v2_3_0_2/telink_b91m_driver_src/chip/B91/drivers/lib/src/pm.c:208
     8c0:	04300593          	li	a1,67
     8c4:	4505                	c.li	a0,1
     8c6:	3349                	c.jal	648 <analog_write_reg8>
     8c8:	fc5ff06f          	j	88c <pm_wait_bbpll_done+0x74>

000008cc <pm_sleep_start>:
pm_sleep_start():
D:/release_sdk/v2_3_0_2/telink_b91m_driver_src/chip/B91/drivers/lib/src/pm.c:254
     8cc:	1101                	c.addi	sp,-32
D:/release_sdk/v2_3_0_2/telink_b91m_driver_src/chip/B91/drivers/lib/src/pm.c:257
     8ce:	82ffa72b          	lwgp	a4,-2004 # 8002c <g_chip_version>
     8d2:	000006b7          	lui	a3,0x0
D:/release_sdk/v2_3_0_2/telink_b91m_driver_src/chip/B91/drivers/lib/src/pm.c:254
     8d6:	ce06                	c.swsp	ra,28(sp)
     8d8:	cc22                	c.swsp	s0,24(sp)
     8da:	ca26                	c.swsp	s1,20(sp)
D:/release_sdk/v2_3_0_2/telink_b91m_driver_src/chip/B91/drivers/lib/src/pm.c:257
     8dc:	0ff00793          	li	a5,255
     8e0:	19e6c583          	lbu	a1,414(a3) # 19e <g_pm_suspend_power_cfg>
     8e4:	00f71a63          	bne	a4,a5,8f8 <pm_sleep_start+0x2c>
D:/release_sdk/v2_3_0_2/telink_b91m_driver_src/chip/B91/drivers/lib/src/pm.c:258
     8e8:	0fe5f593          	andi	a1,a1,254
     8ec:	07d00513          	li	a0,125
     8f0:	d59ff0ef          	jal	ra,648 <analog_write_reg8>
     8f4:	00c0006f          	j	900 <pm_sleep_start+0x34>
D:/release_sdk/v2_3_0_2/telink_b91m_driver_src/chip/B91/drivers/lib/src/pm.c:260
     8f8:	07d00513          	li	a0,125
     8fc:	d4dff0ef          	jal	ra,648 <analog_write_reg8>
D:\release_sdk\v2_3_0_2\telink_b91m_driver_src\chip\B91\drivers/mspi.h:46
     900:	801406b7          	lui	a3,0x80140
     904:	10268783          	lb	a5,258(a3) # 80140102 <_DATA_LMA_START+0x6013e482>
     908:	fe07fe5b          	bbs	a5,0,904 <pm_sleep_start+0x38>
D:\release_sdk\v2_3_0_2\telink_b91m_driver_src\chip\B91\drivers/mspi.h:95
     90c:	10168703          	lb	a4,257(a3)
D:\release_sdk\v2_3_0_2\telink_b91m_driver_src\chip\B91\drivers/gpio.h:263
     910:	801407b7          	lui	a5,0x80140
D:\release_sdk\v2_3_0_2\telink_b91m_driver_src\chip\B91\drivers/mspi.h:95
     914:	0ff77713          	andi	a4,a4,255
     918:	01076713          	ori	a4,a4,16
     91c:	10e680a3          	sb	a4,257(a3)
D:\release_sdk\v2_3_0_2\telink_b91m_driver_src\chip\B91\drivers/gpio.h:263
     920:	32878703          	lb	a4,808(a5) # 80140328 <_DATA_LMA_START+0x6013e6a8>
D:\release_sdk\v2_3_0_2\telink_b91m_driver_src\chip\B91\drivers/mspi.h:150
     924:	be377e5b          	bbc	a4,3,920 <pm_sleep_start+0x54>
D:\release_sdk\v2_3_0_2\telink_b91m_driver_src\chip\B91\drivers/mspi.h:78
     928:	10178703          	lb	a4,257(a5)
D:\release_sdk\v2_3_0_2\telink_b91m_driver_src\chip\B91\drivers/mspi.h:46
     92c:	80140437          	lui	s0,0x80140
D:\release_sdk\v2_3_0_2\telink_b91m_driver_src\chip\B91\drivers/mspi.h:78
     930:	0fd77713          	andi	a4,a4,253
     934:	10e780a3          	sb	a4,257(a5)
D:\release_sdk\v2_3_0_2\telink_b91m_driver_src\chip\B91\drivers/mspi.h:103
     938:	10178703          	lb	a4,257(a5)
     93c:	0ef77713          	andi	a4,a4,239
     940:	10e780a3          	sb	a4,257(a5)
D:\release_sdk\v2_3_0_2\telink_b91m_driver_src\chip\B91\drivers/mspi.h:120
     944:	fb900713          	li	a4,-71
     948:	10e78023          	sb	a4,256(a5)
D:\release_sdk\v2_3_0_2\telink_b91m_driver_src\chip\B91\drivers/mspi.h:46
     94c:	10240783          	lb	a5,258(s0) # 80140102 <_DATA_LMA_START+0x6013e482>
     950:	fe07fe5b          	bbs	a5,0,94c <pm_sleep_start+0x80>
D:\release_sdk\v2_3_0_2\telink_b91m_driver_src\chip\B91\drivers/mspi.h:95
     954:	10140783          	lb	a5,257(s0)
D:/release_sdk/v2_3_0_2/telink_b91m_driver_src/chip/B91/drivers/lib/src/pm.c:272
     958:	452d                	c.li	a0,11
D:\release_sdk\v2_3_0_2\telink_b91m_driver_src\chip\B91\drivers/mspi.h:95
     95a:	0ff7f793          	andi	a5,a5,255
     95e:	0107e793          	ori	a5,a5,16
     962:	10f400a3          	sb	a5,257(s0)
D:/release_sdk/v2_3_0_2/telink_b91m_driver_src/chip/B91/drivers/lib/src/pm.c:268
     966:	320404a3          	sb	zero,809(s0)
D:/release_sdk/v2_3_0_2/telink_b91m_driver_src/chip/B91/drivers/lib/src/pm.c:272
     96a:	330d                	c.jal	68c <analog_read_reg8>
     96c:	0fc57593          	andi	a1,a0,252
     970:	452d                	c.li	a0,11
     972:	39d9                	c.jal	648 <analog_write_reg8>
D:/release_sdk/v2_3_0_2/telink_b91m_driver_src/chip/B91/drivers/lib/src/pm.c:274
     974:	08100513          	li	a0,129
     978:	d15ff0ef          	jal	ra,68c <analog_read_reg8>
     97c:	f8056593          	ori	a1,a0,-128
     980:	0ff5f593          	andi	a1,a1,255
     984:	08100513          	li	a0,129
     988:	cc1ff0ef          	jal	ra,648 <analog_write_reg8>
D:/release_sdk/v2_3_0_2/telink_b91m_driver_src/chip/B91/drivers/lib/src/pm.c:281
     98c:	f8000793          	li	a5,-128
     990:	1ef407a3          	sb	a5,495(s0)
D:/release_sdk/v2_3_0_2/telink_b91m_driver_src/chip/B91/drivers/lib/src/pm.c:287
     994:	03f00493          	li	s1,63
     998:	00012423          	sw	zero,8(sp)
     99c:	47a2                	c.lwsp	a5,8(sp)
     99e:	00f4e763          	bltu	s1,a5,9ac <pm_sleep_start+0xe0>
D:/release_sdk/v2_3_0_2/telink_b91m_driver_src/chip/B91/drivers/lib/src/pm.c:288
     9a2:	0001                	c.nop
D:/release_sdk/v2_3_0_2/telink_b91m_driver_src/chip/B91/drivers/lib/src/pm.c:287
     9a4:	47a2                	c.lwsp	a5,8(sp)
     9a6:	0785                	c.addi	a5,1
     9a8:	c43e                	c.swsp	a5,8(sp)
     9aa:	bfcd                	c.j	99c <pm_sleep_start+0xd0>
D:/release_sdk/v2_3_0_2/telink_b91m_driver_src/chip/B91/drivers/lib/src/pm.c:291
     9ac:	08100513          	li	a0,129
     9b0:	cddff0ef          	jal	ra,68c <analog_read_reg8>
     9b4:	07f57593          	andi	a1,a0,127
     9b8:	08100513          	li	a0,129
     9bc:	c8dff0ef          	jal	ra,648 <analog_write_reg8>
D:/release_sdk/v2_3_0_2/telink_b91m_driver_src/chip/B91/drivers/lib/src/pm.c:293
     9c0:	00b00513          	li	a0,11
     9c4:	cc9ff0ef          	jal	ra,68c <analog_read_reg8>
     9c8:	00356593          	ori	a1,a0,3
     9cc:	0ff5f593          	andi	a1,a1,255
     9d0:	452d                	c.li	a0,11
     9d2:	399d                	c.jal	648 <analog_write_reg8>
D:/release_sdk/v2_3_0_2/telink_b91m_driver_src/chip/B91/drivers/lib/src/pm.c:295
     9d4:	08000593          	li	a1,128
     9d8:	07d00513          	li	a0,125
     9dc:	c6dff0ef          	jal	ra,648 <analog_write_reg8>
D:/release_sdk/v2_3_0_2/telink_b91m_driver_src/chip/B91/drivers/lib/src/pm.c:304
     9e0:	801407b7          	lui	a5,0x80140
     9e4:	329784a3          	sb	s1,809(a5) # 80140329 <_DATA_LMA_START+0x6013e6a9>
D:\release_sdk\v2_3_0_2\telink_b91m_driver_src\chip\B91\drivers/mspi.h:103
     9e8:	10178683          	lb	a3,257(a5)
D:\release_sdk\v2_3_0_2\telink_b91m_driver_src\chip\B91\drivers/mspi.h:46
     9ec:	80140737          	lui	a4,0x80140
D:\release_sdk\v2_3_0_2\telink_b91m_driver_src\chip\B91\drivers/mspi.h:103
     9f0:	0ef6f693          	andi	a3,a3,239
     9f4:	10d780a3          	sb	a3,257(a5)
D:\release_sdk\v2_3_0_2\telink_b91m_driver_src\chip\B91\drivers/mspi.h:120
     9f8:	fab00693          	li	a3,-85
     9fc:	10d78023          	sb	a3,256(a5)
D:\release_sdk\v2_3_0_2\telink_b91m_driver_src\chip\B91\drivers/mspi.h:46
     a00:	10270783          	lb	a5,258(a4) # 80140102 <_DATA_LMA_START+0x6013e482>
     a04:	fe07fe5b          	bbs	a5,0,a00 <pm_sleep_start+0x134>
D:\release_sdk\v2_3_0_2\telink_b91m_driver_src\chip\B91\drivers/mspi.h:95
     a08:	10170783          	lb	a5,257(a4)
D:/release_sdk/v2_3_0_2/telink_b91m_driver_src/chip/B91/drivers/lib/src/pm.c:311
     a0c:	12b00693          	li	a3,299
D:\release_sdk\v2_3_0_2\telink_b91m_driver_src\chip\B91\drivers/mspi.h:95
     a10:	0ff7f793          	andi	a5,a5,255
     a14:	0107e793          	ori	a5,a5,16
     a18:	10f700a3          	sb	a5,257(a4)
D:/release_sdk/v2_3_0_2/telink_b91m_driver_src/chip/B91/drivers/lib/src/pm.c:311
     a1c:	00012623          	sw	zero,12(sp)
     a20:	47b2                	c.lwsp	a5,12(sp)
     a22:	00f6e763          	bltu	a3,a5,a30 <pm_sleep_start+0x164>
D:/release_sdk/v2_3_0_2/telink_b91m_driver_src/chip/B91/drivers/lib/src/pm.c:312
     a26:	0001                	c.nop
D:/release_sdk/v2_3_0_2/telink_b91m_driver_src/chip/B91/drivers/lib/src/pm.c:311
     a28:	47b2                	c.lwsp	a5,12(sp)
     a2a:	0785                	c.addi	a5,1
     a2c:	c63e                	c.swsp	a5,12(sp)
     a2e:	bfcd                	c.j	a20 <pm_sleep_start+0x154>
D:/release_sdk/v2_3_0_2/telink_b91m_driver_src/chip/B91/drivers/lib/src/pm.c:315
     a30:	08800513          	li	a0,136
     a34:	c59ff0ef          	jal	ra,68c <analog_read_reg8>
     a38:	be757c5b          	bbc	a0,7,a30 <pm_sleep_start+0x164>
D:/release_sdk/v2_3_0_2/telink_b91m_driver_src/chip/B91/drivers/lib/src/pm.c:316
     a3c:	08800513          	li	a0,136
     a40:	c4dff0ef          	jal	ra,68c <analog_read_reg8>
     a44:	be757c5b          	bbc	a0,7,a3c <pm_sleep_start+0x170>
D:/release_sdk/v2_3_0_2/telink_b91m_driver_src/chip/B91/drivers/lib/src/pm.c:317
     a48:	08800513          	li	a0,136
     a4c:	c41ff0ef          	jal	ra,68c <analog_read_reg8>
     a50:	be757c5b          	bbc	a0,7,a48 <pm_sleep_start+0x17c>
D:/release_sdk/v2_3_0_2/telink_b91m_driver_src/chip/B91/drivers/lib/src/pm.c:320
     a54:	4462                	c.lwsp	s0,24(sp)
     a56:	40f2                	c.lwsp	ra,28(sp)
     a58:	44d2                	c.lwsp	s1,20(sp)
     a5a:	6105                	c.addi16sp	sp,32
D:/release_sdk/v2_3_0_2/telink_b91m_driver_src/chip/B91/drivers/lib/src/pm.c:319
     a5c:	dbdff06f          	j	818 <pm_wait_bbpll_done>

00000a60 <pm_sleep_wakeup_ram.constprop.20>:
pm_sleep_wakeup_ram():
D:/release_sdk/v2_3_0_2/telink_b91m_driver_src/chip/B91/drivers/lib/src/pm.c:431
     a60:	1101                	c.addi	sp,-32
     a62:	c452                	c.swsp	s4,8(sp)
     a64:	8a2a                	c.mv	s4,a0
     a66:	ce06                	c.swsp	ra,28(sp)
     a68:	cc22                	c.swsp	s0,24(sp)
     a6a:	ca26                	c.swsp	s1,20(sp)
     a6c:	c84a                	c.swsp	s2,16(sp)
     a6e:	c64e                	c.swsp	s3,12(sp)
     a70:	c256                	c.swsp	s5,4(sp)
     a72:	c05a                	c.swsp	s6,0(sp)
core_interrupt_disable():
D:\release_sdk\v2_3_0_2\telink_b91m_driver_src\chip\B91\drivers/core.h:114
     a74:	300029f3          	csrr	s3,mstatus
     a78:	0089f993          	andi	s3,s3,8
D:\release_sdk\v2_3_0_2\telink_b91m_driver_src\chip\B91\drivers/core.h:115
     a7c:	00098663          	beqz	s3,a88 <pm_sleep_wakeup_ram.constprop.20+0x28>
D:\release_sdk\v2_3_0_2\telink_b91m_driver_src\chip\B91\drivers/core.h:117
     a80:	300477f3          	csrrci	a5,mstatus,8
D:\release_sdk\v2_3_0_2\telink_b91m_driver_src\chip\B91\drivers/core.h:118
     a84:	0ff0000f          	fence
pm_get_32k_rc_calib():
D:/release_sdk/v2_3_0_2/telink_b91m_driver_src/chip/B91/drivers/lib/src/pm.c:400
     a88:	801407b7          	lui	a5,0x80140
     a8c:	2147a683          	lw	a3,532(a5) # 80140214 <_DATA_LMA_START+0x6013e594>
     a90:	def5                	c.beqz	a3,a8c <pm_sleep_wakeup_ram.constprop.20+0x2c>
D:/release_sdk/v2_3_0_2/telink_b91m_driver_src/chip/B91/drivers/lib/src/pm.c:403
     a92:	00000437          	lui	s0,0x0
     a96:	15840693          	addi	a3,s0,344 # 158 <_AES_VMA_END>
D:/release_sdk/v2_3_0_2/telink_b91m_driver_src/chip/B91/drivers/lib/src/pm.c:402
     a9a:	2147a783          	lw	a5,532(a5)
D:/release_sdk/v2_3_0_2/telink_b91m_driver_src/chip/B91/drivers/lib/src/pm.c:405
     a9e:	52d8                	c.lw	a4,36(a3)
D:/release_sdk/v2_3_0_2/telink_b91m_driver_src/chip/B91/drivers/lib/src/pm.c:403
     aa0:	dadc                	c.sw	a5,52(a3)
     aa2:	15840413          	addi	s0,s0,344
D:/release_sdk/v2_3_0_2/telink_b91m_driver_src/chip/B91/drivers/lib/src/pm.c:404
     aa6:	0792                	c.slli	a5,0x4
D:/release_sdk/v2_3_0_2/telink_b91m_driver_src/chip/B91/drivers/lib/src/pm.c:405
     aa8:	cb11                	c.beqz	a4,abc <pm_sleep_wakeup_ram.constprop.20+0x5c>
D:/release_sdk/v2_3_0_2/telink_b91m_driver_src/chip/B91/drivers/lib/src/pm.c:411
     aaa:	03844603          	lbu	a2,56(s0)
     aae:	4691                	c.li	a3,4
     ab0:	8f99                	c.sub	a5,a4
     ab2:	8e91                	c.sub	a3,a2
     ab4:	40d7d7b3          	sra	a5,a5,a3
     ab8:	00e787b3          	add	a5,a5,a4
     abc:	d05c                	c.sw	a5,36(s0)
D:/release_sdk/v2_3_0_2/telink_b91m_driver_src/chip/B91/drivers/lib/src/pm.c:414
     abe:	5044                	c.lw	s1,36(s0)
     ac0:	4c1c                	c.lw	a5,24(s0)
     ac2:	8491                	c.srai	s1,0x4
     ac4:	02f487b3          	mul	a5,s1,a5
pm_sleep_wakeup_ram():
D:\release_sdk\v2_3_0_2\telink_b91m_driver_src\chip\B91\drivers/stimer.h:169
     ac8:	80140937          	lui	s2,0x80140
     acc:	20092a83          	lw	s5,512(s2) # 80140200 <_DATA_LMA_START+0x6013e580>
D:/release_sdk/v2_3_0_2/telink_b91m_driver_src/chip/B91/drivers/lib/src/pm.c:456
     ad0:	e0000737          	lui	a4,0xe0000
D:/release_sdk/v2_3_0_2/telink_b91m_driver_src/chip/B91/drivers/lib/src/pm.c:454
     ad4:	415a0ab3          	sub	s5,s4,s5
pm_get_32k_rc_calib():
D:/release_sdk/v2_3_0_2/telink_b91m_driver_src/chip/B91/drivers/lib/src/pm.c:414
     ad8:	87c9                	c.srai	a5,0x12
D:/release_sdk/v2_3_0_2/telink_b91m_driver_src/chip/B91/drivers/lib/src/pm.c:415
     ada:	94be                	c.add	s1,a5
pm_sleep_wakeup_ram():
D:/release_sdk/v2_3_0_2/telink_b91m_driver_src/chip/B91/drivers/lib/src/pm.c:441
     adc:	0486                	c.slli	s1,0x1
     ade:	dc44                	c.sw	s1,60(s0)
D:/release_sdk/v2_3_0_2/telink_b91m_driver_src/chip/B91/drivers/lib/src/pm.c:456
     ae0:	03577063          	bgeu	a4,s5,b00 <pm_sleep_wakeup_ram.constprop.20+0xa0>
core_restore_interrupt():
D:\release_sdk\v2_3_0_2\telink_b91m_driver_src\chip\B91\drivers/core.h:131
     ae4:	00098663          	beqz	s3,af0 <pm_sleep_wakeup_ram.constprop.20+0x90>
D:\release_sdk\v2_3_0_2\telink_b91m_driver_src\chip\B91\drivers/core.h:133
     ae8:	3009a9f3          	csrrs	s3,mstatus,s3
D:\release_sdk\v2_3_0_2\telink_b91m_driver_src\chip\B91\drivers/core.h:134
     aec:	0ff0000f          	fence
pm_sleep_wakeup_ram():
D:/release_sdk/v2_3_0_2/telink_b91m_driver_src/chip/B91/drivers/lib/src/pm.c:458
     af0:	06400513          	li	a0,100
     af4:	b99ff0ef          	jal	ra,68c <analog_read_reg8>
     af8:	01f57513          	andi	a0,a0,31
     afc:	2580006f          	j	d54 <pm_sleep_wakeup_ram.constprop.20+0x2f4>
D:/release_sdk/v2_3_0_2/telink_b91m_driver_src/chip/B91/drivers/lib/src/pm.c:460
     b00:	04e41783          	lh	a5,78(s0)
     b04:	1137a7db          	bfoz	a5,a5,4,19
     b08:	02fafe63          	bgeu	s5,a5,b44 <pm_sleep_wakeup_ram.constprop.20+0xe4>
D:/release_sdk/v2_3_0_2/telink_b91m_driver_src/chip/B91/drivers/lib/src/pm.c:462
     b0c:	45fd                	c.li	a1,31
     b0e:	06400513          	li	a0,100
D:\release_sdk\v2_3_0_2\telink_b91m_driver_src\chip\B91\drivers/stimer.h:169
     b12:	801404b7          	lui	s1,0x80140
     b16:	20092403          	lw	s0,512(s2)
D:/release_sdk/v2_3_0_2/telink_b91m_driver_src/chip/B91/drivers/lib/src/pm.c:462
     b1a:	363d                	c.jal	648 <analog_write_reg8>
D:/release_sdk/v2_3_0_2/telink_b91m_driver_src/chip/B91/drivers/lib/src/pm.c:465
     b1c:	06400513          	li	a0,100
     b20:	b6dff0ef          	jal	ra,68c <analog_read_reg8>
D:\release_sdk\v2_3_0_2\telink_b91m_driver_src\chip\B91\drivers/stimer.h:169
     b24:	2004a783          	lw	a5,512(s1) # 80140200 <_DATA_LMA_START+0x6013e580>
D:/release_sdk/v2_3_0_2/telink_b91m_driver_src/chip/B91/drivers/lib/src/pm.c:465
     b28:	897d                	c.andi	a0,31
D:/release_sdk/v2_3_0_2/telink_b91m_driver_src/chip/B91/drivers/lib/src/pm.c:466
     b2a:	8f81                	c.sub	a5,s0
     b2c:	0157f463          	bgeu	a5,s5,b34 <pm_sleep_wakeup_ram.constprop.20+0xd4>
     b30:	fe0506e3          	beqz	a0,b1c <pm_sleep_wakeup_ram.constprop.20+0xbc>
core_restore_interrupt():
D:\release_sdk\v2_3_0_2\telink_b91m_driver_src\chip\B91\drivers/core.h:131
     b34:	22098063          	beqz	s3,d54 <pm_sleep_wakeup_ram.constprop.20+0x2f4>
D:\release_sdk\v2_3_0_2\telink_b91m_driver_src\chip\B91\drivers/core.h:133
     b38:	3009a9f3          	csrrs	s3,mstatus,s3
D:\release_sdk\v2_3_0_2\telink_b91m_driver_src\chip\B91\drivers/core.h:134
     b3c:	0ff0000f          	fence
     b40:	2140006f          	j	d54 <pm_sleep_wakeup_ram.constprop.20+0x2f4>
pm_sleep_wakeup_ram():
D:/release_sdk/v2_3_0_2/telink_b91m_driver_src/chip/B91/drivers/lib/src/pm.c:481
     b44:	1e890a83          	lb	s5,488(s2)
D:/release_sdk/v2_3_0_2/telink_b91m_driver_src/chip/B91/drivers/lib/src/pm.c:482
     b48:	00faf793          	andi	a5,s5,15
     b4c:	1ef90423          	sb	a5,488(s2)
D:/release_sdk/v2_3_0_2/telink_b91m_driver_src/chip/B91/drivers/lib/src/pm.c:483
     b50:	1d890b03          	lb	s6,472(s2)
D:/release_sdk/v2_3_0_2/telink_b91m_driver_src/chip/B91/drivers/lib/src/pm.c:484
     b54:	0f8b7793          	andi	a5,s6,248
     b58:	1cf90c23          	sb	a5,472(s2)
D:/release_sdk/v2_3_0_2/telink_b91m_driver_src/chip/B91/drivers/lib/src/pm.c:492
     b5c:	00100793          	li	a5,1
     b60:	20f90c23          	sb	a5,536(s2)
D:/release_sdk/v2_3_0_2/telink_b91m_driver_src/chip/B91/drivers/lib/src/pm.c:493
     b64:	20a90783          	lb	a5,522(s2)
     b68:	0f77f793          	andi	a5,a5,247
     b6c:	20f90523          	sb	a5,522(s2)
D:/release_sdk/v2_3_0_2/telink_b91m_driver_src/chip/B91/drivers/lib/src/pm.c:494
     b70:	fe8ff0ef          	jal	ra,358 <clock_get_32k_tick>
D:\release_sdk\v2_3_0_2\telink_b91m_driver_src\chip\B91\drivers/stimer.h:169
     b74:	20092703          	lw	a4,512(s2)
D:/release_sdk/v2_3_0_2/telink_b91m_driver_src/chip/B91/drivers/lib/src/pm.c:496
     b78:	20b90783          	lb	a5,523(s2)
pm_update_32k_rc_sleep_tick():
D:/release_sdk/v2_3_0_2/telink_b91m_driver_src/chip/B91/drivers/lib/src/pm.c:362
     b7c:	5454                	c.lw	a3,44(s0)
pm_sleep_wakeup_ram():
D:/release_sdk/v2_3_0_2/telink_b91m_driver_src/chip/B91/drivers/lib/src/pm.c:496
     b7e:	0ff7f793          	andi	a5,a5,255
     b82:	0027e793          	ori	a5,a5,2
D:/release_sdk/v2_3_0_2/telink_b91m_driver_src/chip/B91/drivers/lib/src/pm.c:494
     b86:	c828                	c.sw	a0,80(s0)
D:/release_sdk/v2_3_0_2/telink_b91m_driver_src/chip/B91/drivers/lib/src/pm.c:495
     b88:	c458                	c.sw	a4,12(s0)
pm_update_32k_rc_sleep_tick():
D:/release_sdk/v2_3_0_2/telink_b91m_driver_src/chip/B91/drivers/lib/src/pm.c:363
     b8a:	03844603          	lbu	a2,56(s0)
D:/release_sdk/v2_3_0_2/telink_b91m_driver_src/chip/B91/drivers/lib/src/pm.c:362
     b8e:	40d506b3          	sub	a3,a0,a3
pm_sleep_wakeup_ram():
D:/release_sdk/v2_3_0_2/telink_b91m_driver_src/chip/B91/drivers/lib/src/pm.c:496
     b92:	20f905a3          	sb	a5,523(s2)
pm_update_32k_rc_sleep_tick():
D:/release_sdk/v2_3_0_2/telink_b91m_driver_src/chip/B91/drivers/lib/src/pm.c:362
     b96:	d814                	c.sw	a3,48(s0)
D:/release_sdk/v2_3_0_2/telink_b91m_driver_src/chip/B91/drivers/lib/src/pm.c:363
     b98:	e215                	c.bnez	a2,bbc <pm_sleep_wakeup_ram.constprop.20+0x15c>
     b9a:	481c                	c.lw	a5,16(s0)
     b9c:	c385                	c.beqz	a5,bbc <pm_sleep_wakeup_ram.constprop.20+0x15c>
     b9e:	05444783          	lbu	a5,84(s0)
     ba2:	ef89                	c.bnez	a5,bbc <pm_sleep_wakeup_ram.constprop.20+0x15c>
     ba4:	01442783          	lw	a5,20(s0)
     ba8:	000276b7          	lui	a3,0x27
     bac:	40f507b3          	sub	a5,a0,a5
     bb0:	6c07a7db          	bfoz	a5,a5,27,0
     bb4:	10068693          	addi	a3,a3,256 # 27100 <BIN_SIZE+0x25452>
     bb8:	00f6f863          	bgeu	a3,a5,bc8 <pm_sleep_wakeup_ram.constprop.20+0x168>
D:/release_sdk/v2_3_0_2/telink_b91m_driver_src/chip/B91/drivers/lib/src/pm.c:367
     bbc:	00176713          	ori	a4,a4,1
D:/release_sdk/v2_3_0_2/telink_b91m_driver_src/chip/B91/drivers/lib/src/pm.c:365
     bc0:	02040c23          	sb	zero,56(s0)
D:/release_sdk/v2_3_0_2/telink_b91m_driver_src/chip/B91/drivers/lib/src/pm.c:366
     bc4:	c848                	c.sw	a0,20(s0)
D:/release_sdk/v2_3_0_2/telink_b91m_driver_src/chip/B91/drivers/lib/src/pm.c:367
     bc6:	c818                	c.sw	a4,16(s0)
pm_sleep_wakeup_ram():
D:/release_sdk/v2_3_0_2/telink_b91m_driver_src/chip/B91/drivers/lib/src/pm.c:511
     bc8:	02000593          	li	a1,32
     bcc:	04b00513          	li	a0,75
     bd0:	a79ff0ef          	jal	ra,648 <analog_write_reg8>
D:/release_sdk/v2_3_0_2/telink_b91m_driver_src/chip/B91/drivers/lib/src/pm.c:512
     bd4:	45fd                	c.li	a1,31
     bd6:	06400513          	li	a0,100
     bda:	34bd                	c.jal	648 <analog_write_reg8>
D:/release_sdk/v2_3_0_2/telink_b91m_driver_src/chip/B91/drivers/lib/src/pm.c:514
     bdc:	03000593          	li	a1,48
     be0:	07e00513          	li	a0,126
     be4:	a65ff0ef          	jal	ra,648 <analog_write_reg8>
D:/release_sdk/v2_3_0_2/telink_b91m_driver_src/chip/B91/drivers/lib/src/pm.c:559
     be8:	0f900593          	li	a1,249
     bec:	04d00513          	li	a0,77
     bf0:	a59ff0ef          	jal	ra,648 <analog_write_reg8>
D:/release_sdk/v2_3_0_2/telink_b91m_driver_src/chip/B91/drivers/lib/src/pm.c:561
     bf4:	4585                	c.li	a1,1
     bf6:	07f00513          	li	a0,127
     bfa:	34b9                	c.jal	648 <analog_write_reg8>
D:/release_sdk/v2_3_0_2/telink_b91m_driver_src/chip/B91/drivers/lib/src/pm.c:563
     bfc:	04c41783          	lh	a5,76(s0)
D:/release_sdk/v2_3_0_2/telink_b91m_driver_src/chip/B91/drivers/lib/src/pm.c:596
     c00:	0ee00593          	li	a1,238
D:/release_sdk/v2_3_0_2/telink_b91m_driver_src/chip/B91/drivers/lib/src/pm.c:592
     c04:	1137a7db          	bfoz	a5,a5,4,19
D:/release_sdk/v2_3_0_2/telink_b91m_driver_src/chip/B91/drivers/lib/src/pm.c:596
     c08:	04c00513          	li	a0,76
D:/release_sdk/v2_3_0_2/telink_b91m_driver_src/chip/B91/drivers/lib/src/pm.c:592
     c0c:	40fa0933          	sub	s2,s4,a5
D:/release_sdk/v2_3_0_2/telink_b91m_driver_src/chip/B91/drivers/lib/src/pm.c:596
     c10:	a39ff0ef          	jal	ra,648 <analog_write_reg8>
D:/release_sdk/v2_3_0_2/telink_b91m_driver_src/chip/B91/drivers/lib/src/pm.c:618
     c14:	05841583          	lh	a1,88(s0)
     c18:	04000513          	li	a0,64
     c1c:	0ff5f593          	andi	a1,a1,255
     c20:	a29ff0ef          	jal	ra,648 <analog_write_reg8>
D:/release_sdk/v2_3_0_2/telink_b91m_driver_src/chip/B91/drivers/lib/src/pm.c:637
     c24:	481c                	c.lw	a5,16(s0)
     c26:	07ff0737          	lui	a4,0x7ff0
     c2a:	40f907b3          	sub	a5,s2,a5
     c2e:	00f77763          	bgeu	a4,a5,c3c <pm_sleep_wakeup_ram.constprop.20+0x1dc>
D:/release_sdk/v2_3_0_2/telink_b91m_driver_src/chip/B91/drivers/lib/src/pm.c:638
     c32:	4705                	c.li	a4,1
     c34:	00e40423          	sb	a4,8(s0)
     c38:	0080006f          	j	c40 <pm_sleep_wakeup_ram.constprop.20+0x1e0>
D:/release_sdk/v2_3_0_2/telink_b91m_driver_src/chip/B91/drivers/lib/src/pm.c:641
     c3c:	00040423          	sb	zero,8(s0)
D:/release_sdk/v2_3_0_2/telink_b91m_driver_src/chip/B91/drivers/lib/src/pm.c:645
     c40:	00844683          	lbu	a3,8(s0)
     c44:	4848                	c.lw	a0,20(s0)
     c46:	5c58                	c.lw	a4,60(s0)
     c48:	c691                	c.beqz	a3,c54 <pm_sleep_wakeup_ram.constprop.20+0x1f4>
D:/release_sdk/v2_3_0_2/telink_b91m_driver_src/chip/B91/drivers/lib/src/pm.c:646
     c4a:	02e7d7b3          	divu	a5,a5,a4
     c4e:	0796                	c.slli	a5,0x5
     c50:	953e                	c.add	a0,a5
     c52:	a039                	c.j	c60 <pm_sleep_wakeup_ram.constprop.20+0x200>
D:/release_sdk/v2_3_0_2/telink_b91m_driver_src/chip/B91/drivers/lib/src/pm.c:453
     c54:	8085                	c.srli	s1,0x1
D:/release_sdk/v2_3_0_2/telink_b91m_driver_src/chip/B91/drivers/lib/src/pm.c:649
     c56:	0796                	c.slli	a5,0x5
     c58:	97a6                	c.add	a5,s1
     c5a:	02e7d7b3          	divu	a5,a5,a4
     c5e:	953e                	c.add	a0,a5
D:/release_sdk/v2_3_0_2/telink_b91m_driver_src/chip/B91/drivers/lib/src/pm.c:654
     c60:	e4cff0ef          	jal	ra,2ac <clock_set_32k_tick>
pm_get_wakeup_src():
D:\release_sdk\v2_3_0_2\telink_b91m_driver_src\chip\B91\drivers/lib/include/pm.h:239
     c64:	06400513          	li	a0,100
     c68:	a25ff0ef          	jal	ra,68c <analog_read_reg8>
pm_sleep_wakeup_ram():
D:/release_sdk/v2_3_0_2/telink_b91m_driver_src/chip/B91/drivers/lib/src/pm.c:671
     c6c:	01f57513          	andi	a0,a0,31
     c70:	e511                	c.bnez	a0,c7c <pm_sleep_wakeup_ram.constprop.20+0x21c>
D:/release_sdk/v2_3_0_2/telink_b91m_driver_src/chip/B91/drivers/lib/src/pm.c:679
     c72:	39a9                	c.jal	8cc <pm_sleep_start>
D:/release_sdk/v2_3_0_2/telink_b91m_driver_src/chip/B91/drivers/lib/src/pm.c:682
     c74:	4585                	c.li	a1,1
     c76:	07f00513          	li	a0,127
     c7a:	32f9                	c.jal	648 <analog_write_reg8>
D:/release_sdk/v2_3_0_2/telink_b91m_driver_src/chip/B91/drivers/lib/src/pm.c:691
     c7c:	80140737          	lui	a4,0x80140
     c80:	02000793          	li	a5,32
     c84:	1ef707a3          	sb	a5,495(a4) # 801401ef <_DATA_LMA_START+0x6013e56f>
D:/release_sdk/v2_3_0_2/telink_b91m_driver_src/chip/B91/drivers/lib/src/pm.c:694
     c88:	00200793          	li	a5,2
     c8c:	20f70c23          	sb	a5,536(a4)
D:/release_sdk/v2_3_0_2/telink_b91m_driver_src/chip/B91/drivers/lib/src/pm.c:695
     c90:	20a70783          	lb	a5,522(a4)
     c94:	0ff7f793          	andi	a5,a5,255
     c98:	00c7e793          	ori	a5,a5,12
     c9c:	20f70523          	sb	a5,522(a4)
D:/release_sdk/v2_3_0_2/telink_b91m_driver_src/chip/B91/drivers/lib/src/pm.c:696
     ca0:	eb8ff0ef          	jal	ra,358 <clock_get_32k_tick>
D:/release_sdk/v2_3_0_2/telink_b91m_driver_src/chip/B91/drivers/lib/src/pm.c:697
     ca4:	00844783          	lbu	a5,8(s0)
     ca8:	cf81                	c.beqz	a5,cc0 <pm_sleep_wakeup_ram.constprop.20+0x260>
D:/release_sdk/v2_3_0_2/telink_b91m_driver_src/chip/B91/drivers/lib/src/pm.c:698
     caa:	485c                	c.lw	a5,20(s0)
     cac:	5c54                	c.lw	a3,60(s0)
     cae:	40f507b3          	sub	a5,a0,a5
     cb2:	4818                	c.lw	a4,16(s0)
     cb4:	0785                	c.addi	a5,1
     cb6:	8395                	c.srli	a5,0x5
     cb8:	c4d7977f          	maddr32	a4,a5,a3
     cbc:	c458                	c.sw	a4,12(s0)
     cbe:	a829                	c.j	cd8 <pm_sleep_wakeup_ram.constprop.20+0x278>
D:/release_sdk/v2_3_0_2/telink_b91m_driver_src/chip/B91/drivers/lib/src/pm.c:700
     cc0:	485c                	c.lw	a5,20(s0)
     cc2:	5c58                	c.lw	a4,60(s0)
     cc4:	40f507b3          	sub	a5,a0,a5
     cc8:	0785                	c.addi	a5,1
     cca:	02e787b3          	mul	a5,a5,a4
     cce:	4818                	c.lw	a4,16(s0)
     cd0:	8395                	c.srli	a5,0x5
     cd2:	97ba                	c.add	a5,a4
     cd4:	00f42623          	sw	a5,12(s0)
D:/release_sdk/v2_3_0_2/telink_b91m_driver_src/chip/B91/drivers/lib/src/pm.c:703
     cd8:	485c                	c.lw	a5,20(s0)
D:/release_sdk/v2_3_0_2/telink_b91m_driver_src/chip/B91/drivers/lib/src/pm.c:704
     cda:	4454                	c.lw	a3,12(s0)
D:/release_sdk/v2_3_0_2/telink_b91m_driver_src/chip/B91/drivers/lib/src/pm.c:703
     cdc:	40f507b3          	sub	a5,a0,a5
     ce0:	0785                	c.addi	a5,1
D:/release_sdk/v2_3_0_2/telink_b91m_driver_src/chip/B91/drivers/lib/src/pm.c:702
     ce2:	0505                	c.addi	a0,1
D:/release_sdk/v2_3_0_2/telink_b91m_driver_src/chip/B91/drivers/lib/src/pm.c:703
     ce4:	d41c                	c.sw	a5,40(s0)
D:/release_sdk/v2_3_0_2/telink_b91m_driver_src/chip/B91/drivers/lib/src/pm.c:704
     ce6:	0685                	c.addi	a3,1
D:/release_sdk/v2_3_0_2/telink_b91m_driver_src/chip/B91/drivers/lib/src/pm.c:702
     ce8:	02a42623          	sw	a0,44(s0)
D:/release_sdk/v2_3_0_2/telink_b91m_driver_src/chip/B91/drivers/lib/src/pm.c:704
     cec:	801407b7          	lui	a5,0x80140
D:/release_sdk/v2_3_0_2/telink_b91m_driver_src/chip/B91/drivers/lib/src/pm.c:716
     cf0:	80140737          	lui	a4,0x80140
D:/release_sdk/v2_3_0_2/telink_b91m_driver_src/chip/B91/drivers/lib/src/pm.c:704
     cf4:	20d7a023          	sw	a3,512(a5) # 80140200 <_DATA_LMA_START+0x6013e580>
D:/release_sdk/v2_3_0_2/telink_b91m_driver_src/chip/B91/drivers/lib/src/pm.c:716
     cf8:	20b70783          	lb	a5,523(a4) # 8014020b <_DATA_LMA_START+0x6013e58b>
     cfc:	be77fe5b          	bbc	a5,7,cf8 <pm_sleep_wakeup_ram.constprop.20+0x298>
D:/release_sdk/v2_3_0_2/telink_b91m_driver_src/chip/B91/drivers/lib/src/pm.c:717
     d00:	20070c23          	sb	zero,536(a4)
D:/release_sdk/v2_3_0_2/telink_b91m_driver_src/chip/B91/drivers/lib/src/pm.c:743
     d04:	1d670c23          	sb	s6,472(a4)
pm_get_wakeup_src():
D:\release_sdk\v2_3_0_2\telink_b91m_driver_src\chip\B91\drivers/lib/include/pm.h:239
     d08:	06400513          	li	a0,100
pm_sleep_wakeup_ram():
D:/release_sdk/v2_3_0_2/telink_b91m_driver_src/chip/B91/drivers/lib/src/pm.c:744
     d0c:	1f570423          	sb	s5,488(a4)
pm_get_wakeup_src():
D:\release_sdk\v2_3_0_2\telink_b91m_driver_src\chip\B91\drivers/lib/include/pm.h:239
     d10:	97dff0ef          	jal	ra,68c <analog_read_reg8>
pm_sleep_wakeup_ram():
D:/release_sdk/v2_3_0_2/telink_b91m_driver_src/chip/B91/drivers/lib/src/pm.c:751
     d14:	831f970b          	addigp	a4,-2000 # 80030 <g_pm_status_info>
     d18:	00a700a3          	sb	a0,1(a4)
     d1c:	831f978b          	addigp	a5,-2000 # 80030 <g_pm_status_info>
D:/release_sdk/v2_3_0_2/telink_b91m_driver_src/chip/B91/drivers/lib/src/pm.c:753
     d20:	00157c5b          	bbc	a0,1,d38 <pm_sleep_wakeup_ram.constprop.20+0x2d8>
D:\release_sdk\v2_3_0_2\telink_b91m_driver_src\chip\B91\drivers/stimer.h:169
     d24:	80140637          	lui	a2,0x80140
D:/release_sdk/v2_3_0_2/telink_b91m_driver_src/chip/B91/drivers/lib/src/pm.c:756
     d28:	400006b7          	lui	a3,0x40000
D:\release_sdk\v2_3_0_2\telink_b91m_driver_src\chip\B91\drivers/stimer.h:169
     d2c:	20062703          	lw	a4,512(a2) # 80140200 <_DATA_LMA_START+0x6013e580>
D:/release_sdk/v2_3_0_2/telink_b91m_driver_src/chip/B91/drivers/lib/src/pm.c:756
     d30:	41470733          	sub	a4,a4,s4
     d34:	fee6ece3          	bltu	a3,a4,d2c <pm_sleep_wakeup_ram.constprop.20+0x2cc>
core_restore_interrupt():
D:\release_sdk\v2_3_0_2\telink_b91m_driver_src\chip\B91\drivers/core.h:131
     d38:	00098663          	beqz	s3,d44 <pm_sleep_wakeup_ram.constprop.20+0x2e4>
D:\release_sdk\v2_3_0_2\telink_b91m_driver_src\chip\B91\drivers/core.h:133
     d3c:	3009a9f3          	csrrs	s3,mstatus,s3
D:\release_sdk\v2_3_0_2\telink_b91m_driver_src\chip\B91\drivers/core.h:134
     d40:	0ff0000f          	fence
pm_sleep_wakeup_ram():
D:/release_sdk/v2_3_0_2/telink_b91m_driver_src/chip/B91/drivers/lib/src/pm.c:774
     d44:	0017c783          	lbu	a5,1(a5)
     d48:	10000513          	li	a0,256
     d4c:	c781                	c.beqz	a5,d54 <pm_sleep_wakeup_ram.constprop.20+0x2f4>
     d4e:	40000537          	lui	a0,0x40000
     d52:	8d5d                	c.or	a0,a5
D:/release_sdk/v2_3_0_2/telink_b91m_driver_src/chip/B91/drivers/lib/src/pm.c:776
     d54:	40f2                	c.lwsp	ra,28(sp)
     d56:	4462                	c.lwsp	s0,24(sp)
     d58:	44d2                	c.lwsp	s1,20(sp)
     d5a:	4942                	c.lwsp	s2,16(sp)
     d5c:	49b2                	c.lwsp	s3,12(sp)
     d5e:	4a22                	c.lwsp	s4,8(sp)
     d60:	4a92                	c.lwsp	s5,4(sp)
     d62:	4b02                	c.lwsp	s6,0(sp)
     d64:	6105                	c.addi16sp	sp,32
     d66:	8082                	c.jr	ra

00000d68 <trap_entry>:
trap_entry():
E:/promotion/gitlab/opensdk/Mars_B91/telink_rocket_driver_sdk/demo/vendor/common/B91/exception.c:92
 * @brief       This function service to handle all the platform pre-defined interrupt or exception.
 * @return      none
 */
_attribute_ram_code_sec_noinline_ void trap_entry(void) __attribute__((interrupt("machine"), aligned(4)));
void trap_entry(void)
{
     d68:	1101                	c.addi	sp,-32
     d6a:	ce2a                	c.swsp	a0,28(sp)
     d6c:	cc2e                	c.swsp	a1,24(sp)
     d6e:	ca32                	c.swsp	a2,20(sp)
     d70:	c836                	c.swsp	a3,16(sp)
     d72:	c63a                	c.swsp	a4,12(sp)
     d74:	c43e                	c.swsp	a5,8(sp)
E:/promotion/gitlab/opensdk/Mars_B91/telink_rocket_driver_sdk/demo/vendor/common/B91/exception.c:93
    long mcause = read_csr(NDS_MCAUSE);
     d76:	34202773          	csrr	a4,mcause
E:/promotion/gitlab/opensdk/Mars_B91/telink_rocket_driver_sdk/demo/vendor/common/B91/exception.c:98
    long mepc = 0;
    long mstatus = 0;
    long mxstatus = 0;

    if (g_plic_preempt_en)
     d7a:	000007b7          	lui	a5,0x0
     d7e:	15878793          	addi	a5,a5,344 # 158 <_AES_VMA_END>
     d82:	04078683          	lb	a3,64(a5)
     d86:	0ff6f693          	andi	a3,a3,255
     d8a:	c2dd                	c.beqz	a3,e30 <trap_entry+0xc8>
E:/promotion/gitlab/opensdk/Mars_B91/telink_rocket_driver_sdk/demo/vendor/common/B91/exception.c:100
    {
        mepc = read_csr(NDS_MEPC);
     d8c:	34102673          	csrr	a2,mepc
E:/promotion/gitlab/opensdk/Mars_B91/telink_rocket_driver_sdk/demo/vendor/common/B91/exception.c:101
        mstatus = read_csr(NDS_MSTATUS);
     d90:	300025f3          	csrr	a1,mstatus
E:/promotion/gitlab/opensdk/Mars_B91/telink_rocket_driver_sdk/demo/vendor/common/B91/exception.c:102
        mxstatus = read_csr(NDS_MXSTATUS);
     d94:	7c4026f3          	csrr	a3,mxstatus
E:/promotion/gitlab/opensdk/Mars_B91/telink_rocket_driver_sdk/demo/vendor/common/B91/exception.c:105
    }

    if ((mcause & 0x80000000UL) && ((mcause & 0x7FFFFFFFUL) == 7)) /* machine timer interrupt */
     d98:	02074a63          	bltz	a4,dcc <trap_entry+0x64>
except_handler():
E:/promotion/gitlab/opensdk/Mars_B91/telink_rocket_driver_sdk/demo/vendor/common/B91/exception.c:74
    exception_mtval = read_csr(NDS_MTVAL);
     d9c:	34302773          	csrr	a4,mtval
     da0:	82efc3ab          	swgp	a4,-2012 # 80024 <exception_mtval>
E:/promotion/gitlab/opensdk/Mars_B91/telink_rocket_driver_sdk/demo/vendor/common/B91/exception.c:75
    exception_mepc = read_csr(NDS_MEPC);
     da4:	34102773          	csrr	a4,mepc
     da8:	80efcfab          	swgp	a4,-2020 # 8001c <exception_mepc>
E:/promotion/gitlab/opensdk/Mars_B91/telink_rocket_driver_sdk/demo/vendor/common/B91/exception.c:76
    exception_mstatus = read_csr(NDS_MSTATUS);
     dac:	30002773          	csrr	a4,mstatus
     db0:	82efc1ab          	swgp	a4,-2016 # 80020 <exception_mstatus>
E:/promotion/gitlab/opensdk/Mars_B91/telink_rocket_driver_sdk/demo/vendor/common/B91/exception.c:77
    exception_mcause = read_csr(NDS_MCAUSE);
     db4:	34202773          	csrr	a4,mcause
     db8:	80efcbab          	swgp	a4,-2028 # 80014 <exception_mcause>
E:/promotion/gitlab/opensdk/Mars_B91/telink_rocket_driver_sdk/demo/vendor/common/B91/exception.c:78
    exception_mdcause = read_csr(NDS_MDCAUSE);
     dbc:	7c902773          	csrr	a4,mdcause
     dc0:	80efcdab          	swgp	a4,-2024 # 80018 <exception_mdcause>
E:/promotion/gitlab/opensdk/Mars_B91/telink_rocket_driver_sdk/demo/vendor/common/B91/exception.c:82
        __asm__("nop");
     dc4:	0001                	c.nop
     dc6:	0001                	c.nop
     dc8:	ffdff06f          	j	dc4 <trap_entry+0x5c>
trap_entry():
E:/promotion/gitlab/opensdk/Mars_B91/telink_rocket_driver_sdk/demo/vendor/common/B91/exception.c:105
    if ((mcause & 0x80000000UL) && ((mcause & 0x7FFFFFFFUL) == 7)) /* machine timer interrupt */
     dcc:	7807275b          	bfoz	a4,a4,30,0
     dd0:	0677545b          	beqc	a4,7,e38 <trap_entry+0xd0>
E:/promotion/gitlab/opensdk/Mars_B91/telink_rocket_driver_sdk/demo/vendor/common/B91/exception.c:123
            clear_csr(NDS_MSTATUS, FLD_MSTATUS_MIE);
            /* re-enable the timer interrupt. */
            core_mie_enable(FLD_MIE_MTIE);
        }
    }
    else if ((mcause & 0x80000000UL) && ((mcause & 0x7FFFFFFFUL) == 3)) /* machine software interrupt */
     dd4:	bc37645b          	bnec	a4,3,d9c <trap_entry+0x34>
plic_sw_interrupt_claim():
E:/promotion/gitlab/opensdk/Mars_B91/telink_rocket_driver_sdk/chip/B91/drivers/plic_sw.h:87
 * @return   It returns the software interrupt source id.
 * @note     The claim signal needs to be generated manually in the interrupt service routine.
 */
static inline unsigned int plic_sw_interrupt_claim(void)
{
    return reg_irq_sw_done;
     dd8:	e6600737          	lui	a4,0xe6600
     ddc:	4358                	c.lw	a4,4(a4)
trap_entry():
E:/promotion/gitlab/opensdk/Mars_B91/telink_rocket_driver_sdk/demo/vendor/common/B91/exception.c:127
    {
        plic_sw_interrupt_claim();
        /* if support interrupt nest,enable global interrupt */
        if (g_plic_preempt_en)
     dde:	04078703          	lb	a4,64(a5)
     de2:	0ff77713          	andi	a4,a4,255
     de6:	c319                	c.beqz	a4,dec <trap_entry+0x84>
E:/promotion/gitlab/opensdk/Mars_B91/telink_rocket_driver_sdk/demo/vendor/common/B91/exception.c:129
        {
            set_csr(NDS_MSTATUS, FLD_MSTATUS_MIE);
     de8:	30046773          	csrrsi	a4,mstatus,8
E:/promotion/gitlab/opensdk/Mars_B91/telink_rocket_driver_sdk/demo/vendor/common/B91/exception.c:134
        }

        mswi_irq_handler();

        if (g_plic_preempt_en)
     dec:	04078703          	lb	a4,64(a5)
     df0:	0ff77713          	andi	a4,a4,255
     df4:	00070463          	beqz	a4,dfc <trap_entry+0x94>
E:/promotion/gitlab/opensdk/Mars_B91/telink_rocket_driver_sdk/demo/vendor/common/B91/exception.c:136
        {
            clear_csr(NDS_MSTATUS, FLD_MSTATUS_MIE);
     df8:	30047773          	csrrci	a4,mstatus,8
plic_sw_interrupt_complete():
E:/promotion/gitlab/opensdk/Mars_B91/telink_rocket_driver_sdk/chip/B91/drivers/plic_sw.h:97
 * @return   none
 * @note     Software interrupts need to be completed before exiting the interrupt service routine to ensure that software interrupts are fully released..
 */
static inline void plic_sw_interrupt_complete()
{
    reg_irq_sw_done = FLD_PLIC_SW_ID;
     dfc:	e6600737          	lui	a4,0xe6600
     e00:	4505                	c.li	a0,1
     e02:	c348                	c.sw	a0,4(a4)
trap_entry():
E:/promotion/gitlab/opensdk/Mars_B91/telink_rocket_driver_sdk/demo/vendor/common/B91/exception.c:146
    else /* unhandled Trap */
    {
        except_handler();
    }

    if (g_plic_preempt_en)
     e04:	04078783          	lb	a5,64(a5)
     e08:	0ff7f793          	andi	a5,a5,255
     e0c:	00078863          	beqz	a5,e1c <trap_entry+0xb4>
E:/promotion/gitlab/opensdk/Mars_B91/telink_rocket_driver_sdk/demo/vendor/common/B91/exception.c:148
    {
        write_csr(NDS_MSTATUS, mstatus);
     e10:	30059073          	csrw	mstatus,a1
E:/promotion/gitlab/opensdk/Mars_B91/telink_rocket_driver_sdk/demo/vendor/common/B91/exception.c:149
        write_csr(NDS_MEPC, mepc);
     e14:	34161073          	csrw	mepc,a2
E:/promotion/gitlab/opensdk/Mars_B91/telink_rocket_driver_sdk/demo/vendor/common/B91/exception.c:150
        write_csr(NDS_MXSTATUS, mxstatus);
     e18:	7c469073          	csrw	mxstatus,a3
E:/promotion/gitlab/opensdk/Mars_B91/telink_rocket_driver_sdk/demo/vendor/common/B91/exception.c:152
    }
}
     e1c:	4572                	c.lwsp	a0,28(sp)
     e1e:	45e2                	c.lwsp	a1,24(sp)
     e20:	4652                	c.lwsp	a2,20(sp)
     e22:	46c2                	c.lwsp	a3,16(sp)
     e24:	4732                	c.lwsp	a4,12(sp)
     e26:	47a2                	c.lwsp	a5,8(sp)
     e28:	02010113          	addi	sp,sp,32
     e2c:	30200073          	mret
E:/promotion/gitlab/opensdk/Mars_B91/telink_rocket_driver_sdk/demo/vendor/common/B91/exception.c:96
    long mxstatus = 0;
     e30:	4681                	c.li	a3,0
E:/promotion/gitlab/opensdk/Mars_B91/telink_rocket_driver_sdk/demo/vendor/common/B91/exception.c:95
    long mstatus = 0;
     e32:	4581                	c.li	a1,0
E:/promotion/gitlab/opensdk/Mars_B91/telink_rocket_driver_sdk/demo/vendor/common/B91/exception.c:94
    long mepc = 0;
     e34:	4601                	c.li	a2,0
     e36:	b78d                	c.j	d98 <trap_entry+0x30>
E:/promotion/gitlab/opensdk/Mars_B91/telink_rocket_driver_sdk/demo/vendor/common/B91/exception.c:107
        if (g_plic_preempt_en)
     e38:	04078703          	lb	a4,64(a5)
     e3c:	0ff77713          	andi	a4,a4,255
     e40:	00070863          	beqz	a4,e50 <trap_entry+0xe8>
core_mie_disable():
E:/promotion/gitlab/opensdk/Mars_B91/telink_rocket_driver_sdk/chip/B91/drivers/core.h:156
 * @param[in] mie_mask - MIE(Machine Interrupt Enable) register mask.
 * @return  none
 */
static inline void core_mie_disable(mie_e mie_mask)
{
    clear_csr(NDS_MIE, mie_mask);
     e44:	08000713          	li	a4,128
     e48:	30473773          	csrrc	a4,mie,a4
trap_entry():
E:/promotion/gitlab/opensdk/Mars_B91/telink_rocket_driver_sdk/demo/vendor/common/B91/exception.c:111
            set_csr(NDS_MSTATUS, FLD_MSTATUS_MIE);
     e4c:	30046773          	csrrsi	a4,mstatus,8
E:/promotion/gitlab/opensdk/Mars_B91/telink_rocket_driver_sdk/demo/vendor/common/B91/exception.c:116
        if (g_plic_preempt_en)
     e50:	04078703          	lb	a4,64(a5)
     e54:	0ff77713          	andi	a4,a4,255
     e58:	d755                	c.beqz	a4,e04 <trap_entry+0x9c>
E:/promotion/gitlab/opensdk/Mars_B91/telink_rocket_driver_sdk/demo/vendor/common/B91/exception.c:118
            clear_csr(NDS_MSTATUS, FLD_MSTATUS_MIE);
     e5a:	30047773          	csrrci	a4,mstatus,8
core_mie_enable():
E:/promotion/gitlab/opensdk/Mars_B91/telink_rocket_driver_sdk/chip/B91/drivers/core.h:146
    set_csr(NDS_MIE, mie_mask);
     e5e:	08000713          	li	a4,128
     e62:	30472773          	csrrs	a4,mie,a4
     e66:	bf79                	c.j	e04 <trap_entry+0x9c>
trap_entry():
     e68:	0001                	c.nop
	...

00000f00 <__vectors>:
__vectors():
     f00:	0d68                	c.addi4spn	a0,sp,668
     f02:	0000                	unimp
     f04:	1c64                	c.addi4spn	s1,sp,572
     f06:	2000                	c.fld	fs0,0(s0)
     f08:	1c64                	c.addi4spn	s1,sp,572
     f0a:	2000                	c.fld	fs0,0(s0)
     f0c:	1c64                	c.addi4spn	s1,sp,572
     f0e:	2000                	c.fld	fs0,0(s0)
     f10:	1c64                	c.addi4spn	s1,sp,572
     f12:	2000                	c.fld	fs0,0(s0)
     f14:	1c64                	c.addi4spn	s1,sp,572
     f16:	2000                	c.fld	fs0,0(s0)
     f18:	1c64                	c.addi4spn	s1,sp,572
     f1a:	2000                	c.fld	fs0,0(s0)
     f1c:	1c64                	c.addi4spn	s1,sp,572
     f1e:	2000                	c.fld	fs0,0(s0)
     f20:	1c64                	c.addi4spn	s1,sp,572
     f22:	2000                	c.fld	fs0,0(s0)
     f24:	1c64                	c.addi4spn	s1,sp,572
     f26:	2000                	c.fld	fs0,0(s0)
     f28:	1c64                	c.addi4spn	s1,sp,572
     f2a:	2000                	c.fld	fs0,0(s0)
     f2c:	1c64                	c.addi4spn	s1,sp,572
     f2e:	2000                	c.fld	fs0,0(s0)
     f30:	1c64                	c.addi4spn	s1,sp,572
     f32:	2000                	c.fld	fs0,0(s0)
     f34:	1c64                	c.addi4spn	s1,sp,572
     f36:	2000                	c.fld	fs0,0(s0)
     f38:	1c64                	c.addi4spn	s1,sp,572
     f3a:	2000                	c.fld	fs0,0(s0)
     f3c:	1c64                	c.addi4spn	s1,sp,572
     f3e:	2000                	c.fld	fs0,0(s0)
     f40:	1c64                	c.addi4spn	s1,sp,572
     f42:	2000                	c.fld	fs0,0(s0)
     f44:	1c64                	c.addi4spn	s1,sp,572
     f46:	2000                	c.fld	fs0,0(s0)
     f48:	1c64                	c.addi4spn	s1,sp,572
     f4a:	2000                	c.fld	fs0,0(s0)
     f4c:	1c64                	c.addi4spn	s1,sp,572
     f4e:	2000                	c.fld	fs0,0(s0)
     f50:	1c64                	c.addi4spn	s1,sp,572
     f52:	2000                	c.fld	fs0,0(s0)
     f54:	1c64                	c.addi4spn	s1,sp,572
     f56:	2000                	c.fld	fs0,0(s0)
     f58:	1c64                	c.addi4spn	s1,sp,572
     f5a:	2000                	c.fld	fs0,0(s0)
     f5c:	1c64                	c.addi4spn	s1,sp,572
     f5e:	2000                	c.fld	fs0,0(s0)
     f60:	1c64                	c.addi4spn	s1,sp,572
     f62:	2000                	c.fld	fs0,0(s0)
     f64:	1c64                	c.addi4spn	s1,sp,572
     f66:	2000                	c.fld	fs0,0(s0)
     f68:	1c64                	c.addi4spn	s1,sp,572
     f6a:	2000                	c.fld	fs0,0(s0)
     f6c:	1c64                	c.addi4spn	s1,sp,572
     f6e:	2000                	c.fld	fs0,0(s0)
     f70:	1c64                	c.addi4spn	s1,sp,572
     f72:	2000                	c.fld	fs0,0(s0)
     f74:	1c64                	c.addi4spn	s1,sp,572
     f76:	2000                	c.fld	fs0,0(s0)
     f78:	1c64                	c.addi4spn	s1,sp,572
     f7a:	2000                	c.fld	fs0,0(s0)
     f7c:	1c64                	c.addi4spn	s1,sp,572
     f7e:	2000                	c.fld	fs0,0(s0)
     f80:	1c64                	c.addi4spn	s1,sp,572
     f82:	2000                	c.fld	fs0,0(s0)
     f84:	1c64                	c.addi4spn	s1,sp,572
     f86:	2000                	c.fld	fs0,0(s0)
     f88:	1c64                	c.addi4spn	s1,sp,572
     f8a:	2000                	c.fld	fs0,0(s0)
     f8c:	1c64                	c.addi4spn	s1,sp,572
     f8e:	2000                	c.fld	fs0,0(s0)
     f90:	1c64                	c.addi4spn	s1,sp,572
     f92:	2000                	c.fld	fs0,0(s0)
     f94:	1c64                	c.addi4spn	s1,sp,572
     f96:	2000                	c.fld	fs0,0(s0)
     f98:	1c64                	c.addi4spn	s1,sp,572
     f9a:	2000                	c.fld	fs0,0(s0)
     f9c:	1c64                	c.addi4spn	s1,sp,572
     f9e:	2000                	c.fld	fs0,0(s0)
     fa0:	1c64                	c.addi4spn	s1,sp,572
     fa2:	2000                	c.fld	fs0,0(s0)
     fa4:	1c64                	c.addi4spn	s1,sp,572
     fa6:	2000                	c.fld	fs0,0(s0)
     fa8:	1c64                	c.addi4spn	s1,sp,572
     faa:	2000                	c.fld	fs0,0(s0)
     fac:	1c64                	c.addi4spn	s1,sp,572
     fae:	2000                	c.fld	fs0,0(s0)
     fb0:	1c64                	c.addi4spn	s1,sp,572
     fb2:	2000                	c.fld	fs0,0(s0)
     fb4:	1c64                	c.addi4spn	s1,sp,572
     fb6:	2000                	c.fld	fs0,0(s0)
     fb8:	1c64                	c.addi4spn	s1,sp,572
     fba:	2000                	c.fld	fs0,0(s0)
     fbc:	1c64                	c.addi4spn	s1,sp,572
     fbe:	2000                	c.fld	fs0,0(s0)
     fc0:	1c64                	c.addi4spn	s1,sp,572
     fc2:	2000                	c.fld	fs0,0(s0)
     fc4:	1c64                	c.addi4spn	s1,sp,572
     fc6:	2000                	c.fld	fs0,0(s0)
     fc8:	1c64                	c.addi4spn	s1,sp,572
     fca:	2000                	c.fld	fs0,0(s0)
     fcc:	1c64                	c.addi4spn	s1,sp,572
     fce:	2000                	c.fld	fs0,0(s0)
     fd0:	1c64                	c.addi4spn	s1,sp,572
     fd2:	2000                	c.fld	fs0,0(s0)
     fd4:	1c64                	c.addi4spn	s1,sp,572
     fd6:	2000                	c.fld	fs0,0(s0)
     fd8:	1c64                	c.addi4spn	s1,sp,572
     fda:	2000                	c.fld	fs0,0(s0)
     fdc:	1c64                	c.addi4spn	s1,sp,572
     fde:	2000                	c.fld	fs0,0(s0)
     fe0:	1c64                	c.addi4spn	s1,sp,572
     fe2:	2000                	c.fld	fs0,0(s0)
     fe4:	1c64                	c.addi4spn	s1,sp,572
     fe6:	2000                	c.fld	fs0,0(s0)
     fe8:	1c64                	c.addi4spn	s1,sp,572
     fea:	2000                	c.fld	fs0,0(s0)
     fec:	1c64                	c.addi4spn	s1,sp,572
     fee:	2000                	c.fld	fs0,0(s0)
     ff0:	1c64                	c.addi4spn	s1,sp,572
     ff2:	2000                	c.fld	fs0,0(s0)
     ff4:	1c64                	c.addi4spn	s1,sp,572
     ff6:	2000                	c.fld	fs0,0(s0)
     ff8:	1c64                	c.addi4spn	s1,sp,572
     ffa:	2000                	c.fld	fs0,0(s0)
     ffc:	1c64                	c.addi4spn	s1,sp,572
     ffe:	2000                	c.fld	fs0,0(s0)
    1000:	0001                	c.nop

Disassembly of section .text:

20001160 <flash_read_uid.constprop.23>:
flash_read_uid():
E:/promotion/gitlab/opensdk/Mars_B91/telink_rocket_driver_sdk/chip/B91/drivers/flash.c:590
 *
 *              Risk description: When the chip power supply voltage is relatively low, due to the unstable power supply,
 *              there may be a risk of error in the operation of the flash (especially for the write and erase operations.
 *              If an abnormality occurs, the firmware and user data may be rewritten, resulting in the final Product failure)
 */
_attribute_text_sec_ void flash_read_uid(unsigned char idcmd, unsigned char *buf)
20001160:	1141                	c.addi	sp,-16
20001162:	c606                	c.swsp	ra,12(sp)
20001164:	872a                	c.mv	a4,a0
E:/promotion/gitlab/opensdk/Mars_B91/telink_rocket_driver_sdk/chip/B91/drivers/flash.c:592
{
	__asm__("csrci 	mmisc_ctl,8");	//disable BTB
20001166:	7d047073          	csrci	mmisc_ctl,8
E:/promotion/gitlab/opensdk/Mars_B91/telink_rocket_driver_sdk/chip/B91/drivers/flash.c:595
	if(idcmd == FLASH_READ_UID_CMD_GD_PUYA_ZB_TH)	//< GD/PUYA/ZB/TH
	{
		flash_mspi_read_ram(idcmd, 0, 0, 4, buf, 16);
2000116a:	47c1                	c.li	a5,16
2000116c:	4691                	c.li	a3,4
2000116e:	4601                	c.li	a2,0
20001170:	00000593          	li	a1,0
20001174:	04b00513          	li	a0,75
20001178:	dffff097          	auipc	ra,0xdffff
2000117c:	350080e7          	jalr	848(ra) # 4c8 <flash_mspi_read_ram>
E:/promotion/gitlab/opensdk/Mars_B91/telink_rocket_driver_sdk/chip/B91/drivers/flash.c:597
	}
	__asm__("csrsi 	mmisc_ctl,8");	//enable BTB
20001180:	7d046073          	csrsi	mmisc_ctl,8
E:/promotion/gitlab/opensdk/Mars_B91/telink_rocket_driver_sdk/chip/B91/drivers/flash.c:598
}
20001184:	40b2                	c.lwsp	ra,12(sp)
20001186:	0141                	c.addi	sp,16
20001188:	00008067          	ret

2000118c <flash_read_mid>:
flash_read_mid():
E:/promotion/gitlab/opensdk/Mars_B91/telink_rocket_driver_sdk/chip/B91/drivers/flash.c:566
{
2000118c:	1101                	c.addi	sp,-32
2000118e:	ce06                	c.swsp	ra,28(sp)
E:/promotion/gitlab/opensdk/Mars_B91/telink_rocket_driver_sdk/chip/B91/drivers/flash.c:567
	unsigned int flash_mid = 0;
20001190:	c602                	c.swsp	zero,12(sp)
E:/promotion/gitlab/opensdk/Mars_B91/telink_rocket_driver_sdk/chip/B91/drivers/flash.c:568
	__asm__("csrci 	mmisc_ctl,8");	//disable BTB
20001192:	7d047073          	csrci	mmisc_ctl,8
E:/promotion/gitlab/opensdk/Mars_B91/telink_rocket_driver_sdk/chip/B91/drivers/flash.c:569
	flash_mspi_read_ram(FLASH_GET_JEDEC_ID, 0, 0, 0, (unsigned char*)(&flash_mid), 3);
20001196:	478d                	c.li	a5,3
20001198:	0078                	c.addi4spn	a4,sp,12
2000119a:	4681                	c.li	a3,0
2000119c:	4601                	c.li	a2,0
2000119e:	4581                	c.li	a1,0
200011a0:	09f00513          	li	a0,159
200011a4:	dffff097          	auipc	ra,0xdffff
200011a8:	324080e7          	jalr	804(ra) # 4c8 <flash_mspi_read_ram>
E:/promotion/gitlab/opensdk/Mars_B91/telink_rocket_driver_sdk/chip/B91/drivers/flash.c:570
	__asm__("csrsi 	mmisc_ctl,8");	//enable BTB
200011ac:	7d046073          	csrsi	mmisc_ctl,8
E:/promotion/gitlab/opensdk/Mars_B91/telink_rocket_driver_sdk/chip/B91/drivers/flash.c:572
}
200011b0:	40f2                	c.lwsp	ra,28(sp)
200011b2:	4532                	c.lwsp	a0,12(sp)
200011b4:	6105                	c.addi16sp	sp,32
200011b6:	8082                	c.jr	ra

200011b8 <flash_read_mid_uid_with_check>:
flash_read_mid_uid_with_check():
E:/promotion/gitlab/opensdk/Mars_B91/telink_rocket_driver_sdk/chip/B91/drivers/flash.c:690
 *              there may be a risk of error in the operation of the flash (especially for the write and erase operations.
 *              If an abnormality occurs, the firmware and user data may be rewritten, resulting in the final Product failure)
 */
_attribute_text_sec_ int flash_read_mid_uid_with_check(unsigned int *flash_mid, unsigned char *flash_uid)
{
	unsigned char no_uid[16]={0x51,0x01,0x51,0x01,0x51,0x01,0x51,0x01,0x51,0x01,0x51,0x01,0x51,0x01,0x51,0x01};
200011b8:	200027b7          	lui	a5,0x20002
200011bc:	c6c78793          	addi	a5,a5,-916 # 20001c6c <trap_handler+0x6>
200011c0:	4798                	c.lw	a4,8(a5)
200011c2:	4390                	c.lw	a2,0(a5)
200011c4:	43d4                	c.lw	a3,4(a5)
200011c6:	47dc                	c.lw	a5,12(a5)
E:/promotion/gitlab/opensdk/Mars_B91/telink_rocket_driver_sdk/chip/B91/drivers/flash.c:689
{
200011c8:	1101                	c.addi	sp,-32
200011ca:	cc22                	c.swsp	s0,24(sp)
200011cc:	ca26                	c.swsp	s1,20(sp)
E:/promotion/gitlab/opensdk/Mars_B91/telink_rocket_driver_sdk/chip/B91/drivers/flash.c:690
	unsigned char no_uid[16]={0x51,0x01,0x51,0x01,0x51,0x01,0x51,0x01,0x51,0x01,0x51,0x01,0x51,0x01,0x51,0x01};
200011ce:	c43a                	c.swsp	a4,8(sp)
E:/promotion/gitlab/opensdk/Mars_B91/telink_rocket_driver_sdk/chip/B91/drivers/flash.c:689
{
200011d0:	84aa                	c.mv	s1,a0
E:/promotion/gitlab/opensdk/Mars_B91/telink_rocket_driver_sdk/chip/B91/drivers/flash.c:690
	unsigned char no_uid[16]={0x51,0x01,0x51,0x01,0x51,0x01,0x51,0x01,0x51,0x01,0x51,0x01,0x51,0x01,0x51,0x01};
200011d2:	c63e                	c.swsp	a5,12(sp)
E:/promotion/gitlab/opensdk/Mars_B91/telink_rocket_driver_sdk/chip/B91/drivers/flash.c:689
{
200011d4:	ce06                	c.swsp	ra,28(sp)
200011d6:	842e                	c.mv	s0,a1
E:/promotion/gitlab/opensdk/Mars_B91/telink_rocket_driver_sdk/chip/B91/drivers/flash.c:690
	unsigned char no_uid[16]={0x51,0x01,0x51,0x01,0x51,0x01,0x51,0x01,0x51,0x01,0x51,0x01,0x51,0x01,0x51,0x01};
200011d8:	c032                	c.swsp	a2,0(sp)
200011da:	c236                	c.swsp	a3,4(sp)
E:/promotion/gitlab/opensdk/Mars_B91/telink_rocket_driver_sdk/chip/B91/drivers/flash.c:692
	unsigned int i,f_cnt=0;
	*flash_mid = flash_read_mid();
200011dc:	fb1ff0ef          	jal	ra,2000118c <flash_read_mid>
E:/promotion/gitlab/opensdk/Mars_B91/telink_rocket_driver_sdk/chip/B91/drivers/flash.c:695

	for(i=0; i<FLASH_CNT; i++){
		if(flash_support_mid[i] == *flash_mid){
200011e0:	77c1                	c.lui	a5,0xffff0
200011e2:	17fd                	c.addi	a5,-1
200011e4:	00146737          	lui	a4,0x146
E:/promotion/gitlab/opensdk/Mars_B91/telink_rocket_driver_sdk/chip/B91/drivers/flash.c:692
	*flash_mid = flash_read_mid();
200011e8:	c088                	c.sw	a0,0(s1)
E:/promotion/gitlab/opensdk/Mars_B91/telink_rocket_driver_sdk/chip/B91/drivers/flash.c:695
		if(flash_support_mid[i] == *flash_mid){
200011ea:	8fe9                	c.and	a5,a0
200011ec:	08570713          	addi	a4,a4,133 # 146085 <FLASH_SIZE+0x46085>
200011f0:	02e78063          	beq	a5,a4,20001210 <flash_read_mid_uid_with_check+0x58>
200011f4:	001667b7          	lui	a5,0x166
200011f8:	08578793          	addi	a5,a5,133 # 166085 <FLASH_SIZE+0x66085>
E:/promotion/gitlab/opensdk/Mars_B91/telink_rocket_driver_sdk/chip/B91/drivers/flash.c:701
			flash_read_uid(FLASH_READ_UID_CMD_GD_PUYA_ZB_TH, (unsigned char *)flash_uid);
			break;
		}
	}
	if(i == FLASH_CNT){
		return 0;
200011fc:	4681                	c.li	a3,0
E:/promotion/gitlab/opensdk/Mars_B91/telink_rocket_driver_sdk/chip/B91/drivers/flash.c:695
		if(flash_support_mid[i] == *flash_mid){
200011fe:	00f50963          	beq	a0,a5,20001210 <flash_read_mid_uid_with_check+0x58>
E:/promotion/gitlab/opensdk/Mars_B91/telink_rocket_driver_sdk/chip/B91/drivers/flash.c:715
	if(f_cnt == 16){	//no uid flash
		return 0;
	}else{
		return 1;
	}
}
20001202:	40f2                	c.lwsp	ra,28(sp)
20001204:	4462                	c.lwsp	s0,24(sp)
20001206:	44d2                	c.lwsp	s1,20(sp)
20001208:	8536                	c.mv	a0,a3
2000120a:	6105                	c.addi16sp	sp,32
2000120c:	00008067          	ret
E:/promotion/gitlab/opensdk/Mars_B91/telink_rocket_driver_sdk/chip/B91/drivers/flash.c:696
			flash_read_uid(FLASH_READ_UID_CMD_GD_PUYA_ZB_TH, (unsigned char *)flash_uid);
20001210:	8522                	c.mv	a0,s0
20001212:	37b9                	c.jal	20001160 <flash_read_uid.constprop.23>
20001214:	85a2                	c.mv	a1,s0
20001216:	870a                	c.mv	a4,sp
20001218:	0808                	c.addi4spn	a0,sp,16
2000121a:	4681                	c.li	a3,0
E:/promotion/gitlab/opensdk/Mars_B91/telink_rocket_driver_sdk/chip/B91/drivers/flash.c:705
		if(flash_uid[i] == no_uid[i]){
2000121c:	0005c783          	lbu	a5,0(a1)
20001220:	00074603          	lbu	a2,0(a4)
20001224:	0705                	c.addi	a4,1
E:/promotion/gitlab/opensdk/Mars_B91/telink_rocket_driver_sdk/chip/B91/drivers/flash.c:706
			f_cnt++;
20001226:	8f91                	c.sub	a5,a2
20001228:	0017b793          	seqz	a5,a5
2000122c:	96be                	c.add	a3,a5
2000122e:	0585                	c.addi	a1,1
E:/promotion/gitlab/opensdk/Mars_B91/telink_rocket_driver_sdk/chip/B91/drivers/flash.c:704
	for(i=0; i<16; i++){
20001230:	fee516e3          	bne	a0,a4,2000121c <flash_read_mid_uid_with_check+0x64>
E:/promotion/gitlab/opensdk/Mars_B91/telink_rocket_driver_sdk/chip/B91/drivers/flash.c:715
}
20001234:	40f2                	c.lwsp	ra,28(sp)
20001236:	4462                	c.lwsp	s0,24(sp)
E:/promotion/gitlab/opensdk/Mars_B91/telink_rocket_driver_sdk/chip/B91/drivers/flash.c:710
	if(f_cnt == 16){	//no uid flash
20001238:	16c1                	c.addi	a3,-16
2000123a:	00d036b3          	snez	a3,a3
E:/promotion/gitlab/opensdk/Mars_B91/telink_rocket_driver_sdk/chip/B91/drivers/flash.c:715
}
2000123e:	44d2                	c.lwsp	s1,20(sp)
20001240:	8536                	c.mv	a0,a3
20001242:	6105                	c.addi16sp	sp,32
20001244:	00008067          	ret

20001248 <flash_dread>:
flash_dread():
E:/promotion/gitlab/opensdk/Mars_B91/telink_rocket_driver_sdk/chip/B91/drivers/flash.c:307
{
20001248:	1141                	c.addi	sp,-16
2000124a:	c606                	c.swsp	ra,12(sp)
2000124c:	87ae                	c.mv	a5,a1
2000124e:	8732                	c.mv	a4,a2
E:/promotion/gitlab/opensdk/Mars_B91/telink_rocket_driver_sdk/chip/B91/drivers/flash.c:308
	__asm__("csrci 	mmisc_ctl,8");	//disable BTB
20001250:	7d047073          	csrci	mmisc_ctl,8
E:/promotion/gitlab/opensdk/Mars_B91/telink_rocket_driver_sdk/chip/B91/drivers/flash.c:309
	flash_mspi_read_ram(FLASH_DREAD_CMD, addr, 1, 1, buf, len);
20001254:	4685                	c.li	a3,1
20001256:	85aa                	c.mv	a1,a0
20001258:	00100613          	li	a2,1
2000125c:	03b00513          	li	a0,59
20001260:	dffff097          	auipc	ra,0xdffff
20001264:	268080e7          	jalr	616(ra) # 4c8 <flash_mspi_read_ram>
E:/promotion/gitlab/opensdk/Mars_B91/telink_rocket_driver_sdk/chip/B91/drivers/flash.c:310
	__asm__("csrsi 	mmisc_ctl,8");	//enable BTB
20001268:	7d046073          	csrsi	mmisc_ctl,8
E:/promotion/gitlab/opensdk/Mars_B91/telink_rocket_driver_sdk/chip/B91/drivers/flash.c:311
}
2000126c:	40b2                	c.lwsp	ra,12(sp)
2000126e:	0141                	c.addi	sp,16
20001270:	00008067          	ret

20001274 <clock_init.constprop.0>:
clock_init():
E:/promotion/gitlab/opensdk/Mars_B91/telink_rocket_driver_sdk/chip/B91/drivers/clock.c:370

_attribute_text_sec_
void clock_init(sys_pll_clk_e pll,
20001274:	1141                	c.addi	sp,-16
20001276:	c606                	c.swsp	ra,12(sp)
E:/promotion/gitlab/opensdk/Mars_B91/telink_rocket_driver_sdk/chip/B91/drivers/clock.c:377
				sys_pll_div_to_cclk_e cclk_div,
				sys_cclk_div_to_hclk_e hclk_div,
				sys_hclk_div_to_pclk_e pclk_div,
				sys_pll_div_to_mspi_clk_e mspi_clk_div)
{
	__asm__("csrci 	mmisc_ctl,8");	//disable BTB
20001278:	7d047073          	csrci	mmisc_ctl,8
E:/promotion/gitlab/opensdk/Mars_B91/telink_rocket_driver_sdk/chip/B91/drivers/clock.c:378
	clock_init_ram(pll, src, cclk_div, hclk_div, pclk_div, mspi_clk_div);
2000127c:	dffff097          	auipc	ra,0xdffff
20001280:	45c080e7          	jalr	1116(ra) # 6d8 <clock_init_ram.constprop.1>
E:/promotion/gitlab/opensdk/Mars_B91/telink_rocket_driver_sdk/chip/B91/drivers/clock.c:379
	__asm__("csrsi 	mmisc_ctl,8");	//enable BTB
20001284:	7d046073          	csrsi	mmisc_ctl,8
E:/promotion/gitlab/opensdk/Mars_B91/telink_rocket_driver_sdk/chip/B91/drivers/clock.c:380
}
20001288:	40b2                	c.lwsp	ra,12(sp)
2000128a:	0141                	c.addi	sp,16
2000128c:	00008067          	ret

20001290 <pm_sleep_wakeup.constprop.19>:
pm_sleep_wakeup():
D:/release_sdk/v2_3_0_2/telink_b91m_driver_src/chip/B91/drivers/lib/src/pm.c:790
20001290:	1141                	c.addi	sp,-16
20001292:	c606                	c.swsp	ra,12(sp)
D:/release_sdk/v2_3_0_2/telink_b91m_driver_src/chip/B91/drivers/lib/src/pm.c:793
20001294:	7d047073          	csrci	mmisc_ctl,8
D:/release_sdk/v2_3_0_2/telink_b91m_driver_src/chip/B91/drivers/lib/src/pm.c:794
20001298:	dffff097          	auipc	ra,0xdffff
2000129c:	7c8080e7          	jalr	1992(ra) # a60 <pm_sleep_wakeup_ram.constprop.20>
D:/release_sdk/v2_3_0_2/telink_b91m_driver_src/chip/B91/drivers/lib/src/pm.c:795
200012a0:	7d046073          	csrsi	mmisc_ctl,8
D:/release_sdk/v2_3_0_2/telink_b91m_driver_src/chip/B91/drivers/lib/src/pm.c:797
200012a4:	40b2                	c.lwsp	ra,12(sp)
200012a6:	0141                	c.addi	sp,16
200012a8:	8082                	c.jr	ra
pm_sleep_wakeup.constprop.19():
200012aa:	0001                	c.nop

200012ac <user_calib_adc_vref.constprop.25>:
user_calib_adc_vref():
E:/promotion/gitlab/opensdk/Mars_B91/telink_rocket_driver_sdk/demo/vendor/common/B91/calibration/calibration.c:32
 * @brief      This function is used to calibrate ADC 1.2V vref.
 * @param[in]  velfrom - the calibration value from flash or otp.
 * @param[in]  addr - the calibration value address of flash or otp.
 * @return 	   1 - the calibration value update, 0 - the calibration value is not update.
 */
unsigned char user_calib_adc_vref(user_calib_from_e velfrom, unsigned int addr)
200012ac:	1101                	c.addi	sp,-32
200012ae:	ce06                	c.swsp	ra,28(sp)
200012b0:	cc22                	c.swsp	s0,24(sp)
E:/promotion/gitlab/opensdk/Mars_B91/telink_rocket_driver_sdk/demo/vendor/common/B91/calibration/calibration.c:45
	deviation of two-point calibrate  in flash:-11~7mv.
	deviation of two-point calibrate  in efuse:-9~24mv.
	deviation of one-point calibrate  in flash:-20~20mv.
	The above statistical results are obtained by testing only 19 9213A chips.
********************************************************************************************/
	unsigned char adc_vref_calib_value[7] = {0};
200012b2:	c402                	c.swsp	zero,8(sp)
200012b4:	00011623          	sh	zero,12(sp)
200012b8:	00010723          	sb	zero,14(sp)
E:/promotion/gitlab/opensdk/Mars_B91/telink_rocket_driver_sdk/demo/vendor/common/B91/calibration/calibration.c:48
	unsigned short gpio_calib_value = 0;
	signed char gpio_calib_value_offset = 0;
	if(addr == 0)
200012bc:	cd45                	c.beqz	a0,20001374 <user_calib_adc_vref.constprop.25+0xc8>
E:/promotion/gitlab/opensdk/Mars_B91/telink_rocket_driver_sdk/demo/vendor/common/B91/calibration/calibration.c:65
	}
	else
	{
		if(velfrom == USER_CALIB_FROM_FLASH)
		{
			flash_read_page(addr, 7, adc_vref_calib_value);
200012be:	00000437          	lui	s0,0x0
200012c2:	15840413          	addi	s0,s0,344 # 158 <_AES_VMA_END>
200012c6:	405c                	c.lw	a5,4(s0)
200012c8:	0030                	c.addi4spn	a2,sp,8
200012ca:	459d                	c.li	a1,7
200012cc:	9782                	c.jalr	a5
E:/promotion/gitlab/opensdk/Mars_B91/telink_rocket_driver_sdk/demo/vendor/common/B91/calibration/calibration.c:68
		}
		/****** Check the two-point gpio calibration value whether is exist ********/
		if((adc_vref_calib_value[4] != 0xff) && (adc_vref_calib_value[4] <= 0x7f) && (((adc_vref_calib_value[6] << 8) + adc_vref_calib_value[5]) != 0xffff)){
200012ce:	00c14703          	lbu	a4,12(sp)
200012d2:	1c0737db          	bfos	a5,a4,7,0
200012d6:	0407c563          	bltz	a5,20001320 <user_calib_adc_vref.constprop.25+0x74>
200012da:	00e14783          	lbu	a5,14(sp)
200012de:	00d14683          	lbu	a3,13(sp)
200012e2:	07a2                	c.slli	a5,0x8
200012e4:	97b6                	c.add	a5,a3
200012e6:	66c1                	c.lui	a3,0x10
200012e8:	16fd                	c.addi	a3,-1
200012ea:	02d78b63          	beq	a5,a3,20001320 <user_calib_adc_vref.constprop.25+0x74>
E:/promotion/gitlab/opensdk/Mars_B91/telink_rocket_driver_sdk/demo/vendor/common/B91/calibration/calibration.c:72
			/****** Method of calculating two-point gpio calibration Flash_gain and Flash_offset value: ********/
			/****** Vref = [(Seven_Byte << 8) + Six_Byte + 1000]mv ********/
			/****** offset = [Five_Byte - 20] mv ********/
			gpio_calib_value = (adc_vref_calib_value[6] << 8) + adc_vref_calib_value[5] + 1000;
200012ee:	3c07a7db          	bfoz	a5,a5,15,0
E:/promotion/gitlab/opensdk/Mars_B91/telink_rocket_driver_sdk/demo/vendor/common/B91/calibration/calibration.c:74
			gpio_calib_value_offset = adc_vref_calib_value[4] - 20;
			if ((gpio_calib_value > 1047) && (gpio_calib_value < 1300) && (gpio_calib_value_offset > -20) && (gpio_calib_value_offset < 107))
200012f2:	fd078693          	addi	a3,a5,-48
200012f6:	3c06a6db          	bfoz	a3,a3,15,0
200012fa:	0fb00613          	li	a2,251
200012fe:	00d66b63          	bltu	a2,a3,20001314 <user_calib_adc_vref.constprop.25+0x68>
E:/promotion/gitlab/opensdk/Mars_B91/telink_rocket_driver_sdk/demo/vendor/common/B91/calibration/calibration.c:73
			gpio_calib_value_offset = adc_vref_calib_value[4] - 20;
20001302:	1731                	c.addi	a4,-20
20001304:	1c07375b          	bfos	a4,a4,7,0
E:/promotion/gitlab/opensdk/Mars_B91/telink_rocket_driver_sdk/demo/vendor/common/B91/calibration/calibration.c:74
			if ((gpio_calib_value > 1047) && (gpio_calib_value < 1300) && (gpio_calib_value_offset > -20) && (gpio_calib_value_offset < 107))
20001308:	fec00693          	li	a3,-20
2000130c:	00d70463          	beq	a4,a3,20001314 <user_calib_adc_vref.constprop.25+0x68>
20001310:	44b76adb          	bnec	a4,107,20001364 <user_calib_adc_vref.constprop.25+0xb8>
E:/promotion/gitlab/opensdk/Mars_B91/telink_rocket_driver_sdk/demo/vendor/common/B91/calibration/calibration.c:106
				}
			}
		}
	}

	return 0;
20001314:	00000513          	li	a0,0
E:/promotion/gitlab/opensdk/Mars_B91/telink_rocket_driver_sdk/demo/vendor/common/B91/calibration/calibration.c:107
}
20001318:	40f2                	c.lwsp	ra,28(sp)
2000131a:	4462                	c.lwsp	s0,24(sp)
2000131c:	6105                	c.addi16sp	sp,32
2000131e:	8082                	c.jr	ra
efuse_get_adc_calib_value():
D:/release_sdk/v2_3_0_2/telink_b91m_driver_src/chip/B91/drivers/lib/src/sys.c:273
20001320:	80140737          	lui	a4,0x80140
20001324:	06500793          	li	a5,101
20001328:	1ef70a23          	sb	a5,500(a4) # 801401f4 <_DATA_LMA_START+0x6013e574>
D:/release_sdk/v2_3_0_2/telink_b91m_driver_src/chip/B91/drivers/lib/src/sys.c:274
2000132c:	1c872783          	lw	a5,456(a4)
D:/release_sdk/v2_3_0_2/telink_b91m_driver_src/chip/B91/drivers/lib/src/sys.c:275
20001330:	1e070a23          	sb	zero,500(a4)
D:/release_sdk/v2_3_0_2/telink_b91m_driver_src/chip/B91/drivers/lib/src/sys.c:328
20001334:	4c47a7db          	bfoz	a5,a5,19,4
20001338:	3807a75b          	bfoz	a4,a5,14,0
D:/release_sdk/v2_3_0_2/telink_b91m_driver_src/chip/B91/drivers/lib/src/sys.c:329
2000133c:	cb51                	c.beqz	a4,200013d0 <user_calib_adc_vref.constprop.25+0x124>
D:/release_sdk/v2_3_0_2/telink_b91m_driver_src/chip/B91/drivers/lib/src/sys.c:333
2000133e:	1ff7f793          	andi	a5,a5,511
user_calib_adc_vref():
E:/promotion/gitlab/opensdk/Mars_B91/telink_rocket_driver_sdk/demo/vendor/common/B91/calibration/calibration.c:85
				if((gpio_calib_value > 1100) && (gpio_calib_value < 1300) && (gpio_calib_value_offset > -20) && (gpio_calib_value_offset < 43))
20001342:	f9b78693          	addi	a3,a5,-101
20001346:	3c06a6db          	bfoz	a3,a3,15,0
2000134a:	0c600613          	li	a2,198
2000134e:	fcd663e3          	bltu	a2,a3,20001314 <user_calib_adc_vref.constprop.25+0x68>
efuse_get_adc_calib_value():
D:/release_sdk/v2_3_0_2/telink_b91m_driver_src/chip/B91/drivers/lib/src/sys.c:335
20001352:	8325                	c.srli	a4,0x9
20001354:	1731                	c.addi	a4,-20
20001356:	1c07375b          	bfos	a4,a4,7,0
user_calib_adc_vref():
E:/promotion/gitlab/opensdk/Mars_B91/telink_rocket_driver_sdk/demo/vendor/common/B91/calibration/calibration.c:85
2000135a:	56b1                	c.li	a3,-20
2000135c:	fad70ce3          	beq	a4,a3,20001314 <user_calib_adc_vref.constprop.25+0x68>
20001360:	bab75adb          	beqc	a4,43,20001314 <user_calib_adc_vref.constprop.25+0x68>
efuse_get_adc_calib_value():
D:/release_sdk/v2_3_0_2/telink_b91m_driver_src/chip/B91/drivers/lib/src/sys.c:333
20001364:	3e878793          	addi	a5,a5,1000
adc_set_gpio_calib_vref():
E:/promotion/gitlab/opensdk/Mars_B91/telink_rocket_driver_sdk/chip/B91/drivers/adc.c:160
 * @param[in] data - GPIO sampling one-point calibration value.
 * @return none
 */
void adc_set_gpio_calib_vref(unsigned short data)
{
	g_adc_gpio_calib_vref = data;
20001368:	00f41023          	sh	a5,0(s0)
adc_set_gpio_two_point_calib_offset():
E:/promotion/gitlab/opensdk/Mars_B91/telink_rocket_driver_sdk/chip/B91/drivers/adc.c:170
 * @param[in] offset - GPIO sampling two-point calibration value offset.
 * @return none
 */
void adc_set_gpio_two_point_calib_offset(signed char offset)
{
	g_adc_gpio_calib_vref_offset = offset;
2000136c:	00e40123          	sb	a4,2(s0)
user_calib_adc_vref():
E:/promotion/gitlab/opensdk/Mars_B91/telink_rocket_driver_sdk/demo/vendor/common/B91/calibration/calibration.c:89
				return 1;
20001370:	4505                	c.li	a0,1
20001372:	b75d                	c.j	20001318 <user_calib_adc_vref.constprop.25+0x6c>
efuse_get_adc_calib_value():
D:/release_sdk/v2_3_0_2/telink_b91m_driver_src/chip/B91/drivers/lib/src/sys.c:273
20001374:	80140737          	lui	a4,0x80140
20001378:	06500793          	li	a5,101
2000137c:	1ef70a23          	sb	a5,500(a4) # 801401f4 <_DATA_LMA_START+0x6013e574>
D:/release_sdk/v2_3_0_2/telink_b91m_driver_src/chip/B91/drivers/lib/src/sys.c:274
20001380:	1c872783          	lw	a5,456(a4)
D:/release_sdk/v2_3_0_2/telink_b91m_driver_src/chip/B91/drivers/lib/src/sys.c:275
20001384:	1e070a23          	sb	zero,500(a4)
D:/release_sdk/v2_3_0_2/telink_b91m_driver_src/chip/B91/drivers/lib/src/sys.c:328
20001388:	4c47a7db          	bfoz	a5,a5,19,4
2000138c:	3807a75b          	bfoz	a4,a5,14,0
D:/release_sdk/v2_3_0_2/telink_b91m_driver_src/chip/B91/drivers/lib/src/sys.c:329
20001390:	d351                	c.beqz	a4,20001314 <user_calib_adc_vref.constprop.25+0x68>
D:/release_sdk/v2_3_0_2/telink_b91m_driver_src/chip/B91/drivers/lib/src/sys.c:333
20001392:	1ff7f793          	andi	a5,a5,511
user_calib_adc_vref():
E:/promotion/gitlab/opensdk/Mars_B91/telink_rocket_driver_sdk/demo/vendor/common/B91/calibration/calibration.c:53
			if((gpio_calib_value > 1100) && (gpio_calib_value < 1300) && (gpio_calib_value_offset > -20) && (gpio_calib_value_offset < 43))
20001396:	f9b78693          	addi	a3,a5,-101
2000139a:	3c06a6db          	bfoz	a3,a3,15,0
2000139e:	0c600613          	li	a2,198
200013a2:	f6d669e3          	bltu	a2,a3,20001314 <user_calib_adc_vref.constprop.25+0x68>
efuse_get_adc_calib_value():
D:/release_sdk/v2_3_0_2/telink_b91m_driver_src/chip/B91/drivers/lib/src/sys.c:335
200013a6:	8325                	c.srli	a4,0x9
200013a8:	1731                	c.addi	a4,-20
200013aa:	1c07375b          	bfos	a4,a4,7,0
user_calib_adc_vref():
E:/promotion/gitlab/opensdk/Mars_B91/telink_rocket_driver_sdk/demo/vendor/common/B91/calibration/calibration.c:53
200013ae:	56b1                	c.li	a3,-20
200013b0:	f6d702e3          	beq	a4,a3,20001314 <user_calib_adc_vref.constprop.25+0x68>
200013b4:	b6b750db          	beqc	a4,43,20001314 <user_calib_adc_vref.constprop.25+0x68>
adc_set_gpio_calib_vref():
E:/promotion/gitlab/opensdk/Mars_B91/telink_rocket_driver_sdk/chip/B91/drivers/adc.c:160
	g_adc_gpio_calib_vref = data;
200013b8:	000006b7          	lui	a3,0x0
200013bc:	15868693          	addi	a3,a3,344 # 158 <_AES_VMA_END>
efuse_get_adc_calib_value():
D:/release_sdk/v2_3_0_2/telink_b91m_driver_src/chip/B91/drivers/lib/src/sys.c:333
200013c0:	3e878793          	addi	a5,a5,1000
adc_set_gpio_calib_vref():
E:/promotion/gitlab/opensdk/Mars_B91/telink_rocket_driver_sdk/chip/B91/drivers/adc.c:160
200013c4:	00f69023          	sh	a5,0(a3)
adc_set_gpio_two_point_calib_offset():
E:/promotion/gitlab/opensdk/Mars_B91/telink_rocket_driver_sdk/chip/B91/drivers/adc.c:170
	g_adc_gpio_calib_vref_offset = offset;
200013c8:	00e68123          	sb	a4,2(a3)
user_calib_adc_vref():
E:/promotion/gitlab/opensdk/Mars_B91/telink_rocket_driver_sdk/demo/vendor/common/B91/calibration/calibration.c:57
				return 1;
200013cc:	4505                	c.li	a0,1
200013ce:	b7a9                	c.j	20001318 <user_calib_adc_vref.constprop.25+0x6c>
E:/promotion/gitlab/opensdk/Mars_B91/telink_rocket_driver_sdk/demo/vendor/common/B91/calibration/calibration.c:95
				gpio_calib_value = 920 + adc_vref_calib_value[0] + adc_vref_calib_value[1];
200013d0:	00914703          	lbu	a4,9(sp)
200013d4:	00814783          	lbu	a5,8(sp)
E:/promotion/gitlab/opensdk/Mars_B91/telink_rocket_driver_sdk/demo/vendor/common/B91/calibration/calibration.c:97
				if ((gpio_calib_value > 1047) && (gpio_calib_value < 1300))
200013d8:	0fb00693          	li	a3,251
E:/promotion/gitlab/opensdk/Mars_B91/telink_rocket_driver_sdk/demo/vendor/common/B91/calibration/calibration.c:95
				gpio_calib_value = 920 + adc_vref_calib_value[0] + adc_vref_calib_value[1];
200013dc:	97ba                	c.add	a5,a4
E:/promotion/gitlab/opensdk/Mars_B91/telink_rocket_driver_sdk/demo/vendor/common/B91/calibration/calibration.c:97
				if ((gpio_calib_value > 1047) && (gpio_calib_value < 1300))
200013de:	f8078713          	addi	a4,a5,-128
200013e2:	3c07275b          	bfoz	a4,a4,15,0
200013e6:	f2e6e7e3          	bltu	a3,a4,20001314 <user_calib_adc_vref.constprop.25+0x68>
E:/promotion/gitlab/opensdk/Mars_B91/telink_rocket_driver_sdk/demo/vendor/common/B91/calibration/calibration.c:95
				gpio_calib_value = 920 + adc_vref_calib_value[0] + adc_vref_calib_value[1];
200013ea:	39878793          	addi	a5,a5,920
adc_set_gpio_calib_vref():
E:/promotion/gitlab/opensdk/Mars_B91/telink_rocket_driver_sdk/chip/B91/drivers/adc.c:160
	g_adc_gpio_calib_vref = data;
200013ee:	00f41023          	sh	a5,0(s0)
user_calib_adc_vref():
E:/promotion/gitlab/opensdk/Mars_B91/telink_rocket_driver_sdk/demo/vendor/common/B91/calibration/calibration.c:100
					return 1;
200013f2:	4505                	c.li	a0,1
200013f4:	b715                	c.j	20001318 <user_calib_adc_vref.constprop.25+0x6c>
	...

200013f8 <user_calib_freq_offset.constprop.24>:
user_calib_freq_offset():
E:/promotion/gitlab/opensdk/Mars_B91/telink_rocket_driver_sdk/demo/vendor/common/B91/calibration/calibration.c:120
unsigned char user_calib_freq_offset(user_calib_from_e velfrom, unsigned int addr)
{
	unsigned char frequency_offset_value = 0xff;
	if(velfrom == USER_CALIB_FROM_FLASH)
	{
		flash_read_page(addr, 1, &frequency_offset_value);
200013f8:	000007b7          	lui	a5,0x0
E:/promotion/gitlab/opensdk/Mars_B91/telink_rocket_driver_sdk/demo/vendor/common/B91/calibration/calibration.c:115
unsigned char user_calib_freq_offset(user_calib_from_e velfrom, unsigned int addr)
200013fc:	1101                	c.addi	sp,-32
E:/promotion/gitlab/opensdk/Mars_B91/telink_rocket_driver_sdk/demo/vendor/common/B91/calibration/calibration.c:120
		flash_read_page(addr, 1, &frequency_offset_value);
200013fe:	15c7a783          	lw	a5,348(a5) # 15c <flash_read_page>
E:/promotion/gitlab/opensdk/Mars_B91/telink_rocket_driver_sdk/demo/vendor/common/B91/calibration/calibration.c:117
	unsigned char frequency_offset_value = 0xff;
20001402:	577d                	c.li	a4,-1
E:/promotion/gitlab/opensdk/Mars_B91/telink_rocket_driver_sdk/demo/vendor/common/B91/calibration/calibration.c:120
		flash_read_page(addr, 1, &frequency_offset_value);
20001404:	00f10613          	addi	a2,sp,15
20001408:	4585                	c.li	a1,1
E:/promotion/gitlab/opensdk/Mars_B91/telink_rocket_driver_sdk/demo/vendor/common/B91/calibration/calibration.c:115
unsigned char user_calib_freq_offset(user_calib_from_e velfrom, unsigned int addr)
2000140a:	cc22                	c.swsp	s0,24(sp)
2000140c:	ce06                	c.swsp	ra,28(sp)
E:/promotion/gitlab/opensdk/Mars_B91/telink_rocket_driver_sdk/demo/vendor/common/B91/calibration/calibration.c:117
	unsigned char frequency_offset_value = 0xff;
2000140e:	00e107a3          	sb	a4,15(sp)
E:/promotion/gitlab/opensdk/Mars_B91/telink_rocket_driver_sdk/demo/vendor/common/B91/calibration/calibration.c:120
		flash_read_page(addr, 1, &frequency_offset_value);
20001412:	9782                	c.jalr	a5
E:/promotion/gitlab/opensdk/Mars_B91/telink_rocket_driver_sdk/demo/vendor/common/B91/calibration/calibration.c:122
	}
	if(0xff != frequency_offset_value)
20001414:	00f14403          	lbu	s0,15(sp)
20001418:	0ff00793          	li	a5,255
E:/promotion/gitlab/opensdk/Mars_B91/telink_rocket_driver_sdk/demo/vendor/common/B91/calibration/calibration.c:128
	{
		rf_update_internal_cap(frequency_offset_value);
		return 1;
	}

	return 0;
2000141c:	00000513          	li	a0,0
E:/promotion/gitlab/opensdk/Mars_B91/telink_rocket_driver_sdk/demo/vendor/common/B91/calibration/calibration.c:122
	if(0xff != frequency_offset_value)
20001420:	02f40663          	beq	s0,a5,2000144c <user_calib_freq_offset.constprop.24+0x54>
rf_update_internal_cap():
D:/release_sdk/v2_3_0_2/telink_b91m_driver_src/chip/B91/drivers/lib/src/rf.c:1526
20001424:	08a00513          	li	a0,138
20001428:	dffff097          	auipc	ra,0xdffff
2000142c:	264080e7          	jalr	612(ra) # 68c <analog_read_reg8>
20001430:	03f47413          	andi	s0,s0,63
20001434:	04057593          	andi	a1,a0,64
20001438:	0085e5b3          	or	a1,a1,s0
2000143c:	08a00513          	li	a0,138
20001440:	dffff097          	auipc	ra,0xdffff
20001444:	208080e7          	jalr	520(ra) # 648 <analog_write_reg8>
user_calib_freq_offset():
E:/promotion/gitlab/opensdk/Mars_B91/telink_rocket_driver_sdk/demo/vendor/common/B91/calibration/calibration.c:125
		return 1;
20001448:	00100513          	li	a0,1
E:/promotion/gitlab/opensdk/Mars_B91/telink_rocket_driver_sdk/demo/vendor/common/B91/calibration/calibration.c:129
}
2000144c:	40f2                	c.lwsp	ra,28(sp)
2000144e:	4462                	c.lwsp	s0,24(sp)
20001450:	6105                	c.addi16sp	sp,32
20001452:	8082                	c.jr	ra
user_calib_freq_offset.constprop.24():
20001454:	0001                	c.nop
	...

20001458 <main>:
main():
E:/promotion/gitlab/opensdk/Mars_B91/telink_rocket_driver_sdk/demo/vendor/ADC_Demo/main.c:37
 * @brief		This is main function
 * @param[in]	none
 * @return      none
 */
int main(void)
{
20001458:	7159                	c.addi16sp	sp,-112
sys_init():
D:/release_sdk/v2_3_0_2/telink_b91m_driver_src/chip/B91/drivers/lib/src/sys.c:115
2000145a:	ffbc07b7          	lui	a5,0xffbc0
2000145e:	17fd                	c.addi	a5,-1
20001460:	80140737          	lui	a4,0x80140
main():
E:/promotion/gitlab/opensdk/Mars_B91/telink_rocket_driver_sdk/demo/vendor/ADC_Demo/main.c:37
20001464:	d686                	c.swsp	ra,108(sp)
20001466:	d4a2                	c.swsp	s0,104(sp)
20001468:	d2a6                	c.swsp	s1,100(sp)
2000146a:	d0ca                	c.swsp	s2,96(sp)
2000146c:	cece                	c.swsp	s3,92(sp)
2000146e:	ccd2                	c.swsp	s4,88(sp)
20001470:	cad6                	c.swsp	s5,84(sp)
20001472:	c8da                	c.swsp	s6,80(sp)
20001474:	c6de                	c.swsp	s7,76(sp)
20001476:	c4e2                	c.swsp	s8,72(sp)
20001478:	c2e6                	c.swsp	s9,68(sp)
2000147a:	c0ea                	c.swsp	s10,64(sp)
2000147c:	de6e                	c.swsp	s11,60(sp)
sys_init():
D:/release_sdk/v2_3_0_2/telink_b91m_driver_src/chip/B91/drivers/lib/src/sys.c:115
2000147e:	1ef72023          	sw	a5,480(a4) # 801401e0 <_DATA_LMA_START+0x6013e560>
D:/release_sdk/v2_3_0_2/telink_b91m_driver_src/chip/B91/drivers/lib/src/sys.c:118
20001482:	4589                	c.li	a1,2
20001484:	08c00513          	li	a0,140
D:/release_sdk/v2_3_0_2/telink_b91m_driver_src/chip/B91/drivers/lib/src/sys.c:116
20001488:	1ef72223          	sw	a5,484(a4)
D:/release_sdk/v2_3_0_2/telink_b91m_driver_src/chip/B91/drivers/lib/src/sys.c:118
2000148c:	dffff097          	auipc	ra,0xdffff
20001490:	1bc080e7          	jalr	444(ra) # 648 <analog_write_reg8>
D:/release_sdk/v2_3_0_2/telink_b91m_driver_src/chip/B91/drivers/lib/src/sys.c:128
20001494:	4581                	c.li	a1,0
20001496:	4529                	c.li	a0,10
20001498:	dffff097          	auipc	ra,0xdffff
2000149c:	1b0080e7          	jalr	432(ra) # 648 <analog_write_reg8>
D:/release_sdk/v2_3_0_2/telink_b91m_driver_src/chip/B91/drivers/lib/src/sys.c:135
200014a0:	03b00593          	li	a1,59
200014a4:	00b00513          	li	a0,11
200014a8:	dffff097          	auipc	ra,0xdffff
200014ac:	1a0080e7          	jalr	416(ra) # 648 <analog_write_reg8>
D:/release_sdk/v2_3_0_2/telink_b91m_driver_src/chip/B91/drivers/lib/src/sys.c:137
200014b0:	00500513          	li	a0,5
200014b4:	dffff097          	auipc	ra,0xdffff
200014b8:	1d8080e7          	jalr	472(ra) # 68c <analog_read_reg8>
200014bc:	0f757593          	andi	a1,a0,247
200014c0:	00500513          	li	a0,5
200014c4:	dffff097          	auipc	ra,0xdffff
200014c8:	184080e7          	jalr	388(ra) # 648 <analog_write_reg8>
D:/release_sdk/v2_3_0_2/telink_b91m_driver_src/chip/B91/drivers/lib/src/sys.c:139
200014cc:	00600513          	li	a0,6
200014d0:	dffff097          	auipc	ra,0xdffff
200014d4:	1bc080e7          	jalr	444(ra) # 68c <analog_read_reg8>
200014d8:	03e57593          	andi	a1,a0,62
200014dc:	00600513          	li	a0,6
200014e0:	dffff097          	auipc	ra,0xdffff
200014e4:	168080e7          	jalr	360(ra) # 648 <analog_write_reg8>
D:/release_sdk/v2_3_0_2/telink_b91m_driver_src/chip/B91/drivers/lib/src/sys.c:144
200014e8:	04500593          	li	a1,69
200014ec:	00100513          	li	a0,1
200014f0:	dffff097          	auipc	ra,0xdffff
200014f4:	158080e7          	jalr	344(ra) # 648 <analog_write_reg8>
D:/release_sdk/v2_3_0_2/telink_b91m_driver_src/chip/B91/drivers/lib/src/sys.c:150
200014f8:	04c00593          	li	a1,76
200014fc:	01c00513          	li	a0,28
20001500:	dffff097          	auipc	ra,0xdffff
20001504:	148080e7          	jalr	328(ra) # 648 <analog_write_reg8>
20001508:	001007b7          	lui	a5,0x100
2000150c:	44478693          	addi	a3,a5,1092 # 100444 <FLASH_SIZE+0x444>
D:\release_sdk\v2_3_0_2\telink_b91m_driver_src\chip\B91\drivers/dma.h:203
20001510:	800005b7          	lui	a1,0x80000
D:/release_sdk/v2_3_0_2/telink_b91m_driver_src/chip/B91/drivers/lib/src/sys.c:154
20001514:	4e478713          	addi	a4,a5,1252
D:\release_sdk\v2_3_0_2\telink_b91m_driver_src\chip\B91\drivers/dma.h:203
20001518:	00b6e633          	or	a2,a3,a1
2000151c:	00060783          	lb	a5,0(a2)
20001520:	01468693          	addi	a3,a3,20
20001524:	0ff7f793          	andi	a5,a5,255
20001528:	00e7e793          	ori	a5,a5,14
2000152c:	00f60023          	sb	a5,0(a2)
D:/release_sdk/v2_3_0_2/telink_b91m_driver_src/chip/B91/drivers/lib/src/sys.c:154
20001530:	fee694e3          	bne	a3,a4,20001518 <main+0xc0>
20001534:	801017b7          	lui	a5,0x80101
20001538:	83a78703          	lb	a4,-1990(a5) # 8010083a <_DATA_LMA_START+0x600febba>
pm_update_status_info():
D:/release_sdk/v2_3_0_2/telink_b91m_driver_src/chip/B91/drivers/lib/src/pm.c:223
2000153c:	03800513          	li	a0,56
sys_init():
D:\release_sdk\v2_3_0_2\telink_b91m_driver_src\chip\B91\drivers/usbhw.h:154
20001540:	82078d23          	sb	zero,-1990(a5)
pm_update_status_info():
D:/release_sdk/v2_3_0_2/telink_b91m_driver_src/chip/B91/drivers/lib/src/pm.c:223
20001544:	dffff097          	auipc	ra,0xdffff
20001548:	148080e7          	jalr	328(ra) # 68c <analog_read_reg8>
2000154c:	00a00433          	add	s0,zero,a0
D:/release_sdk/v2_3_0_2/telink_b91m_driver_src/chip/B91/drivers/lib/src/pm.c:224
20001550:	03900513          	li	a0,57
20001554:	dffff097          	auipc	ra,0xdffff
20001558:	138080e7          	jalr	312(ra) # 68c <analog_read_reg8>
2000155c:	84aa                	c.mv	s1,a0
D:/release_sdk/v2_3_0_2/telink_b91m_driver_src/chip/B91/drivers/lib/src/pm.c:225
2000155e:	0e04735b          	bbc	s0,0,20001644 <main+0x1ec>
20001562:	0fe47593          	andi	a1,s0,254
D:/release_sdk/v2_3_0_2/telink_b91m_driver_src/chip/B91/drivers/lib/src/pm.c:226
20001566:	1604fd5b          	bbc	s1,0,200016e0 <main+0x288>
D:/release_sdk/v2_3_0_2/telink_b91m_driver_src/chip/B91/drivers/lib/src/pm.c:227
2000156a:	831f940b          	addigp	s0,-2000 # 80030 <g_pm_status_info>
2000156e:	4791                	c.li	a5,4
D:/release_sdk/v2_3_0_2/telink_b91m_driver_src/chip/B91/drivers/lib/src/pm.c:228
20001570:	03800513          	li	a0,56
D:/release_sdk/v2_3_0_2/telink_b91m_driver_src/chip/B91/drivers/lib/src/pm.c:227
20001574:	00f40123          	sb	a5,2(s0)
D:/release_sdk/v2_3_0_2/telink_b91m_driver_src/chip/B91/drivers/lib/src/pm.c:228
20001578:	dffff097          	auipc	ra,0xdffff
2000157c:	0d0080e7          	jalr	208(ra) # 648 <analog_write_reg8>
D:/release_sdk/v2_3_0_2/telink_b91m_driver_src/chip/B91/drivers/lib/src/pm.c:244
20001580:	00100593          	li	a1,1
20001584:	07f00513          	li	a0,127
20001588:	dffff097          	auipc	ra,0xdffff
2000158c:	0c0080e7          	jalr	192(ra) # 648 <analog_write_reg8>
pm_get_wakeup_src():
D:\release_sdk\v2_3_0_2\telink_b91m_driver_src\chip\B91\drivers/lib/include/pm.h:239
20001590:	06400513          	li	a0,100
20001594:	dffff097          	auipc	ra,0xdffff
20001598:	0f8080e7          	jalr	248(ra) # 68c <analog_read_reg8>
pm_update_status_info():
D:/release_sdk/v2_3_0_2/telink_b91m_driver_src/chip/B91/drivers/lib/src/pm.c:246
2000159c:	0c3527db          	bfoz	a5,a0,3,3
D:/release_sdk/v2_3_0_2/telink_b91m_driver_src/chip/B91/drivers/lib/src/pm.c:245
200015a0:	00a400a3          	sb	a0,1(s0)
D:/release_sdk/v2_3_0_2/telink_b91m_driver_src/chip/B91/drivers/lib/src/pm.c:246
200015a4:	00f40023          	sb	a5,0(s0)
sys_init():
D:/release_sdk/v2_3_0_2/telink_b91m_driver_src/chip/B91/drivers/lib/src/sys.c:165
200015a8:	08800513          	li	a0,136
200015ac:	dffff097          	auipc	ra,0xdffff
200015b0:	0e0080e7          	jalr	224(ra) # 68c <analog_read_reg8>
200015b4:	be757a5b          	bbc	a0,7,200015a8 <main+0x150>
D:/release_sdk/v2_3_0_2/telink_b91m_driver_src/chip/B91/drivers/lib/src/sys.c:170
200015b8:	dffff097          	auipc	ra,0xdffff
200015bc:	260080e7          	jalr	608(ra) # 818 <pm_wait_bbpll_done>
D:/release_sdk/v2_3_0_2/telink_b91m_driver_src/chip/B91/drivers/lib/src/sys.c:172
200015c0:	00244783          	lbu	a5,2(s0)
200015c4:	0e87d25b          	beqc	a5,8,200016a8 <main+0x250>
D:/release_sdk/v2_3_0_2/telink_b91m_driver_src/chip/B91/drivers/lib/src/sys.c:177
200015c8:	80140737          	lui	a4,0x80140
200015cc:	20a70783          	lb	a5,522(a4) # 8014020a <_DATA_LMA_START+0x6013e58a>
200015d0:	0ff7f793          	andi	a5,a5,255
200015d4:	00c7e793          	ori	a5,a5,12
200015d8:	20f70523          	sb	a5,522(a4)
D:/release_sdk/v2_3_0_2/telink_b91m_driver_src/chip/B91/drivers/lib/src/sys.c:178
200015dc:	00100793          	li	a5,1
200015e0:	20f72023          	sw	a5,512(a4)
D:/release_sdk/v2_3_0_2/telink_b91m_driver_src/chip/B91/drivers/lib/src/sys.c:184
200015e4:	801404b7          	lui	s1,0x80140
200015e8:	1fd48783          	lb	a5,509(s1) # 801401fd <_DATA_LMA_START+0x6013e57d>
200015ec:	0ff7f793          	andi	a5,a5,255
200015f0:	82ffc7ab          	swgp	a5,-2004 # 8002c <g_chip_version>
D:/release_sdk/v2_3_0_2/telink_b91m_driver_src/chip/B91/drivers/lib/src/sys.c:187
200015f4:	00244703          	lbu	a4,2(s0)
200015f8:	06475e5b          	beqc	a4,4,20001674 <main+0x21c>
D:/release_sdk/v2_3_0_2/telink_b91m_driver_src/chip/B91/drivers/lib/src/sys.c:195
200015fc:	0ff00693          	li	a3,255
20001600:	06d78263          	beq	a5,a3,20001664 <main+0x20c>
D:/release_sdk/v2_3_0_2/telink_b91m_driver_src/chip/B91/drivers/lib/src/sys.c:203
20001604:	08000593          	li	a1,128
20001608:	07d00513          	li	a0,125
2000160c:	dffff097          	auipc	ra,0xdffff
20001610:	03c080e7          	jalr	60(ra) # 648 <analog_write_reg8>
efuse_get_low_word():
D:/release_sdk/v2_3_0_2/telink_b91m_driver_src/chip/B91/drivers/lib/src/sys.c:273
20001614:	80140737          	lui	a4,0x80140
20001618:	06500793          	li	a5,101
2000161c:	1ef70a23          	sb	a5,500(a4) # 801401f4 <_DATA_LMA_START+0x6013e574>
D:/release_sdk/v2_3_0_2/telink_b91m_driver_src/chip/B91/drivers/lib/src/sys.c:274
20001620:	1c872783          	lw	a5,456(a4)
D:/release_sdk/v2_3_0_2/telink_b91m_driver_src/chip/B91/drivers/lib/src/sys.c:275
20001624:	1e070a23          	sb	zero,500(a4)
efuse_check_protection_code():
D:/release_sdk/v2_3_0_2/telink_b91m_driver_src/chip/B91/drivers/lib/src/sys.c:63
20001628:	8bbd                	c.andi	a5,15
D:/release_sdk/v2_3_0_2/telink_b91m_driver_src/chip/B91/drivers/lib/src/sys.c:67
2000162a:	0037d55b          	beqc	a5,3,20001634 <main+0x1dc>
2000162e:	4725                	c.li	a4,9
20001630:	0ef77063          	bgeu	a4,a5,20001710 <main+0x2b8>
D:/release_sdk/v2_3_0_2/telink_b91m_driver_src/chip/B91/drivers/lib/src/sys.c:69
20001634:	801407b7          	lui	a5,0x80140
20001638:	02000713          	li	a4,32
2000163c:	1ee787a3          	sb	a4,495(a5) # 801401ef <_DATA_LMA_START+0x6013e56f>
20001640:	0000006f          	j	20001640 <main+0x1e8>
pm_get_deep_retention_flag():
D:\release_sdk\v2_3_0_2\telink_b91m_driver_src\chip\B91\drivers/lib/include/pm.h:230
20001644:	07f00513          	li	a0,127
20001648:	dffff097          	auipc	ra,0xdffff
2000164c:	044080e7          	jalr	68(ra) # 68c <analog_read_reg8>
pm_update_status_info():
D:/release_sdk/v2_3_0_2/telink_b91m_driver_src/chip/B91/drivers/lib/src/pm.c:235
20001650:	0805725b          	bbc	a0,0,200016d4 <main+0x27c>
D:/release_sdk/v2_3_0_2/telink_b91m_driver_src/chip/B91/drivers/lib/src/pm.c:237
20001654:	4614f05b          	bbs	s1,1,200016b4 <main+0x25c>
D:/release_sdk/v2_3_0_2/telink_b91m_driver_src/chip/B91/drivers/lib/src/pm.c:241
20001658:	831f940b          	addigp	s0,-2000 # 80030 <g_pm_status_info>
2000165c:	47c1                	c.li	a5,16
2000165e:	00f40123          	sb	a5,2(s0)
20001662:	bf39                	c.j	20001580 <main+0x128>
sys_init():
D:/release_sdk/v2_3_0_2/telink_b91m_driver_src/chip/B91/drivers/lib/src/sys.c:197
20001664:	ba17605b          	bnec	a4,1,20001604 <main+0x1ac>
D:/release_sdk/v2_3_0_2/telink_b91m_driver_src/chip/B91/drivers/lib/src/sys.c:199
20001668:	07d00513          	li	a0,125
2000166c:	08000593          	li	a1,128
20001670:	01c0006f          	j	2000168c <main+0x234>
D:/release_sdk/v2_3_0_2/telink_b91m_driver_src/chip/B91/drivers/lib/src/sys.c:190
20001674:	03900513          	li	a0,57
20001678:	dffff097          	auipc	ra,0xdffff
2000167c:	014080e7          	jalr	20(ra) # 68c <analog_read_reg8>
20001680:	00256593          	ori	a1,a0,2
20001684:	0ff5f593          	andi	a1,a1,255
20001688:	03900513          	li	a0,57
D:/release_sdk/v2_3_0_2/telink_b91m_driver_src/chip/B91/drivers/lib/src/sys.c:199
2000168c:	dffff097          	auipc	ra,0xdffff
20001690:	fbc080e7          	jalr	-68(ra) # 648 <analog_write_reg8>
D:\release_sdk\v2_3_0_2\telink_b91m_driver_src\chip\B91\drivers/stimer.h:169
20001694:	2004a503          	lw	a0,512(s1)
D:/release_sdk/v2_3_0_2/telink_b91m_driver_src/chip/B91/drivers/lib/src/sys.c:200
20001698:	001877b7          	lui	a5,0x187
2000169c:	a0078793          	addi	a5,a5,-1536 # 186a00 <FLASH_SIZE+0x86a00>
200016a0:	953e                	c.add	a0,a5
200016a2:	36fd                	c.jal	20001290 <pm_sleep_wakeup.constprop.19>
200016a4:	f61ff06f          	j	20001604 <main+0x1ac>
D:/release_sdk/v2_3_0_2/telink_b91m_driver_src/chip/B91/drivers/lib/src/sys.c:174
200016a8:	dffff097          	auipc	ra,0xdffff
200016ac:	cd4080e7          	jalr	-812(ra) # 37c <pm_stimer_recover>
200016b0:	f35ff06f          	j	200015e4 <main+0x18c>
pm_update_status_info():
D:/release_sdk/v2_3_0_2/telink_b91m_driver_src/chip/B91/drivers/lib/src/pm.c:238
200016b4:	831f940b          	addigp	s0,-2000 # 80030 <g_pm_status_info>
200016b8:	02000793          	li	a5,32
D:/release_sdk/v2_3_0_2/telink_b91m_driver_src/chip/B91/drivers/lib/src/pm.c:239
200016bc:	0fd4f593          	andi	a1,s1,253
200016c0:	03900513          	li	a0,57
D:/release_sdk/v2_3_0_2/telink_b91m_driver_src/chip/B91/drivers/lib/src/pm.c:238
200016c4:	00f40123          	sb	a5,2(s0)
D:/release_sdk/v2_3_0_2/telink_b91m_driver_src/chip/B91/drivers/lib/src/pm.c:239
200016c8:	dffff097          	auipc	ra,0xdffff
200016cc:	f80080e7          	jalr	-128(ra) # 648 <analog_write_reg8>
200016d0:	eb1ff06f          	j	20001580 <main+0x128>
D:/release_sdk/v2_3_0_2/telink_b91m_driver_src/chip/B91/drivers/lib/src/pm.c:236
200016d4:	831f940b          	addigp	s0,-2000 # 80030 <g_pm_status_info>
200016d8:	47a1                	c.li	a5,8
200016da:	00f40123          	sb	a5,2(s0)
200016de:	b54d                	c.j	20001580 <main+0x128>
D:/release_sdk/v2_3_0_2/telink_b91m_driver_src/chip/B91/drivers/lib/src/pm.c:230
200016e0:	00100793          	li	a5,1
200016e4:	831f940b          	addigp	s0,-2000 # 80030 <g_pm_status_info>
D:/release_sdk/v2_3_0_2/telink_b91m_driver_src/chip/B91/drivers/lib/src/pm.c:231
200016e8:	03800513          	li	a0,56
D:/release_sdk/v2_3_0_2/telink_b91m_driver_src/chip/B91/drivers/lib/src/pm.c:230
200016ec:	00f40123          	sb	a5,2(s0)
D:/release_sdk/v2_3_0_2/telink_b91m_driver_src/chip/B91/drivers/lib/src/pm.c:231
200016f0:	dffff097          	auipc	ra,0xdffff
200016f4:	f58080e7          	jalr	-168(ra) # 648 <analog_write_reg8>
D:/release_sdk/v2_3_0_2/telink_b91m_driver_src/chip/B91/drivers/lib/src/pm.c:232
200016f8:	0014e593          	ori	a1,s1,1
200016fc:	0ff5f593          	andi	a1,a1,255
20001700:	03900513          	li	a0,57
20001704:	dffff097          	auipc	ra,0xdffff
20001708:	f44080e7          	jalr	-188(ra) # 648 <analog_write_reg8>
2000170c:	e75ff06f          	j	20001580 <main+0x128>
gpio_set_up_down_res():
E:/promotion/gitlab/opensdk/Mars_B91/telink_rocket_driver_sdk/chip/B91/drivers/gpio.c:398
			mask_not = 0x3f;
		}
		else{
			return;
		}
	analog_write_reg8(base_ana_reg, (analog_read_reg8(base_ana_reg) & mask_not) | (r_val << shift_num));
20001710:	00f00513          	li	a0,15
20001714:	dffff097          	auipc	ra,0xdffff
20001718:	f78080e7          	jalr	-136(ra) # 68c <analog_read_reg8>
2000171c:	03f57593          	andi	a1,a0,63
20001720:	0405e593          	ori	a1,a1,64
20001724:	00f00513          	li	a0,15
20001728:	dffff097          	auipc	ra,0xdffff
2000172c:	f20080e7          	jalr	-224(ra) # 648 <analog_write_reg8>
user_read_flash_value_calib():
E:/promotion/gitlab/opensdk/Mars_B91/telink_rocket_driver_sdk/demo/vendor/common/B91/calibration/calibration.c:145
	unsigned char flash_mid[4];
	unsigned char flash_uid[16];
	unsigned char flash_mid_sure = 0;

	/******check for flash mid********/
	flash_mid_sure = flash_read_mid_uid_with_check((unsigned int *)flash_mid, flash_uid);
20001730:	100c                	c.addi4spn	a1,sp,32
20001732:	0868                	c.addi4spn	a0,sp,28
20001734:	a85ff0ef          	jal	ra,200011b8 <flash_read_mid_uid_with_check>
E:/promotion/gitlab/opensdk/Mars_B91/telink_rocket_driver_sdk/demo/vendor/common/B91/calibration/calibration.c:147

	if (1 == flash_mid_sure)
20001738:	0ff57513          	andi	a0,a0,255
2000173c:	0015545b          	beqc	a0,1,20001744 <main+0x2ec>
20001740:	5000006f          	j	20001c40 <main+0x7e8>
E:/promotion/gitlab/opensdk/Mars_B91/telink_rocket_driver_sdk/demo/vendor/common/B91/calibration/calibration.c:149
	{
		switch (flash_mid[2])
20001744:	01e14783          	lbu	a5,30(sp)
20001748:	474d                	c.li	a4,19
2000174a:	0137e45b          	bnec	a5,19,20001752 <main+0x2fa>
2000174e:	4da0006f          	j	20001c28 <main+0x7d0>
20001752:	4af77b63          	bgeu	a4,a5,20001c08 <main+0x7b0>
20001756:	4755                	c.li	a4,21
20001758:	0157e45b          	bnec	a5,21,20001760 <main+0x308>
2000175c:	4940006f          	j	20001bf0 <main+0x798>
20001760:	46e7ec63          	bltu	a5,a4,20001bd8 <main+0x780>
20001764:	0167d45b          	beqc	a5,22,2000176c <main+0x314>
20001768:	4d80006f          	j	20001c40 <main+0x7e8>
E:/promotion/gitlab/opensdk/Mars_B91/telink_rocket_driver_sdk/demo/vendor/common/B91/calibration/calibration.c:172
			case FLASH_SIZE_2M:
				user_calib_adc_vref(USER_CALIB_FROM_FLASH, FLASH_ADC_VREF_CALIB_ADDR_2M);
				user_calib_freq_offset(USER_CALIB_FROM_FLASH, FLASH_CAP_VALUE_ADDR_2M);
				break;
			case FLASH_SIZE_4M:
				user_calib_adc_vref(USER_CALIB_FROM_FLASH, FLASH_ADC_VREF_CALIB_ADDR_4M);
2000176c:	003fe537          	lui	a0,0x3fe
20001770:	0c050513          	addi	a0,a0,192 # 3fe0c0 <FLASH_SIZE+0x2fe0c0>
20001774:	b39ff0ef          	jal	ra,200012ac <user_calib_adc_vref.constprop.25>
E:/promotion/gitlab/opensdk/Mars_B91/telink_rocket_driver_sdk/demo/vendor/common/B91/calibration/calibration.c:173
				user_calib_freq_offset(USER_CALIB_FROM_FLASH, FLASH_CAP_VALUE_ADDR_4M);
20001778:	003fe537          	lui	a0,0x3fe
2000177c:	c7dff0ef          	jal	ra,200013f8 <user_calib_freq_offset.constprop.24>
main():
E:/promotion/gitlab/opensdk/Mars_B91/telink_rocket_driver_sdk/demo/vendor/ADC_Demo/main.c:39
	PLATFORM_INIT;
	CLOCK_INIT;
20001780:	af5ff0ef          	jal	ra,20001274 <clock_init.constprop.0>
gpio_function_en():
E:/promotion/gitlab/opensdk/Mars_B91/telink_rocket_driver_sdk/chip/B91/drivers/gpio.h:195
	BM_SET(reg_gpio_func(pin), bit);
20001784:	801404b7          	lui	s1,0x80140
20001788:	30e48783          	lb	a5,782(s1) # 8014030e <_DATA_LMA_START+0x6013e68e>
2000178c:	0ff7f793          	andi	a5,a5,255
20001790:	0107e793          	ori	a5,a5,16
20001794:	30f48723          	sb	a5,782(s1)
gpio_output_en():
E:/promotion/gitlab/opensdk/Mars_B91/telink_rocket_driver_sdk/chip/B91/drivers/gpio.h:303
 * @return     none.
 */
static inline void gpio_output_en(gpio_pin_e pin)
{
	unsigned char	bit = pin & 0xff;
	BM_CLR(reg_gpio_oen(pin), bit);
20001798:	30a48783          	lb	a5,778(s1)
adc_set_dma_config():
E:/promotion/gitlab/opensdk/Mars_B91/telink_rocket_driver_sdk/chip/B91/drivers/adc.c:63
	adc_dma_chn = chn;
2000179c:	811f990b          	addigp	s2,-2032 # 80010 <_BSS_VMA_START>
gpio_output_en():
E:/promotion/gitlab/opensdk/Mars_B91/telink_rocket_driver_sdk/chip/B91/drivers/gpio.h:303
200017a0:	0ef7f793          	andi	a5,a5,239
200017a4:	30f48523          	sb	a5,778(s1)
adc_set_dma_config():
E:/promotion/gitlab/opensdk/Mars_B91/telink_rocket_driver_sdk/chip/B91/drivers/adc.c:63
200017a8:	479d                	c.li	a5,7
200017aa:	00f90023          	sb	a5,0(s2)
dma_config():
E:/promotion/gitlab/opensdk/Mars_B91/telink_rocket_driver_sdk/chip/B91/drivers/dma.h:159
 * @return    none
 * @note      When a certain dma channel has not finished the transmission (bit 0 of reg_dma_ctr0(chn): 1-the transmission has not been completed,0-the transmission is completed),need to disable dma before writing to the dma register.
 */
static inline void dma_config(dma_chn_e chn ,dma_config_t *config)
{
	reg_dma_ctrl(chn) = (reg_dma_ctrl(chn)&(~BIT_RNG(4,31)))|((*(unsigned int*)config)<<4);
200017ae:	801006b7          	lui	a3,0x80100
200017b2:	4d06a703          	lw	a4,1232(a3) # 801004d0 <_DATA_LMA_START+0x600fe850>
200017b6:	80bfa7ab          	lwgp	a5,-2040 # 80008 <adc_rx_dma_config>
200017ba:	8b3d                	c.andi	a4,15
200017bc:	0792                	c.slli	a5,0x4
200017be:	8fd9                	c.or	a5,a4
200017c0:	4cf6a823          	sw	a5,1232(a3)
dma_clr_irq_mask():
E:/promotion/gitlab/opensdk/Mars_B91/telink_rocket_driver_sdk/chip/B91/drivers/dma.h:203
 * @return    none
 * attention the mask of dma tc/err/abt is enable default.we must disable when don'n use it.
 */
static inline void dma_clr_irq_mask(dma_chn_e chn,dma_irq_mask_e mask)
{
	reg_dma_ctr0(chn) |= (mask);
200017c4:	00094683          	lbu	a3,0(s2)
200017c8:	001007b7          	lui	a5,0x100
200017cc:	4751                	c.li	a4,20
200017ce:	44478793          	addi	a5,a5,1092 # 100444 <FLASH_SIZE+0x444>
200017d2:	c4e697ff          	maddr32	a5,a3,a4
200017d6:	80000737          	lui	a4,0x80000
200017da:	8fd9                	c.or	a5,a4
200017dc:	00078703          	lb	a4,0(a5)
adc_gpio_sample_init():
E:/promotion/gitlab/opensdk/Mars_B91/telink_rocket_driver_sdk/chip/B91/drivers/adc.c:292
 *			changed by chaofan.20201230.
 *		      In order to switch the pin of the ADC, it can be done by calling the interface 'adc_pin_config' and 'adc_set_diff_input'.
 */
void adc_gpio_sample_init(adc_input_pin_def_e pin,adc_ref_vol_e v_ref,adc_pre_scale_e pre_scale,adc_sample_freq_e sample_freq)
{
	g_adc_vref = g_adc_gpio_calib_vref;//set gpio sample calib vref
200017e0:	00000437          	lui	s0,0x0
dma_clr_irq_mask():
E:/promotion/gitlab/opensdk/Mars_B91/telink_rocket_driver_sdk/chip/B91/drivers/dma.h:203
200017e4:	0ff77713          	andi	a4,a4,255
200017e8:	00e76713          	ori	a4,a4,14
200017ec:	00e78023          	sb	a4,0(a5)
dma_set_irq_mask():
E:/promotion/gitlab/opensdk/Mars_B91/telink_rocket_driver_sdk/chip/B91/drivers/dma.h:191
	reg_dma_ctr0(chn) = (reg_dma_ctr0(chn) | BIT_RNG(1,3)) & (~(mask));
200017f0:	00078703          	lb	a4,0(a5)
adc_gpio_sample_init():
E:/promotion/gitlab/opensdk/Mars_B91/telink_rocket_driver_sdk/chip/B91/drivers/adc.c:292
200017f4:	15840413          	addi	s0,s0,344 # 158 <_AES_VMA_END>
dma_set_irq_mask():
E:/promotion/gitlab/opensdk/Mars_B91/telink_rocket_driver_sdk/chip/B91/drivers/dma.h:191
200017f8:	0f177713          	andi	a4,a4,241
200017fc:	00c76713          	ori	a4,a4,12
20001800:	00e78023          	sb	a4,0(a5)
audio_data_fifo1_path_sel():
E:/promotion/gitlab/opensdk/Mars_B91/telink_rocket_driver_sdk/chip/B91/drivers/audio.h:654
 * @param[in] aout1_sel:fifo1 output source select
 * @return    none
 */
static inline void audio_data_fifo1_path_sel ( audio_mux_ain_e ain1_sel, audio_mux_aout_e aout1_sel)
{
	reg_audio_sel = MASK_VAL( FLD_AUDIO_AIN1_SEL, ain1_sel, FLD_AUDIO_AOUT1_SEL, aout1_sel);
20001804:	fe000793          	li	a5,-32
adc_gpio_sample_init():
E:/promotion/gitlab/opensdk/Mars_B91/telink_rocket_driver_sdk/chip/B91/drivers/adc.c:293
	g_adc_vref_offset = g_adc_gpio_calib_vref_offset;//set adc_vref_offset as adc_gpio_calib_vref_offset
20001808:	00240683          	lb	a3,2(s0)
audio_data_fifo1_path_sel():
E:/promotion/gitlab/opensdk/Mars_B91/telink_rocket_driver_sdk/chip/B91/drivers/audio.h:654
2000180c:	50f482a3          	sb	a5,1285(s1)
adc_gpio_sample_init():
E:/promotion/gitlab/opensdk/Mars_B91/telink_rocket_driver_sdk/chip/B91/drivers/adc.c:292
	g_adc_vref = g_adc_gpio_calib_vref;//set gpio sample calib vref
20001810:	00041783          	lh	a5,0(s0)
adc_power_off():
E:/promotion/gitlab/opensdk/Mars_B91/telink_rocket_driver_sdk/chip/B91/drivers/adc.h:167
 * @brief      This function close sar_adc power.
 * @return     none
 */
static inline void adc_power_off(void)
{
	analog_write_reg8 (areg_adc_pga_ctrl, (analog_read_reg8(areg_adc_pga_ctrl)|FLD_SAR_ADC_POWER_DOWN));
20001814:	0fc00513          	li	a0,252
adc_gpio_sample_init():
E:/promotion/gitlab/opensdk/Mars_B91/telink_rocket_driver_sdk/chip/B91/drivers/adc.c:293
	g_adc_vref_offset = g_adc_gpio_calib_vref_offset;//set adc_vref_offset as adc_gpio_calib_vref_offset
20001818:	04d40f23          	sb	a3,94(s0)
E:/promotion/gitlab/opensdk/Mars_B91/telink_rocket_driver_sdk/chip/B91/drivers/adc.c:292
	g_adc_vref = g_adc_gpio_calib_vref;//set gpio sample calib vref
2000181c:	04f41e23          	sh	a5,92(s0)
adc_power_off():
E:/promotion/gitlab/opensdk/Mars_B91/telink_rocket_driver_sdk/chip/B91/drivers/adc.h:167
20001820:	dffff097          	auipc	ra,0xdffff
20001824:	e6c080e7          	jalr	-404(ra) # 68c <analog_read_reg8>
20001828:	02056593          	ori	a1,a0,32
2000182c:	0ff5f593          	andi	a1,a1,255
20001830:	0fc00513          	li	a0,252
20001834:	dffff097          	auipc	ra,0xdffff
20001838:	e14080e7          	jalr	-492(ra) # 648 <analog_write_reg8>
adc_reset():
E:/promotion/gitlab/opensdk/Mars_B91/telink_rocket_driver_sdk/chip/B91/drivers/adc.h:175
 * @brief      This function reset adc module
 * @return     none
 */
static inline void adc_reset(void)
{
	reg_rst3 &= (~FLD_RST3_SARADC );
2000183c:	1e348783          	lb	a5,483(s1)
adc_clk_en():
E:/promotion/gitlab/opensdk/Mars_B91/telink_rocket_driver_sdk/chip/B91/drivers/adc.h:200
 * @brief      This function enable adc source clock: Pad_24M
 * @return     none
 */
static inline void adc_clk_en(void)
{
	analog_write_reg8(areg_adc_clk_setting	, analog_read_reg8(areg_adc_clk_setting	) | FLD_CLK_24M_TO_SAR_EN);
20001840:	08200513          	li	a0,130
adc_reset():
E:/promotion/gitlab/opensdk/Mars_B91/telink_rocket_driver_sdk/chip/B91/drivers/adc.h:175
	reg_rst3 &= (~FLD_RST3_SARADC );
20001844:	0bf7f793          	andi	a5,a5,191
20001848:	1ef481a3          	sb	a5,483(s1)
E:/promotion/gitlab/opensdk/Mars_B91/telink_rocket_driver_sdk/chip/B91/drivers/adc.h:176
	reg_rst3 |=FLD_RST3_SARADC;
2000184c:	1e348783          	lb	a5,483(s1)
20001850:	0ff7f793          	andi	a5,a5,255
20001854:	0407e793          	ori	a5,a5,64
20001858:	1ef481a3          	sb	a5,483(s1)
adc_clk_en():
E:/promotion/gitlab/opensdk/Mars_B91/telink_rocket_driver_sdk/chip/B91/drivers/adc.h:200
	analog_write_reg8(areg_adc_clk_setting	, analog_read_reg8(areg_adc_clk_setting	) | FLD_CLK_24M_TO_SAR_EN);
2000185c:	dffff097          	auipc	ra,0xdffff
20001860:	e30080e7          	jalr	-464(ra) # 68c <analog_read_reg8>
20001864:	04056593          	ori	a1,a0,64
20001868:	0ff5f593          	andi	a1,a1,255
2000186c:	08200513          	li	a0,130
20001870:	dffff097          	auipc	ra,0xdffff
20001874:	dd8080e7          	jalr	-552(ra) # 648 <analog_write_reg8>
adc_set_clk():
E:/promotion/gitlab/opensdk/Mars_B91/telink_rocket_driver_sdk/chip/B91/drivers/adc.h:218
 * @return     none
 * @attention: The ADC clock is fixed at 4MHz and should not be modified.
 */
static inline void adc_set_clk(unsigned char div)
{
	analog_write_reg8(areg_adc_sample_clk_div, div);
20001878:	00500593          	li	a1,5
2000187c:	0f400513          	li	a0,244
20001880:	dffff097          	auipc	ra,0xdffff
20001884:	dc8080e7          	jalr	-568(ra) # 648 <analog_write_reg8>
adc_set_ref_voltage():
E:/promotion/gitlab/opensdk/Mars_B91/telink_rocket_driver_sdk/chip/B91/drivers/adc.c:180
	analog_write_reg8(areg_adc_vref, v_ref);
20001888:	00200593          	li	a1,2
2000188c:	0ea00513          	li	a0,234
20001890:	dffff097          	auipc	ra,0xdffff
20001894:	db8080e7          	jalr	-584(ra) # 648 <analog_write_reg8>
E:/promotion/gitlab/opensdk/Mars_B91/telink_rocket_driver_sdk/chip/B91/drivers/adc.c:185
		analog_write_reg8(areg_ain_scale  , (analog_read_reg8( areg_ain_scale  )&(0xC0)) | 0x3d );
20001898:	0fa00513          	li	a0,250
2000189c:	dffff097          	auipc	ra,0xdffff
200018a0:	df0080e7          	jalr	-528(ra) # 68c <analog_read_reg8>
200018a4:	0c057593          	andi	a1,a0,192
200018a8:	03d5e593          	ori	a1,a1,61
200018ac:	0fa00513          	li	a0,250
200018b0:	dffff097          	auipc	ra,0xdffff
200018b4:	d98080e7          	jalr	-616(ra) # 648 <analog_write_reg8>
adc_set_scale_factor():
E:/promotion/gitlab/opensdk/Mars_B91/telink_rocket_driver_sdk/chip/B91/drivers/adc.c:233
	analog_write_reg8( areg_ain_scale  , (analog_read_reg8( areg_ain_scale  )&(~FLD_SEL_AIN_SCALE)) | (pre_scale<<6) );
200018b8:	0fa00513          	li	a0,250
200018bc:	dffff097          	auipc	ra,0xdffff
200018c0:	dd0080e7          	jalr	-560(ra) # 68c <analog_read_reg8>
200018c4:	03f57593          	andi	a1,a0,63
200018c8:	0805e593          	ori	a1,a1,128
200018cc:	0fa00513          	li	a0,250
200018d0:	dffff097          	auipc	ra,0xdffff
200018d4:	d78080e7          	jalr	-648(ra) # 648 <analog_write_reg8>
E:/promotion/gitlab/opensdk/Mars_B91/telink_rocket_driver_sdk/chip/B91/drivers/adc.c:234
	g_adc_pre_scale = 1<<(unsigned char)pre_scale;
200018d8:	829f950b          	addigp	a0,-2008 # 80028 <g_adc_pre_scale>
200018dc:	862a                	c.mv	a2,a0
200018de:	4791                	c.li	a5,4
200018e0:	00a12423          	sw	a0,8(sp)
adc_set_state_length():
E:/promotion/gitlab/opensdk/Mars_B91/telink_rocket_driver_sdk/chip/B91/drivers/adc.h:283
 * @param[in]   r_max_s - Value of length of "set" state for MISC channel.
 * @return none
 */
static inline void adc_set_state_length(unsigned short r_max_mc,unsigned char r_max_s)
{
	analog_write_reg8(areg_r_max_mc, r_max_mc);
200018e4:	0f000593          	li	a1,240
200018e8:	0ef00513          	li	a0,239
adc_set_scale_factor():
E:/promotion/gitlab/opensdk/Mars_B91/telink_rocket_driver_sdk/chip/B91/drivers/adc.c:234
200018ec:	00f60023          	sb	a5,0(a2)
adc_set_state_length():
E:/promotion/gitlab/opensdk/Mars_B91/telink_rocket_driver_sdk/chip/B91/drivers/adc.h:283
200018f0:	dffff097          	auipc	ra,0xdffff
200018f4:	d58080e7          	jalr	-680(ra) # 648 <analog_write_reg8>
E:/promotion/gitlab/opensdk/Mars_B91/telink_rocket_driver_sdk/chip/B91/drivers/adc.h:284
	analog_write_reg8(areg_r_max_s, ((r_max_mc>>8)<<6)| (r_max_s & FLD_R_MAX_S));
200018f8:	00a00593          	li	a1,10
200018fc:	0f100513          	li	a0,241
20001900:	dffff097          	auipc	ra,0xdffff
20001904:	d48080e7          	jalr	-696(ra) # 648 <analog_write_reg8>
adc_set_tsample_cycle():
E:/promotion/gitlab/opensdk/Mars_B91/telink_rocket_driver_sdk/chip/B91/drivers/adc.h:246
	analog_write_reg8(areg_adc_tsmaple_m, sample_cycle);  //optimize, <7:4> not cared
20001908:	00100593          	li	a1,1
2000190c:	0ee00513          	li	a0,238
20001910:	dffff097          	auipc	ra,0xdffff
20001914:	d38080e7          	jalr	-712(ra) # 648 <analog_write_reg8>
adc_set_resolution():
E:/promotion/gitlab/opensdk/Mars_B91/telink_rocket_driver_sdk/chip/B91/drivers/adc.h:235
	analog_write_reg8(areg_adc_res_m, (analog_read_reg8(areg_adc_res_m)&(~FLD_ADC_RES_M)) | res);
20001918:	0ec00513          	li	a0,236
2000191c:	dffff097          	auipc	ra,0xdffff
20001920:	d70080e7          	jalr	-656(ra) # 68c <analog_read_reg8>
20001924:	00356593          	ori	a1,a0,3
20001928:	0ff5f593          	andi	a1,a1,255
2000192c:	0ec00513          	li	a0,236
20001930:	dffff097          	auipc	ra,0xdffff
20001934:	d18080e7          	jalr	-744(ra) # 648 <analog_write_reg8>
adc_set_m_chn_en():
E:/promotion/gitlab/opensdk/Mars_B91/telink_rocket_driver_sdk/chip/B91/drivers/adc.h:226
	analog_write_reg8(areg_adc_chn_en, FLD_ADC_CHN_EN_M | (ADC_MAX_STATE_NUM<<4) );
20001938:	02400593          	li	a1,36
2000193c:	0f200513          	li	a0,242
20001940:	dffff097          	auipc	ra,0xdffff
20001944:	d08080e7          	jalr	-760(ra) # 648 <analog_write_reg8>
adc_set_vbat_divider():
E:/promotion/gitlab/opensdk/Mars_B91/telink_rocket_driver_sdk/chip/B91/drivers/adc.c:243
	analog_write_reg8(areg_adc_vref_vbat_div, (analog_read_reg8(areg_adc_vref_vbat_div)&(~FLD_ADC_VREF_VBAT_DIV)) | (vbat_div<<2) );
20001948:	0f900513          	li	a0,249
2000194c:	dffff097          	auipc	ra,0xdffff
20001950:	d40080e7          	jalr	-704(ra) # 68c <analog_read_reg8>
20001954:	0f357593          	andi	a1,a0,243
20001958:	0f900513          	li	a0,249
2000195c:	dffff097          	auipc	ra,0xdffff
20001960:	cec080e7          	jalr	-788(ra) # 648 <analog_write_reg8>
E:/promotion/gitlab/opensdk/Mars_B91/telink_rocket_driver_sdk/chip/B91/drivers/adc.c:250
		g_adc_vbat_divider=1;
20001964:	829fd50b          	addigp	a0,-2007 # 80029 <g_adc_vbat_divider>
20001968:	4785                	c.li	a5,1
2000196a:	c62a                	c.swsp	a0,12(sp)
2000196c:	00f50023          	sb	a5,0(a0) # 3fe000 <FLASH_SIZE+0x2fe000>
gpio_function_en():
E:/promotion/gitlab/opensdk/Mars_B91/telink_rocket_driver_sdk/chip/B91/drivers/gpio.h:195
	BM_SET(reg_gpio_func(pin), bit);
20001970:	30e48783          	lb	a5,782(s1)
adc_set_diff_input():
E:/promotion/gitlab/opensdk/Mars_B91/telink_rocket_driver_sdk/chip/B91/drivers/adc.h:272
	analog_write_reg8(areg_adc_res_m, analog_read_reg8(areg_adc_res_m) | FLD_ADC_EN_DIFF_CHN_M);
20001974:	0ec00513          	li	a0,236
gpio_function_en():
E:/promotion/gitlab/opensdk/Mars_B91/telink_rocket_driver_sdk/chip/B91/drivers/gpio.h:195
20001978:	0ff7f793          	andi	a5,a5,255
2000197c:	0207e793          	ori	a5,a5,32
20001980:	30f48723          	sb	a5,782(s1)
gpio_input_dis():
E:/promotion/gitlab/opensdk/Mars_B91/telink_rocket_driver_sdk/chip/B91/drivers/gpio.c:98
		BM_CLR(reg_gpio_ie(pin), bit);
20001984:	30948783          	lb	a5,777(s1)
20001988:	0df7f793          	andi	a5,a5,223
2000198c:	30f484a3          	sb	a5,777(s1)
gpio_output_dis():
E:/promotion/gitlab/opensdk/Mars_B91/telink_rocket_driver_sdk/chip/B91/drivers/gpio.h:314
 * @return     none.
 */
static inline void gpio_output_dis(gpio_pin_e pin)
{
	unsigned char	bit = pin & 0xff;
	BM_SET(reg_gpio_oen(pin), bit);
20001990:	30a48783          	lb	a5,778(s1)
20001994:	0ff7f793          	andi	a5,a5,255
20001998:	0207e793          	ori	a5,a5,32
2000199c:	30f48523          	sb	a5,778(s1)
gpio_set_low_level():
E:/promotion/gitlab/opensdk/Mars_B91/telink_rocket_driver_sdk/chip/B91/drivers/gpio.h:233
	BM_CLR(reg_gpio_out(pin), bit);
200019a0:	30b48783          	lb	a5,779(s1)
200019a4:	0df7f793          	andi	a5,a5,223
200019a8:	30f485a3          	sb	a5,779(s1)
adc_set_diff_input():
E:/promotion/gitlab/opensdk/Mars_B91/telink_rocket_driver_sdk/chip/B91/drivers/adc.h:272
200019ac:	dffff097          	auipc	ra,0xdffff
200019b0:	ce0080e7          	jalr	-800(ra) # 68c <analog_read_reg8>
200019b4:	04056593          	ori	a1,a0,64
200019b8:	0ff5f593          	andi	a1,a1,255
200019bc:	0ec00513          	li	a0,236
200019c0:	dffff097          	auipc	ra,0xdffff
200019c4:	c88080e7          	jalr	-888(ra) # 648 <analog_write_reg8>
E:/promotion/gitlab/opensdk/Mars_B91/telink_rocket_driver_sdk/chip/B91/drivers/adc.h:273
	analog_write_reg8(areg_adc_ain_chn_misc, n_ain | p_ain<<4 );
200019c8:	06f00593          	li	a1,111
200019cc:	0eb00513          	li	a0,235
200019d0:	dffff097          	auipc	ra,0xdffff
200019d4:	c78080e7          	jalr	-904(ra) # 648 <analog_write_reg8>
adc_power_on():
E:/promotion/gitlab/opensdk/Mars_B91/telink_rocket_driver_sdk/chip/B91/drivers/adc.h:159
	analog_write_reg8 (areg_adc_pga_ctrl, (analog_read_reg8(areg_adc_pga_ctrl)&(~FLD_SAR_ADC_POWER_DOWN)));
200019d8:	0fc00513          	li	a0,252
200019dc:	dffff097          	auipc	ra,0xdffff
200019e0:	cb0080e7          	jalr	-848(ra) # 68c <analog_read_reg8>
200019e4:	0df57593          	andi	a1,a0,223
200019e8:	0fc00513          	li	a0,252
200019ec:	dffff097          	auipc	ra,0xdffff
200019f0:	c5c080e7          	jalr	-932(ra) # 648 <analog_write_reg8>
adc_start_sample_dma():
E:/promotion/gitlab/opensdk/Mars_B91/telink_rocket_driver_sdk/chip/B91/drivers/adc.c:82
	dma_set_address(adc_dma_chn,reg_fifo_buf_adr(1),(unsigned int)(adc_data_buf));
200019f4:	835f9c0b          	addigp	s8,-1996 # 80034 <adc_sample_buffer>
200019f8:	000a07b7          	lui	a5,0xa0
200019fc:	835f948b          	addigp	s1,-1996 # 80034 <adc_sample_buffer>
20001a00:	00fc7663          	bgeu	s8,a5,20001a0c <main+0x5b4>
dma_set_address():
E:/promotion/gitlab/opensdk/Mars_B91/telink_rocket_driver_sdk/chip/B91/drivers/dma.h:309
 *             2. When a certain dma channel has not finished the transmission (bit 0 of reg_dma_ctr0(chn): 1-the transmission has not been completed,0-the transmission is completed),need to disable dma before writing to the dma register.
 */
static inline void dma_set_address(dma_chn_e chn,unsigned int src_addr,unsigned int dst_addr)
{
	reg_dma_src_addr(chn)= (unsigned int)convert_ram_addr_cpu2bus(src_addr);
	reg_dma_dst_addr(chn)= (unsigned int)convert_ram_addr_cpu2bus(dst_addr);
20001a04:	c01804b7          	lui	s1,0xc0180
20001a08:	018484b3          	add	s1,s1,s8
E:/promotion/gitlab/opensdk/Mars_B91/telink_rocket_driver_sdk/chip/B91/drivers/dma.h:308
	reg_dma_src_addr(chn)= (unsigned int)convert_ram_addr_cpu2bus(src_addr);
20001a0c:	00100bb7          	lui	s7,0x100
20001a10:	801207b7          	lui	a5,0x80120
adc_get_code_dma():
E:/promotion/gitlab/opensdk/Mars_B91/telink_rocket_driver_sdk/chip/B91/drivers/adc.c:362
		{  //14 bit resolution, BIT(13) is sign bit, 1 means negative voltage in differential_mode
			sample_buffer[i] = 0;
		}
		else
		{
			sample_buffer[i] = (sample_buffer[i] & 0x1fff);  //BIT(12..0) is valid adc code
20001a14:	6c89                	c.lui	s9,0x2
dma_set_address():
E:/promotion/gitlab/opensdk/Mars_B91/telink_rocket_driver_sdk/chip/B91/drivers/dma.h:308
20001a16:	04078513          	addi	a0,a5,64 # 80120040 <_DATA_LMA_START+0x6011e3c0>
20001a1a:	845f9d0b          	addigp	s10,-1980 # 80044 <adc_sample_buffer+0x10>
20001a1e:	837f9a0b          	addigp	s4,-1994 # 80036 <adc_sample_buffer+0x2>
20001a22:	83df9d8b          	addigp	s11,-1988 # 8003c <adc_sample_buffer+0x8>
20001a26:	813f998b          	addigp	s3,-2030 # 80012 <adc_vol_mv_val>
20001a2a:	4ad1                	c.li	s5,20
dma_chn_en():
E:/promotion/gitlab/opensdk/Mars_B91/telink_rocket_driver_sdk/chip/B91/drivers/dma.h:170
	BM_SET(reg_dma_ctr0(chn),BIT(0));
20001a2c:	444b8b13          	addi	s6,s7,1092 # 100444 <FLASH_SIZE+0x444>
adc_get_code_dma():
E:/promotion/gitlab/opensdk/Mars_B91/telink_rocket_driver_sdk/chip/B91/drivers/adc.c:362
20001a30:	1cfd                	c.addi	s9,-1
dma_set_address():
E:/promotion/gitlab/opensdk/Mars_B91/telink_rocket_driver_sdk/chip/B91/drivers/dma.h:308
	reg_dma_src_addr(chn)= (unsigned int)convert_ram_addr_cpu2bus(src_addr);
20001a32:	c22a                	c.swsp	a0,4(sp)
20001a34:	00094783          	lbu	a5,0(s2)
20001a38:	00100537          	lui	a0,0x100
20001a3c:	035787b3          	mul	a5,a5,s5
20001a40:	44850513          	addi	a0,a0,1096 # 100448 <FLASH_SIZE+0x448>
20001a44:	80000e37          	lui	t3,0x80000
E:/promotion/gitlab/opensdk/Mars_B91/telink_rocket_driver_sdk/chip/B91/drivers/dma.h:309
	reg_dma_dst_addr(chn)= (unsigned int)convert_ram_addr_cpu2bus(dst_addr);
20001a48:	44cb8613          	addi	a2,s7,1100
dma_set_size():
E:/promotion/gitlab/opensdk/Mars_B91/telink_rocket_driver_sdk/chip/B91/drivers/dma.h:278
	reg_dma_size(chn) =((size_byte+byte_width-1)/byte_width)|( (size_byte % byte_width)<<22);
20001a4c:	450b8693          	addi	a3,s7,1104
adc_fifo_enable():
E:/promotion/gitlab/opensdk/Mars_B91/telink_rocket_driver_sdk/chip/B91/drivers/adc.h:184
	reg_i2s_cfg2 &= (~FLD_AUDIO_FIFO1_RST);
20001a50:	801405b7          	lui	a1,0x80140
dma_get_tc_irq_status():
E:/promotion/gitlab/opensdk/Mars_B91/telink_rocket_driver_sdk/chip/B91/drivers/dma.h:212
	return reg_dma_tc_isr&tc_chn;
20001a54:	80100737          	lui	a4,0x80100
dma_set_address():
E:/promotion/gitlab/opensdk/Mars_B91/telink_rocket_driver_sdk/chip/B91/drivers/dma.h:308
	reg_dma_src_addr(chn)= (unsigned int)convert_ram_addr_cpu2bus(src_addr);
20001a58:	00a78eb3          	add	t4,a5,a0
20001a5c:	4512                	c.lwsp	a0,4(sp)
E:/promotion/gitlab/opensdk/Mars_B91/telink_rocket_driver_sdk/chip/B91/drivers/dma.h:309
	reg_dma_dst_addr(chn)= (unsigned int)convert_ram_addr_cpu2bus(dst_addr);
20001a5e:	963e                	c.add	a2,a5
E:/promotion/gitlab/opensdk/Mars_B91/telink_rocket_driver_sdk/chip/B91/drivers/dma.h:308
	reg_dma_src_addr(chn)= (unsigned int)convert_ram_addr_cpu2bus(src_addr);
20001a60:	01ceeeb3          	or	t4,t4,t3
20001a64:	00aea023          	sw	a0,0(t4)
E:/promotion/gitlab/opensdk/Mars_B91/telink_rocket_driver_sdk/chip/B91/drivers/dma.h:309
	reg_dma_dst_addr(chn)= (unsigned int)convert_ram_addr_cpu2bus(dst_addr);
20001a68:	01c66633          	or	a2,a2,t3
dma_set_size():
E:/promotion/gitlab/opensdk/Mars_B91/telink_rocket_driver_sdk/chip/B91/drivers/dma.h:278
	reg_dma_size(chn) =((size_byte+byte_width-1)/byte_width)|( (size_byte % byte_width)<<22);
20001a6c:	96be                	c.add	a3,a5
dma_chn_en():
E:/promotion/gitlab/opensdk/Mars_B91/telink_rocket_driver_sdk/chip/B91/drivers/dma.h:170
	BM_SET(reg_dma_ctr0(chn),BIT(0));
20001a6e:	97da                	c.add	a5,s6
dma_set_address():
E:/promotion/gitlab/opensdk/Mars_B91/telink_rocket_driver_sdk/chip/B91/drivers/dma.h:309
	reg_dma_dst_addr(chn)= (unsigned int)convert_ram_addr_cpu2bus(dst_addr);
20001a70:	c204                	c.sw	s1,0(a2)
dma_chn_en():
E:/promotion/gitlab/opensdk/Mars_B91/telink_rocket_driver_sdk/chip/B91/drivers/dma.h:170
	BM_SET(reg_dma_ctr0(chn),BIT(0));
20001a72:	01c7e7b3          	or	a5,a5,t3
dma_set_size():
E:/promotion/gitlab/opensdk/Mars_B91/telink_rocket_driver_sdk/chip/B91/drivers/dma.h:278
	reg_dma_size(chn) =((size_byte+byte_width-1)/byte_width)|( (size_byte % byte_width)<<22);
20001a76:	01c6e6b3          	or	a3,a3,t3
20001a7a:	4611                	c.li	a2,4
20001a7c:	c290                	c.sw	a2,0(a3)
dma_chn_en():
E:/promotion/gitlab/opensdk/Mars_B91/telink_rocket_driver_sdk/chip/B91/drivers/dma.h:170
	BM_SET(reg_dma_ctr0(chn),BIT(0));
20001a7e:	00078683          	lb	a3,0(a5)
20001a82:	0ff6f693          	andi	a3,a3,255
20001a86:	0016e693          	ori	a3,a3,1
20001a8a:	00d78023          	sb	a3,0(a5)
adc_fifo_enable():
E:/promotion/gitlab/opensdk/Mars_B91/telink_rocket_driver_sdk/chip/B91/drivers/adc.h:184
20001a8e:	50258783          	lb	a5,1282(a1) # 80140502 <_DATA_LMA_START+0x6013e882>
adc_get_sample_status_dma():
E:/promotion/gitlab/opensdk/Mars_B91/telink_rocket_driver_sdk/chip/B91/drivers/adc.c:94
	return (dma_get_tc_irq_status(1<<adc_dma_chn));
20001a92:	4685                	c.li	a3,1
adc_fifo_enable():
E:/promotion/gitlab/opensdk/Mars_B91/telink_rocket_driver_sdk/chip/B91/drivers/adc.h:184
20001a94:	0f77f793          	andi	a5,a5,247
20001a98:	50f58123          	sb	a5,1282(a1)
adc_get_sample_status_dma():
E:/promotion/gitlab/opensdk/Mars_B91/telink_rocket_driver_sdk/chip/B91/drivers/adc.c:94
20001a9c:	00094783          	lbu	a5,0(s2)
20001aa0:	00f696b3          	sll	a3,a3,a5
20001aa4:	0ff6f693          	andi	a3,a3,255
dma_get_tc_irq_status():
E:/promotion/gitlab/opensdk/Mars_B91/telink_rocket_driver_sdk/chip/B91/drivers/dma.h:212
	return reg_dma_tc_isr&tc_chn;
20001aa8:	43270783          	lb	a5,1074(a4) # 80100432 <_DATA_LMA_START+0x600fe7b2>
20001aac:	43270613          	addi	a2,a4,1074
adc_get_code_dma():
E:/promotion/gitlab/opensdk/Mars_B91/telink_rocket_driver_sdk/chip/B91/drivers/adc.c:348
	while(!adc_get_sample_status_dma());
20001ab0:	8ff5                	c.and	a5,a3
20001ab2:	dbfd                	c.beqz	a5,20001aa8 <main+0x650>
adc_fifo_disable():
E:/promotion/gitlab/opensdk/Mars_B91/telink_rocket_driver_sdk/chip/B91/drivers/adc.h:192
	reg_i2s_cfg2 |= FLD_AUDIO_FIFO1_RST;
20001ab4:	80140737          	lui	a4,0x80140
20001ab8:	50270783          	lb	a5,1282(a4) # 80140502 <_DATA_LMA_START+0x6013e882>
dma_chn_dis():
E:/promotion/gitlab/opensdk/Mars_B91/telink_rocket_driver_sdk/chip/B91/drivers/dma.h:180
	BM_CLR(reg_dma_ctr0(chn),BIT(0));
20001abc:	855a                	c.mv	a0,s6
adc_fifo_disable():
E:/promotion/gitlab/opensdk/Mars_B91/telink_rocket_driver_sdk/chip/B91/drivers/adc.h:192
20001abe:	0ff7f793          	andi	a5,a5,255
20001ac2:	0087e793          	ori	a5,a5,8
20001ac6:	50f70123          	sb	a5,1282(a4)
dma_chn_dis():
E:/promotion/gitlab/opensdk/Mars_B91/telink_rocket_driver_sdk/chip/B91/drivers/dma.h:180
20001aca:	00094683          	lbu	a3,0(s2)
20001ace:	800005b7          	lui	a1,0x80000
adc_clr_sample_status_dma():
E:/promotion/gitlab/opensdk/Mars_B91/telink_rocket_driver_sdk/chip/B91/drivers/adc.c:103
	dma_clr_tc_irq_status(1<<adc_dma_chn);
20001ad2:	4705                	c.li	a4,1
dma_chn_dis():
E:/promotion/gitlab/opensdk/Mars_B91/telink_rocket_driver_sdk/chip/B91/drivers/dma.h:180
20001ad4:	c556957f          	maddr32	a0,a3,s5
adc_clr_sample_status_dma():
E:/promotion/gitlab/opensdk/Mars_B91/telink_rocket_driver_sdk/chip/B91/drivers/adc.c:103
20001ad8:	00d71733          	sll	a4,a4,a3
dma_chn_dis():
E:/promotion/gitlab/opensdk/Mars_B91/telink_rocket_driver_sdk/chip/B91/drivers/dma.h:180
20001adc:	00b566b3          	or	a3,a0,a1
20001ae0:	00068e03          	lb	t3,0(a3)
adc_clr_sample_status_dma():
E:/promotion/gitlab/opensdk/Mars_B91/telink_rocket_driver_sdk/chip/B91/drivers/adc.c:103
20001ae4:	0ff77713          	andi	a4,a4,255
dma_chn_dis():
E:/promotion/gitlab/opensdk/Mars_B91/telink_rocket_driver_sdk/chip/B91/drivers/dma.h:180
20001ae8:	0fee7e13          	andi	t3,t3,254
20001aec:	01c68023          	sb	t3,0(a3)
adc_start_sample_dma():
E:/promotion/gitlab/opensdk/Mars_B91/telink_rocket_driver_sdk/chip/B91/drivers/adc.c:82
	dma_set_address(adc_dma_chn,reg_fifo_buf_adr(1),(unsigned int)(adc_data_buf));
20001af0:	87e2                	c.mv	a5,s8
adc_get_code_dma():
E:/promotion/gitlab/opensdk/Mars_B91/telink_rocket_driver_sdk/chip/B91/drivers/adc.c:356
		if(sample_buffer[i] & BIT(13))
20001af2:	6589                	c.lui	a1,0x2
dma_clr_tc_irq_status():
E:/promotion/gitlab/opensdk/Mars_B91/telink_rocket_driver_sdk/chip/B91/drivers/dma.h:223
	reg_dma_tc_isr = tc_chn;
20001af4:	00e60023          	sb	a4,0(a2)
20001af8:	0100006f          	j	20001b08 <main+0x6b0>
adc_get_code_dma():
E:/promotion/gitlab/opensdk/Mars_B91/telink_rocket_driver_sdk/chip/B91/drivers/adc.c:358
			sample_buffer[i] = 0;
20001afc:	00079023          	sh	zero,0(a5)
20001b00:	00278793          	addi	a5,a5,2
E:/promotion/gitlab/opensdk/Mars_B91/telink_rocket_driver_sdk/chip/B91/drivers/adc.c:354
	for(int i=0;i<sample_num;i++)
20001b04:	00fd0e63          	beq	s10,a5,20001b20 <main+0x6c8>
E:/promotion/gitlab/opensdk/Mars_B91/telink_rocket_driver_sdk/chip/B91/drivers/adc.c:356
		if(sample_buffer[i] & BIT(13))
20001b08:	0007d703          	lhu	a4,0(a5)
20001b0c:	00b776b3          	and	a3,a4,a1
E:/promotion/gitlab/opensdk/Mars_B91/telink_rocket_driver_sdk/chip/B91/drivers/adc.c:362
			sample_buffer[i] = (sample_buffer[i] & 0x1fff);  //BIT(12..0) is valid adc code
20001b10:	01977733          	and	a4,a4,s9
E:/promotion/gitlab/opensdk/Mars_B91/telink_rocket_driver_sdk/chip/B91/drivers/adc.c:356
		if(sample_buffer[i] & BIT(13))
20001b14:	f6e5                	c.bnez	a3,20001afc <main+0x6a4>
E:/promotion/gitlab/opensdk/Mars_B91/telink_rocket_driver_sdk/chip/B91/drivers/adc.c:362
			sample_buffer[i] = (sample_buffer[i] & 0x1fff);  //BIT(12..0) is valid adc code
20001b16:	00e79023          	sh	a4,0(a5)
20001b1a:	0789                	c.addi	a5,2
E:/promotion/gitlab/opensdk/Mars_B91/telink_rocket_driver_sdk/chip/B91/drivers/adc.c:354
	for(int i=0;i<sample_num;i++)
20001b1c:	fefd16e3          	bne	s10,a5,20001b08 <main+0x6b0>
20001b20:	8652                	c.mv	a2,s4
main():
E:/promotion/gitlab/opensdk/Mars_B91/telink_rocket_driver_sdk/demo/vendor/ADC_Demo/app.c:100

	unsigned short adc_code_average = 0;
	int i, j;
	unsigned short temp;
	/**** insert Sort and get average value ******/
	for(i = 1 ;i < ADC_SAMPLE_NUM; i++)
20001b22:	4e05                	c.li	t3,1
20001b24:	00c0006f          	j	20001b30 <main+0x6d8>
adc_sort_and_get_average_code():
E:/promotion/gitlab/opensdk/Mars_B91/telink_rocket_driver_sdk/demo/vendor/ADC_Demo/app.c:100
20001b28:	0e05                	c.addi	t3,1
20001b2a:	0609                	c.addi	a2,2
20001b2c:	048e505b          	beqc	t3,8,20001b6c <main+0x714>
E:/promotion/gitlab/opensdk/Mars_B91/telink_rocket_driver_sdk/demo/vendor/ADC_Demo/app.c:102
	{
		if(adc_sample_buffer[i] < adc_sample_buffer[i-1])
20001b30:	00065583          	lhu	a1,0(a2)
20001b34:	ffe65783          	lhu	a5,-2(a2)
20001b38:	fef5f8e3          	bgeu	a1,a5,20001b28 <main+0x6d0>
E:/promotion/gitlab/opensdk/Mars_B91/telink_rocket_driver_sdk/demo/vendor/ADC_Demo/app.c:105
		{
			temp = adc_sample_buffer[i];
			adc_sample_buffer[i] = adc_sample_buffer[i-1];
20001b3c:	00f61023          	sh	a5,0(a2)
20001b40:	8772                	c.mv	a4,t3
20001b42:	87b2                	c.mv	a5,a2
E:/promotion/gitlab/opensdk/Mars_B91/telink_rocket_driver_sdk/demo/vendor/ADC_Demo/app.c:111
	/**
		 * add judgment condition "j>=0" in for loop,
		 * otherwise may have array out of bounds.
		 * changed by chaofan.20201230.
	 */
			for(j=i-1; j>=0 && adc_sample_buffer[j] > temp;j--)
20001b44:	ffe7d683          	lhu	a3,-2(a5)
20001b48:	00d5fa63          	bgeu	a1,a3,20001b5c <main+0x704>
E:/promotion/gitlab/opensdk/Mars_B91/telink_rocket_driver_sdk/demo/vendor/ADC_Demo/app.c:113
			{
				adc_sample_buffer[j+1] = adc_sample_buffer[j];
20001b4c:	00d79023          	sh	a3,0(a5)
20001b50:	17f9                	c.addi	a5,-2
20001b52:	177d                	c.addi	a4,-1
E:/promotion/gitlab/opensdk/Mars_B91/telink_rocket_driver_sdk/demo/vendor/ADC_Demo/app.c:111
			for(j=i-1; j>=0 && adc_sample_buffer[j] > temp;j--)
20001b54:	fefc18e3          	bne	s8,a5,20001b44 <main+0x6ec>
20001b58:	00000713          	li	a4,0
E:/promotion/gitlab/opensdk/Mars_B91/telink_rocket_driver_sdk/demo/vendor/ADC_Demo/app.c:115
			}
			adc_sample_buffer[j+1] = temp;
20001b5c:	0aec075b          	lea.h	a4,s8,a4
20001b60:	00b71023          	sh	a1,0(a4)
E:/promotion/gitlab/opensdk/Mars_B91/telink_rocket_driver_sdk/demo/vendor/ADC_Demo/app.c:100
	for(i = 1 ;i < ADC_SAMPLE_NUM; i++)
20001b64:	0e05                	c.addi	t3,1
20001b66:	0609                	c.addi	a2,2
20001b68:	bc8e645b          	bnec	t3,8,20001b30 <main+0x6d8>
adc_start_sample_dma():
E:/promotion/gitlab/opensdk/Mars_B91/telink_rocket_driver_sdk/chip/B91/drivers/adc.c:82
	dma_set_address(adc_dma_chn,reg_fifo_buf_adr(1),(unsigned int)(adc_data_buf));
20001b6c:	8762                	c.mv	a4,s8
main():
E:/promotion/gitlab/opensdk/Mars_B91/telink_rocket_driver_sdk/demo/vendor/ADC_Demo/app.c:96
	unsigned short adc_code_average = 0;
20001b6e:	4781                	c.li	a5,0
adc_sort_and_get_average_code():
E:/promotion/gitlab/opensdk/Mars_B91/telink_rocket_driver_sdk/demo/vendor/ADC_Demo/app.c:122
	}

	//get average value from raw data(abandon 1/4 small and 1/4 big data)
	for (i = ADC_SAMPLE_NUM>>2; i < (ADC_SAMPLE_NUM - (ADC_SAMPLE_NUM>>2)); i++)
	{
		adc_code_average += adc_sample_buffer[i]/(ADC_SAMPLE_NUM>>1);
20001b70:	00475683          	lhu	a3,4(a4)
20001b74:	0709                	c.addi	a4,2
20001b76:	8289                	c.srli	a3,0x2
20001b78:	97b6                	c.add	a5,a3
20001b7a:	3c07a7db          	bfoz	a5,a5,15,0
E:/promotion/gitlab/opensdk/Mars_B91/telink_rocket_driver_sdk/demo/vendor/ADC_Demo/app.c:120
	for (i = ADC_SAMPLE_NUM>>2; i < (ADC_SAMPLE_NUM - (ADC_SAMPLE_NUM>>2)); i++)
20001b7e:	feed99e3          	bne	s11,a4,20001b70 <main+0x718>
adc_calculate_voltage():
E:/promotion/gitlab/opensdk/Mars_B91/telink_rocket_driver_sdk/chip/B91/drivers/adc.c:396
 * @return 		adc_vol_mv 	- the average value of adc voltage value.Unit is 'mv'.
 */
unsigned short adc_calculate_voltage(unsigned short adc_code)
{
	//When the code value is 0, the returned voltage value should be 0.
	if(adc_code == 0)
20001b82:	cb8d                	c.beqz	a5,20001bb4 <main+0x75c>
E:/promotion/gitlab/opensdk/Mars_B91/telink_rocket_driver_sdk/chip/B91/drivers/adc.c:406
	{
		//////////////// adc sample data convert to voltage(mv) ////////////////
		//                          (Vref, adc_pre_scale)   (BIT<12~0> valid data)
		//			 =  (adc_code * Vref * adc_pre_scale / 0x2000) + offset
		//           =  (adc_code * Vref*adc_pre_scale >>13) + offset
		return (((adc_code * g_adc_vbat_divider * g_adc_pre_scale * g_adc_vref)>>13) + g_adc_vref_offset);
20001b84:	4532                	c.lwsp	a0,12(sp)
20001b86:	05c45603          	lhu	a2,92(s0)
20001b8a:	00050683          	lb	a3,0(a0)
20001b8e:	4522                	c.lwsp	a0,8(sp)
20001b90:	0ff6f693          	andi	a3,a3,255
20001b94:	02d787b3          	mul	a5,a5,a3
20001b98:	00050703          	lb	a4,0(a0)
20001b9c:	05e40683          	lb	a3,94(s0)
20001ba0:	0ff77713          	andi	a4,a4,255
20001ba4:	02e787b3          	mul	a5,a5,a4
20001ba8:	02c787b3          	mul	a5,a5,a2
20001bac:	87b5                	c.srai	a5,0xd
20001bae:	97b6                	c.add	a5,a3
20001bb0:	3c07a7db          	bfoz	a5,a5,15,0
main_loop():
E:/promotion/gitlab/opensdk/Mars_B91/telink_rocket_driver_sdk/demo/vendor/ADC_Demo/app.c:75
	adc_vol_mv_val = adc_get_voltage_dma();
20001bb4:	00f99023          	sh	a5,0(s3)
E:/promotion/gitlab/opensdk/Mars_B91/telink_rocket_driver_sdk/demo/vendor/ADC_Demo/app.c:86
	delay_ms(1000);
20001bb8:	dfffe097          	auipc	ra,0xdfffe
20001bbc:	648080e7          	jalr	1608(ra) # 200 <delay_ms.constprop.2>
gpio_toggle():
E:/promotion/gitlab/opensdk/Mars_B91/telink_rocket_driver_sdk/chip/B91/drivers/gpio.h:290
	reg_gpio_out(pin) ^= (pin & 0xFF);
20001bc0:	80140737          	lui	a4,0x80140
20001bc4:	30b70783          	lb	a5,779(a4) # 8014030b <_DATA_LMA_START+0x6013e68b>
20001bc8:	0107c793          	xori	a5,a5,16
20001bcc:	0ff7f793          	andi	a5,a5,255
20001bd0:	30f705a3          	sb	a5,779(a4)
20001bd4:	e61ff06f          	j	20001a34 <main+0x5dc>
user_read_flash_value_calib():
E:/promotion/gitlab/opensdk/Mars_B91/telink_rocket_driver_sdk/demo/vendor/common/B91/calibration/calibration.c:164
				user_calib_adc_vref(USER_CALIB_FROM_FLASH, FLASH_ADC_VREF_CALIB_ADDR_1M);
20001bd8:	000fe537          	lui	a0,0xfe
20001bdc:	0c050513          	addi	a0,a0,192 # fe0c0 <_STACK_TOP+0x5e0c0>
20001be0:	eccff0ef          	jal	ra,200012ac <user_calib_adc_vref.constprop.25>
E:/promotion/gitlab/opensdk/Mars_B91/telink_rocket_driver_sdk/demo/vendor/common/B91/calibration/calibration.c:165
				user_calib_freq_offset(USER_CALIB_FROM_FLASH, FLASH_CAP_VALUE_ADDR_1M);
20001be4:	000fe537          	lui	a0,0xfe
20001be8:	811ff0ef          	jal	ra,200013f8 <user_calib_freq_offset.constprop.24>
20001bec:	b95ff06f          	j	20001780 <main+0x328>
E:/promotion/gitlab/opensdk/Mars_B91/telink_rocket_driver_sdk/demo/vendor/common/B91/calibration/calibration.c:168
				user_calib_adc_vref(USER_CALIB_FROM_FLASH, FLASH_ADC_VREF_CALIB_ADDR_2M);
20001bf0:	001fe537          	lui	a0,0x1fe
20001bf4:	0c050513          	addi	a0,a0,192 # 1fe0c0 <FLASH_SIZE+0xfe0c0>
20001bf8:	eb4ff0ef          	jal	ra,200012ac <user_calib_adc_vref.constprop.25>
E:/promotion/gitlab/opensdk/Mars_B91/telink_rocket_driver_sdk/demo/vendor/common/B91/calibration/calibration.c:169
				user_calib_freq_offset(USER_CALIB_FROM_FLASH, FLASH_CAP_VALUE_ADDR_2M);
20001bfc:	001fe537          	lui	a0,0x1fe
20001c00:	ff8ff0ef          	jal	ra,200013f8 <user_calib_freq_offset.constprop.24>
20001c04:	b7dff06f          	j	20001780 <main+0x328>
E:/promotion/gitlab/opensdk/Mars_B91/telink_rocket_driver_sdk/demo/vendor/common/B91/calibration/calibration.c:149
		switch (flash_mid[2])
20001c08:	0507d25b          	beqc	a5,16,20001c4c <main+0x7f4>
20001c0c:	0317ea5b          	bnec	a5,17,20001c40 <main+0x7e8>
E:/promotion/gitlab/opensdk/Mars_B91/telink_rocket_driver_sdk/demo/vendor/common/B91/calibration/calibration.c:156
				user_calib_adc_vref(USER_CALIB_FROM_FLASH, FLASH_ADC_VREF_CALIB_ADDR_128K);
20001c10:	0001e537          	lui	a0,0x1e
20001c14:	0c050513          	addi	a0,a0,192 # 1e0c0 <BIN_SIZE+0x1c412>
20001c18:	e94ff0ef          	jal	ra,200012ac <user_calib_adc_vref.constprop.25>
E:/promotion/gitlab/opensdk/Mars_B91/telink_rocket_driver_sdk/demo/vendor/common/B91/calibration/calibration.c:157
				user_calib_freq_offset(USER_CALIB_FROM_FLASH, FLASH_CAP_VALUE_ADDR_128K);
20001c1c:	0001e537          	lui	a0,0x1e
20001c20:	fd8ff0ef          	jal	ra,200013f8 <user_calib_freq_offset.constprop.24>
20001c24:	b5dff06f          	j	20001780 <main+0x328>
E:/promotion/gitlab/opensdk/Mars_B91/telink_rocket_driver_sdk/demo/vendor/common/B91/calibration/calibration.c:160
				user_calib_adc_vref(USER_CALIB_FROM_FLASH, FLASH_ADC_VREF_CALIB_ADDR_512K);
20001c28:	0007e537          	lui	a0,0x7e
20001c2c:	0c050513          	addi	a0,a0,192 # 7e0c0 <BIN_SIZE+0x7c412>
20001c30:	e7cff0ef          	jal	ra,200012ac <user_calib_adc_vref.constprop.25>
E:/promotion/gitlab/opensdk/Mars_B91/telink_rocket_driver_sdk/demo/vendor/common/B91/calibration/calibration.c:161
				user_calib_freq_offset(USER_CALIB_FROM_FLASH, FLASH_CAP_VALUE_ADDR_512K);
20001c34:	0007e537          	lui	a0,0x7e
20001c38:	fc0ff0ef          	jal	ra,200013f8 <user_calib_freq_offset.constprop.24>
20001c3c:	b45ff06f          	j	20001780 <main+0x328>
E:/promotion/gitlab/opensdk/Mars_B91/telink_rocket_driver_sdk/demo/vendor/common/B91/calibration/calibration.c:182
				break;
		}
	}
	else
	{
		user_calib_adc_vref(USER_CALIB_FROM_FLASH, 0);
20001c40:	00000513          	li	a0,0
20001c44:	e68ff0ef          	jal	ra,200012ac <user_calib_adc_vref.constprop.25>
20001c48:	b39ff06f          	j	20001780 <main+0x328>
E:/promotion/gitlab/opensdk/Mars_B91/telink_rocket_driver_sdk/demo/vendor/common/B91/calibration/calibration.c:152
				user_calib_adc_vref(USER_CALIB_FROM_FLASH, FLASH_ADC_VREF_CALIB_ADDR_64K);
20001c4c:	0000e537          	lui	a0,0xe
20001c50:	0c050513          	addi	a0,a0,192 # e0c0 <BIN_SIZE+0xc412>
20001c54:	e58ff0ef          	jal	ra,200012ac <user_calib_adc_vref.constprop.25>
E:/promotion/gitlab/opensdk/Mars_B91/telink_rocket_driver_sdk/demo/vendor/common/B91/calibration/calibration.c:153
				user_calib_freq_offset(USER_CALIB_FROM_FLASH, FLASH_CAP_VALUE_ADDR_64K);
20001c58:	0000e537          	lui	a0,0xe
20001c5c:	f9cff0ef          	jal	ra,200013f8 <user_calib_freq_offset.constprop.24>
20001c60:	b605                	c.j	20001780 <main+0x328>
main():
20001c62:	0001                	c.nop

20001c64 <default_irq_entry>:
entry_irq55():
E:/promotion/gitlab/opensdk/Mars_B91/telink_rocket_driver_sdk/chip/B91/boot/cstartup_flash.S:434
.text
	.global default_irq_entry
	.align 2

default_irq_entry:
1:	j 1b
20001c64:	a001                	c.j	20001c64 <default_irq_entry>

20001c66 <trap_handler>:
trap_handler():
E:/promotion/gitlab/opensdk/Mars_B91/telink_rocket_driver_sdk/chip/B91/boot/cstartup_flash.S:439

       .weak trap_handler

 trap_handler:
1:	j 1b
20001c66:	a001                	c.j	20001c66 <trap_handler>
20001c68:	0001                	c.nop
