
MDEC_Demo.elf:     file format elf32-littleriscv
MDEC_Demo.elf
architecture: riscv:rv32, flags 0x00000112:
EXEC_P, HAS_SYMS, D_PAGED
start address 0x20000000

Program Header:
    LOAD off    0x00001000 vaddr 0x20000000 paddr 0x20000000 align 2**12
         filesz 0x0000018a memsz 0x0000018a flags r-x
    LOAD off    0x00002000 vaddr 0x00000000 paddr 0x20000190 align 2**12
         filesz 0x000001bc memsz 0x000001bc flags rwx
    LOAD off    0x00002200 vaddr 0x00000200 paddr 0x20000350 align 2**12
         filesz 0x00002602 memsz 0x00002602 flags r-x
    LOAD off    0x00004958 vaddr 0x20002958 paddr 0x20002958 align 2**12
         filesz 0x000008f0 memsz 0x000008f0 flags r-x
    LOAD off    0x00006000 vaddr 0x00080000 paddr 0x20003260 align 2**12
         filesz 0x00000006 memsz 0x00000006 flags rw-
    LOAD off    0x00006260 vaddr 0x20003260 paddr 0x20003260 align 2**12
         filesz 0x00000000 memsz 0x00000000 flags r--
    LOAD off    0x00007028 vaddr 0x00080028 paddr 0x20003266 align 2**12
         filesz 0x00000022 memsz 0x00000022 flags rw-
    LOAD off    0x00008008 vaddr 0x00080008 paddr 0x20003268 align 2**12
         filesz 0x00000000 memsz 0x00000020 flags rw-
0x70000000 off    0x00013bcf vaddr 0x00000000 paddr 0x00000000 align 2**0
         filesz 0x0000003b memsz 0x00000000 flags r--

Sections:
Idx Name              Size      VMA       LMA       File off  Algn  Flags
  0 .vectors          0000018a  20000000  20000000  00001000  2**2  CONTENTS, ALLOC, LOAD, READONLY, CODE
  1 .retention_reset  00000154  00000000  20000190  00002000  2**2  CONTENTS, ALLOC, LOAD, READONLY, CODE
  2 .retention_data   00000064  00000158  200002e8  00002158  2**2  CONTENTS, ALLOC, LOAD, DATA
  3 .ram_code         00002602  00000200  20000350  00002200  2**8  CONTENTS, ALLOC, LOAD, READONLY, CODE
  4 .text             000008e0  20002958  20002958  00004958  2**2  CONTENTS, ALLOC, LOAD, READONLY, CODE
  5 .rodata           00000010  20003238  20003238  00005238  2**2  CONTENTS, ALLOC, LOAD, READONLY, DATA
  6 .eh_frame         00000000  20003260  20003260  00006260  2**2  CONTENTS, ALLOC, LOAD, READONLY, DATA
  7 .data             00000006  00080000  20003260  00006000  2**2  CONTENTS, ALLOC, LOAD, DATA
  8 .sbss             0000001c  00080008  20003268  00008008  2**2  ALLOC
  9 .bss              00000004  00080024  20003284  00008008  2**0  ALLOC
 10 .sdk_version      00000022  00080028  20003266  00007028  2**2  CONTENTS, ALLOC, LOAD, DATA
 11 .debug_info       0000434f  00000000  00000000  0000704a  2**0  CONTENTS, READONLY, DEBUGGING
 12 .debug_abbrev     0000061b  00000000  00000000  0000b399  2**0  CONTENTS, READONLY, DEBUGGING
 13 .debug_loc        00001b02  00000000  00000000  0000b9b4  2**0  CONTENTS, READONLY, DEBUGGING
 14 .debug_aranges    00000340  00000000  00000000  0000d4b8  2**3  CONTENTS, READONLY, DEBUGGING
 15 .debug_ranges     00000e98  00000000  00000000  0000d7f8  2**3  CONTENTS, READONLY, DEBUGGING
 16 .debug_line       000032da  00000000  00000000  0000e690  2**0  CONTENTS, READONLY, DEBUGGING
 17 .debug_str        0000222e  00000000  00000000  0001196a  2**0  CONTENTS, READONLY, DEBUGGING
 18 .comment          00000037  00000000  00000000  00013b98  2**0  CONTENTS, READONLY
 19 .riscv.attributes 0000003b  00000000  00000000  00013bcf  2**0  CONTENTS, READONLY
 20 .debug_frame      0000107c  00000000  00000000  00013c0c  2**2  CONTENTS, READONLY, DEBUGGING
SYMBOL TABLE:
20000000 l    d  .vectors	00000000 .vectors
00000000 l    d  .retention_reset	00000000 .retention_reset
00000158 l    d  .retention_data	00000000 .retention_data
00000200 l    d  .ram_code	00000000 .ram_code
20002958 l    d  .text	00000000 .text
20003238 l    d  .rodata	00000000 .rodata
20003260 l    d  .eh_frame	00000000 .eh_frame
00080000 l    d  .data	00000000 .data
00080008 l    d  .sbss	00000000 .sbss
00080024 l    d  .bss	00000000 .bss
00080028 l    d  .sdk_version	00000000 .sdk_version
00000000 l    d  .debug_info	00000000 .debug_info
00000000 l    d  .debug_abbrev	00000000 .debug_abbrev
00000000 l    d  .debug_loc	00000000 .debug_loc
00000000 l    d  .debug_aranges	00000000 .debug_aranges
00000000 l    d  .debug_ranges	00000000 .debug_ranges
00000000 l    d  .debug_line	00000000 .debug_line
00000000 l    d  .debug_str	00000000 .debug_str
00000000 l    d  .comment	00000000 .comment
00000000 l    d  .riscv.attributes	00000000 .riscv.attributes
00000000 l    d  .debug_frame	00000000 .debug_frame
00000000 l    df *ABS*	00000000 ./boot/cstartup_flash.o
20000028 l       .vectors	00000000 _START
2000008e l       .vectors	00000000 _RETENTION_RESET_INIT
200000a6 l       .vectors	00000000 _RETENTION_RESET_BEGIN
200000b8 l       .vectors	00000000 _RETENTION_DATA_INIT
200000cc l       .vectors	00000000 _RETENTION_DATA_INIT_BEGIN
200000de l       .vectors	00000000 _RAMCODE_INIT
200000f6 l       .vectors	00000000 _RAMCODE_INIT_BEGIN
20000108 l       .vectors	00000000 _DATA_INIT
20000120 l       .vectors	00000000 _DATA_INIT_BEGIN
20000132 l       .vectors	00000000 _ZERO_BSS
20000146 l       .vectors	00000000 _ZERO_BSS_BEGIN
20000152 l       .vectors	00000000 _ZERO_AES
20000166 l       .vectors	00000000 _ZERO_AES_BEGIN
20000172 l       .vectors	00000000 _FILL_STK
20000172 l       .vectors	00000000 _MAIN_FUNC
20000188 l       .vectors	00000000 _END
00000022 l       .retention_reset	00000000 _ISTART
0000002a l       .retention_reset	00000000 _ISWS_USB_DIS
00000088 l       .retention_reset	00000000 _WAKEUP_FLASH
000000a2 l       .retention_reset	00000000 _MSPI_WAIT
000000bc l       .retention_reset	00000000 _WAIT_EFUSE_LOAD_FINISH
000000c2 l       .retention_reset	00000000 _MULTI_ADDRESS_BEGIN
000000d2 l       .retention_reset	00000000 _IDATA_INIT
000000ea l       .retention_reset	00000000 _IDATA_INIT_BEGIN
000000fc l       .retention_reset	00000000 _IZERO_BSS
00000110 l       .retention_reset	00000000 _IZERO_BSS_BEGIN
0000011c l       .retention_reset	00000000 _IZERO_AES
00000130 l       .retention_reset	00000000 _IZERO_AES_BEGIN
0000013c l       .retention_reset	00000000 _IFILL_STK
0000013c l       .retention_reset	00000000 _IMAIN_FUNC
00000152 l       .retention_reset	00000000 _IEND
00000040 l       *ABS*	00000000 irqno
00000000 l    df *ABS*	00000000 
20002aa4 l     F .text	000000fc user_calib_adc_vref.constprop.11
00000200 l     F .ram_code	00000020 delay_ms.constprop.8
00000220 l     F .ram_code	00000044 flash_send_addr
00000264 l     F .ram_code	00000048 flash_send_cmd
000002ac l     F .ram_code	00000060 clock_set_32k_tick
20002ba0 l     F .text	00000042 analog_read_reg32.constprop.3
0000030c l     F .ram_code	00000030 clock_get_32k_tick
0000033c l     F .ram_code	00000094 pm_stimer_recover
000003d0 l     F .ram_code	00000044 plic_exit_critical_sec
00000414 l     F .ram_code	0000004c plic_enter_critical_sec
00000460 l     F .ram_code	00000180 flash_mspi_read_ram
20002958 l     F .text	0000002c flash_read_uid.constprop.9
20002984 l     F .text	0000002c flash_read_mid
200029b0 l     F .text	00000090 flash_read_mid_uid_with_check
20002a40 l     F .text	0000002c flash_dread
000005e0 l     F .ram_code	0000003c analog_write_reg8
0000061c l     F .ram_code	00000044 analog_read_reg8
20002be4 l     F .text	0000005c user_calib_freq_offset.constprop.10
00000660 l     F .ram_code	00000134 clock_init_ram.constprop.5
20002a6c l     F .text	0000001c clock_init.constprop.4
00000794 l     F .ram_code	000000b4 pm_wait_bbpll_done
00000848 l     F .ram_code	00000194 pm_sleep_start
000009dc l     F .ram_code	00000038 pm_irq_handler
00000a14 l     F .ram_code	0000030c pm_sleep_wakeup_ram.constprop.2
20002a88 l     F .text	0000001a pm_sleep_wakeup.constprop.1
00000158 l     O .retention_data	00000004 flash_read_page
0000015c l     O .retention_data	00000001 g_pm_long_suspend
00000160 l     O .retention_data	00000004 g_pm_tick_cur
00000164 l     O .retention_data	00000029 pmcd
00000190 l     O .retention_data	00000004 g_pm_tick_32k_calib
00000194 l     O .retention_data	00000001 g_plic_preempt_en
00000198 l     O .retention_data	00000002 s_flash_preempt_config
0000019a l     O .retention_data	00000001 g_pm_suspend_power_cfg
0000019c l     O .retention_data	00000008 g_pm_early_wakeup_time_us
000001a4 l     O .retention_data	00000004 g_pm_tick_32k_cur
000001a8 l     O .retention_data	00000001 g_pm_tick_update_en
000001ac l     O .retention_data	00000004 g_pm_r_delay_cycle
000001b0 l     O .retention_data	00000008 g_pm_longsleep_early_wakeup_time_us
00080008 l     O .sbss	00000005 dat
00080010 l     O .sbss	00000004 g_chip_version
00080014 l     O .sbss	00000004 g_pm_status_info
00080018 l     O .sbss	00000004 mcause
0008001c l     O .sbss	00000001 mdec_test_cnt
00080020 l     O .sbss	00000004 mepc
00080000 l     O .data	00000006 sys_clk
00080028 l     O .sdk_version	00000022 sdk_version
00001128 g     F .ram_code	00000070 entry_irq55
00002028 g     F .ram_code	00000070 entry_irq13
00001f48 g     F .ram_code	00000070 entry_irq15
00001a08 g     F .ram_code	00000070 entry_irq27
00000ef8 g     F .ram_code	00000070 entry_irq60
00002568 g     F .ram_code	00000070 entry_irq1
00001278 g     F .ram_code	00000070 entry_irq52
00001358 g     F .ram_code	00000070 entry_irq50
00000d90 g     F .ram_code	000000f8 entry_irq62
00080800 g       .data	00000000 __global_pointer$
00000fd8 g     F .ram_code	00000070 entry_irq58
000001bc g       .retention_data	00000000 _RETENTION_DATA_VMA_END
00000000 g       .retention_reset	00000000 _RETENTION_RESET_VMA_START
00002178 g     F .ram_code	00000070 entry_irq10
00001ca8 g     F .ram_code	00000070 entry_irq21
00000158 g       .retention_data	00000000 _AES_VMA_START
000013cc g     F .ram_code	00000004 entry_irq48
00002258 g     F .ram_code	00000070 entry_irq8
00001768 g     F .ram_code	00000070 entry_irq33
00080028 g       .bss	00000000 _BSS_VMA_END
20000190 g       *ABS*	00000000 _RETENTION_RESET_LMA_START
00002098 g     F .ram_code	00000070 entry_irq12
00001fb8 g     F .ram_code	00000070 entry_irq14
000024f8 g     F .ram_code	00000070 entry_irq2
000012e8 g     F .ram_code	00000070 entry_irq51
00001998 g     F .ram_code	00000070 entry_irq28
000014b8 g     F .ram_code	00000070 entry_irq43
00001d18 g     F .ram_code	00000070 entry_irq20
00080008 g       .sbss	00000000 _BSS_VMA_START
00000d20 g     F .ram_code	00000070 entry_irq63
00080006 g       .data	00000000 _DATA_VMA_END
000013d4 g     F .ram_code	00000070 entry_irq46
00001848 g     F .ram_code	00000070 entry_irq31
00001ed8 g     F .ram_code	00000070 entry_irq16
00100000 g       *ABS*	00000000 FLASH_SIZE
00080000 g       .data	00000000 _DATA_VMA_START
00001208 g     F .ram_code	00000070 entry_irq53
00002108 g     F .ram_code	00000070 entry_irq11
00000154 g       .retention_reset	00000000 _RETENTION_RESET_VMA_END
000023a8 g     F .ram_code	00000070 entry_irq5
00001bc8 g     F .ram_code	00000070 entry_irq23
000016f8 g     F .ram_code	00000070 entry_irq34
00001618 g     F .ram_code	00000070 entry_irq36
00001448 g     F .ram_code	00000070 entry_irq44
00001444 g     F .ram_code	00000004 entry_irq45
00001a78 g     F .ram_code	00000070 entry_irq26
00001598 g     F .ram_code	00000004 entry_irq41
00000e88 g     F .ram_code	00000070 entry_irq61
20000000 g       .vectors	00000000 BIN_BEGIN
000015a4 g     F .ram_code	00000004 entry_irq38
00002700 g       .ram_code	00000000 __vectors
00003288 g       *ABS*	00000000 BIN_SIZE
20000350 g       *ABS*	00000000 _RAMCODE_LMA_START
00000f68 g     F .ram_code	00000070 entry_irq59
00002338 g     F .ram_code	00000070 entry_irq6
20003260 g       *ABS*	00000000 _DATA_LMA_START
20000000 g       *ABS*	00000000 NDS_SAG_LMA_FLASH
20000000  w      .vectors	00000000 _RELAX_END_
20002c44 g     F .text	000005f2 main
00002488 g     F .ram_code	00000070 entry_irq3
000025d8 g     F .ram_code	00000034 trap_entry
00000158 g       .retention_data	00000000 _AES_VMA_END
000015a0 g     F .ram_code	00000004 entry_irq39
000013c8 g     F .ram_code	00000004 entry_irq49
00001048 g     F .ram_code	00000070 entry_irq57
000013d0 g     F .ram_code	00000004 entry_irq47
200002e8 g       *ABS*	00000000 _RETENTION_DATA_LMA_START
20000000 g     F .vectors	00000000 _RESET_ENTRY
00000158 g       .retention_data	00000000 _RETENTION_DATA_VMA_START
00002418 g     F .ram_code	00000070 entry_irq4
000a0000 g       *ABS*	00000000 _STACK_TOP
00001c38 g     F .ram_code	00000070 entry_irq22
000018b8 g     F .ram_code	00000070 entry_irq30
00001528 g     F .ram_code	00000070 entry_irq42
00001b58 g     F .ram_code	00000070 entry_irq24
00002802 g       .ram_code	00000000 _RAMCODE_VMA_END
00000000  w      *ABS*	00000000 _ITB_BASE_
00001d88 g     F .ram_code	00000070 entry_irq19
00080050 g       .sdk_version	00000000 _end
00001e68 g     F .ram_code	00000070 entry_irq17
000021e8 g     F .ram_code	00000070 entry_irq9
000010b8 g     F .ram_code	00000070 entry_irq56
00001688 g     F .ram_code	00000070 entry_irq35
000015a8 g     F .ram_code	00000070 entry_irq37
000001b8 g     O .retention_data	00000004 g_pm_mspi_cfg
00001198 g     F .ram_code	00000070 entry_irq54
0000159c g     F .ram_code	00000004 entry_irq40
00000200 g       .ram_code	00000000 _RAMCODE_VMA_START
00001928 g     F .ram_code	00000070 entry_irq29
000022c8 g     F .ram_code	00000070 entry_irq7
000017d8 g     F .ram_code	00000070 entry_irq32
00000000 g     F .retention_reset	00000000 _IRESET_ENTRY
00001df8 g     F .ram_code	00000070 entry_irq18
00001ae8 g     F .ram_code	00000070 entry_irq25



Disassembly of section .vectors:

20000000 <_RESET_ENTRY>:
BIN_BEGIN():
E:/promotion/gitlab/opensdk/Mars_B91/telink_mars_b91_driver_sdk_v2.2.0/chip/B91/boot/cstartup_flash.S:54
    .global _RESET_ENTRY
 	.type _RESET_ENTRY,@function

    .align 2
_RESET_ENTRY:
	j 		 _START
20000000:	a025                	c.j	20000028 <_START>
	...
20000016:	0000                	unimp
20000018:	3288                	c.fld	fa0,32(a3)
2000001a:	0000                	unimp
2000001c:	0000                	unimp
2000001e:	0000                	unimp
20000020:	544c4e4b          	fnmsub.h	ft8,fs8,ft4,fa0,rmm
20000024:	0000                	unimp
20000026:	          	sllw	a4,zero,zero

20000028 <_START>:
_START():
E:/promotion/gitlab/opensdk/Mars_B91/telink_mars_b91_driver_sdk_v2.2.0/chip/B91/boot/cstartup_flash.S:85
	sb		t2 , 0x30b(t0)		 //0x8014030b  PB output  =  0x10
#endif
	/* Initialize global pointer */
    .option push
    .option norelax
    la     gp, __global_pointer$
20000028:	e0080197          	auipc	gp,0xe0080
2000002c:	7d818193          	addi	gp,gp,2008 # 80800 <__global_pointer$>
E:/promotion/gitlab/opensdk/Mars_B91/telink_mars_b91_driver_sdk_v2.2.0/chip/B91/boot/cstartup_flash.S:89
    .option pop

#if DP_THROUGH_SWIRE_DIS
	lui		t0, 0x80100
20000030:	801002b7          	lui	t0,0x80100
E:/promotion/gitlab/opensdk/Mars_B91/telink_mars_b91_driver_sdk_v2.2.0/chip/B91/boot/cstartup_flash.S:90
	addi	t0 , t0 , 0x700
20000034:	70028293          	addi	t0,t0,1792 # 80100700 <_DATA_LMA_START+0x600fd4a0>
E:/promotion/gitlab/opensdk/Mars_B91/telink_mars_b91_driver_sdk_v2.2.0/chip/B91/boot/cstartup_flash.S:91
	li		t1, 0x040
20000038:	04000313          	li	t1,64
E:/promotion/gitlab/opensdk/Mars_B91/telink_mars_b91_driver_sdk_v2.2.0/chip/B91/boot/cstartup_flash.S:92
	sb		t1, 0x501(t0)  //0x80100c01 -> 0x40  <7>: 0 swire_usb_dis <6>:read-only bit
2000003c:	506280a3          	sb	t1,1281(t0)
E:/promotion/gitlab/opensdk/Mars_B91/telink_mars_b91_driver_sdk_v2.2.0/chip/B91/boot/cstartup_flash.S:95
#endif
	/* Initialize stack pointer */
    la     t0, _STACK_TOP
20000040:	e00a0297          	auipc	t0,0xe00a0
20000044:	fc028293          	addi	t0,t0,-64 # a0000 <_STACK_TOP>
E:/promotion/gitlab/opensdk/Mars_B91/telink_mars_b91_driver_sdk_v2.2.0/chip/B91/boot/cstartup_flash.S:96
    mv     sp, t0
20000048:	8116                	c.mv	sp,t0
E:/promotion/gitlab/opensdk/Mars_B91/telink_mars_b91_driver_sdk_v2.2.0/chip/B91/boot/cstartup_flash.S:100

#ifdef __nds_execit
	/* Initialize EXEC.IT table */
	la t0, _ITB_BASE_
2000004a:	e0000297          	auipc	t0,0xe0000
2000004e:	fb628293          	addi	t0,t0,-74 # 0 <_ITB_BASE_>
E:/promotion/gitlab/opensdk/Mars_B91/telink_mars_b91_driver_sdk_v2.2.0/chip/B91/boot/cstartup_flash.S:101
	csrw uitb, t0
20000052:	80029073          	csrw	uitb,t0
E:/promotion/gitlab/opensdk/Mars_B91/telink_mars_b91_driver_sdk_v2.2.0/chip/B91/boot/cstartup_flash.S:106
#endif

#ifdef __riscv_flen
	/* Enable FPU */
	li t0, 0x00006000
20000056:	6299                	c.lui	t0,0x6
E:/promotion/gitlab/opensdk/Mars_B91/telink_mars_b91_driver_sdk_v2.2.0/chip/B91/boot/cstartup_flash.S:107
	csrrs t0, mstatus, t0
20000058:	3002a2f3          	csrrs	t0,mstatus,t0
E:/promotion/gitlab/opensdk/Mars_B91/telink_mars_b91_driver_sdk_v2.2.0/chip/B91/boot/cstartup_flash.S:109
	/* Initialize FCSR */
	fscsr zero
2000005c:	00301073          	fssr	zero
E:/promotion/gitlab/opensdk/Mars_B91/telink_mars_b91_driver_sdk_v2.2.0/chip/B91/boot/cstartup_flash.S:113
#endif

    /* Initial machine trap-vector Base */
    la     t0, __vectors
20000060:	e0002297          	auipc	t0,0xe0002
20000064:	6a028293          	addi	t0,t0,1696 # 2700 <__vectors>
E:/promotion/gitlab/opensdk/Mars_B91/telink_mars_b91_driver_sdk_v2.2.0/chip/B91/boot/cstartup_flash.S:114
    csrw   mtvec, t0
20000068:	30529073          	csrw	mtvec,t0
E:/promotion/gitlab/opensdk/Mars_B91/telink_mars_b91_driver_sdk_v2.2.0/chip/B91/boot/cstartup_flash.S:117

    /* Enable vectored external plic interrupt */
    csrsi  mmisc_ctl, 2
2000006c:	7d016073          	csrsi	mmisc_ctl,2
E:/promotion/gitlab/opensdk/Mars_B91/telink_mars_b91_driver_sdk_v2.2.0/chip/B91/boot/cstartup_flash.S:120

	/*vector mode enable bit (VECTORED) of the Feature Enable Register */
    lui		t0, 0xe4000
20000070:	e40002b7          	lui	t0,0xe4000
E:/promotion/gitlab/opensdk/Mars_B91/telink_mars_b91_driver_sdk_v2.2.0/chip/B91/boot/cstartup_flash.S:121
	li		t1, 0x02
20000074:	4309                	c.li	t1,2
E:/promotion/gitlab/opensdk/Mars_B91/telink_mars_b91_driver_sdk_v2.2.0/chip/B91/boot/cstartup_flash.S:122
	sw		t1, 0x0(t0)		 //(*(volatile unsigned long*)(0xe4000000))= 0x02
20000076:	0062a023          	sw	t1,0(t0) # e4000000 <_DATA_LMA_START+0xc3ffcda0>
E:/promotion/gitlab/opensdk/Mars_B91/telink_mars_b91_driver_sdk_v2.2.0/chip/B91/boot/cstartup_flash.S:125

    /* Enable I/D-Cache */
    csrr   t0,  mcache_ctl
2000007a:	7ca022f3          	csrr	t0,mcache_ctl
E:/promotion/gitlab/opensdk/Mars_B91/telink_mars_b91_driver_sdk_v2.2.0/chip/B91/boot/cstartup_flash.S:126
    ori    t0,  t0,  1  #/I-Cache
2000007e:	0012e293          	ori	t0,t0,1
E:/promotion/gitlab/opensdk/Mars_B91/telink_mars_b91_driver_sdk_v2.2.0/chip/B91/boot/cstartup_flash.S:127
    ori    t0,  t0,  2  #/D-Cache
20000082:	0022e293          	ori	t0,t0,2
E:/promotion/gitlab/opensdk/Mars_B91/telink_mars_b91_driver_sdk_v2.2.0/chip/B91/boot/cstartup_flash.S:128
    csrw   mcache_ctl,  t0
20000086:	7ca29073          	csrw	mcache_ctl,t0
E:/promotion/gitlab/opensdk/Mars_B91/telink_mars_b91_driver_sdk_v2.2.0/chip/B91/boot/cstartup_flash.S:129
    fence.i
2000008a:	0000100f          	fence.i

2000008e <_RETENTION_RESET_INIT>:
_RETENTION_RESET_INIT():
E:/promotion/gitlab/opensdk/Mars_B91/telink_mars_b91_driver_sdk_v2.2.0/chip/B91/boot/cstartup_flash.S:133
	/* Move retention reset from flash to sram */
_RETENTION_RESET_INIT:

    la     t1, _RETENTION_RESET_LMA_START
2000008e:	00000317          	auipc	t1,0x0
20000092:	10230313          	addi	t1,t1,258 # 20000190 <_RETENTION_RESET_LMA_START>
E:/promotion/gitlab/opensdk/Mars_B91/telink_mars_b91_driver_sdk_v2.2.0/chip/B91/boot/cstartup_flash.S:134
    la     t2, _RETENTION_RESET_VMA_START
20000096:	e0000397          	auipc	t2,0xe0000
2000009a:	f6a38393          	addi	t2,t2,-150 # 0 <_ITB_BASE_>
E:/promotion/gitlab/opensdk/Mars_B91/telink_mars_b91_driver_sdk_v2.2.0/chip/B91/boot/cstartup_flash.S:135
    la     t3, _RETENTION_RESET_VMA_END
2000009e:	e0000e17          	auipc	t3,0xe0000
200000a2:	0b6e0e13          	addi	t3,t3,182 # 154 <_RETENTION_RESET_VMA_END>

200000a6 <_RETENTION_RESET_BEGIN>:
_RETENTION_RESET_BEGIN():
E:/promotion/gitlab/opensdk/Mars_B91/telink_mars_b91_driver_sdk_v2.2.0/chip/B91/boot/cstartup_flash.S:137
_RETENTION_RESET_BEGIN:
    bleu    t3, t2, _RETENTION_DATA_INIT
200000a6:	01c3f963          	bgeu	t2,t3,200000b8 <_RETENTION_DATA_INIT>
E:/promotion/gitlab/opensdk/Mars_B91/telink_mars_b91_driver_sdk_v2.2.0/chip/B91/boot/cstartup_flash.S:138
    lw     t0, 0(t1)
200000aa:	00032283          	lw	t0,0(t1)
E:/promotion/gitlab/opensdk/Mars_B91/telink_mars_b91_driver_sdk_v2.2.0/chip/B91/boot/cstartup_flash.S:139
    sw     t0, 0(t2)
200000ae:	0053a023          	sw	t0,0(t2)
E:/promotion/gitlab/opensdk/Mars_B91/telink_mars_b91_driver_sdk_v2.2.0/chip/B91/boot/cstartup_flash.S:140
    addi   t1, t1, 4
200000b2:	0311                	c.addi	t1,4
E:/promotion/gitlab/opensdk/Mars_B91/telink_mars_b91_driver_sdk_v2.2.0/chip/B91/boot/cstartup_flash.S:141
    addi   t2, t2, 4
200000b4:	0391                	c.addi	t2,4
E:/promotion/gitlab/opensdk/Mars_B91/telink_mars_b91_driver_sdk_v2.2.0/chip/B91/boot/cstartup_flash.S:142
    j      _RETENTION_RESET_BEGIN
200000b6:	bfc5                	c.j	200000a6 <_RETENTION_RESET_BEGIN>

200000b8 <_RETENTION_DATA_INIT>:
_RETENTION_DATA_INIT():
E:/promotion/gitlab/opensdk/Mars_B91/telink_mars_b91_driver_sdk_v2.2.0/chip/B91/boot/cstartup_flash.S:147

	/* Move retention from flash to sram */
_RETENTION_DATA_INIT:

    la     t1, _RETENTION_DATA_LMA_START
200000b8:	00000317          	auipc	t1,0x0
200000bc:	23030313          	addi	t1,t1,560 # 200002e8 <_RETENTION_DATA_LMA_START>
E:/promotion/gitlab/opensdk/Mars_B91/telink_mars_b91_driver_sdk_v2.2.0/chip/B91/boot/cstartup_flash.S:148
    la     t2, _RETENTION_DATA_VMA_START
200000c0:	15800393          	li	t2,344
E:/promotion/gitlab/opensdk/Mars_B91/telink_mars_b91_driver_sdk_v2.2.0/chip/B91/boot/cstartup_flash.S:149
    la     t3, _RETENTION_DATA_VMA_END
200000c4:	e0000e17          	auipc	t3,0xe0000
200000c8:	0f8e0e13          	addi	t3,t3,248 # 1bc <_RETENTION_DATA_VMA_END>

200000cc <_RETENTION_DATA_INIT_BEGIN>:
_RETENTION_DATA_INIT_BEGIN():
E:/promotion/gitlab/opensdk/Mars_B91/telink_mars_b91_driver_sdk_v2.2.0/chip/B91/boot/cstartup_flash.S:151
_RETENTION_DATA_INIT_BEGIN:
    bleu   t3, t2, _RAMCODE_INIT
200000cc:	01c3f963          	bgeu	t2,t3,200000de <_RAMCODE_INIT>
E:/promotion/gitlab/opensdk/Mars_B91/telink_mars_b91_driver_sdk_v2.2.0/chip/B91/boot/cstartup_flash.S:152
    lw     t0, 0(t1)
200000d0:	00032283          	lw	t0,0(t1)
E:/promotion/gitlab/opensdk/Mars_B91/telink_mars_b91_driver_sdk_v2.2.0/chip/B91/boot/cstartup_flash.S:153
    sw     t0, 0(t2)
200000d4:	0053a023          	sw	t0,0(t2)
E:/promotion/gitlab/opensdk/Mars_B91/telink_mars_b91_driver_sdk_v2.2.0/chip/B91/boot/cstartup_flash.S:154
    addi   t1, t1, 4
200000d8:	0311                	c.addi	t1,4
E:/promotion/gitlab/opensdk/Mars_B91/telink_mars_b91_driver_sdk_v2.2.0/chip/B91/boot/cstartup_flash.S:155
    addi   t2, t2, 4
200000da:	0391                	c.addi	t2,4
E:/promotion/gitlab/opensdk/Mars_B91/telink_mars_b91_driver_sdk_v2.2.0/chip/B91/boot/cstartup_flash.S:156
    j      _RETENTION_DATA_INIT_BEGIN
200000dc:	bfc5                	c.j	200000cc <_RETENTION_DATA_INIT_BEGIN>

200000de <_RAMCODE_INIT>:
_RAMCODE_INIT():
E:/promotion/gitlab/opensdk/Mars_B91/telink_mars_b91_driver_sdk_v2.2.0/chip/B91/boot/cstartup_flash.S:161

	/* Move ramcode from flash to sram */
_RAMCODE_INIT:

    la     t1, _RAMCODE_LMA_START
200000de:	00000317          	auipc	t1,0x0
200000e2:	27230313          	addi	t1,t1,626 # 20000350 <_RAMCODE_LMA_START>
E:/promotion/gitlab/opensdk/Mars_B91/telink_mars_b91_driver_sdk_v2.2.0/chip/B91/boot/cstartup_flash.S:162
    la     t2, _RAMCODE_VMA_START
200000e6:	e0000397          	auipc	t2,0xe0000
200000ea:	11a38393          	addi	t2,t2,282 # 200 <delay_ms.constprop.8>
E:/promotion/gitlab/opensdk/Mars_B91/telink_mars_b91_driver_sdk_v2.2.0/chip/B91/boot/cstartup_flash.S:163
    la     t3, _RAMCODE_VMA_END
200000ee:	e0002e17          	auipc	t3,0xe0002
200000f2:	714e0e13          	addi	t3,t3,1812 # 2802 <_RAMCODE_VMA_END>

200000f6 <_RAMCODE_INIT_BEGIN>:
_RAMCODE_INIT_BEGIN():
E:/promotion/gitlab/opensdk/Mars_B91/telink_mars_b91_driver_sdk_v2.2.0/chip/B91/boot/cstartup_flash.S:165
_RAMCODE_INIT_BEGIN:
    bleu    t3, t2, _DATA_INIT
200000f6:	01c3f963          	bgeu	t2,t3,20000108 <_DATA_INIT>
E:/promotion/gitlab/opensdk/Mars_B91/telink_mars_b91_driver_sdk_v2.2.0/chip/B91/boot/cstartup_flash.S:166
    lw     t0, 0(t1)
200000fa:	00032283          	lw	t0,0(t1)
E:/promotion/gitlab/opensdk/Mars_B91/telink_mars_b91_driver_sdk_v2.2.0/chip/B91/boot/cstartup_flash.S:167
    sw     t0, 0(t2)
200000fe:	0053a023          	sw	t0,0(t2)
E:/promotion/gitlab/opensdk/Mars_B91/telink_mars_b91_driver_sdk_v2.2.0/chip/B91/boot/cstartup_flash.S:168
    addi   t1, t1, 4
20000102:	0311                	c.addi	t1,4
E:/promotion/gitlab/opensdk/Mars_B91/telink_mars_b91_driver_sdk_v2.2.0/chip/B91/boot/cstartup_flash.S:169
    addi   t2, t2, 4
20000104:	0391                	c.addi	t2,4
E:/promotion/gitlab/opensdk/Mars_B91/telink_mars_b91_driver_sdk_v2.2.0/chip/B91/boot/cstartup_flash.S:170
    j      _RAMCODE_INIT_BEGIN
20000106:	bfc5                	c.j	200000f6 <_RAMCODE_INIT_BEGIN>

20000108 <_DATA_INIT>:
_DATA_INIT():
E:/promotion/gitlab/opensdk/Mars_B91/telink_mars_b91_driver_sdk_v2.2.0/chip/B91/boot/cstartup_flash.S:175


	/* Move Data from flash to sram */
_DATA_INIT:
    la     t1, _DATA_LMA_START
20000108:	00003317          	auipc	t1,0x3
2000010c:	15830313          	addi	t1,t1,344 # 20003260 <_DATA_LMA_START>
E:/promotion/gitlab/opensdk/Mars_B91/telink_mars_b91_driver_sdk_v2.2.0/chip/B91/boot/cstartup_flash.S:176
    la     t2, _DATA_VMA_START
20000110:	e0080397          	auipc	t2,0xe0080
20000114:	ef038393          	addi	t2,t2,-272 # 80000 <_DATA_VMA_START>
E:/promotion/gitlab/opensdk/Mars_B91/telink_mars_b91_driver_sdk_v2.2.0/chip/B91/boot/cstartup_flash.S:177
    la     t3, _DATA_VMA_END
20000118:	e0080e17          	auipc	t3,0xe0080
2000011c:	eeee0e13          	addi	t3,t3,-274 # 80006 <_DATA_VMA_END>

20000120 <_DATA_INIT_BEGIN>:
_DATA_INIT_BEGIN():
E:/promotion/gitlab/opensdk/Mars_B91/telink_mars_b91_driver_sdk_v2.2.0/chip/B91/boot/cstartup_flash.S:179
_DATA_INIT_BEGIN:
    bleu   t3, t2, _ZERO_BSS
20000120:	01c3f963          	bgeu	t2,t3,20000132 <_ZERO_BSS>
E:/promotion/gitlab/opensdk/Mars_B91/telink_mars_b91_driver_sdk_v2.2.0/chip/B91/boot/cstartup_flash.S:180
    lw     t0, 0(t1)
20000124:	00032283          	lw	t0,0(t1)
E:/promotion/gitlab/opensdk/Mars_B91/telink_mars_b91_driver_sdk_v2.2.0/chip/B91/boot/cstartup_flash.S:181
    sw     t0, 0(t2)
20000128:	0053a023          	sw	t0,0(t2)
E:/promotion/gitlab/opensdk/Mars_B91/telink_mars_b91_driver_sdk_v2.2.0/chip/B91/boot/cstartup_flash.S:182
    addi   t1, t1, 4
2000012c:	0311                	c.addi	t1,4
E:/promotion/gitlab/opensdk/Mars_B91/telink_mars_b91_driver_sdk_v2.2.0/chip/B91/boot/cstartup_flash.S:183
    addi   t2, t2, 4
2000012e:	0391                	c.addi	t2,4
E:/promotion/gitlab/opensdk/Mars_B91/telink_mars_b91_driver_sdk_v2.2.0/chip/B91/boot/cstartup_flash.S:184
    j      _DATA_INIT_BEGIN
20000130:	bfc5                	c.j	20000120 <_DATA_INIT_BEGIN>

20000132 <_ZERO_BSS>:
_ZERO_BSS():
E:/promotion/gitlab/opensdk/Mars_B91/telink_mars_b91_driver_sdk_v2.2.0/chip/B91/boot/cstartup_flash.S:190



	/* Zero .bss section in sram */
_ZERO_BSS:
    lui    t0, 0
20000132:	000002b7          	lui	t0,0x0
E:/promotion/gitlab/opensdk/Mars_B91/telink_mars_b91_driver_sdk_v2.2.0/chip/B91/boot/cstartup_flash.S:191
    la     t2, _BSS_VMA_START
20000136:	e0080397          	auipc	t2,0xe0080
2000013a:	ed238393          	addi	t2,t2,-302 # 80008 <_BSS_VMA_START>
E:/promotion/gitlab/opensdk/Mars_B91/telink_mars_b91_driver_sdk_v2.2.0/chip/B91/boot/cstartup_flash.S:192
    la     t3, _BSS_VMA_END
2000013e:	e0080e17          	auipc	t3,0xe0080
20000142:	eeae0e13          	addi	t3,t3,-278 # 80028 <_BSS_VMA_END>

20000146 <_ZERO_BSS_BEGIN>:
_ZERO_BSS_BEGIN():
E:/promotion/gitlab/opensdk/Mars_B91/telink_mars_b91_driver_sdk_v2.2.0/chip/B91/boot/cstartup_flash.S:194
_ZERO_BSS_BEGIN:
    bleu   t3, t2, _ZERO_AES
20000146:	01c3f663          	bgeu	t2,t3,20000152 <_ZERO_AES>
E:/promotion/gitlab/opensdk/Mars_B91/telink_mars_b91_driver_sdk_v2.2.0/chip/B91/boot/cstartup_flash.S:195
    sw     t0, 0(t2)
2000014a:	0053a023          	sw	t0,0(t2)
E:/promotion/gitlab/opensdk/Mars_B91/telink_mars_b91_driver_sdk_v2.2.0/chip/B91/boot/cstartup_flash.S:196
    addi   t2, t2, 4
2000014e:	0391                	c.addi	t2,4
E:/promotion/gitlab/opensdk/Mars_B91/telink_mars_b91_driver_sdk_v2.2.0/chip/B91/boot/cstartup_flash.S:197
    j      _ZERO_BSS_BEGIN
20000150:	bfdd                	c.j	20000146 <_ZERO_BSS_BEGIN>

20000152 <_ZERO_AES>:
_ZERO_AES():
E:/promotion/gitlab/opensdk/Mars_B91/telink_mars_b91_driver_sdk_v2.2.0/chip/B91/boot/cstartup_flash.S:201

	/* Zero .aes section in sram */
_ZERO_AES:
    lui    t0, 0
20000152:	000002b7          	lui	t0,0x0
E:/promotion/gitlab/opensdk/Mars_B91/telink_mars_b91_driver_sdk_v2.2.0/chip/B91/boot/cstartup_flash.S:202
    la     t2, _AES_VMA_START
20000156:	e0000397          	auipc	t2,0xe0000
2000015a:	00238393          	addi	t2,t2,2 # 158 <_AES_VMA_END>
E:/promotion/gitlab/opensdk/Mars_B91/telink_mars_b91_driver_sdk_v2.2.0/chip/B91/boot/cstartup_flash.S:203
    la     t3, _AES_VMA_END
2000015e:	e0000e17          	auipc	t3,0xe0000
20000162:	ffae0e13          	addi	t3,t3,-6 # 158 <_AES_VMA_END>

20000166 <_ZERO_AES_BEGIN>:
_ZERO_AES_BEGIN():
E:/promotion/gitlab/opensdk/Mars_B91/telink_mars_b91_driver_sdk_v2.2.0/chip/B91/boot/cstartup_flash.S:205
_ZERO_AES_BEGIN:
    bleu   t3, t2, _FILL_STK
20000166:	01c3f663          	bgeu	t2,t3,20000172 <_FILL_STK>
E:/promotion/gitlab/opensdk/Mars_B91/telink_mars_b91_driver_sdk_v2.2.0/chip/B91/boot/cstartup_flash.S:206
    sw     t0, 0(t2)
2000016a:	0053a023          	sw	t0,0(t2)
E:/promotion/gitlab/opensdk/Mars_B91/telink_mars_b91_driver_sdk_v2.2.0/chip/B91/boot/cstartup_flash.S:207
    addi   t2, t2, 4
2000016e:	0391                	c.addi	t2,4
E:/promotion/gitlab/opensdk/Mars_B91/telink_mars_b91_driver_sdk_v2.2.0/chip/B91/boot/cstartup_flash.S:208
    j      _ZERO_AES_BEGIN
20000170:	bfdd                	c.j	20000166 <_ZERO_AES_BEGIN>

20000172 <_FILL_STK>:
_FILL_STK():
E:/promotion/gitlab/opensdk/Mars_B91/telink_mars_b91_driver_sdk_v2.2.0/chip/B91/boot/cstartup_flash.S:225
    addi   t2, t2, 4
    j      _FILL_STK_BEGIN
#endif
	/* Jump to the main function */
_MAIN_FUNC:
    nop
20000172:	0001                	c.nop
E:/promotion/gitlab/opensdk/Mars_B91/telink_mars_b91_driver_sdk_v2.2.0/chip/B91/boot/cstartup_flash.S:227

    la     t0, main
20000174:	00003297          	auipc	t0,0x3
20000178:	ad028293          	addi	t0,t0,-1328 # 20002c44 <main>
E:/promotion/gitlab/opensdk/Mars_B91/telink_mars_b91_driver_sdk_v2.2.0/chip/B91/boot/cstartup_flash.S:228
    jalr   t0
2000017c:	9282                	c.jalr	t0
E:/promotion/gitlab/opensdk/Mars_B91/telink_mars_b91_driver_sdk_v2.2.0/chip/B91/boot/cstartup_flash.S:230

    nop
2000017e:	0001                	c.nop
E:/promotion/gitlab/opensdk/Mars_B91/telink_mars_b91_driver_sdk_v2.2.0/chip/B91/boot/cstartup_flash.S:231
    nop
20000180:	0001                	c.nop
E:/promotion/gitlab/opensdk/Mars_B91/telink_mars_b91_driver_sdk_v2.2.0/chip/B91/boot/cstartup_flash.S:232
    nop
20000182:	0001                	c.nop
E:/promotion/gitlab/opensdk/Mars_B91/telink_mars_b91_driver_sdk_v2.2.0/chip/B91/boot/cstartup_flash.S:233
    nop
20000184:	0001                	c.nop
E:/promotion/gitlab/opensdk/Mars_B91/telink_mars_b91_driver_sdk_v2.2.0/chip/B91/boot/cstartup_flash.S:234
    nop
20000186:	0001                	c.nop

20000188 <_END>:
_END():
E:/promotion/gitlab/opensdk/Mars_B91/telink_mars_b91_driver_sdk_v2.2.0/chip/B91/boot/cstartup_flash.S:236
_END:
    j    _END
20000188:	a001                	c.j	20000188 <_END>

Disassembly of section .retention_reset:

00000000 <_IRESET_ENTRY>:
_RETENTION_RESET_VMA_START():
E:/promotion/gitlab/opensdk/Mars_B91/telink_mars_b91_driver_sdk_v2.2.0/chip/B91/boot/cstartup_flash.S:248
 	.type _IRESET_ENTRY,@function

    .align 2
_IRESET_ENTRY:
	/* Decide whether this is an NMI or cold reset */
	j 		_ISTART
   0:	a00d                	c.j	22 <_ISTART>
	...

00000022 <_ISTART>:
_ISTART():
E:/promotion/gitlab/opensdk/Mars_B91/telink_mars_b91_driver_sdk_v2.2.0/chip/B91/boot/cstartup_flash.S:262
	sb		t1 , 0x30a(t0)		 //0x8014030a  PB oen     =  0xef
	sb		t2 , 0x30b(t0)		 //0x8014030b  PB output  =  0x10
#endif
	/* Initialize global pointer */

    la     gp, __global_pointer$
  22:	00080197          	auipc	gp,0x80
  26:	7de18193          	addi	gp,gp,2014 # 80800 <__global_pointer$>

0000002a <_ISWS_USB_DIS>:
_ISWS_USB_DIS():
E:/promotion/gitlab/opensdk/Mars_B91/telink_mars_b91_driver_sdk_v2.2.0/chip/B91/boot/cstartup_flash.S:270
/*
* swire usb enable default.when dp and dm use as GPIO, it has a risk to trigger the swire through usb function
* to do something unexcept when toggle dp pin
*/
_ISWS_USB_DIS:
	lui		t0, 0x80100
  2a:	801002b7          	lui	t0,0x80100
E:/promotion/gitlab/opensdk/Mars_B91/telink_mars_b91_driver_sdk_v2.2.0/chip/B91/boot/cstartup_flash.S:271
	addi	t0 , t0 , 0x700
  2e:	70028293          	addi	t0,t0,1792 # 80100700 <_DATA_LMA_START+0x600fd4a0>
E:/promotion/gitlab/opensdk/Mars_B91/telink_mars_b91_driver_sdk_v2.2.0/chip/B91/boot/cstartup_flash.S:272
	li		t1, 0x40
  32:	04000313          	li	t1,64
E:/promotion/gitlab/opensdk/Mars_B91/telink_mars_b91_driver_sdk_v2.2.0/chip/B91/boot/cstartup_flash.S:273
	sb		t1, 0x501(t0)  //0x80100c01 -> 0x40  <7>: 0 swire_usb_dis
  36:	506280a3          	sb	t1,1281(t0)
E:/promotion/gitlab/opensdk/Mars_B91/telink_mars_b91_driver_sdk_v2.2.0/chip/B91/boot/cstartup_flash.S:276

	/* Initialize stack pointer */
    la     t0, _STACK_TOP
  3a:	000a0297          	auipc	t0,0xa0
  3e:	fc628293          	addi	t0,t0,-58 # a0000 <_STACK_TOP>
E:/promotion/gitlab/opensdk/Mars_B91/telink_mars_b91_driver_sdk_v2.2.0/chip/B91/boot/cstartup_flash.S:277
    mv     sp, t0
  42:	8116                	c.mv	sp,t0
E:/promotion/gitlab/opensdk/Mars_B91/telink_mars_b91_driver_sdk_v2.2.0/chip/B91/boot/cstartup_flash.S:281

#ifdef __nds_execit
	/* Initialize EXEC.IT table */
	la t0, _ITB_BASE_
  44:	00000297          	auipc	t0,0x0
  48:	fbc28293          	addi	t0,t0,-68 # 0 <_IRESET_ENTRY>
E:/promotion/gitlab/opensdk/Mars_B91/telink_mars_b91_driver_sdk_v2.2.0/chip/B91/boot/cstartup_flash.S:282
	csrw uitb, t0
  4c:	80029073          	csrw	uitb,t0
E:/promotion/gitlab/opensdk/Mars_B91/telink_mars_b91_driver_sdk_v2.2.0/chip/B91/boot/cstartup_flash.S:287
#endif

#ifdef __riscv_flen
	/* Enable FPU */
	li t0, 0x00006000
  50:	6299                	c.lui	t0,0x6
E:/promotion/gitlab/opensdk/Mars_B91/telink_mars_b91_driver_sdk_v2.2.0/chip/B91/boot/cstartup_flash.S:288
	csrrs t0, mstatus, t0
  52:	3002a2f3          	csrrs	t0,mstatus,t0
E:/promotion/gitlab/opensdk/Mars_B91/telink_mars_b91_driver_sdk_v2.2.0/chip/B91/boot/cstartup_flash.S:290
	/* Initialize FCSR */
	fscsr zero
  56:	00301073          	fssr	zero
E:/promotion/gitlab/opensdk/Mars_B91/telink_mars_b91_driver_sdk_v2.2.0/chip/B91/boot/cstartup_flash.S:294
#endif

    /* Initial machine trap-vector Base */
    la     t0, __vectors
  5a:	00002297          	auipc	t0,0x2
  5e:	6a628293          	addi	t0,t0,1702 # 2700 <__vectors>
E:/promotion/gitlab/opensdk/Mars_B91/telink_mars_b91_driver_sdk_v2.2.0/chip/B91/boot/cstartup_flash.S:295
    csrw   mtvec, t0
  62:	30529073          	csrw	mtvec,t0
E:/promotion/gitlab/opensdk/Mars_B91/telink_mars_b91_driver_sdk_v2.2.0/chip/B91/boot/cstartup_flash.S:298

    /* Enable vectored external plic interrupt */
    csrsi  mmisc_ctl, 2
  66:	7d016073          	csrsi	mmisc_ctl,2
E:/promotion/gitlab/opensdk/Mars_B91/telink_mars_b91_driver_sdk_v2.2.0/chip/B91/boot/cstartup_flash.S:301

	/*vector mode enable bit (VECTORED) of the Feature Enable Register */
    lui		t0, 0xe4000
  6a:	e40002b7          	lui	t0,0xe4000
E:/promotion/gitlab/opensdk/Mars_B91/telink_mars_b91_driver_sdk_v2.2.0/chip/B91/boot/cstartup_flash.S:302
	li		t1, 0x02
  6e:	4309                	c.li	t1,2
E:/promotion/gitlab/opensdk/Mars_B91/telink_mars_b91_driver_sdk_v2.2.0/chip/B91/boot/cstartup_flash.S:303
	sw		t1, 0x0(t0)		 //(*(volatile unsigned long*)(0xe4000000))= 0x02
  70:	0062a023          	sw	t1,0(t0) # e4000000 <_DATA_LMA_START+0xc3ffcda0>
E:/promotion/gitlab/opensdk/Mars_B91/telink_mars_b91_driver_sdk_v2.2.0/chip/B91/boot/cstartup_flash.S:306

    /* Enable I/D-Cache */
    csrr   t0,  mcache_ctl
  74:	7ca022f3          	csrr	t0,mcache_ctl
E:/promotion/gitlab/opensdk/Mars_B91/telink_mars_b91_driver_sdk_v2.2.0/chip/B91/boot/cstartup_flash.S:307
    ori    t0,  t0,  1  #/I-Cache
  78:	0012e293          	ori	t0,t0,1
E:/promotion/gitlab/opensdk/Mars_B91/telink_mars_b91_driver_sdk_v2.2.0/chip/B91/boot/cstartup_flash.S:308
    ori    t0,  t0,  2  #/D-Cache
  7c:	0022e293          	ori	t0,t0,2
E:/promotion/gitlab/opensdk/Mars_B91/telink_mars_b91_driver_sdk_v2.2.0/chip/B91/boot/cstartup_flash.S:309
    csrw   mcache_ctl,  t0
  80:	7ca29073          	csrw	mcache_ctl,t0
E:/promotion/gitlab/opensdk/Mars_B91/telink_mars_b91_driver_sdk_v2.2.0/chip/B91/boot/cstartup_flash.S:310
    fence.i
  84:	0000100f          	fence.i

00000088 <_WAKEUP_FLASH>:
_WAKEUP_FLASH():
E:/promotion/gitlab/opensdk/Mars_B91/telink_mars_b91_driver_sdk_v2.2.0/chip/B91/boot/cstartup_flash.S:315


/* flash wakeup */
_WAKEUP_FLASH:
	lui		t0 , 0x80140
  88:	801402b7          	lui	t0,0x80140
E:/promotion/gitlab/opensdk/Mars_B91/telink_mars_b91_driver_sdk_v2.2.0/chip/B91/boot/cstartup_flash.S:316
	li		t1 , 0xff
  8c:	0ff00313          	li	t1,255
E:/promotion/gitlab/opensdk/Mars_B91/telink_mars_b91_driver_sdk_v2.2.0/chip/B91/boot/cstartup_flash.S:317
	li		t2 , 0x0
  90:	4381                	c.li	t2,0
E:/promotion/gitlab/opensdk/Mars_B91/telink_mars_b91_driver_sdk_v2.2.0/chip/B91/boot/cstartup_flash.S:318
	li		t3 , 0xab
  92:	0ab00e13          	li	t3,171
E:/promotion/gitlab/opensdk/Mars_B91/telink_mars_b91_driver_sdk_v2.2.0/chip/B91/boot/cstartup_flash.S:319
	sb		t1 , 0x329(t0)			 //mspi ie enable	:0x140329:0x1f
  96:	326284a3          	sb	t1,809(t0) # 80140329 <_DATA_LMA_START+0x6013d0c9>
E:/promotion/gitlab/opensdk/Mars_B91/telink_mars_b91_driver_sdk_v2.2.0/chip/B91/boot/cstartup_flash.S:320
	sb		t2 , 0x101(t0)			 //cs_low			:0x140101:0x00
  9a:	107280a3          	sb	t2,257(t0)
E:/promotion/gitlab/opensdk/Mars_B91/telink_mars_b91_driver_sdk_v2.2.0/chip/B91/boot/cstartup_flash.S:321
	sb		t3 , 0x100(t0)			 //wakeup_cmd		:0x140100:0xab
  9e:	11c28023          	sb	t3,256(t0)

000000a2 <_MSPI_WAIT>:
_MSPI_WAIT():
E:/promotion/gitlab/opensdk/Mars_B91/telink_mars_b91_driver_sdk_v2.2.0/chip/B91/boot/cstartup_flash.S:323
_MSPI_WAIT:
	lui		t0 , 0x80140
  a2:	801402b7          	lui	t0,0x80140
E:/promotion/gitlab/opensdk/Mars_B91/telink_mars_b91_driver_sdk_v2.2.0/chip/B91/boot/cstartup_flash.S:324
	lb		t2 , 0x102(t0)			//read reg_mspi_status FLD_MSPI_BUSY(bit0)
  a6:	10228383          	lb	t2,258(t0) # 80140102 <_DATA_LMA_START+0x6013cea2>
E:/promotion/gitlab/opensdk/Mars_B91/telink_mars_b91_driver_sdk_v2.2.0/chip/B91/boot/cstartup_flash.S:325
	li		t3 , 0x1
  aa:	4e05                	c.li	t3,1
E:/promotion/gitlab/opensdk/Mars_B91/telink_mars_b91_driver_sdk_v2.2.0/chip/B91/boot/cstartup_flash.S:326
	li		t4 , 0x10
  ac:	4ec1                	c.li	t4,16
E:/promotion/gitlab/opensdk/Mars_B91/telink_mars_b91_driver_sdk_v2.2.0/chip/B91/boot/cstartup_flash.S:327
	beq 	t3 , t2 ,_MSPI_WAIT
  ae:	fe7e0ae3          	beq	t3,t2,a2 <_MSPI_WAIT>
E:/promotion/gitlab/opensdk/Mars_B91/telink_mars_b91_driver_sdk_v2.2.0/chip/B91/boot/cstartup_flash.S:328
	sb		t4 , 0x101(t0)			//cs_high			:0x140101:0x10
  b2:	11d280a3          	sb	t4,257(t0)
E:/promotion/gitlab/opensdk/Mars_B91/telink_mars_b91_driver_sdk_v2.2.0/chip/B91/boot/cstartup_flash.S:336
	lui		t0,0x80140 			//0x8014030a
	li		t1, 0x00
	sb		t1 , 0x30b(t0)		 //0x8014030b  PB output  =  0x00
#endif
/*efuse load need delay about 18us */
	li		t0 , 0
  b6:	4281                	c.li	t0,0
E:/promotion/gitlab/opensdk/Mars_B91/telink_mars_b91_driver_sdk_v2.2.0/chip/B91/boot/cstartup_flash.S:337
	li		t1 , 226
  b8:	0e200313          	li	t1,226

000000bc <_WAIT_EFUSE_LOAD_FINISH>:
_WAIT_EFUSE_LOAD_FINISH():
E:/promotion/gitlab/opensdk/Mars_B91/telink_mars_b91_driver_sdk_v2.2.0/chip/B91/boot/cstartup_flash.S:339
_WAIT_EFUSE_LOAD_FINISH:
	addi 	t0 , t0 , 1
  bc:	0285                	c.addi	t0,1
E:/promotion/gitlab/opensdk/Mars_B91/telink_mars_b91_driver_sdk_v2.2.0/chip/B91/boot/cstartup_flash.S:340
	bgeu 	t1 , t0 , _WAIT_EFUSE_LOAD_FINISH
  be:	fe537fe3          	bgeu	t1,t0,bc <_WAIT_EFUSE_LOAD_FINISH>

000000c2 <_MULTI_ADDRESS_BEGIN>:
_MULTI_ADDRESS_BEGIN():
E:/promotion/gitlab/opensdk/Mars_B91/telink_mars_b91_driver_sdk_v2.2.0/chip/B91/boot/cstartup_flash.S:349
	lui		t0,0x80140 			//0x8014030a
	li		t1, 0x10
	sb		t1 , 0x30b(t0)		 //0x8014030b  PB output  =  0x00
#endif
_MULTI_ADDRESS_BEGIN:
	lui		t0 , 0x80140
  c2:	801402b7          	lui	t0,0x80140
E:/promotion/gitlab/opensdk/Mars_B91/telink_mars_b91_driver_sdk_v2.2.0/chip/B91/boot/cstartup_flash.S:350
	la		t1 , g_pm_mspi_cfg
  c6:	1b800313          	li	t1,440
E:/promotion/gitlab/opensdk/Mars_B91/telink_mars_b91_driver_sdk_v2.2.0/chip/B91/boot/cstartup_flash.S:351
	lw		t2 , 0(t1)
  ca:	00032383          	lw	t2,0(t1)
E:/promotion/gitlab/opensdk/Mars_B91/telink_mars_b91_driver_sdk_v2.2.0/chip/B91/boot/cstartup_flash.S:352
	sw		t2 , 0x104(t0)			 //g_pm_mspi_cfg->0x80140104
  ce:	1072a223          	sw	t2,260(t0) # 80140104 <_DATA_LMA_START+0x6013cea4>

000000d2 <_IDATA_INIT>:
_IDATA_INIT():
E:/promotion/gitlab/opensdk/Mars_B91/telink_mars_b91_driver_sdk_v2.2.0/chip/B91/boot/cstartup_flash.S:372
    j      _IRAMCODE_INIT_BEGIN
#endif

	/* Move Data from flash to sram */
_IDATA_INIT:
    la     t1, _DATA_LMA_START
  d2:	20003317          	auipc	t1,0x20003
  d6:	18e30313          	addi	t1,t1,398 # 20003260 <_DATA_LMA_START>
E:/promotion/gitlab/opensdk/Mars_B91/telink_mars_b91_driver_sdk_v2.2.0/chip/B91/boot/cstartup_flash.S:373
    la     t2, _DATA_VMA_START
  da:	00080397          	auipc	t2,0x80
  de:	f2638393          	addi	t2,t2,-218 # 80000 <_DATA_VMA_START>
E:/promotion/gitlab/opensdk/Mars_B91/telink_mars_b91_driver_sdk_v2.2.0/chip/B91/boot/cstartup_flash.S:374
    la     t3, _DATA_VMA_END
  e2:	00080e17          	auipc	t3,0x80
  e6:	f24e0e13          	addi	t3,t3,-220 # 80006 <_DATA_VMA_END>

000000ea <_IDATA_INIT_BEGIN>:
_IDATA_INIT_BEGIN():
E:/promotion/gitlab/opensdk/Mars_B91/telink_mars_b91_driver_sdk_v2.2.0/chip/B91/boot/cstartup_flash.S:376
_IDATA_INIT_BEGIN:
    bleu   t3, t2, _IZERO_BSS
  ea:	01c3f963          	bgeu	t2,t3,fc <_IZERO_BSS>
E:/promotion/gitlab/opensdk/Mars_B91/telink_mars_b91_driver_sdk_v2.2.0/chip/B91/boot/cstartup_flash.S:377
    lw     t0, 0(t1)
  ee:	00032283          	lw	t0,0(t1)
E:/promotion/gitlab/opensdk/Mars_B91/telink_mars_b91_driver_sdk_v2.2.0/chip/B91/boot/cstartup_flash.S:378
    sw     t0, 0(t2)
  f2:	0053a023          	sw	t0,0(t2)
E:/promotion/gitlab/opensdk/Mars_B91/telink_mars_b91_driver_sdk_v2.2.0/chip/B91/boot/cstartup_flash.S:379
    addi   t1, t1, 4
  f6:	0311                	c.addi	t1,4
E:/promotion/gitlab/opensdk/Mars_B91/telink_mars_b91_driver_sdk_v2.2.0/chip/B91/boot/cstartup_flash.S:380
    addi   t2, t2, 4
  f8:	0391                	c.addi	t2,4
E:/promotion/gitlab/opensdk/Mars_B91/telink_mars_b91_driver_sdk_v2.2.0/chip/B91/boot/cstartup_flash.S:381
    j      _IDATA_INIT_BEGIN
  fa:	bfc5                	c.j	ea <_IDATA_INIT_BEGIN>

000000fc <_IZERO_BSS>:
_IZERO_BSS():
E:/promotion/gitlab/opensdk/Mars_B91/telink_mars_b91_driver_sdk_v2.2.0/chip/B91/boot/cstartup_flash.S:387



	/* Zero .bss section in sram */
_IZERO_BSS:
    lui    t0, 0
  fc:	000002b7          	lui	t0,0x0
E:/promotion/gitlab/opensdk/Mars_B91/telink_mars_b91_driver_sdk_v2.2.0/chip/B91/boot/cstartup_flash.S:388
    la     t2, _BSS_VMA_START
 100:	00080397          	auipc	t2,0x80
 104:	f0838393          	addi	t2,t2,-248 # 80008 <_BSS_VMA_START>
E:/promotion/gitlab/opensdk/Mars_B91/telink_mars_b91_driver_sdk_v2.2.0/chip/B91/boot/cstartup_flash.S:389
    la     t3, _BSS_VMA_END
 108:	00080e17          	auipc	t3,0x80
 10c:	f20e0e13          	addi	t3,t3,-224 # 80028 <_BSS_VMA_END>

00000110 <_IZERO_BSS_BEGIN>:
_IZERO_BSS_BEGIN():
E:/promotion/gitlab/opensdk/Mars_B91/telink_mars_b91_driver_sdk_v2.2.0/chip/B91/boot/cstartup_flash.S:391
_IZERO_BSS_BEGIN:
    bleu   t3, t2, _IZERO_AES
 110:	01c3f663          	bgeu	t2,t3,11c <_IZERO_AES>
E:/promotion/gitlab/opensdk/Mars_B91/telink_mars_b91_driver_sdk_v2.2.0/chip/B91/boot/cstartup_flash.S:392
    sw     t0, 0(t2)
 114:	0053a023          	sw	t0,0(t2)
E:/promotion/gitlab/opensdk/Mars_B91/telink_mars_b91_driver_sdk_v2.2.0/chip/B91/boot/cstartup_flash.S:393
    addi   t2, t2, 4
 118:	0391                	c.addi	t2,4
E:/promotion/gitlab/opensdk/Mars_B91/telink_mars_b91_driver_sdk_v2.2.0/chip/B91/boot/cstartup_flash.S:394
    j      _IZERO_BSS_BEGIN
 11a:	bfdd                	c.j	110 <_IZERO_BSS_BEGIN>

0000011c <_IZERO_AES>:
_IZERO_AES():
E:/promotion/gitlab/opensdk/Mars_B91/telink_mars_b91_driver_sdk_v2.2.0/chip/B91/boot/cstartup_flash.S:398

	/* Zero .aes section in sram */
_IZERO_AES:
    lui    t0, 0
 11c:	000002b7          	lui	t0,0x0
E:/promotion/gitlab/opensdk/Mars_B91/telink_mars_b91_driver_sdk_v2.2.0/chip/B91/boot/cstartup_flash.S:399
    la     t2, _AES_VMA_START
 120:	00000397          	auipc	t2,0x0
 124:	03838393          	addi	t2,t2,56 # 158 <_AES_VMA_END>
E:/promotion/gitlab/opensdk/Mars_B91/telink_mars_b91_driver_sdk_v2.2.0/chip/B91/boot/cstartup_flash.S:400
    la     t3, _AES_VMA_END
 128:	00000e17          	auipc	t3,0x0
 12c:	030e0e13          	addi	t3,t3,48 # 158 <_AES_VMA_END>

00000130 <_IZERO_AES_BEGIN>:
_IZERO_AES_BEGIN():
E:/promotion/gitlab/opensdk/Mars_B91/telink_mars_b91_driver_sdk_v2.2.0/chip/B91/boot/cstartup_flash.S:402
_IZERO_AES_BEGIN:
    bleu   t3, t2, _IFILL_STK
 130:	01c3f663          	bgeu	t2,t3,13c <_IFILL_STK>
E:/promotion/gitlab/opensdk/Mars_B91/telink_mars_b91_driver_sdk_v2.2.0/chip/B91/boot/cstartup_flash.S:403
    sw     t0, 0(t2)
 134:	0053a023          	sw	t0,0(t2)
E:/promotion/gitlab/opensdk/Mars_B91/telink_mars_b91_driver_sdk_v2.2.0/chip/B91/boot/cstartup_flash.S:404
    addi   t2, t2, 4
 138:	0391                	c.addi	t2,4
E:/promotion/gitlab/opensdk/Mars_B91/telink_mars_b91_driver_sdk_v2.2.0/chip/B91/boot/cstartup_flash.S:405
    j      _IZERO_AES_BEGIN
 13a:	bfdd                	c.j	130 <_IZERO_AES_BEGIN>

0000013c <_IFILL_STK>:
_IFILL_STK():
E:/promotion/gitlab/opensdk/Mars_B91/telink_mars_b91_driver_sdk_v2.2.0/chip/B91/boot/cstartup_flash.S:423
    addi   t2, t2, 4
    j      _IFILL_STK_BEGIN
#endif
	/* Jump to the main function */
_IMAIN_FUNC:
    nop
 13c:	0001                	c.nop
E:/promotion/gitlab/opensdk/Mars_B91/telink_mars_b91_driver_sdk_v2.2.0/chip/B91/boot/cstartup_flash.S:425

    la     t0, main
 13e:	20003297          	auipc	t0,0x20003
 142:	b0628293          	addi	t0,t0,-1274 # 20002c44 <main>
E:/promotion/gitlab/opensdk/Mars_B91/telink_mars_b91_driver_sdk_v2.2.0/chip/B91/boot/cstartup_flash.S:426
    jalr   t0
 146:	9282                	c.jalr	t0
E:/promotion/gitlab/opensdk/Mars_B91/telink_mars_b91_driver_sdk_v2.2.0/chip/B91/boot/cstartup_flash.S:428

    nop
 148:	0001                	c.nop
E:/promotion/gitlab/opensdk/Mars_B91/telink_mars_b91_driver_sdk_v2.2.0/chip/B91/boot/cstartup_flash.S:429
    nop
 14a:	0001                	c.nop
E:/promotion/gitlab/opensdk/Mars_B91/telink_mars_b91_driver_sdk_v2.2.0/chip/B91/boot/cstartup_flash.S:430
    nop
 14c:	0001                	c.nop
E:/promotion/gitlab/opensdk/Mars_B91/telink_mars_b91_driver_sdk_v2.2.0/chip/B91/boot/cstartup_flash.S:431
    nop
 14e:	0001                	c.nop
E:/promotion/gitlab/opensdk/Mars_B91/telink_mars_b91_driver_sdk_v2.2.0/chip/B91/boot/cstartup_flash.S:432
    nop
 150:	0001                	c.nop

00000152 <_IEND>:
_IEND():
E:/promotion/gitlab/opensdk/Mars_B91/telink_mars_b91_driver_sdk_v2.2.0/chip/B91/boot/cstartup_flash.S:434
_IEND:
    j    _IEND
 152:	a001                	c.j	152 <_IEND>

Disassembly of section .ram_code:

00000200 <delay_ms.constprop.8>:
stimer_get_tick():
E:/promotion/gitlab/opensdk/Mars_B91/telink_mars_b91_driver_sdk_v2.2.0/chip/B91/drivers/stimer.h:168
 * @return    system timer tick value.
**/
static inline unsigned int stimer_get_tick(void)
{

	return reg_system_tick;
     200:	801407b7          	lui	a5,0x80140
delay_ms():
E:/promotion/gitlab/opensdk/Mars_B91/telink_mars_b91_driver_sdk_v2.2.0/chip/B91/drivers/stimer.c:45
 * @return    none
*/
 void delay_ms(unsigned int millisec)
{
	unsigned long t = stimer_get_tick();
	while(!clock_time_exceed(t, millisec*1000)){
     204:	01e85737          	lui	a4,0x1e85
stimer_get_tick():
E:/promotion/gitlab/opensdk/Mars_B91/telink_mars_b91_driver_sdk_v2.2.0/chip/B91/drivers/stimer.h:168
     208:	2007a603          	lw	a2,512(a5) # 80140200 <_DATA_LMA_START+0x6013cfa0>
     20c:	801406b7          	lui	a3,0x80140
delay_ms():
E:/promotion/gitlab/opensdk/Mars_B91/telink_mars_b91_driver_sdk_v2.2.0/chip/B91/drivers/stimer.c:45
     210:	80070713          	addi	a4,a4,-2048 # 1e84800 <FLASH_SIZE+0x1d84800>
stimer_get_tick():
E:/promotion/gitlab/opensdk/Mars_B91/telink_mars_b91_driver_sdk_v2.2.0/chip/B91/drivers/stimer.h:168
     214:	2006a783          	lw	a5,512(a3) # 80140200 <_DATA_LMA_START+0x6013cfa0>
clock_time_exceed():
E:/promotion/gitlab/opensdk/Mars_B91/telink_mars_b91_driver_sdk_v2.2.0/chip/B91/drivers/stimer.h:179
 * @param[in] us   - count by us.
 * @return    true - timeout, false - not timeout
 */
static inline _Bool clock_time_exceed(unsigned int ref, unsigned int us)
{
	return ((unsigned int)(stimer_get_tick() - ref) > us * SYSTEM_TIMER_TICK_1US);
     218:	8f91                	c.sub	a5,a2
delay_ms():
E:/promotion/gitlab/opensdk/Mars_B91/telink_mars_b91_driver_sdk_v2.2.0/chip/B91/drivers/stimer.c:45
     21a:	fef77de3          	bgeu	a4,a5,214 <delay_ms.constprop.8+0x14>
E:/promotion/gitlab/opensdk/Mars_B91/telink_mars_b91_driver_sdk_v2.2.0/chip/B91/drivers/stimer.c:47
	}
}
     21e:	8082                	c.jr	ra

00000220 <flash_send_addr>:
flash_send_addr():
E:/promotion/gitlab/opensdk/Mars_B91/telink_mars_b91_driver_sdk_v2.2.0/chip/B91/drivers/flash.c:111
 * @brief		This function serves to send flash address.
 * @param[in]	addr	- the flash address.
 * @return		none.
 */
_attribute_ram_code_sec_noinline_ static void flash_send_addr(unsigned int addr){
	mspi_write((unsigned char)(addr>>16));
     220:	5d05275b          	bfoz	a4,a0,23,16
mspi_write():
E:/promotion/gitlab/opensdk/Mars_B91/telink_mars_b91_driver_sdk_v2.2.0/chip/B91/drivers/mspi.h:120
 * @brief		This function servers to write the spi.
 * @param[in]	c	- the char need to be write.
 * @return		none.
 */
_attribute_ram_code_sec_ static inline void mspi_write(unsigned char c){
	reg_mspi_data = c;
     224:	801407b7          	lui	a5,0x80140
mspi_wait():
E:/promotion/gitlab/opensdk/Mars_B91/telink_mars_b91_driver_sdk_v2.2.0/chip/B91/drivers/mspi.h:46
	while(reg_mspi_status & FLD_MSPI_BUSY);
     228:	801406b7          	lui	a3,0x80140
mspi_write():
E:/promotion/gitlab/opensdk/Mars_B91/telink_mars_b91_driver_sdk_v2.2.0/chip/B91/drivers/mspi.h:120
	reg_mspi_data = c;
     22c:	10e78023          	sb	a4,256(a5) # 80140100 <_DATA_LMA_START+0x6013cea0>
mspi_wait():
E:/promotion/gitlab/opensdk/Mars_B91/telink_mars_b91_driver_sdk_v2.2.0/chip/B91/drivers/mspi.h:46
	while(reg_mspi_status & FLD_MSPI_BUSY);
     230:	10268783          	lb	a5,258(a3) # 80140102 <_DATA_LMA_START+0x6013cea2>
     234:	fe07fe5b          	bbs	a5,0,230 <flash_send_addr+0x10>
flash_send_addr():
E:/promotion/gitlab/opensdk/Mars_B91/telink_mars_b91_driver_sdk_v2.2.0/chip/B91/drivers/flash.c:113
	mspi_wait();
	mspi_write((unsigned char)(addr>>8));
     238:	3c8527db          	bfoz	a5,a0,15,8
mspi_wait():
E:/promotion/gitlab/opensdk/Mars_B91/telink_mars_b91_driver_sdk_v2.2.0/chip/B91/drivers/mspi.h:46
     23c:	80140737          	lui	a4,0x80140
mspi_write():
E:/promotion/gitlab/opensdk/Mars_B91/telink_mars_b91_driver_sdk_v2.2.0/chip/B91/drivers/mspi.h:120
	reg_mspi_data = c;
     240:	10f68023          	sb	a5,256(a3)
mspi_wait():
E:/promotion/gitlab/opensdk/Mars_B91/telink_mars_b91_driver_sdk_v2.2.0/chip/B91/drivers/mspi.h:46
	while(reg_mspi_status & FLD_MSPI_BUSY);
     244:	10270783          	lb	a5,258(a4) # 80140102 <_DATA_LMA_START+0x6013cea2>
     248:	fe07fe5b          	bbs	a5,0,244 <flash_send_addr+0x24>
flash_send_addr():
E:/promotion/gitlab/opensdk/Mars_B91/telink_mars_b91_driver_sdk_v2.2.0/chip/B91/drivers/flash.c:115
	mspi_wait();
	mspi_write((unsigned char)(addr));
     24c:	0ff57513          	andi	a0,a0,255
mspi_wait():
E:/promotion/gitlab/opensdk/Mars_B91/telink_mars_b91_driver_sdk_v2.2.0/chip/B91/drivers/mspi.h:46
     250:	801406b7          	lui	a3,0x80140
mspi_write():
E:/promotion/gitlab/opensdk/Mars_B91/telink_mars_b91_driver_sdk_v2.2.0/chip/B91/drivers/mspi.h:120
	reg_mspi_data = c;
     254:	10a70023          	sb	a0,256(a4)
mspi_wait():
E:/promotion/gitlab/opensdk/Mars_B91/telink_mars_b91_driver_sdk_v2.2.0/chip/B91/drivers/mspi.h:46
	while(reg_mspi_status & FLD_MSPI_BUSY);
     258:	10268783          	lb	a5,258(a3) # 80140102 <_DATA_LMA_START+0x6013cea2>
     25c:	fe07fe5b          	bbs	a5,0,258 <flash_send_addr+0x38>
flash_send_addr():
E:/promotion/gitlab/opensdk/Mars_B91/telink_mars_b91_driver_sdk_v2.2.0/chip/B91/drivers/flash.c:117
	mspi_wait();
}
     260:	00008067          	ret

00000264 <flash_send_cmd>:
mspi_high():
E:/promotion/gitlab/opensdk/Mars_B91/telink_mars_b91_driver_sdk_v2.2.0/chip/B91/drivers/mspi.h:95
	reg_mspi_fm |= FLD_MSPI_CSN;
     264:	801407b7          	lui	a5,0x80140
     268:	10178703          	lb	a4,257(a5) # 80140101 <_DATA_LMA_START+0x6013cea1>
     26c:	0ff77713          	andi	a4,a4,255
     270:	01076713          	ori	a4,a4,16
     274:	10e780a3          	sb	a4,257(a5)
flash_send_cmd():
E:/promotion/gitlab/opensdk/Mars_B91/telink_mars_b91_driver_sdk_v2.2.0/chip/B91/drivers/flash.c:99
	CLOCK_DLY_10_CYC;
     278:	0001                	c.nop
     27a:	0001                	c.nop
     27c:	0001                	c.nop
     27e:	0001                	c.nop
     280:	0001                	c.nop
     282:	0001                	c.nop
     284:	0001                	c.nop
     286:	0001                	c.nop
     288:	0001                	c.nop
     28a:	0001                	c.nop
mspi_low():
E:/promotion/gitlab/opensdk/Mars_B91/telink_mars_b91_driver_sdk_v2.2.0/chip/B91/drivers/mspi.h:103
	reg_mspi_fm &= ~FLD_MSPI_CSN;
     28c:	10178683          	lb	a3,257(a5)
mspi_wait():
E:/promotion/gitlab/opensdk/Mars_B91/telink_mars_b91_driver_sdk_v2.2.0/chip/B91/drivers/mspi.h:46
	while(reg_mspi_status & FLD_MSPI_BUSY);
     290:	80140737          	lui	a4,0x80140
mspi_low():
E:/promotion/gitlab/opensdk/Mars_B91/telink_mars_b91_driver_sdk_v2.2.0/chip/B91/drivers/mspi.h:103
	reg_mspi_fm &= ~FLD_MSPI_CSN;
     294:	0ef6f693          	andi	a3,a3,239
     298:	10d780a3          	sb	a3,257(a5)
mspi_write():
E:/promotion/gitlab/opensdk/Mars_B91/telink_mars_b91_driver_sdk_v2.2.0/chip/B91/drivers/mspi.h:120
	reg_mspi_data = c;
     29c:	10a78023          	sb	a0,256(a5)
mspi_wait():
E:/promotion/gitlab/opensdk/Mars_B91/telink_mars_b91_driver_sdk_v2.2.0/chip/B91/drivers/mspi.h:46
	while(reg_mspi_status & FLD_MSPI_BUSY);
     2a0:	10270783          	lb	a5,258(a4) # 80140102 <_DATA_LMA_START+0x6013cea2>
     2a4:	fe07fe5b          	bbs	a5,0,2a0 <flash_send_cmd+0x3c>
flash_send_cmd():
E:/promotion/gitlab/opensdk/Mars_B91/telink_mars_b91_driver_sdk_v2.2.0/chip/B91/drivers/flash.c:103
}
     2a8:	00008067          	ret

000002ac <clock_set_32k_tick>:
clock_set_32k_tick():
E:/promotion/gitlab/opensdk/Mars_B91/telink_mars_b91_driver_sdk_v2.2.0/chip/B91/drivers/clock.c:205
 * @param  tick - the value of to be set to 32k.
 * @return none.
 */
void clock_set_32k_tick(unsigned int tick)
{
	reg_system_ctrl |= FLD_SYSTEM_32K_WR_EN;//r_32k_wr = 1;
     2ac:	801406b7          	lui	a3,0x80140
     2b0:	20a68783          	lb	a5,522(a3) # 8014020a <_DATA_LMA_START+0x6013cfaa>
E:/promotion/gitlab/opensdk/Mars_B91/telink_mars_b91_driver_sdk_v2.2.0/chip/B91/drivers/clock.c:206
	while(reg_system_st & FLD_SYSTEM_RD_BUSY);
     2b4:	80140737          	lui	a4,0x80140
E:/promotion/gitlab/opensdk/Mars_B91/telink_mars_b91_driver_sdk_v2.2.0/chip/B91/drivers/clock.c:205
	reg_system_ctrl |= FLD_SYSTEM_32K_WR_EN;//r_32k_wr = 1;
     2b8:	0ff7f793          	andi	a5,a5,255
     2bc:	0017e793          	ori	a5,a5,1
     2c0:	20f68523          	sb	a5,522(a3)
E:/promotion/gitlab/opensdk/Mars_B91/telink_mars_b91_driver_sdk_v2.2.0/chip/B91/drivers/clock.c:206
	while(reg_system_st & FLD_SYSTEM_RD_BUSY);
     2c4:	20b70683          	lb	a3,523(a4) # 8014020b <_DATA_LMA_START+0x6013cfab>
     2c8:	20b70793          	addi	a5,a4,523
     2cc:	fe66fc5b          	bbs	a3,6,2c4 <clock_set_32k_tick+0x18>
E:/promotion/gitlab/opensdk/Mars_B91/telink_mars_b91_driver_sdk_v2.2.0/chip/B91/drivers/clock.c:207
	reg_system_timer_set_32k = tick;
     2d0:	20a72623          	sw	a0,524(a4)
E:/promotion/gitlab/opensdk/Mars_B91/telink_mars_b91_driver_sdk_v2.2.0/chip/B91/drivers/clock.c:209

	reg_system_st = FLD_SYSTEM_CMD_SYNC;//cmd_sync = 1,trig write
     2d4:	4721                	c.li	a4,8
     2d6:	00e78023          	sb	a4,0(a5)
E:/promotion/gitlab/opensdk/Mars_B91/telink_mars_b91_driver_sdk_v2.2.0/chip/B91/drivers/clock.c:211
	//delay 10us
	__asm__("nop");__asm__("nop");__asm__("nop");__asm__("nop");
     2da:	0001                	c.nop
     2dc:	0001                	c.nop
     2de:	0001                	c.nop
     2e0:	0001                	c.nop
E:/promotion/gitlab/opensdk/Mars_B91/telink_mars_b91_driver_sdk_v2.2.0/chip/B91/drivers/clock.c:212
	__asm__("nop");__asm__("nop");__asm__("nop");__asm__("nop");
     2e2:	0001                	c.nop
     2e4:	0001                	c.nop
     2e6:	0001                	c.nop
     2e8:	0001                	c.nop
E:/promotion/gitlab/opensdk/Mars_B91/telink_mars_b91_driver_sdk_v2.2.0/chip/B91/drivers/clock.c:213
	__asm__("nop");__asm__("nop");__asm__("nop");__asm__("nop");
     2ea:	0001                	c.nop
     2ec:	0001                	c.nop
     2ee:	0001                	c.nop
     2f0:	0001                	c.nop
E:/promotion/gitlab/opensdk/Mars_B91/telink_mars_b91_driver_sdk_v2.2.0/chip/B91/drivers/clock.c:214
	__asm__("nop");__asm__("nop");__asm__("nop");__asm__("nop");
     2f2:	0001                	c.nop
     2f4:	0001                	c.nop
     2f6:	0001                	c.nop
     2f8:	00000013          	nop
E:/promotion/gitlab/opensdk/Mars_B91/telink_mars_b91_driver_sdk_v2.2.0/chip/B91/drivers/clock.c:215
	while(reg_system_st & FLD_SYSTEM_CMD_SYNC);//wait wr_busy = 0
     2fc:	801407b7          	lui	a5,0x80140
     300:	20b78703          	lb	a4,523(a5) # 8014020b <_DATA_LMA_START+0x6013cfab>
     304:	fe377e5b          	bbs	a4,3,300 <clock_set_32k_tick+0x54>
E:/promotion/gitlab/opensdk/Mars_B91/telink_mars_b91_driver_sdk_v2.2.0/chip/B91/drivers/clock.c:217

}
     308:	00008067          	ret

0000030c <clock_get_32k_tick>:
clock_get_32k_tick():
E:/promotion/gitlab/opensdk/Mars_B91/telink_mars_b91_driver_sdk_v2.2.0/chip/B91/drivers/clock.c:242
 * modify by yi.bao,confirmed by guangjun at 20210105
 * Use digital register way to get 32k tick may read error tick,cause the wakeup time is
 * incorrect with the setting time,the sleep time will very little or very big,will not wakeup on time.
 */
unsigned int clock_get_32k_tick(void)
{
     30c:	1141                	c.addi	sp,-16
     30e:	c422                	c.swsp	s0,8(sp)
     310:	00112623          	sw	ra,12(sp)
E:/promotion/gitlab/opensdk/Mars_B91/telink_mars_b91_driver_sdk_v2.2.0/chip/B91/drivers/clock.c:250

    //In the system timer auto mode, when writing a tick value to the system tick, if the writing operation overlaps
    //with the 32k rising edge, the writing operation will be unsuccessful. When reading the 32k tick value,
    //first wait for the rising edge to pass to avoid overlap with the subsequent write tick value operation.
    //modify by weihua.zhang, confirmed by jianzhi at 20210126
	t0 = analog_read_reg32(0x60);
     314:	20003097          	auipc	ra,0x20003
     318:	88c080e7          	jalr	-1908(ra) # 20002ba0 <analog_read_reg32.constprop.3>
     31c:	00a00433          	add	s0,zero,a0
E:/promotion/gitlab/opensdk/Mars_B91/telink_mars_b91_driver_sdk_v2.2.0/chip/B91/drivers/clock.c:253
	while(1)
	{
		t1 = analog_read_reg32(0x60);
     320:	20003097          	auipc	ra,0x20003
     324:	880080e7          	jalr	-1920(ra) # 20002ba0 <analog_read_reg32.constprop.3>
E:/promotion/gitlab/opensdk/Mars_B91/telink_mars_b91_driver_sdk_v2.2.0/chip/B91/drivers/clock.c:254
		if((t1-t0) == 1)
     328:	40850733          	sub	a4,a0,s0
E:/promotion/gitlab/opensdk/Mars_B91/telink_mars_b91_driver_sdk_v2.2.0/chip/B91/drivers/clock.c:253
		t1 = analog_read_reg32(0x60);
     32c:	842a                	c.mv	s0,a0
E:/promotion/gitlab/opensdk/Mars_B91/telink_mars_b91_driver_sdk_v2.2.0/chip/B91/drivers/clock.c:254
		if((t1-t0) == 1)
     32e:	be17695b          	bnec	a4,1,320 <clock_get_32k_tick+0x14>
E:/promotion/gitlab/opensdk/Mars_B91/telink_mars_b91_driver_sdk_v2.2.0/chip/B91/drivers/clock.c:263
		else if(t1-t0)
		{
			t0 = t1;
		}
	}
}
     332:	40b2                	c.lwsp	ra,12(sp)
     334:	4422                	c.lwsp	s0,8(sp)
     336:	0141                	c.addi	sp,16
     338:	00008067          	ret

0000033c <pm_stimer_recover>:
pm_stimer_recover():
C:/Users/Admin/Desktop/test1/telink_b91m_driver_src/chip/B91/drivers/lib/src/pm.c:113
     33c:	1141                	c.addi	sp,-16
C:/Users/Admin/Desktop/test1/telink_b91m_driver_src/chip/B91/drivers/lib/src/pm.c:115
     33e:	80140737          	lui	a4,0x80140
C:/Users/Admin/Desktop/test1/telink_b91m_driver_src/chip/B91/drivers/lib/src/pm.c:113
     342:	c606                	c.swsp	ra,12(sp)
C:/Users/Admin/Desktop/test1/telink_b91m_driver_src/chip/B91/drivers/lib/src/pm.c:115
     344:	4789                	c.li	a5,2
     346:	20f70c23          	sb	a5,536(a4) # 80140218 <_DATA_LMA_START+0x6013cfb8>
C:/Users/Admin/Desktop/test1/telink_b91m_driver_src/chip/B91/drivers/lib/src/pm.c:116
     34a:	20a70783          	lb	a5,522(a4)
     34e:	0ff7f793          	andi	a5,a5,255
     352:	00c7e793          	ori	a5,a5,12
     356:	20f70523          	sb	a5,522(a4)
C:/Users/Admin/Desktop/test1/telink_b91m_driver_src/chip/B91/drivers/lib/src/pm.c:117
     35a:	3f4d                	c.jal	30c <clock_get_32k_tick>
C:/Users/Admin/Desktop/test1/telink_b91m_driver_src/chip/B91/drivers/lib/src/pm.c:118
     35c:	000007b7          	lui	a5,0x0
     360:	15878713          	addi	a4,a5,344 # 158 <_AES_VMA_END>
     364:	00474703          	lbu	a4,4(a4)
     368:	15878793          	addi	a5,a5,344
     36c:	cf01                	c.beqz	a4,384 <pm_stimer_recover+0x48>
C:/Users/Admin/Desktop/test1/telink_b91m_driver_src/chip/B91/drivers/lib/src/pm.c:119
     36e:	4b98                	c.lw	a4,16(a5)
     370:	5f90                	c.lw	a2,56(a5)
     372:	40e50733          	sub	a4,a0,a4
     376:	47d4                	c.lw	a3,12(a5)
     378:	0705                	c.addi	a4,1
     37a:	8315                	c.srli	a4,0x5
     37c:	c4c716ff          	maddr32	a3,a4,a2
     380:	c794                	c.sw	a3,8(a5)
     382:	a829                	c.j	39c <pm_stimer_recover+0x60>
C:/Users/Admin/Desktop/test1/telink_b91m_driver_src/chip/B91/drivers/lib/src/pm.c:121
     384:	4b98                	c.lw	a4,16(a5)
     386:	5f94                	c.lw	a3,56(a5)
     388:	40e50733          	sub	a4,a0,a4
     38c:	0705                	c.addi	a4,1
     38e:	02d70733          	mul	a4,a4,a3
     392:	47d4                	c.lw	a3,12(a5)
     394:	8315                	c.srli	a4,0x5
     396:	9736                	c.add	a4,a3
     398:	00e7a423          	sw	a4,8(a5)
C:/Users/Admin/Desktop/test1/telink_b91m_driver_src/chip/B91/drivers/lib/src/pm.c:124
     39c:	4b98                	c.lw	a4,16(a5)
C:/Users/Admin/Desktop/test1/telink_b91m_driver_src/chip/B91/drivers/lib/src/pm.c:125
     39e:	4794                	c.lw	a3,8(a5)
C:/Users/Admin/Desktop/test1/telink_b91m_driver_src/chip/B91/drivers/lib/src/pm.c:124
     3a0:	40e50733          	sub	a4,a0,a4
     3a4:	0705                	c.addi	a4,1
C:/Users/Admin/Desktop/test1/telink_b91m_driver_src/chip/B91/drivers/lib/src/pm.c:123
     3a6:	0505                	c.addi	a0,1
C:/Users/Admin/Desktop/test1/telink_b91m_driver_src/chip/B91/drivers/lib/src/pm.c:125
     3a8:	0685                	c.addi	a3,1
C:/Users/Admin/Desktop/test1/telink_b91m_driver_src/chip/B91/drivers/lib/src/pm.c:123
     3aa:	d788                	c.sw	a0,40(a5)
C:/Users/Admin/Desktop/test1/telink_b91m_driver_src/chip/B91/drivers/lib/src/pm.c:124
     3ac:	02e7a223          	sw	a4,36(a5)
C:/Users/Admin/Desktop/test1/telink_b91m_driver_src/chip/B91/drivers/lib/src/pm.c:128
     3b0:	80140637          	lui	a2,0x80140
C:/Users/Admin/Desktop/test1/telink_b91m_driver_src/chip/B91/drivers/lib/src/pm.c:125
     3b4:	801407b7          	lui	a5,0x80140
     3b8:	20d7a023          	sw	a3,512(a5) # 80140200 <_DATA_LMA_START+0x6013cfa0>
C:/Users/Admin/Desktop/test1/telink_b91m_driver_src/chip/B91/drivers/lib/src/pm.c:128
     3bc:	20b60783          	lb	a5,523(a2) # 8014020b <_DATA_LMA_START+0x6013cfab>
     3c0:	be77fe5b          	bbc	a5,7,3bc <pm_stimer_recover+0x80>
C:/Users/Admin/Desktop/test1/telink_b91m_driver_src/chip/B91/drivers/lib/src/pm.c:129
     3c4:	20060c23          	sb	zero,536(a2)
C:/Users/Admin/Desktop/test1/telink_b91m_driver_src/chip/B91/drivers/lib/src/pm.c:142
     3c8:	40b2                	c.lwsp	ra,12(sp)
     3ca:	0141                	c.addi	sp,16
     3cc:	00008067          	ret

000003d0 <plic_exit_critical_sec>:
plic_exit_critical_sec():
C:/Users/Admin/Desktop/test1/telink_b91m_driver_src/chip/B91/drivers/lib/src/plic.c:75
     3d0:	000007b7          	lui	a5,0x0
     3d4:	15878793          	addi	a5,a5,344 # 158 <_AES_VMA_END>
     3d8:	03c78783          	lb	a5,60(a5)
     3dc:	0ff7f793          	andi	a5,a5,255
     3e0:	c385                	c.beqz	a5,400 <plic_exit_critical_sec+0x30>
     3e2:	cd19                	c.beqz	a0,400 <plic_exit_critical_sec+0x30>
core_interrupt_disable():
C:\Users\Admin\Desktop\test1\telink_b91m_driver_src\chip\B91\drivers/core.h:101
     3e4:	300027f3          	csrr	a5,mstatus
     3e8:	8ba1                	c.andi	a5,8
C:\Users\Admin\Desktop\test1\telink_b91m_driver_src\chip\B91\drivers/core.h:102
     3ea:	cf99                	c.beqz	a5,408 <plic_exit_critical_sec+0x38>
C:\Users\Admin\Desktop\test1\telink_b91m_driver_src\chip\B91\drivers/core.h:104
     3ec:	30047773          	csrrci	a4,mstatus,8
plic_exit_critical_sec():
C:\Users\Admin\Desktop\test1\telink_b91m_driver_src\chip\B91\drivers/lib/include/plic.h:236
     3f0:	e4200737          	lui	a4,0xe4200
     3f4:	00072023          	sw	zero,0(a4) # e4200000 <_DATA_LMA_START+0xc41fcda0>
core_restore_interrupt():
C:\Users\Admin\Desktop\test1\telink_b91m_driver_src\chip\B91\drivers/core.h:119
     3f8:	3007a7f3          	csrrs	a5,mstatus,a5
     3fc:	00008067          	ret
C:\Users\Admin\Desktop\test1\telink_b91m_driver_src\chip\B91\drivers/core.h:117
     400:	c981                	c.beqz	a1,410 <plic_exit_critical_sec+0x40>
C:\Users\Admin\Desktop\test1\telink_b91m_driver_src\chip\B91\drivers/core.h:119
     402:	3005a5f3          	csrrs	a1,mstatus,a1
     406:	8082                	c.jr	ra
plic_exit_critical_sec():
C:\Users\Admin\Desktop\test1\telink_b91m_driver_src\chip\B91\drivers/lib/include/plic.h:236
     408:	e42007b7          	lui	a5,0xe4200
     40c:	0007a023          	sw	zero,0(a5) # e4200000 <_DATA_LMA_START+0xc41fcda0>
C:/Users/Admin/Desktop/test1/telink_b91m_driver_src/chip/B91/drivers/lib/src/plic.c:83
     410:	00008067          	ret

00000414 <plic_enter_critical_sec>:
plic_enter_critical_sec():
C:/Users/Admin/Desktop/test1/telink_b91m_driver_src/chip/B91/drivers/lib/src/plic.c:50
     414:	000007b7          	lui	a5,0x0
     418:	15878793          	addi	a5,a5,344 # 158 <_AES_VMA_END>
     41c:	03c78783          	lb	a5,60(a5)
     420:	0ff7f793          	andi	a5,a5,255
     424:	c385                	c.beqz	a5,444 <plic_enter_critical_sec+0x30>
     426:	cd19                	c.beqz	a0,444 <plic_enter_critical_sec+0x30>
core_interrupt_disable():
C:\Users\Admin\Desktop\test1\telink_b91m_driver_src\chip\B91\drivers/core.h:101
     428:	30002573          	csrr	a0,mstatus
     42c:	8921                	c.andi	a0,8
C:\Users\Admin\Desktop\test1\telink_b91m_driver_src\chip\B91\drivers/core.h:102
     42e:	c11d                	c.beqz	a0,454 <plic_enter_critical_sec+0x40>
C:\Users\Admin\Desktop\test1\telink_b91m_driver_src\chip\B91\drivers/core.h:104
     430:	300477f3          	csrrci	a5,mstatus,8
plic_enter_critical_sec():
C:\Users\Admin\Desktop\test1\telink_b91m_driver_src\chip\B91\drivers/lib/include/plic.h:236
     434:	e42007b7          	lui	a5,0xe4200
     438:	c38c                	c.sw	a1,0(a5)
core_restore_interrupt():
C:\Users\Admin\Desktop\test1\telink_b91m_driver_src\chip\B91\drivers/core.h:119
     43a:	30052573          	csrrs	a0,mstatus,a0
plic_enter_critical_sec():
C:/Users/Admin/Desktop/test1/telink_b91m_driver_src/chip/B91/drivers/lib/src/plic.c:53
     43e:	4501                	c.li	a0,0
     440:	00008067          	ret
core_interrupt_disable():
C:\Users\Admin\Desktop\test1\telink_b91m_driver_src\chip\B91\drivers/core.h:101
     444:	30002573          	csrr	a0,mstatus
     448:	8921                	c.andi	a0,8
C:\Users\Admin\Desktop\test1\telink_b91m_driver_src\chip\B91\drivers/core.h:102
     44a:	c909                	c.beqz	a0,45c <plic_enter_critical_sec+0x48>
C:\Users\Admin\Desktop\test1\telink_b91m_driver_src\chip\B91\drivers/core.h:104
     44c:	300477f3          	csrrci	a5,mstatus,8
     450:	00008067          	ret
plic_enter_critical_sec():
C:\Users\Admin\Desktop\test1\telink_b91m_driver_src\chip\B91\drivers/lib/include/plic.h:236
     454:	e42007b7          	lui	a5,0xe4200
     458:	00b7a023          	sw	a1,0(a5) # e4200000 <_DATA_LMA_START+0xc41fcda0>
C:/Users/Admin/Desktop/test1/telink_b91m_driver_src/chip/B91/drivers/lib/src/plic.c:60
     45c:	00008067          	ret

00000460 <flash_mspi_read_ram>:
flash_mspi_read_ram():
E:/promotion/gitlab/opensdk/Mars_B91/telink_mars_b91_driver_sdk_v2.2.0/chip/B91/drivers/flash.c:151
 * @param[out]  data		- the start address of the data buffer(ram address).
 * @param[in]   data_len	- the length(in byte) of content needs to read out.
 * @return 		none.
 */
_attribute_ram_code_sec_noinline_ void flash_mspi_read_ram(flash_command_e cmd, unsigned long addr, unsigned char addr_en, unsigned char dummy_cnt, unsigned char *data, unsigned long data_len)
{
     460:	7179                	c.addi16sp	sp,-48
     462:	d226                	c.swsp	s1,36(sp)
E:/promotion/gitlab/opensdk/Mars_B91/telink_mars_b91_driver_sdk_v2.2.0/chip/B91/drivers/flash.c:152
	unsigned int r=plic_enter_critical_sec(s_flash_preempt_config.preempt_en,s_flash_preempt_config.threshold);
     464:	000004b7          	lui	s1,0x0
     468:	15848493          	addi	s1,s1,344 # 158 <_AES_VMA_END>
E:/promotion/gitlab/opensdk/Mars_B91/telink_mars_b91_driver_sdk_v2.2.0/chip/B91/drivers/flash.c:151
{
     46c:	d04a                	c.swsp	s2,32(sp)
     46e:	c65e                	c.swsp	s7,12(sp)
     470:	892a                	c.mv	s2,a0
     472:	8bae                	c.mv	s7,a1
E:/promotion/gitlab/opensdk/Mars_B91/telink_mars_b91_driver_sdk_v2.2.0/chip/B91/drivers/flash.c:152
	unsigned int r=plic_enter_critical_sec(s_flash_preempt_config.preempt_en,s_flash_preempt_config.threshold);
     474:	0404c503          	lbu	a0,64(s1)
     478:	0414c583          	lbu	a1,65(s1)
E:/promotion/gitlab/opensdk/Mars_B91/telink_mars_b91_driver_sdk_v2.2.0/chip/B91/drivers/flash.c:151
{
     47c:	d422                	c.swsp	s0,40(sp)
     47e:	ce4e                	c.swsp	s3,28(sp)
     480:	cc52                	c.swsp	s4,24(sp)
     482:	ca56                	c.swsp	s5,20(sp)
     484:	c85a                	c.swsp	s6,16(sp)
     486:	d606                	c.swsp	ra,44(sp)
     488:	8b32                	c.mv	s6,a2
     48a:	8ab6                	c.mv	s5,a3
     48c:	843a                	c.mv	s0,a4
     48e:	8a3e                	c.mv	s4,a5
E:/promotion/gitlab/opensdk/Mars_B91/telink_mars_b91_driver_sdk_v2.2.0/chip/B91/drivers/flash.c:152
	unsigned int r=plic_enter_critical_sec(s_flash_preempt_config.preempt_en,s_flash_preempt_config.threshold);
     490:	f85ff0ef          	jal	ra,414 <plic_enter_critical_sec>
mspi_wait():
E:/promotion/gitlab/opensdk/Mars_B91/telink_mars_b91_driver_sdk_v2.2.0/chip/B91/drivers/mspi.h:46
     494:	80140637          	lui	a2,0x80140
flash_mspi_read_ram():
E:/promotion/gitlab/opensdk/Mars_B91/telink_mars_b91_driver_sdk_v2.2.0/chip/B91/drivers/flash.c:152
     498:	00a009b3          	add	s3,zero,a0
mspi_wait():
E:/promotion/gitlab/opensdk/Mars_B91/telink_mars_b91_driver_sdk_v2.2.0/chip/B91/drivers/mspi.h:46
     49c:	10260783          	lb	a5,258(a2) # 80140102 <_DATA_LMA_START+0x6013cea2>
     4a0:	fe07fe5b          	bbs	a5,0,49c <flash_mspi_read_ram+0x3c>
mspi_high():
E:/promotion/gitlab/opensdk/Mars_B91/telink_mars_b91_driver_sdk_v2.2.0/chip/B91/drivers/mspi.h:95
	reg_mspi_fm |= FLD_MSPI_CSN;
     4a4:	10160783          	lb	a5,257(a2)
gpio_get_level():
E:/promotion/gitlab/opensdk/Mars_B91/telink_mars_b91_driver_sdk_v2.2.0/chip/B91/drivers/gpio.h:262
 * @return    1: the pin's level is high.
 * 			  0: the pin's level is low.
 */
static inline _Bool gpio_get_level(gpio_pin_e pin)
{
	return BM_IS_SET(reg_gpio_in(pin), pin & 0xff);
     4a8:	80140737          	lui	a4,0x80140
mspi_high():
E:/promotion/gitlab/opensdk/Mars_B91/telink_mars_b91_driver_sdk_v2.2.0/chip/B91/drivers/mspi.h:95
     4ac:	0ff7f793          	andi	a5,a5,255
     4b0:	0107e793          	ori	a5,a5,16
     4b4:	10f600a3          	sb	a5,257(a2)
gpio_get_level():
E:/promotion/gitlab/opensdk/Mars_B91/telink_mars_b91_driver_sdk_v2.2.0/chip/B91/drivers/gpio.h:262
     4b8:	32870783          	lb	a5,808(a4) # 80140328 <_DATA_LMA_START+0x6013d0c8>
mspi_stop_xip():
E:/promotion/gitlab/opensdk/Mars_B91/telink_mars_b91_driver_sdk_v2.2.0/chip/B91/drivers/mspi.h:150
 */
_attribute_ram_code_sec_ static inline void mspi_stop_xip(void)
{
	mspi_wait();	//wait xip busy=0
	mspi_high();	//mspi_cn=1, stop xip read
	while(gpio_get_level(GPIO_PF3) == 0);	//wait cn=1
     4bc:	be37fe5b          	bbc	a5,3,4b8 <flash_mspi_read_ram+0x58>
mspi_fm_write_en():
E:/promotion/gitlab/opensdk/Mars_B91/telink_mars_b91_driver_sdk_v2.2.0/chip/B91/drivers/mspi.h:78
	reg_mspi_fm &= ~FLD_MSPI_RD_MODE;
     4c0:	10170783          	lb	a5,257(a4)
flash_mspi_read_ram():
E:/promotion/gitlab/opensdk/Mars_B91/telink_mars_b91_driver_sdk_v2.2.0/chip/B91/drivers/flash.c:157
	mspi_stop_xip();
	/*Flash single line mode does not distinguish between mspi read and mspi write.This is just to be compatible with single line, dual line and quad line.*/
	mspi_fm_write_en();			/* write mode */
	mspi_fm_data_line(MSPI_SINGLE_LINE);
	flash_send_cmd(cmd);
     4c4:	854a                	c.mv	a0,s2
mspi_fm_write_en():
E:/promotion/gitlab/opensdk/Mars_B91/telink_mars_b91_driver_sdk_v2.2.0/chip/B91/drivers/mspi.h:78
     4c6:	0fd7f793          	andi	a5,a5,253
     4ca:	10f700a3          	sb	a5,257(a4)
mspi_fm_data_line():
E:/promotion/gitlab/opensdk/Mars_B91/telink_mars_b91_driver_sdk_v2.2.0/chip/B91/drivers/mspi.h:87
	reg_mspi_fm = (reg_mspi_fm & (~FLD_MSPI_DATA_LINE)) | line;
     4ce:	10170783          	lb	a5,257(a4)
     4d2:	0f37f793          	andi	a5,a5,243
     4d6:	10f700a3          	sb	a5,257(a4)
flash_mspi_read_ram():
E:/promotion/gitlab/opensdk/Mars_B91/telink_mars_b91_driver_sdk_v2.2.0/chip/B91/drivers/flash.c:157
     4da:	3369                	c.jal	264 <flash_send_cmd>
E:/promotion/gitlab/opensdk/Mars_B91/telink_mars_b91_driver_sdk_v2.2.0/chip/B91/drivers/flash.c:162
	if(cmd == FLASH_X4READ_CMD)
	{
		mspi_fm_data_line(MSPI_QUAD_LINE);
	}
	if(addr_en)
     4dc:	0e0b1e63          	bnez	s6,5d8 <flash_mspi_read_ram+0x178>
E:/promotion/gitlab/opensdk/Mars_B91/telink_mars_b91_driver_sdk_v2.2.0/chip/B91/drivers/flash.c:166
	{
		flash_send_addr(addr);
	}
	for(unsigned int i = 0; i < dummy_cnt; ++i)
     4e0:	020a8063          	beqz	s5,500 <flash_mspi_read_ram+0xa0>
     4e4:	00000713          	li	a4,0
mspi_write():
E:/promotion/gitlab/opensdk/Mars_B91/telink_mars_b91_driver_sdk_v2.2.0/chip/B91/drivers/mspi.h:120
	reg_mspi_data = c;
     4e8:	80140637          	lui	a2,0x80140
     4ec:	10060023          	sb	zero,256(a2) # 80140100 <_DATA_LMA_START+0x6013cea0>
mspi_wait():
E:/promotion/gitlab/opensdk/Mars_B91/telink_mars_b91_driver_sdk_v2.2.0/chip/B91/drivers/mspi.h:46
	while(reg_mspi_status & FLD_MSPI_BUSY);
     4f0:	10260783          	lb	a5,258(a2)
     4f4:	fe07fe5b          	bbs	a5,0,4f0 <flash_mspi_read_ram+0x90>
flash_mspi_read_ram():
E:/promotion/gitlab/opensdk/Mars_B91/telink_mars_b91_driver_sdk_v2.2.0/chip/B91/drivers/flash.c:166
     4f8:	00170713          	addi	a4,a4,1
     4fc:	ff5718e3          	bne	a4,s5,4ec <flash_mspi_read_ram+0x8c>
E:/promotion/gitlab/opensdk/Mars_B91/telink_mars_b91_driver_sdk_v2.2.0/chip/B91/drivers/flash.c:171
	{
		mspi_write(0x00);		/* dummy */
		mspi_wait();
	}
	if(cmd == FLASH_DREAD_CMD)
     500:	01b96cdb          	bnec	s2,59,518 <flash_mspi_read_ram+0xb8>
mspi_fm_data_line():
E:/promotion/gitlab/opensdk/Mars_B91/telink_mars_b91_driver_sdk_v2.2.0/chip/B91/drivers/mspi.h:87
	reg_mspi_fm = (reg_mspi_fm & (~FLD_MSPI_DATA_LINE)) | line;
     504:	80140737          	lui	a4,0x80140
     508:	10170783          	lb	a5,257(a4) # 80140101 <_DATA_LMA_START+0x6013cea1>
     50c:	0f37f793          	andi	a5,a5,243
     510:	0047e793          	ori	a5,a5,4
     514:	10f700a3          	sb	a5,257(a4)
mspi_fm_read_en():
E:/promotion/gitlab/opensdk/Mars_B91/telink_mars_b91_driver_sdk_v2.2.0/chip/B91/drivers/mspi.h:70
	reg_mspi_fm |= FLD_MSPI_RD_MODE;
     518:	801406b7          	lui	a3,0x80140
     51c:	10168783          	lb	a5,257(a3) # 80140101 <_DATA_LMA_START+0x6013cea1>
mspi_wait():
E:/promotion/gitlab/opensdk/Mars_B91/telink_mars_b91_driver_sdk_v2.2.0/chip/B91/drivers/mspi.h:46
	while(reg_mspi_status & FLD_MSPI_BUSY);
     520:	80140737          	lui	a4,0x80140
mspi_fm_read_en():
E:/promotion/gitlab/opensdk/Mars_B91/telink_mars_b91_driver_sdk_v2.2.0/chip/B91/drivers/mspi.h:70
	reg_mspi_fm |= FLD_MSPI_RD_MODE;
     524:	0ff7f793          	andi	a5,a5,255
     528:	0027e793          	ori	a5,a5,2
     52c:	10f680a3          	sb	a5,257(a3)
mspi_write():
E:/promotion/gitlab/opensdk/Mars_B91/telink_mars_b91_driver_sdk_v2.2.0/chip/B91/drivers/mspi.h:120
	reg_mspi_data = c;
     530:	10068023          	sb	zero,256(a3)
mspi_wait():
E:/promotion/gitlab/opensdk/Mars_B91/telink_mars_b91_driver_sdk_v2.2.0/chip/B91/drivers/mspi.h:46
	while(reg_mspi_status & FLD_MSPI_BUSY);
     534:	10270783          	lb	a5,258(a4) # 80140102 <_DATA_LMA_START+0x6013cea2>
     538:	fe07fe5b          	bbs	a5,0,534 <flash_mspi_read_ram+0xd4>
mspi_fm_rd_trig_en():
E:/promotion/gitlab/opensdk/Mars_B91/telink_mars_b91_driver_sdk_v2.2.0/chip/B91/drivers/mspi.h:54
	reg_mspi_fm |= FLD_MSPI_RD_TRIG_EN;
     53c:	10170783          	lb	a5,257(a4)
mspi_wait():
E:/promotion/gitlab/opensdk/Mars_B91/telink_mars_b91_driver_sdk_v2.2.0/chip/B91/drivers/mspi.h:46
	while(reg_mspi_status & FLD_MSPI_BUSY);
     540:	801406b7          	lui	a3,0x80140
mspi_fm_rd_trig_en():
E:/promotion/gitlab/opensdk/Mars_B91/telink_mars_b91_driver_sdk_v2.2.0/chip/B91/drivers/mspi.h:54
	reg_mspi_fm |= FLD_MSPI_RD_TRIG_EN;
     544:	0ff7f793          	andi	a5,a5,255
     548:	0017e793          	ori	a5,a5,1
     54c:	10f700a3          	sb	a5,257(a4)
mspi_wait():
E:/promotion/gitlab/opensdk/Mars_B91/telink_mars_b91_driver_sdk_v2.2.0/chip/B91/drivers/mspi.h:46
	while(reg_mspi_status & FLD_MSPI_BUSY);
     550:	10268783          	lb	a5,258(a3) # 80140102 <_DATA_LMA_START+0x6013cea2>
     554:	fe07fe5b          	bbs	a5,0,550 <flash_mspi_read_ram+0xf0>
flash_mspi_read_ram():
E:/promotion/gitlab/opensdk/Mars_B91/telink_mars_b91_driver_sdk_v2.2.0/chip/B91/drivers/flash.c:180
	mspi_fm_read_en();			/* read mode */
	mspi_write(0x00);			/* to issue clock */
	mspi_wait();
	mspi_fm_rd_trig_en();		/* auto mode, mspi_get() automatically triggers mspi_write(0x00) once. */
	mspi_wait();
	for(unsigned int i = 0; i < data_len; ++i)
     558:	020a0263          	beqz	s4,57c <flash_mspi_read_ram+0x11c>
     55c:	008a0a33          	add	s4,s4,s0
mspi_get():
E:/promotion/gitlab/opensdk/Mars_B91/telink_mars_b91_driver_sdk_v2.2.0/chip/B91/drivers/mspi.h:111
	return reg_mspi_data;
     560:	801406b7          	lui	a3,0x80140
     564:	10068783          	lb	a5,256(a3) # 80140100 <_DATA_LMA_START+0x6013cea0>
flash_mspi_read_ram():
E:/promotion/gitlab/opensdk/Mars_B91/telink_mars_b91_driver_sdk_v2.2.0/chip/B91/drivers/flash.c:182
	{
		*data++ = mspi_get();
     568:	00140413          	addi	s0,s0,1
     56c:	fef40fa3          	sb	a5,-1(s0)
mspi_wait():
E:/promotion/gitlab/opensdk/Mars_B91/telink_mars_b91_driver_sdk_v2.2.0/chip/B91/drivers/mspi.h:46
	while(reg_mspi_status & FLD_MSPI_BUSY);
     570:	10268783          	lb	a5,258(a3)
     574:	fe07fe5b          	bbs	a5,0,570 <flash_mspi_read_ram+0x110>
flash_mspi_read_ram():
E:/promotion/gitlab/opensdk/Mars_B91/telink_mars_b91_driver_sdk_v2.2.0/chip/B91/drivers/flash.c:180
	for(unsigned int i = 0; i < data_len; ++i)
     578:	ff4416e3          	bne	s0,s4,564 <flash_mspi_read_ram+0x104>
mspi_fm_rd_trig_dis():
E:/promotion/gitlab/opensdk/Mars_B91/telink_mars_b91_driver_sdk_v2.2.0/chip/B91/drivers/mspi.h:62
	reg_mspi_fm &= ~FLD_MSPI_RD_TRIG_EN;
     57c:	801407b7          	lui	a5,0x80140
     580:	10178703          	lb	a4,257(a5) # 80140101 <_DATA_LMA_START+0x6013cea1>
     584:	0fe77713          	andi	a4,a4,254
     588:	10e780a3          	sb	a4,257(a5)
flash_mspi_read_ram():
E:/promotion/gitlab/opensdk/Mars_B91/telink_mars_b91_driver_sdk_v2.2.0/chip/B91/drivers/flash.c:186
		mspi_wait();
	}
	mspi_fm_rd_trig_dis();		/* off read auto mode */
	if((cmd == FLASH_X4READ_CMD)||(cmd == FLASH_DREAD_CMD))
     58c:	01b968db          	bnec	s2,59,59c <flash_mspi_read_ram+0x13c>
mspi_fm_data_line():
E:/promotion/gitlab/opensdk/Mars_B91/telink_mars_b91_driver_sdk_v2.2.0/chip/B91/drivers/mspi.h:87
	reg_mspi_fm = (reg_mspi_fm & (~FLD_MSPI_DATA_LINE)) | line;
     590:	10178703          	lb	a4,257(a5)
     594:	0f377713          	andi	a4,a4,243
     598:	10e780a3          	sb	a4,257(a5)
mspi_high():
E:/promotion/gitlab/opensdk/Mars_B91/telink_mars_b91_driver_sdk_v2.2.0/chip/B91/drivers/mspi.h:95
	reg_mspi_fm |= FLD_MSPI_CSN;
     59c:	80140737          	lui	a4,0x80140
     5a0:	10170783          	lb	a5,257(a4) # 80140101 <_DATA_LMA_START+0x6013cea1>
     5a4:	0ff7f793          	andi	a5,a5,255
     5a8:	0107e793          	ori	a5,a5,16
     5ac:	10f700a3          	sb	a5,257(a4)
flash_mspi_read_ram():
E:/promotion/gitlab/opensdk/Mars_B91/telink_mars_b91_driver_sdk_v2.2.0/chip/B91/drivers/flash.c:192
	{
		mspi_fm_data_line(MSPI_SINGLE_LINE);
	}
	mspi_high();

	CLOCK_DLY_5_CYC;
     5b0:	0001                	c.nop
     5b2:	0001                	c.nop
     5b4:	0001                	c.nop
     5b6:	0001                	c.nop
     5b8:	0001                	c.nop
E:/promotion/gitlab/opensdk/Mars_B91/telink_mars_b91_driver_sdk_v2.2.0/chip/B91/drivers/flash.c:194
	plic_exit_critical_sec(s_flash_preempt_config.preempt_en,r);
}
     5ba:	5422                	c.lwsp	s0,40(sp)
E:/promotion/gitlab/opensdk/Mars_B91/telink_mars_b91_driver_sdk_v2.2.0/chip/B91/drivers/flash.c:193
	plic_exit_critical_sec(s_flash_preempt_config.preempt_en,r);
     5bc:	0404c503          	lbu	a0,64(s1)
E:/promotion/gitlab/opensdk/Mars_B91/telink_mars_b91_driver_sdk_v2.2.0/chip/B91/drivers/flash.c:194
}
     5c0:	50b2                	c.lwsp	ra,44(sp)
     5c2:	5492                	c.lwsp	s1,36(sp)
     5c4:	5902                	c.lwsp	s2,32(sp)
     5c6:	4a62                	c.lwsp	s4,24(sp)
     5c8:	4ad2                	c.lwsp	s5,20(sp)
     5ca:	4b42                	c.lwsp	s6,16(sp)
     5cc:	4bb2                	c.lwsp	s7,12(sp)
E:/promotion/gitlab/opensdk/Mars_B91/telink_mars_b91_driver_sdk_v2.2.0/chip/B91/drivers/flash.c:193
	plic_exit_critical_sec(s_flash_preempt_config.preempt_en,r);
     5ce:	85ce                	c.mv	a1,s3
E:/promotion/gitlab/opensdk/Mars_B91/telink_mars_b91_driver_sdk_v2.2.0/chip/B91/drivers/flash.c:194
}
     5d0:	49f2                	c.lwsp	s3,28(sp)
     5d2:	6145                	c.addi16sp	sp,48
E:/promotion/gitlab/opensdk/Mars_B91/telink_mars_b91_driver_sdk_v2.2.0/chip/B91/drivers/flash.c:193
	plic_exit_critical_sec(s_flash_preempt_config.preempt_en,r);
     5d4:	dfdff06f          	j	3d0 <plic_exit_critical_sec>
E:/promotion/gitlab/opensdk/Mars_B91/telink_mars_b91_driver_sdk_v2.2.0/chip/B91/drivers/flash.c:164
		flash_send_addr(addr);
     5d8:	855e                	c.mv	a0,s7
     5da:	3199                	c.jal	220 <flash_send_addr>
     5dc:	f05ff06f          	j	4e0 <flash_mspi_read_ram+0x80>

000005e0 <analog_write_reg8>:
core_interrupt_disable():
E:/promotion/gitlab/opensdk/Mars_B91/telink_mars_b91_driver_sdk_v2.2.0/chip/B91/drivers/core.h:101
 * @return  r - the MIE bit value of machine status register(MSTATUS).
 * @note  this function must be used when the system wants to disable all the interrupt.
 * @return     none
 */
static inline unsigned int core_interrupt_disable(void){
	unsigned int r = read_csr (NDS_MSTATUS)&FLD_MSTATUS_MIE;
     5e0:	30002673          	csrr	a2,mstatus
     5e4:	8a21                	c.andi	a2,8
E:/promotion/gitlab/opensdk/Mars_B91/telink_mars_b91_driver_sdk_v2.2.0/chip/B91/drivers/core.h:102
	if(r)
     5e6:	c219                	c.beqz	a2,5ec <analog_write_reg8+0xc>
E:/promotion/gitlab/opensdk/Mars_B91/telink_mars_b91_driver_sdk_v2.2.0/chip/B91/drivers/core.h:104
	{
		clear_csr(NDS_MSTATUS,FLD_MSTATUS_MIE);//global interrupts disable
     5e8:	300477f3          	csrrci	a5,mstatus,8
analog_write_reg8():
E:/promotion/gitlab/opensdk/Mars_B91/telink_mars_b91_driver_sdk_v2.2.0/chip/B91/drivers/analog.c:125
 * @param[in]  data - the value need to be write.
 * @return     none.
 */
void analog_write_reg8(unsigned char addr, unsigned char data){
	unsigned int r=core_interrupt_disable();
	reg_ana_addr = addr;
     5ec:	80140737          	lui	a4,0x80140
     5f0:	18a70023          	sb	a0,384(a4) # 80140180 <_DATA_LMA_START+0x6013cf20>
E:/promotion/gitlab/opensdk/Mars_B91/telink_mars_b91_driver_sdk_v2.2.0/chip/B91/drivers/analog.c:126
    reg_ana_data(0) = data;
     5f4:	18b70223          	sb	a1,388(a4)
E:/promotion/gitlab/opensdk/Mars_B91/telink_mars_b91_driver_sdk_v2.2.0/chip/B91/drivers/analog.c:127
    reg_ana_ctrl = (FLD_ANA_CYC | FLD_ANA_RW);
     5f8:	06000693          	li	a3,96
analog_wait():
E:/promotion/gitlab/opensdk/Mars_B91/telink_mars_b91_driver_sdk_v2.2.0/chip/B91/drivers/analog.c:432
/**
 * @brief      This function serves to judge whether analog write/read is busy .
 * @return     none.
 */
static inline void analog_wait(){
	while(reg_ana_ctrl & FLD_ANA_BUSY){}
     5fc:	801407b7          	lui	a5,0x80140
analog_write_reg8():
E:/promotion/gitlab/opensdk/Mars_B91/telink_mars_b91_driver_sdk_v2.2.0/chip/B91/drivers/analog.c:127
    reg_ana_ctrl = (FLD_ANA_CYC | FLD_ANA_RW);
     600:	18d70123          	sb	a3,386(a4)
analog_wait():
E:/promotion/gitlab/opensdk/Mars_B91/telink_mars_b91_driver_sdk_v2.2.0/chip/B91/drivers/analog.c:432
	while(reg_ana_ctrl & FLD_ANA_BUSY){}
     604:	18278703          	lb	a4,386(a5) # 80140182 <_DATA_LMA_START+0x6013cf22>
     608:	fe777e5b          	bbs	a4,7,604 <analog_write_reg8+0x24>
analog_write_reg8():
E:/promotion/gitlab/opensdk/Mars_B91/telink_mars_b91_driver_sdk_v2.2.0/chip/B91/drivers/analog.c:129
	reg_ana_ctrl =0x00;
     60c:	18078123          	sb	zero,386(a5)
core_restore_interrupt():
E:/promotion/gitlab/opensdk/Mars_B91/telink_mars_b91_driver_sdk_v2.2.0/chip/B91/drivers/core.h:117
 * this  parameter must be the return value of the core_interrupt_disable function.
 * @return     0
 * @note this function must be used when the system wants to restore all the interrupt.
 */
static inline unsigned int core_restore_interrupt(unsigned int en){
	if(en)
     610:	00060463          	beqz	a2,618 <analog_write_reg8+0x38>
E:/promotion/gitlab/opensdk/Mars_B91/telink_mars_b91_driver_sdk_v2.2.0/chip/B91/drivers/core.h:119
	{
		set_csr(NDS_MSTATUS,en);//global interrupts enable
     614:	30062673          	csrrs	a2,mstatus,a2
analog_write_reg8():
E:/promotion/gitlab/opensdk/Mars_B91/telink_mars_b91_driver_sdk_v2.2.0/chip/B91/drivers/analog.c:131
}
     618:	00008067          	ret

0000061c <analog_read_reg8>:
core_interrupt_disable():
E:/promotion/gitlab/opensdk/Mars_B91/telink_mars_b91_driver_sdk_v2.2.0/chip/B91/drivers/core.h:101
	unsigned int r = read_csr (NDS_MSTATUS)&FLD_MSTATUS_MIE;
     61c:	300026f3          	csrr	a3,mstatus
     620:	8aa1                	c.andi	a3,8
E:/promotion/gitlab/opensdk/Mars_B91/telink_mars_b91_driver_sdk_v2.2.0/chip/B91/drivers/core.h:102
	if(r)
     622:	c299                	c.beqz	a3,628 <analog_read_reg8+0xc>
E:/promotion/gitlab/opensdk/Mars_B91/telink_mars_b91_driver_sdk_v2.2.0/chip/B91/drivers/core.h:104
		clear_csr(NDS_MSTATUS,FLD_MSTATUS_MIE);//global interrupts disable
     624:	300477f3          	csrrci	a5,mstatus,8
analog_read_reg8():
E:/promotion/gitlab/opensdk/Mars_B91/telink_mars_b91_driver_sdk_v2.2.0/chip/B91/drivers/analog.c:107
	reg_ana_addr = addr;
     628:	801407b7          	lui	a5,0x80140
     62c:	18a78023          	sb	a0,384(a5) # 80140180 <_DATA_LMA_START+0x6013cf20>
E:/promotion/gitlab/opensdk/Mars_B91/telink_mars_b91_driver_sdk_v2.2.0/chip/B91/drivers/analog.c:108
	reg_ana_len=0x1;
     630:	00100713          	li	a4,1
     634:	18e781a3          	sb	a4,387(a5)
E:/promotion/gitlab/opensdk/Mars_B91/telink_mars_b91_driver_sdk_v2.2.0/chip/B91/drivers/analog.c:109
    reg_ana_ctrl = FLD_ANA_CYC;
     638:	04000613          	li	a2,64
analog_wait():
E:/promotion/gitlab/opensdk/Mars_B91/telink_mars_b91_driver_sdk_v2.2.0/chip/B91/drivers/analog.c:432
	while(reg_ana_ctrl & FLD_ANA_BUSY){}
     63c:	80140737          	lui	a4,0x80140
analog_read_reg8():
E:/promotion/gitlab/opensdk/Mars_B91/telink_mars_b91_driver_sdk_v2.2.0/chip/B91/drivers/analog.c:109
    reg_ana_ctrl = FLD_ANA_CYC;
     640:	18c78123          	sb	a2,386(a5)
analog_wait():
E:/promotion/gitlab/opensdk/Mars_B91/telink_mars_b91_driver_sdk_v2.2.0/chip/B91/drivers/analog.c:432
	while(reg_ana_ctrl & FLD_ANA_BUSY){}
     644:	18270783          	lb	a5,386(a4) # 80140182 <_DATA_LMA_START+0x6013cf22>
     648:	fe77fe5b          	bbs	a5,7,644 <analog_read_reg8+0x28>
analog_read_reg8():
E:/promotion/gitlab/opensdk/Mars_B91/telink_mars_b91_driver_sdk_v2.2.0/chip/B91/drivers/analog.c:111
	unsigned char data= reg_ana_data(0);
     64c:	18470503          	lb	a0,388(a4)
     650:	0ff57513          	andi	a0,a0,255
core_restore_interrupt():
E:/promotion/gitlab/opensdk/Mars_B91/telink_mars_b91_driver_sdk_v2.2.0/chip/B91/drivers/core.h:117
	if(en)
     654:	00068463          	beqz	a3,65c <analog_read_reg8+0x40>
E:/promotion/gitlab/opensdk/Mars_B91/telink_mars_b91_driver_sdk_v2.2.0/chip/B91/drivers/core.h:119
		set_csr(NDS_MSTATUS,en);//global interrupts enable
     658:	3006a6f3          	csrrs	a3,mstatus,a3
analog_read_reg8():
E:/promotion/gitlab/opensdk/Mars_B91/telink_mars_b91_driver_sdk_v2.2.0/chip/B91/drivers/analog.c:115
}
     65c:	00008067          	ret

00000660 <clock_init_ram.constprop.5>:
clock_init_ram():
E:/promotion/gitlab/opensdk/Mars_B91/telink_mars_b91_driver_sdk_v2.2.0/chip/B91/drivers/clock.c:285
 * 			    because during the clock switching process, the system clock will be
 * 			    suspended for a period of time, which may cause data loss

 */
_attribute_ram_code_sec_noinline_
void clock_init_ram(sys_pll_clk_e pll,
     660:	1141                	c.addi	sp,-16
E:/promotion/gitlab/opensdk/Mars_B91/telink_mars_b91_driver_sdk_v2.2.0/chip/B91/drivers/clock.c:294
		sys_hclk_div_to_pclk_e pclk_div,
		sys_pll_div_to_mspi_clk_e mspi_clk_div)
{

	//pll clk
	analog_write_reg8(0x80, (analog_read_reg8(0x80) & 0xe0) | ((pll >> 2) & 0x1f));
     662:	08000513          	li	a0,128
E:/promotion/gitlab/opensdk/Mars_B91/telink_mars_b91_driver_sdk_v2.2.0/chip/B91/drivers/clock.c:285
void clock_init_ram(sys_pll_clk_e pll,
     666:	c606                	c.swsp	ra,12(sp)
     668:	c422                	c.swsp	s0,8(sp)
E:/promotion/gitlab/opensdk/Mars_B91/telink_mars_b91_driver_sdk_v2.2.0/chip/B91/drivers/clock.c:294
	analog_write_reg8(0x80, (analog_read_reg8(0x80) & 0xe0) | ((pll >> 2) & 0x1f));
     66a:	3f4d                	c.jal	61c <analog_read_reg8>
     66c:	0e057593          	andi	a1,a0,224
     670:	0105e593          	ori	a1,a1,16
     674:	08000513          	li	a0,128
     678:	f69ff0ef          	jal	ra,5e0 <analog_write_reg8>
E:/promotion/gitlab/opensdk/Mars_B91/telink_mars_b91_driver_sdk_v2.2.0/chip/B91/drivers/clock.c:295
	analog_write_reg8(0x09, (analog_read_reg8(0x09) & 0xf3) | ((pll&0x03) << 2));
     67c:	00900513          	li	a0,9
     680:	f9dff0ef          	jal	ra,61c <analog_read_reg8>
     684:	0f357593          	andi	a1,a0,243
     688:	0085e593          	ori	a1,a1,8
     68c:	4525                	c.li	a0,9
     68e:	3f89                	c.jal	5e0 <analog_write_reg8>
E:/promotion/gitlab/opensdk/Mars_B91/telink_mars_b91_driver_sdk_v2.2.0/chip/B91/drivers/clock.c:296
	sys_clk.pll_clk = (pll >> 8);
     690:	0c000793          	li	a5,192
     694:	801f940b          	addigp	s0,-2048 # 80000 <_DATA_VMA_START>
     698:	00f41023          	sh	a5,0(s0)
E:/promotion/gitlab/opensdk/Mars_B91/telink_mars_b91_driver_sdk_v2.2.0/chip/B91/drivers/clock.c:299

	//usb clock (192M/4 =48M) pll clock should be the multiple of 48, because USB clock is 48M.
	write_reg8(0x1401fb, sys_clk.pll_clk/48);
     69c:	4711                	c.li	a4,4
     69e:	801407b7          	lui	a5,0x80140
E:/promotion/gitlab/opensdk/Mars_B91/telink_mars_b91_driver_sdk_v2.2.0/chip/B91/drivers/clock.c:302

	//wait for PLL stable
	analog_write_reg8(0x81, (analog_read_reg8(0x81) | BIT(6)));
     6a2:	08100513          	li	a0,129
E:/promotion/gitlab/opensdk/Mars_B91/telink_mars_b91_driver_sdk_v2.2.0/chip/B91/drivers/clock.c:299
	write_reg8(0x1401fb, sys_clk.pll_clk/48);
     6a6:	1ee78da3          	sb	a4,507(a5) # 801401fb <_DATA_LMA_START+0x6013cf9b>
E:/promotion/gitlab/opensdk/Mars_B91/telink_mars_b91_driver_sdk_v2.2.0/chip/B91/drivers/clock.c:302
	analog_write_reg8(0x81, (analog_read_reg8(0x81) | BIT(6)));
     6aa:	3f8d                	c.jal	61c <analog_read_reg8>
     6ac:	04056593          	ori	a1,a0,64
     6b0:	0ff5f593          	andi	a1,a1,255
     6b4:	08100513          	li	a0,129
     6b8:	f29ff0ef          	jal	ra,5e0 <analog_write_reg8>
E:/promotion/gitlab/opensdk/Mars_B91/telink_mars_b91_driver_sdk_v2.2.0/chip/B91/drivers/clock.c:303
	while(BIT(5) != (analog_read_reg8(0x88) & BIT(5)));
     6bc:	08800513          	li	a0,136
     6c0:	f5dff0ef          	jal	ra,61c <analog_read_reg8>
     6c4:	be557c5b          	bbc	a0,5,6bc <clock_init_ram.constprop.5+0x5c>
E:/promotion/gitlab/opensdk/Mars_B91/telink_mars_b91_driver_sdk_v2.2.0/chip/B91/drivers/clock.c:304
	analog_write_reg8(0x81, (analog_read_reg8(0x81) & ~BIT(6)));
     6c8:	08100513          	li	a0,129
     6cc:	f51ff0ef          	jal	ra,61c <analog_read_reg8>
     6d0:	0bf57593          	andi	a1,a0,191
     6d4:	08100513          	li	a0,129
     6d8:	f09ff0ef          	jal	ra,5e0 <analog_write_reg8>
mspi_wait():
E:/promotion/gitlab/opensdk/Mars_B91/telink_mars_b91_driver_sdk_v2.2.0/chip/B91/drivers/mspi.h:46
	while(reg_mspi_status & FLD_MSPI_BUSY);
     6dc:	80140737          	lui	a4,0x80140
     6e0:	10270783          	lb	a5,258(a4) # 80140102 <_DATA_LMA_START+0x6013cea2>
     6e4:	fe07fe5b          	bbs	a5,0,6e0 <clock_init_ram.constprop.5+0x80>
mspi_high():
E:/promotion/gitlab/opensdk/Mars_B91/telink_mars_b91_driver_sdk_v2.2.0/chip/B91/drivers/mspi.h:95
	reg_mspi_fm |= FLD_MSPI_CSN;
     6e8:	10170683          	lb	a3,257(a4)
gpio_get_level():
E:/promotion/gitlab/opensdk/Mars_B91/telink_mars_b91_driver_sdk_v2.2.0/chip/B91/drivers/gpio.h:262
     6ec:	801407b7          	lui	a5,0x80140
mspi_high():
E:/promotion/gitlab/opensdk/Mars_B91/telink_mars_b91_driver_sdk_v2.2.0/chip/B91/drivers/mspi.h:95
     6f0:	0ff6f693          	andi	a3,a3,255
     6f4:	0106e693          	ori	a3,a3,16
     6f8:	10d700a3          	sb	a3,257(a4)
gpio_get_level():
E:/promotion/gitlab/opensdk/Mars_B91/telink_mars_b91_driver_sdk_v2.2.0/chip/B91/drivers/gpio.h:262
     6fc:	32878703          	lb	a4,808(a5) # 80140328 <_DATA_LMA_START+0x6013d0c8>
mspi_stop_xip():
E:/promotion/gitlab/opensdk/Mars_B91/telink_mars_b91_driver_sdk_v2.2.0/chip/B91/drivers/mspi.h:150
	while(gpio_get_level(GPIO_PF3) == 0);	//wait cn=1
     700:	be377e5b          	bbc	a4,3,6fc <clock_init_ram.constprop.5+0x9c>
clock_init_ram():
E:/promotion/gitlab/opensdk/Mars_B91/telink_mars_b91_driver_sdk_v2.2.0/chip/B91/drivers/clock.c:316
	{
		write_reg8(0x1401e8, read_reg8(0x1401e8) & 0x7f);  //bit7 0
	}
	else
	{
		write_reg8(0x1401e9, (read_reg8(0x1401e9) & 0x0f) | (mspi_clk_div<<4) );
     704:	1e978703          	lb	a4,489(a5)
     708:	8b3d                	c.andi	a4,15
     70a:	04076713          	ori	a4,a4,64
     70e:	1ee784a3          	sb	a4,489(a5)
E:/promotion/gitlab/opensdk/Mars_B91/telink_mars_b91_driver_sdk_v2.2.0/chip/B91/drivers/clock.c:317
		write_reg8(0x1401e8, read_reg8(0x1401e8) | BIT(7));  //if the div is odd, should set two times to ensure the correct sequence.
     712:	1e878703          	lb	a4,488(a5)
     716:	f8076713          	ori	a4,a4,-128
     71a:	0ff77713          	andi	a4,a4,255
     71e:	1ee78423          	sb	a4,488(a5)
E:/promotion/gitlab/opensdk/Mars_B91/telink_mars_b91_driver_sdk_v2.2.0/chip/B91/drivers/clock.c:318
		write_reg8(0x1401e8, read_reg8(0x1401e8) | BIT(7));
     722:	1e878703          	lb	a4,488(a5)
     726:	f8076713          	ori	a4,a4,-128
     72a:	0ff77713          	andi	a4,a4,255
     72e:	1ee78423          	sb	a4,488(a5)
E:/promotion/gitlab/opensdk/Mars_B91/telink_mars_b91_driver_sdk_v2.2.0/chip/B91/drivers/clock.c:325
	}

	//hclk and pclk should be set ahead of cclk, ensure the hclk and pclk not exceed the max clk(cclk max 96M, hclk max 48M, pclk max 24M)
	if(CCLK_DIV1_TO_HCLK == hclk_div)
	{
		write_reg8(0x1401d8, read_reg8(0x1401d8) & ~BIT(2));
     732:	1d878703          	lb	a4,472(a5)
E:/promotion/gitlab/opensdk/Mars_B91/telink_mars_b91_driver_sdk_v2.2.0/chip/B91/drivers/clock.c:319
		sys_clk.mspi_clk = sys_clk.pll_clk / mspi_clk_div;
     736:	00045683          	lhu	a3,0(s0)
E:/promotion/gitlab/opensdk/Mars_B91/telink_mars_b91_driver_sdk_v2.2.0/chip/B91/drivers/clock.c:325
		write_reg8(0x1401d8, read_reg8(0x1401d8) & ~BIT(2));
     73a:	0fb77713          	andi	a4,a4,251
     73e:	1ce78c23          	sb	a4,472(a5)
E:/promotion/gitlab/opensdk/Mars_B91/telink_mars_b91_driver_sdk_v2.2.0/chip/B91/drivers/clock.c:335
	}

	//pclk can div1/div2/div4 from hclk.
	if(HCLK_DIV1_TO_PCLK == pclk_div)
	{
		write_reg8(0x1401d8, read_reg8(0x1401d8) & 0xfc);
     742:	1d878703          	lb	a4,472(a5)
E:/promotion/gitlab/opensdk/Mars_B91/telink_mars_b91_driver_sdk_v2.2.0/chip/B91/drivers/clock.c:319
		sys_clk.mspi_clk = sys_clk.pll_clk / mspi_clk_div;
     746:	8689                	c.srai	a3,0x2
     748:	00d402a3          	sb	a3,5(s0)
E:/promotion/gitlab/opensdk/Mars_B91/telink_mars_b91_driver_sdk_v2.2.0/chip/B91/drivers/clock.c:335
		write_reg8(0x1401d8, read_reg8(0x1401d8) & 0xfc);
     74c:	0fc77713          	andi	a4,a4,252
     750:	1ce78c23          	sb	a4,472(a5)
E:/promotion/gitlab/opensdk/Mars_B91/telink_mars_b91_driver_sdk_v2.2.0/chip/B91/drivers/clock.c:345
	}

	//select cclk source(RC24M/PAD24M/PAD_PLL_DIV/PAD_PLL)
	if(PAD_PLL_DIV == src)
	{
		write_reg8(0x1401e8, (read_reg8(0x1401e8) & 0xf0) | cclk_div);
     754:	1e878703          	lb	a4,488(a5)
     758:	0f077713          	andi	a4,a4,240
     75c:	00876713          	ori	a4,a4,8
     760:	1ee78423          	sb	a4,488(a5)
E:/promotion/gitlab/opensdk/Mars_B91/telink_mars_b91_driver_sdk_v2.2.0/chip/B91/drivers/clock.c:356
	}
	else
	{
		sys_clk.cclk = 24;
	}
	write_reg8(0x1401e8, (read_reg8(0x1401e8) & 0x8f) | (src << 4));
     764:	1e878703          	lb	a4,488(a5)
E:/promotion/gitlab/opensdk/Mars_B91/telink_mars_b91_driver_sdk_v2.2.0/chip/B91/drivers/clock.c:346
		sys_clk.cclk = sys_clk.pll_clk / cclk_div;
     768:	00045683          	lhu	a3,0(s0)
E:/promotion/gitlab/opensdk/Mars_B91/telink_mars_b91_driver_sdk_v2.2.0/chip/B91/drivers/clock.c:356
	write_reg8(0x1401e8, (read_reg8(0x1401e8) & 0x8f) | (src << 4));
     76c:	08f77713          	andi	a4,a4,143
E:/promotion/gitlab/opensdk/Mars_B91/telink_mars_b91_driver_sdk_v2.2.0/chip/B91/drivers/clock.c:346
		sys_clk.cclk = sys_clk.pll_clk / cclk_div;
     770:	868d                	c.srai	a3,0x3
     772:	00d40123          	sb	a3,2(s0)
E:/promotion/gitlab/opensdk/Mars_B91/telink_mars_b91_driver_sdk_v2.2.0/chip/B91/drivers/clock.c:356
	write_reg8(0x1401e8, (read_reg8(0x1401e8) & 0x8f) | (src << 4));
     776:	02076713          	ori	a4,a4,32
     77a:	1ee78423          	sb	a4,488(a5)
E:/promotion/gitlab/opensdk/Mars_B91/telink_mars_b91_driver_sdk_v2.2.0/chip/B91/drivers/clock.c:359

	//clk record.
	sys_clk.hclk = sys_clk.cclk/hclk_div;
     77e:	0ff6f693          	andi	a3,a3,255
     782:	00d401a3          	sb	a3,3(s0)
E:/promotion/gitlab/opensdk/Mars_B91/telink_mars_b91_driver_sdk_v2.2.0/chip/B91/drivers/clock.c:360
	sys_clk.pclk = sys_clk.hclk / pclk_div;
     786:	00d40223          	sb	a3,4(s0)
E:/promotion/gitlab/opensdk/Mars_B91/telink_mars_b91_driver_sdk_v2.2.0/chip/B91/drivers/clock.c:364
	if(CCLK_TO_MSPI_CLK == mspi_clk_div){
		sys_clk.mspi_clk = sys_clk.cclk;
	}
}
     78a:	40b2                	c.lwsp	ra,12(sp)
     78c:	4422                	c.lwsp	s0,8(sp)
     78e:	0141                	c.addi	sp,16
     790:	00008067          	ret

00000794 <pm_wait_bbpll_done>:
pm_wait_bbpll_done():
C:/Users/Admin/Desktop/test1/telink_b91m_driver_src/chip/B91/drivers/lib/src/pm.c:189
     794:	1101                	c.addi	sp,-32
C:/Users/Admin/Desktop/test1/telink_b91m_driver_src/chip/B91/drivers/lib/src/pm.c:190
     796:	08100513          	li	a0,129
C:/Users/Admin/Desktop/test1/telink_b91m_driver_src/chip/B91/drivers/lib/src/pm.c:189
     79a:	cc22                	c.swsp	s0,24(sp)
     79c:	ca26                	c.swsp	s1,20(sp)
     79e:	c84a                	c.swsp	s2,16(sp)
     7a0:	ce06                	c.swsp	ra,28(sp)
C:/Users/Admin/Desktop/test1/telink_b91m_driver_src/chip/B91/drivers/lib/src/pm.c:190
     7a2:	3dad                	c.jal	61c <analog_read_reg8>
C:/Users/Admin/Desktop/test1/telink_b91m_driver_src/chip/B91/drivers/lib/src/pm.c:191
     7a4:	04056593          	ori	a1,a0,64
C:/Users/Admin/Desktop/test1/telink_b91m_driver_src/chip/B91/drivers/lib/src/pm.c:190
     7a8:	892a                	c.mv	s2,a0
C:/Users/Admin/Desktop/test1/telink_b91m_driver_src/chip/B91/drivers/lib/src/pm.c:191
     7aa:	0ff5f593          	andi	a1,a1,255
     7ae:	08100513          	li	a0,129
     7b2:	0bf97913          	andi	s2,s2,191
     7b6:	4481                	c.li	s1,0
C:/Users/Admin/Desktop/test1/telink_b91m_driver_src/chip/B91/drivers/lib/src/pm.c:194
     7b8:	4475                	c.li	s0,29
C:/Users/Admin/Desktop/test1/telink_b91m_driver_src/chip/B91/drivers/lib/src/pm.c:191
     7ba:	351d                	c.jal	5e0 <analog_write_reg8>
C:/Users/Admin/Desktop/test1/telink_b91m_driver_src/chip/B91/drivers/lib/src/pm.c:194
     7bc:	000107a3          	sb	zero,15(sp)
     7c0:	00f10783          	lb	a5,15(sp)
     7c4:	0ff7f793          	andi	a5,a5,255
     7c8:	02f46063          	bltu	s0,a5,7e8 <pm_wait_bbpll_done+0x54>
C:/Users/Admin/Desktop/test1/telink_b91m_driver_src/chip/B91/drivers/lib/src/pm.c:195
     7cc:	0001                	c.nop
C:/Users/Admin/Desktop/test1/telink_b91m_driver_src/chip/B91/drivers/lib/src/pm.c:194
     7ce:	00f10783          	lb	a5,15(sp)
     7d2:	0785                	c.addi	a5,1
     7d4:	0ff7f793          	andi	a5,a5,255
     7d8:	00f107a3          	sb	a5,15(sp)
     7dc:	00f10783          	lb	a5,15(sp)
     7e0:	0ff7f793          	andi	a5,a5,255
     7e4:	fef474e3          	bgeu	s0,a5,7cc <pm_wait_bbpll_done+0x38>
C:/Users/Admin/Desktop/test1/telink_b91m_driver_src/chip/B91/drivers/lib/src/pm.c:197
     7e8:	08800513          	li	a0,136
     7ec:	e31ff0ef          	jal	ra,61c <analog_read_reg8>
     7f0:	4255765b          	bbs	a0,5,81c <pm_wait_bbpll_done+0x88>
C:/Users/Admin/Desktop/test1/telink_b91m_driver_src/chip/B91/drivers/lib/src/pm.c:204
     7f4:	cc95                	c.beqz	s1,830 <pm_wait_bbpll_done+0x9c>
C:/Users/Admin/Desktop/test1/telink_b91m_driver_src/chip/B91/drivers/lib/src/pm.c:207
     7f6:	0414d35b          	beqc	s1,1,83c <pm_wait_bbpll_done+0xa8>
C:/Users/Admin/Desktop/test1/telink_b91m_driver_src/chip/B91/drivers/lib/src/pm.c:211
     7fa:	85ca                	c.mv	a1,s2
     7fc:	08100513          	li	a0,129
     800:	de1ff0ef          	jal	ra,5e0 <analog_write_reg8>
C:/Users/Admin/Desktop/test1/telink_b91m_driver_src/chip/B91/drivers/lib/src/pm.c:192
     804:	0024d65b          	beqc	s1,2,810 <pm_wait_bbpll_done+0x7c>
     808:	0485                	c.addi	s1,1
     80a:	0ff4f493          	andi	s1,s1,255
     80e:	b77d                	c.j	7bc <pm_wait_bbpll_done+0x28>
C:/Users/Admin/Desktop/test1/telink_b91m_driver_src/chip/B91/drivers/lib/src/pm.c:215
     810:	40f2                	c.lwsp	ra,28(sp)
     812:	4462                	c.lwsp	s0,24(sp)
     814:	44d2                	c.lwsp	s1,20(sp)
     816:	4942                	c.lwsp	s2,16(sp)
     818:	6105                	c.addi16sp	sp,32
     81a:	8082                	c.jr	ra
     81c:	4462                	c.lwsp	s0,24(sp)
     81e:	40f2                	c.lwsp	ra,28(sp)
     820:	44d2                	c.lwsp	s1,20(sp)
C:/Users/Admin/Desktop/test1/telink_b91m_driver_src/chip/B91/drivers/lib/src/pm.c:199
     822:	85ca                	c.mv	a1,s2
C:/Users/Admin/Desktop/test1/telink_b91m_driver_src/chip/B91/drivers/lib/src/pm.c:215
     824:	4942                	c.lwsp	s2,16(sp)
C:/Users/Admin/Desktop/test1/telink_b91m_driver_src/chip/B91/drivers/lib/src/pm.c:199
     826:	08100513          	li	a0,129
C:/Users/Admin/Desktop/test1/telink_b91m_driver_src/chip/B91/drivers/lib/src/pm.c:215
     82a:	6105                	c.addi16sp	sp,32
C:/Users/Admin/Desktop/test1/telink_b91m_driver_src/chip/B91/drivers/lib/src/pm.c:199
     82c:	db5ff06f          	j	5e0 <analog_write_reg8>
C:/Users/Admin/Desktop/test1/telink_b91m_driver_src/chip/B91/drivers/lib/src/pm.c:205
     830:	04600593          	li	a1,70
     834:	4505                	c.li	a0,1
     836:	336d                	c.jal	5e0 <analog_write_reg8>
     838:	fd1ff06f          	j	808 <pm_wait_bbpll_done+0x74>
C:/Users/Admin/Desktop/test1/telink_b91m_driver_src/chip/B91/drivers/lib/src/pm.c:208
     83c:	04300593          	li	a1,67
     840:	4505                	c.li	a0,1
     842:	3b79                	c.jal	5e0 <analog_write_reg8>
     844:	fc5ff06f          	j	808 <pm_wait_bbpll_done+0x74>

00000848 <pm_sleep_start>:
pm_sleep_start():
C:/Users/Admin/Desktop/test1/telink_b91m_driver_src/chip/B91/drivers/lib/src/pm.c:255
     848:	1101                	c.addi	sp,-32
C:/Users/Admin/Desktop/test1/telink_b91m_driver_src/chip/B91/drivers/lib/src/pm.c:257
     84a:	813fa72b          	lwgp	a4,-2032 # 80010 <g_chip_version>
     84e:	000006b7          	lui	a3,0x0
C:/Users/Admin/Desktop/test1/telink_b91m_driver_src/chip/B91/drivers/lib/src/pm.c:255
     852:	ce06                	c.swsp	ra,28(sp)
     854:	cc22                	c.swsp	s0,24(sp)
C:/Users/Admin/Desktop/test1/telink_b91m_driver_src/chip/B91/drivers/lib/src/pm.c:257
     856:	0ff00793          	li	a5,255
     85a:	19a6c583          	lbu	a1,410(a3) # 19a <g_pm_suspend_power_cfg>
     85e:	00f71963          	bne	a4,a5,870 <pm_sleep_start+0x28>
C:/Users/Admin/Desktop/test1/telink_b91m_driver_src/chip/B91/drivers/lib/src/pm.c:258
     862:	0fe5f593          	andi	a1,a1,254
     866:	07d00513          	li	a0,125
     86a:	3b9d                	c.jal	5e0 <analog_write_reg8>
     86c:	00c0006f          	j	878 <pm_sleep_start+0x30>
C:/Users/Admin/Desktop/test1/telink_b91m_driver_src/chip/B91/drivers/lib/src/pm.c:260
     870:	07d00513          	li	a0,125
     874:	d6dff0ef          	jal	ra,5e0 <analog_write_reg8>
C:\Users\Admin\Desktop\test1\telink_b91m_driver_src\chip\B91\drivers/mspi.h:46
     878:	801406b7          	lui	a3,0x80140
     87c:	10268783          	lb	a5,258(a3) # 80140102 <_DATA_LMA_START+0x6013cea2>
     880:	fe07fe5b          	bbs	a5,0,87c <pm_sleep_start+0x34>
C:\Users\Admin\Desktop\test1\telink_b91m_driver_src\chip\B91\drivers/mspi.h:95
     884:	10168703          	lb	a4,257(a3)
C:\Users\Admin\Desktop\test1\telink_b91m_driver_src\chip\B91\drivers/gpio.h:262
     888:	801407b7          	lui	a5,0x80140
C:\Users\Admin\Desktop\test1\telink_b91m_driver_src\chip\B91\drivers/mspi.h:95
     88c:	0ff77713          	andi	a4,a4,255
     890:	01076713          	ori	a4,a4,16
     894:	10e680a3          	sb	a4,257(a3)
C:\Users\Admin\Desktop\test1\telink_b91m_driver_src\chip\B91\drivers/gpio.h:262
     898:	32878703          	lb	a4,808(a5) # 80140328 <_DATA_LMA_START+0x6013d0c8>
C:\Users\Admin\Desktop\test1\telink_b91m_driver_src\chip\B91\drivers/mspi.h:150
     89c:	be377e5b          	bbc	a4,3,898 <pm_sleep_start+0x50>
C:\Users\Admin\Desktop\test1\telink_b91m_driver_src\chip\B91\drivers/mspi.h:78
     8a0:	10178703          	lb	a4,257(a5)
C:\Users\Admin\Desktop\test1\telink_b91m_driver_src\chip\B91\drivers/mspi.h:46
     8a4:	80140437          	lui	s0,0x80140
C:\Users\Admin\Desktop\test1\telink_b91m_driver_src\chip\B91\drivers/mspi.h:78
     8a8:	0fd77713          	andi	a4,a4,253
     8ac:	10e780a3          	sb	a4,257(a5)
C:\Users\Admin\Desktop\test1\telink_b91m_driver_src\chip\B91\drivers/mspi.h:103
     8b0:	10178703          	lb	a4,257(a5)
     8b4:	0ef77713          	andi	a4,a4,239
     8b8:	10e780a3          	sb	a4,257(a5)
C:\Users\Admin\Desktop\test1\telink_b91m_driver_src\chip\B91\drivers/mspi.h:120
     8bc:	fb900713          	li	a4,-71
     8c0:	10e78023          	sb	a4,256(a5)
C:\Users\Admin\Desktop\test1\telink_b91m_driver_src\chip\B91\drivers/mspi.h:46
     8c4:	10240783          	lb	a5,258(s0) # 80140102 <_DATA_LMA_START+0x6013cea2>
     8c8:	fe07fe5b          	bbs	a5,0,8c4 <pm_sleep_start+0x7c>
C:\Users\Admin\Desktop\test1\telink_b91m_driver_src\chip\B91\drivers/mspi.h:95
     8cc:	10140783          	lb	a5,257(s0)
C:/Users/Admin/Desktop/test1/telink_b91m_driver_src/chip/B91/drivers/lib/src/pm.c:272
     8d0:	452d                	c.li	a0,11
C:\Users\Admin\Desktop\test1\telink_b91m_driver_src\chip\B91\drivers/mspi.h:95
     8d2:	0ff7f793          	andi	a5,a5,255
     8d6:	0107e793          	ori	a5,a5,16
     8da:	10f400a3          	sb	a5,257(s0)
C:/Users/Admin/Desktop/test1/telink_b91m_driver_src/chip/B91/drivers/lib/src/pm.c:268
     8de:	320404a3          	sb	zero,809(s0)
C:/Users/Admin/Desktop/test1/telink_b91m_driver_src/chip/B91/drivers/lib/src/pm.c:272
     8e2:	3b2d                	c.jal	61c <analog_read_reg8>
     8e4:	0fc57593          	andi	a1,a0,252
     8e8:	452d                	c.li	a0,11
     8ea:	39dd                	c.jal	5e0 <analog_write_reg8>
C:/Users/Admin/Desktop/test1/telink_b91m_driver_src/chip/B91/drivers/lib/src/pm.c:274
     8ec:	08100513          	li	a0,129
     8f0:	d2dff0ef          	jal	ra,61c <analog_read_reg8>
     8f4:	f8056593          	ori	a1,a0,-128
     8f8:	0ff5f593          	andi	a1,a1,255
     8fc:	08100513          	li	a0,129
     900:	ce1ff0ef          	jal	ra,5e0 <analog_write_reg8>
C:/Users/Admin/Desktop/test1/telink_b91m_driver_src/chip/B91/drivers/lib/src/pm.c:281
     904:	f8000793          	li	a5,-128
     908:	1ef407a3          	sb	a5,495(s0)
C:/Users/Admin/Desktop/test1/telink_b91m_driver_src/chip/B91/drivers/lib/src/pm.c:287
     90c:	03f00713          	li	a4,63
     910:	00012423          	sw	zero,8(sp)
     914:	47a2                	c.lwsp	a5,8(sp)
     916:	00f76763          	bltu	a4,a5,924 <pm_sleep_start+0xdc>
C:/Users/Admin/Desktop/test1/telink_b91m_driver_src/chip/B91/drivers/lib/src/pm.c:288
     91a:	0001                	c.nop
C:/Users/Admin/Desktop/test1/telink_b91m_driver_src/chip/B91/drivers/lib/src/pm.c:287
     91c:	47a2                	c.lwsp	a5,8(sp)
     91e:	0785                	c.addi	a5,1
     920:	c43e                	c.swsp	a5,8(sp)
     922:	bfcd                	c.j	914 <pm_sleep_start+0xcc>
C:/Users/Admin/Desktop/test1/telink_b91m_driver_src/chip/B91/drivers/lib/src/pm.c:291
     924:	08100513          	li	a0,129
     928:	cf5ff0ef          	jal	ra,61c <analog_read_reg8>
     92c:	07f57593          	andi	a1,a0,127
     930:	08100513          	li	a0,129
     934:	cadff0ef          	jal	ra,5e0 <analog_write_reg8>
C:/Users/Admin/Desktop/test1/telink_b91m_driver_src/chip/B91/drivers/lib/src/pm.c:293
     938:	00b00513          	li	a0,11
     93c:	ce1ff0ef          	jal	ra,61c <analog_read_reg8>
     940:	00356593          	ori	a1,a0,3
     944:	0ff5f593          	andi	a1,a1,255
     948:	452d                	c.li	a0,11
     94a:	3959                	c.jal	5e0 <analog_write_reg8>
C:/Users/Admin/Desktop/test1/telink_b91m_driver_src/chip/B91/drivers/lib/src/pm.c:295
     94c:	08000593          	li	a1,128
     950:	07d00513          	li	a0,125
     954:	c8dff0ef          	jal	ra,5e0 <analog_write_reg8>
C:/Users/Admin/Desktop/test1/telink_b91m_driver_src/chip/B91/drivers/lib/src/pm.c:298
     958:	12b00713          	li	a4,299
     95c:	00012623          	sw	zero,12(sp)
     960:	47b2                	c.lwsp	a5,12(sp)
     962:	00f76763          	bltu	a4,a5,970 <pm_sleep_start+0x128>
C:/Users/Admin/Desktop/test1/telink_b91m_driver_src/chip/B91/drivers/lib/src/pm.c:299
     966:	0001                	c.nop
C:/Users/Admin/Desktop/test1/telink_b91m_driver_src/chip/B91/drivers/lib/src/pm.c:298
     968:	47b2                	c.lwsp	a5,12(sp)
     96a:	0785                	c.addi	a5,1
     96c:	c63e                	c.swsp	a5,12(sp)
     96e:	bfcd                	c.j	960 <pm_sleep_start+0x118>
C:/Users/Admin/Desktop/test1/telink_b91m_driver_src/chip/B91/drivers/lib/src/pm.c:302
     970:	08800513          	li	a0,136
     974:	ca9ff0ef          	jal	ra,61c <analog_read_reg8>
     978:	be757c5b          	bbc	a0,7,970 <pm_sleep_start+0x128>
C:/Users/Admin/Desktop/test1/telink_b91m_driver_src/chip/B91/drivers/lib/src/pm.c:303
     97c:	08800513          	li	a0,136
     980:	c9dff0ef          	jal	ra,61c <analog_read_reg8>
     984:	be757c5b          	bbc	a0,7,97c <pm_sleep_start+0x134>
C:/Users/Admin/Desktop/test1/telink_b91m_driver_src/chip/B91/drivers/lib/src/pm.c:304
     988:	08800513          	li	a0,136
     98c:	c91ff0ef          	jal	ra,61c <analog_read_reg8>
     990:	be757c5b          	bbc	a0,7,988 <pm_sleep_start+0x140>
C:/Users/Admin/Desktop/test1/telink_b91m_driver_src/chip/B91/drivers/lib/src/pm.c:306
     994:	e01ff0ef          	jal	ra,794 <pm_wait_bbpll_done>
C:/Users/Admin/Desktop/test1/telink_b91m_driver_src/chip/B91/drivers/lib/src/pm.c:315
     998:	801407b7          	lui	a5,0x80140
     99c:	03f00713          	li	a4,63
     9a0:	32e784a3          	sb	a4,809(a5) # 80140329 <_DATA_LMA_START+0x6013d0c9>
C:\Users\Admin\Desktop\test1\telink_b91m_driver_src\chip\B91\drivers/mspi.h:103
     9a4:	10178683          	lb	a3,257(a5)
C:\Users\Admin\Desktop\test1\telink_b91m_driver_src\chip\B91\drivers/mspi.h:46
     9a8:	80140737          	lui	a4,0x80140
C:\Users\Admin\Desktop\test1\telink_b91m_driver_src\chip\B91\drivers/mspi.h:103
     9ac:	0ef6f693          	andi	a3,a3,239
     9b0:	10d780a3          	sb	a3,257(a5)
C:\Users\Admin\Desktop\test1\telink_b91m_driver_src\chip\B91\drivers/mspi.h:120
     9b4:	fab00693          	li	a3,-85
     9b8:	10d78023          	sb	a3,256(a5)
C:\Users\Admin\Desktop\test1\telink_b91m_driver_src\chip\B91\drivers/mspi.h:46
     9bc:	10270783          	lb	a5,258(a4) # 80140102 <_DATA_LMA_START+0x6013cea2>
     9c0:	fe07fe5b          	bbs	a5,0,9bc <pm_sleep_start+0x174>
C:\Users\Admin\Desktop\test1\telink_b91m_driver_src\chip\B91\drivers/mspi.h:95
     9c4:	10170783          	lb	a5,257(a4)
     9c8:	0ff7f793          	andi	a5,a5,255
     9cc:	0107e793          	ori	a5,a5,16
     9d0:	10f700a3          	sb	a5,257(a4)
C:/Users/Admin/Desktop/test1/telink_b91m_driver_src/chip/B91/drivers/lib/src/pm.c:320
     9d4:	40f2                	c.lwsp	ra,28(sp)
     9d6:	4462                	c.lwsp	s0,24(sp)
     9d8:	6105                	c.addi16sp	sp,32
     9da:	8082                	c.jr	ra

000009dc <pm_irq_handler>:
pm_irq_handler():
E:/promotion/gitlab/opensdk/Mars_B91/telink_mars_b91_driver_sdk_v2.2.0/demo/vendor/MDEC_Demo/app.c:34
/**
 * @brief		This function serves to handle the interrupt of MCU.
 * @return 		none.
 */
_attribute_ram_code_sec_noinline_ void pm_irq_handler(void)
{
     9dc:	1141                	c.addi	sp,-16
mdec_get_irq_status():
E:/promotion/gitlab/opensdk/Mars_B91/telink_mars_b91_driver_sdk_v2.2.0/chip/B91/drivers/mdec.h:47
 * @param[in]	status	- the interrupt status to be obtained.
 * @return		irq status.
 */
static inline unsigned char mdec_get_irq_status(wakeup_status_e status)
{
	return (analog_read_reg8(reg_wakeup_status) & status);
     9de:	06400513          	li	a0,100
pm_irq_handler():
E:/promotion/gitlab/opensdk/Mars_B91/telink_mars_b91_driver_sdk_v2.2.0/demo/vendor/MDEC_Demo/app.c:34
     9e2:	c606                	c.swsp	ra,12(sp)
mdec_get_irq_status():
E:/promotion/gitlab/opensdk/Mars_B91/telink_mars_b91_driver_sdk_v2.2.0/chip/B91/drivers/mdec.h:47
     9e4:	c39ff0ef          	jal	ra,61c <analog_read_reg8>
pm_irq_handler():
E:/promotion/gitlab/opensdk/Mars_B91/telink_mars_b91_driver_sdk_v2.2.0/demo/vendor/MDEC_Demo/app.c:35
	if(mdec_get_irq_status(FLD_WKUP_MDEC))
     9e8:	4045765b          	bbs	a0,4,9f4 <pm_irq_handler+0x18>
E:/promotion/gitlab/opensdk/Mars_B91/telink_mars_b91_driver_sdk_v2.2.0/demo/vendor/MDEC_Demo/app.c:40
	{
		mdec_test_cnt = 1;
		mdec_clr_irq_status(FLD_WKUP_MDEC);
	}
}
     9ec:	40b2                	c.lwsp	ra,12(sp)
     9ee:	0141                	c.addi	sp,16
     9f0:	00008067          	ret
E:/promotion/gitlab/opensdk/Mars_B91/telink_mars_b91_driver_sdk_v2.2.0/demo/vendor/MDEC_Demo/app.c:37
		mdec_test_cnt = 1;
     9f4:	4705                	c.li	a4,1
mdec_clr_irq_status():
E:/promotion/gitlab/opensdk/Mars_B91/telink_mars_b91_driver_sdk_v2.2.0/chip/B91/drivers/mdec.h:59
 * @param[in]	status	- the interrupt status that needs to be cleared.
 * @return		none.
 */
static inline void mdec_clr_irq_status(wakeup_status_e status)
{
	analog_write_reg8(reg_wakeup_status, (analog_read_reg8(reg_wakeup_status) | status));
     9f6:	06400513          	li	a0,100
pm_irq_handler():
E:/promotion/gitlab/opensdk/Mars_B91/telink_mars_b91_driver_sdk_v2.2.0/demo/vendor/MDEC_Demo/app.c:37
     9fa:	80efbe8b          	sbgp	a4,-2020 # 8001c <mdec_test_cnt>
mdec_clr_irq_status():
E:/promotion/gitlab/opensdk/Mars_B91/telink_mars_b91_driver_sdk_v2.2.0/chip/B91/drivers/mdec.h:59
     9fe:	3939                	c.jal	61c <analog_read_reg8>
pm_irq_handler():
E:/promotion/gitlab/opensdk/Mars_B91/telink_mars_b91_driver_sdk_v2.2.0/demo/vendor/MDEC_Demo/app.c:40
}
     a00:	40b2                	c.lwsp	ra,12(sp)
mdec_clr_irq_status():
E:/promotion/gitlab/opensdk/Mars_B91/telink_mars_b91_driver_sdk_v2.2.0/chip/B91/drivers/mdec.h:59
     a02:	01056593          	ori	a1,a0,16
     a06:	0ff5f593          	andi	a1,a1,255
     a0a:	06400513          	li	a0,100
pm_irq_handler():
E:/promotion/gitlab/opensdk/Mars_B91/telink_mars_b91_driver_sdk_v2.2.0/demo/vendor/MDEC_Demo/app.c:40
     a0e:	0141                	c.addi	sp,16
mdec_clr_irq_status():
E:/promotion/gitlab/opensdk/Mars_B91/telink_mars_b91_driver_sdk_v2.2.0/chip/B91/drivers/mdec.h:59
     a10:	bd1ff06f          	j	5e0 <analog_write_reg8>

00000a14 <pm_sleep_wakeup_ram.constprop.2>:
pm_sleep_wakeup_ram():
C:/Users/Admin/Desktop/test1/telink_b91m_driver_src/chip/B91/drivers/lib/src/pm.c:431
     a14:	1101                	c.addi	sp,-32
     a16:	c452                	c.swsp	s4,8(sp)
     a18:	8a2a                	c.mv	s4,a0
     a1a:	ce06                	c.swsp	ra,28(sp)
     a1c:	cc22                	c.swsp	s0,24(sp)
     a1e:	ca26                	c.swsp	s1,20(sp)
     a20:	c84a                	c.swsp	s2,16(sp)
     a22:	c64e                	c.swsp	s3,12(sp)
     a24:	c256                	c.swsp	s5,4(sp)
     a26:	c05a                	c.swsp	s6,0(sp)
core_interrupt_disable():
C:\Users\Admin\Desktop\test1\telink_b91m_driver_src\chip\B91\drivers/core.h:101
     a28:	300029f3          	csrr	s3,mstatus
     a2c:	0089f993          	andi	s3,s3,8
C:\Users\Admin\Desktop\test1\telink_b91m_driver_src\chip\B91\drivers/core.h:102
     a30:	00098463          	beqz	s3,a38 <pm_sleep_wakeup_ram.constprop.2+0x24>
C:\Users\Admin\Desktop\test1\telink_b91m_driver_src\chip\B91\drivers/core.h:104
     a34:	300477f3          	csrrci	a5,mstatus,8
pm_get_32k_rc_calib():
C:/Users/Admin/Desktop/test1/telink_b91m_driver_src/chip/B91/drivers/lib/src/pm.c:400
     a38:	801407b7          	lui	a5,0x80140
     a3c:	2147a683          	lw	a3,532(a5) # 80140214 <_DATA_LMA_START+0x6013cfb4>
     a40:	def5                	c.beqz	a3,a3c <pm_sleep_wakeup_ram.constprop.2+0x28>
C:/Users/Admin/Desktop/test1/telink_b91m_driver_src/chip/B91/drivers/lib/src/pm.c:403
     a42:	00000437          	lui	s0,0x0
     a46:	15840693          	addi	a3,s0,344 # 158 <_AES_VMA_END>
C:/Users/Admin/Desktop/test1/telink_b91m_driver_src/chip/B91/drivers/lib/src/pm.c:402
     a4a:	2147a783          	lw	a5,532(a5)
C:/Users/Admin/Desktop/test1/telink_b91m_driver_src/chip/B91/drivers/lib/src/pm.c:405
     a4e:	5298                	c.lw	a4,32(a3)
C:/Users/Admin/Desktop/test1/telink_b91m_driver_src/chip/B91/drivers/lib/src/pm.c:403
     a50:	da9c                	c.sw	a5,48(a3)
     a52:	15840413          	addi	s0,s0,344
C:/Users/Admin/Desktop/test1/telink_b91m_driver_src/chip/B91/drivers/lib/src/pm.c:404
     a56:	0792                	c.slli	a5,0x4
C:/Users/Admin/Desktop/test1/telink_b91m_driver_src/chip/B91/drivers/lib/src/pm.c:405
     a58:	cb11                	c.beqz	a4,a6c <pm_sleep_wakeup_ram.constprop.2+0x58>
C:/Users/Admin/Desktop/test1/telink_b91m_driver_src/chip/B91/drivers/lib/src/pm.c:411
     a5a:	03444603          	lbu	a2,52(s0)
     a5e:	4691                	c.li	a3,4
     a60:	8f99                	c.sub	a5,a4
     a62:	8e91                	c.sub	a3,a2
     a64:	40d7d7b3          	sra	a5,a5,a3
     a68:	00e787b3          	add	a5,a5,a4
     a6c:	d01c                	c.sw	a5,32(s0)
C:/Users/Admin/Desktop/test1/telink_b91m_driver_src/chip/B91/drivers/lib/src/pm.c:414
     a6e:	5004                	c.lw	s1,32(s0)
     a70:	485c                	c.lw	a5,20(s0)
     a72:	8491                	c.srai	s1,0x4
     a74:	02f487b3          	mul	a5,s1,a5
pm_sleep_wakeup_ram():
C:\Users\Admin\Desktop\test1\telink_b91m_driver_src\chip\B91\drivers/stimer.h:168
     a78:	80140937          	lui	s2,0x80140
     a7c:	20092a83          	lw	s5,512(s2) # 80140200 <_DATA_LMA_START+0x6013cfa0>
C:/Users/Admin/Desktop/test1/telink_b91m_driver_src/chip/B91/drivers/lib/src/pm.c:456
     a80:	e0000737          	lui	a4,0xe0000
C:/Users/Admin/Desktop/test1/telink_b91m_driver_src/chip/B91/drivers/lib/src/pm.c:454
     a84:	415a0ab3          	sub	s5,s4,s5
pm_get_32k_rc_calib():
C:/Users/Admin/Desktop/test1/telink_b91m_driver_src/chip/B91/drivers/lib/src/pm.c:414
     a88:	87c9                	c.srai	a5,0x12
C:/Users/Admin/Desktop/test1/telink_b91m_driver_src/chip/B91/drivers/lib/src/pm.c:415
     a8a:	94be                	c.add	s1,a5
pm_sleep_wakeup_ram():
C:/Users/Admin/Desktop/test1/telink_b91m_driver_src/chip/B91/drivers/lib/src/pm.c:441
     a8c:	0486                	c.slli	s1,0x1
     a8e:	dc04                	c.sw	s1,56(s0)
C:/Users/Admin/Desktop/test1/telink_b91m_driver_src/chip/B91/drivers/lib/src/pm.c:456
     a90:	01577e63          	bgeu	a4,s5,aac <pm_sleep_wakeup_ram.constprop.2+0x98>
core_restore_interrupt():
C:\Users\Admin\Desktop\test1\telink_b91m_driver_src\chip\B91\drivers/core.h:117
     a94:	00098463          	beqz	s3,a9c <pm_sleep_wakeup_ram.constprop.2+0x88>
C:\Users\Admin\Desktop\test1\telink_b91m_driver_src\chip\B91\drivers/core.h:119
     a98:	3009a9f3          	csrrs	s3,mstatus,s3
pm_sleep_wakeup_ram():
C:/Users/Admin/Desktop/test1/telink_b91m_driver_src/chip/B91/drivers/lib/src/pm.c:458
     a9c:	06400513          	li	a0,100
     aa0:	b7dff0ef          	jal	ra,61c <analog_read_reg8>
     aa4:	01f57513          	andi	a0,a0,31
     aa8:	2640006f          	j	d0c <pm_sleep_wakeup_ram.constprop.2+0x2f8>
C:/Users/Admin/Desktop/test1/telink_b91m_driver_src/chip/B91/drivers/lib/src/pm.c:460
     aac:	04a41783          	lh	a5,74(s0)
     ab0:	1137a7db          	bfoz	a5,a5,4,19
     ab4:	02fafc63          	bgeu	s5,a5,aec <pm_sleep_wakeup_ram.constprop.2+0xd8>
C:/Users/Admin/Desktop/test1/telink_b91m_driver_src/chip/B91/drivers/lib/src/pm.c:462
     ab8:	45fd                	c.li	a1,31
     aba:	06400513          	li	a0,100
C:\Users\Admin\Desktop\test1\telink_b91m_driver_src\chip\B91\drivers/stimer.h:168
     abe:	801404b7          	lui	s1,0x80140
     ac2:	20092403          	lw	s0,512(s2)
C:/Users/Admin/Desktop/test1/telink_b91m_driver_src/chip/B91/drivers/lib/src/pm.c:462
     ac6:	3e29                	c.jal	5e0 <analog_write_reg8>
C:/Users/Admin/Desktop/test1/telink_b91m_driver_src/chip/B91/drivers/lib/src/pm.c:465
     ac8:	06400513          	li	a0,100
     acc:	b51ff0ef          	jal	ra,61c <analog_read_reg8>
C:\Users\Admin\Desktop\test1\telink_b91m_driver_src\chip\B91\drivers/stimer.h:168
     ad0:	2004a783          	lw	a5,512(s1) # 80140200 <_DATA_LMA_START+0x6013cfa0>
C:/Users/Admin/Desktop/test1/telink_b91m_driver_src/chip/B91/drivers/lib/src/pm.c:465
     ad4:	897d                	c.andi	a0,31
C:/Users/Admin/Desktop/test1/telink_b91m_driver_src/chip/B91/drivers/lib/src/pm.c:466
     ad6:	8f81                	c.sub	a5,s0
     ad8:	0157f463          	bgeu	a5,s5,ae0 <pm_sleep_wakeup_ram.constprop.2+0xcc>
     adc:	fe0506e3          	beqz	a0,ac8 <pm_sleep_wakeup_ram.constprop.2+0xb4>
core_restore_interrupt():
C:\Users\Admin\Desktop\test1\telink_b91m_driver_src\chip\B91\drivers/core.h:117
     ae0:	22098663          	beqz	s3,d0c <pm_sleep_wakeup_ram.constprop.2+0x2f8>
C:\Users\Admin\Desktop\test1\telink_b91m_driver_src\chip\B91\drivers/core.h:119
     ae4:	3009a9f3          	csrrs	s3,mstatus,s3
     ae8:	2240006f          	j	d0c <pm_sleep_wakeup_ram.constprop.2+0x2f8>
pm_sleep_wakeup_ram():
C:/Users/Admin/Desktop/test1/telink_b91m_driver_src/chip/B91/drivers/lib/src/pm.c:481
     aec:	1e890a83          	lb	s5,488(s2)
C:/Users/Admin/Desktop/test1/telink_b91m_driver_src/chip/B91/drivers/lib/src/pm.c:482
     af0:	08faf793          	andi	a5,s5,143
     af4:	1ef90423          	sb	a5,488(s2)
C:/Users/Admin/Desktop/test1/telink_b91m_driver_src/chip/B91/drivers/lib/src/pm.c:483
     af8:	1d890b03          	lb	s6,472(s2)
C:/Users/Admin/Desktop/test1/telink_b91m_driver_src/chip/B91/drivers/lib/src/pm.c:484
     afc:	0f8b7793          	andi	a5,s6,248
     b00:	1cf90c23          	sb	a5,472(s2)
C:/Users/Admin/Desktop/test1/telink_b91m_driver_src/chip/B91/drivers/lib/src/pm.c:492
     b04:	20890783          	lb	a5,520(s2)
     b08:	0fe7f793          	andi	a5,a5,254
     b0c:	20f90423          	sb	a5,520(s2)
C:/Users/Admin/Desktop/test1/telink_b91m_driver_src/chip/B91/drivers/lib/src/pm.c:493
     b10:	00100793          	li	a5,1
     b14:	20f90c23          	sb	a5,536(s2)
C:/Users/Admin/Desktop/test1/telink_b91m_driver_src/chip/B91/drivers/lib/src/pm.c:494
     b18:	20a90783          	lb	a5,522(s2)
     b1c:	0f77f793          	andi	a5,a5,247
     b20:	20f90523          	sb	a5,522(s2)
C:/Users/Admin/Desktop/test1/telink_b91m_driver_src/chip/B91/drivers/lib/src/pm.c:495
     b24:	fe8ff0ef          	jal	ra,30c <clock_get_32k_tick>
C:\Users\Admin\Desktop\test1\telink_b91m_driver_src\chip\B91\drivers/stimer.h:168
     b28:	20092703          	lw	a4,512(s2)
C:/Users/Admin/Desktop/test1/telink_b91m_driver_src/chip/B91/drivers/lib/src/pm.c:497
     b2c:	20b90783          	lb	a5,523(s2)
pm_update_32k_rc_sleep_tick():
C:/Users/Admin/Desktop/test1/telink_b91m_driver_src/chip/B91/drivers/lib/src/pm.c:362
     b30:	5414                	c.lw	a3,40(s0)
pm_sleep_wakeup_ram():
C:/Users/Admin/Desktop/test1/telink_b91m_driver_src/chip/B91/drivers/lib/src/pm.c:497
     b32:	0ff7f793          	andi	a5,a5,255
     b36:	0027e793          	ori	a5,a5,2
C:/Users/Admin/Desktop/test1/telink_b91m_driver_src/chip/B91/drivers/lib/src/pm.c:495
     b3a:	c468                	c.sw	a0,76(s0)
C:/Users/Admin/Desktop/test1/telink_b91m_driver_src/chip/B91/drivers/lib/src/pm.c:496
     b3c:	c418                	c.sw	a4,8(s0)
pm_update_32k_rc_sleep_tick():
C:/Users/Admin/Desktop/test1/telink_b91m_driver_src/chip/B91/drivers/lib/src/pm.c:363
     b3e:	03444603          	lbu	a2,52(s0)
C:/Users/Admin/Desktop/test1/telink_b91m_driver_src/chip/B91/drivers/lib/src/pm.c:362
     b42:	40d506b3          	sub	a3,a0,a3
pm_sleep_wakeup_ram():
C:/Users/Admin/Desktop/test1/telink_b91m_driver_src/chip/B91/drivers/lib/src/pm.c:497
     b46:	20f905a3          	sb	a5,523(s2)
pm_update_32k_rc_sleep_tick():
C:/Users/Admin/Desktop/test1/telink_b91m_driver_src/chip/B91/drivers/lib/src/pm.c:362
     b4a:	d454                	c.sw	a3,44(s0)
C:/Users/Admin/Desktop/test1/telink_b91m_driver_src/chip/B91/drivers/lib/src/pm.c:363
     b4c:	e215                	c.bnez	a2,b70 <pm_sleep_wakeup_ram.constprop.2+0x15c>
     b4e:	445c                	c.lw	a5,12(s0)
     b50:	c385                	c.beqz	a5,b70 <pm_sleep_wakeup_ram.constprop.2+0x15c>
     b52:	05044783          	lbu	a5,80(s0)
     b56:	ef89                	c.bnez	a5,b70 <pm_sleep_wakeup_ram.constprop.2+0x15c>
     b58:	01042783          	lw	a5,16(s0)
     b5c:	000276b7          	lui	a3,0x27
     b60:	40f507b3          	sub	a5,a0,a5
     b64:	6c07a7db          	bfoz	a5,a5,27,0
     b68:	10068693          	addi	a3,a3,256 # 27100 <BIN_SIZE+0x23e78>
     b6c:	00f6f863          	bgeu	a3,a5,b7c <pm_sleep_wakeup_ram.constprop.2+0x168>
C:/Users/Admin/Desktop/test1/telink_b91m_driver_src/chip/B91/drivers/lib/src/pm.c:367
     b70:	00176713          	ori	a4,a4,1
C:/Users/Admin/Desktop/test1/telink_b91m_driver_src/chip/B91/drivers/lib/src/pm.c:365
     b74:	02040a23          	sb	zero,52(s0)
C:/Users/Admin/Desktop/test1/telink_b91m_driver_src/chip/B91/drivers/lib/src/pm.c:366
     b78:	c808                	c.sw	a0,16(s0)
C:/Users/Admin/Desktop/test1/telink_b91m_driver_src/chip/B91/drivers/lib/src/pm.c:367
     b7a:	c458                	c.sw	a4,12(s0)
pm_sleep_wakeup_ram():
C:/Users/Admin/Desktop/test1/telink_b91m_driver_src/chip/B91/drivers/lib/src/pm.c:513
     b7c:	02000593          	li	a1,32
     b80:	04b00513          	li	a0,75
     b84:	a5dff0ef          	jal	ra,5e0 <analog_write_reg8>
C:/Users/Admin/Desktop/test1/telink_b91m_driver_src/chip/B91/drivers/lib/src/pm.c:514
     b88:	45fd                	c.li	a1,31
     b8a:	06400513          	li	a0,100
     b8e:	3c89                	c.jal	5e0 <analog_write_reg8>
C:/Users/Admin/Desktop/test1/telink_b91m_driver_src/chip/B91/drivers/lib/src/pm.c:516
     b90:	03000593          	li	a1,48
     b94:	07e00513          	li	a0,126
     b98:	a49ff0ef          	jal	ra,5e0 <analog_write_reg8>
C:/Users/Admin/Desktop/test1/telink_b91m_driver_src/chip/B91/drivers/lib/src/pm.c:561
     b9c:	0f900593          	li	a1,249
     ba0:	04d00513          	li	a0,77
     ba4:	a3dff0ef          	jal	ra,5e0 <analog_write_reg8>
C:/Users/Admin/Desktop/test1/telink_b91m_driver_src/chip/B91/drivers/lib/src/pm.c:563
     ba8:	4585                	c.li	a1,1
     baa:	07f00513          	li	a0,127
     bae:	3c0d                	c.jal	5e0 <analog_write_reg8>
C:/Users/Admin/Desktop/test1/telink_b91m_driver_src/chip/B91/drivers/lib/src/pm.c:565
     bb0:	04841783          	lh	a5,72(s0)
C:/Users/Admin/Desktop/test1/telink_b91m_driver_src/chip/B91/drivers/lib/src/pm.c:598
     bb4:	0ee00593          	li	a1,238
C:/Users/Admin/Desktop/test1/telink_b91m_driver_src/chip/B91/drivers/lib/src/pm.c:594
     bb8:	1137a7db          	bfoz	a5,a5,4,19
C:/Users/Admin/Desktop/test1/telink_b91m_driver_src/chip/B91/drivers/lib/src/pm.c:598
     bbc:	04c00513          	li	a0,76
C:/Users/Admin/Desktop/test1/telink_b91m_driver_src/chip/B91/drivers/lib/src/pm.c:594
     bc0:	40fa0933          	sub	s2,s4,a5
C:/Users/Admin/Desktop/test1/telink_b91m_driver_src/chip/B91/drivers/lib/src/pm.c:598
     bc4:	a1dff0ef          	jal	ra,5e0 <analog_write_reg8>
C:/Users/Admin/Desktop/test1/telink_b91m_driver_src/chip/B91/drivers/lib/src/pm.c:620
     bc8:	05441583          	lh	a1,84(s0)
     bcc:	04000513          	li	a0,64
     bd0:	0ff5f593          	andi	a1,a1,255
     bd4:	a0dff0ef          	jal	ra,5e0 <analog_write_reg8>
C:/Users/Admin/Desktop/test1/telink_b91m_driver_src/chip/B91/drivers/lib/src/pm.c:639
     bd8:	445c                	c.lw	a5,12(s0)
     bda:	07ff0737          	lui	a4,0x7ff0
     bde:	40f907b3          	sub	a5,s2,a5
     be2:	00f77763          	bgeu	a4,a5,bf0 <pm_sleep_wakeup_ram.constprop.2+0x1dc>
C:/Users/Admin/Desktop/test1/telink_b91m_driver_src/chip/B91/drivers/lib/src/pm.c:640
     be6:	4705                	c.li	a4,1
     be8:	00e40223          	sb	a4,4(s0)
     bec:	0080006f          	j	bf4 <pm_sleep_wakeup_ram.constprop.2+0x1e0>
C:/Users/Admin/Desktop/test1/telink_b91m_driver_src/chip/B91/drivers/lib/src/pm.c:643
     bf0:	00040223          	sb	zero,4(s0)
C:/Users/Admin/Desktop/test1/telink_b91m_driver_src/chip/B91/drivers/lib/src/pm.c:647
     bf4:	00444683          	lbu	a3,4(s0)
     bf8:	4808                	c.lw	a0,16(s0)
     bfa:	5c18                	c.lw	a4,56(s0)
     bfc:	c691                	c.beqz	a3,c08 <pm_sleep_wakeup_ram.constprop.2+0x1f4>
C:/Users/Admin/Desktop/test1/telink_b91m_driver_src/chip/B91/drivers/lib/src/pm.c:648
     bfe:	02e7d7b3          	divu	a5,a5,a4
     c02:	0796                	c.slli	a5,0x5
     c04:	953e                	c.add	a0,a5
     c06:	a039                	c.j	c14 <pm_sleep_wakeup_ram.constprop.2+0x200>
C:/Users/Admin/Desktop/test1/telink_b91m_driver_src/chip/B91/drivers/lib/src/pm.c:453
     c08:	8085                	c.srli	s1,0x1
C:/Users/Admin/Desktop/test1/telink_b91m_driver_src/chip/B91/drivers/lib/src/pm.c:651
     c0a:	0796                	c.slli	a5,0x5
     c0c:	97a6                	c.add	a5,s1
     c0e:	02e7d7b3          	divu	a5,a5,a4
     c12:	953e                	c.add	a0,a5
C:/Users/Admin/Desktop/test1/telink_b91m_driver_src/chip/B91/drivers/lib/src/pm.c:656
     c14:	e98ff0ef          	jal	ra,2ac <clock_set_32k_tick>
pm_get_wakeup_src():
C:\Users\Admin\Desktop\test1\telink_b91m_driver_src\chip\B91\drivers/lib/include/pm.h:224
     c18:	06400513          	li	a0,100
     c1c:	a01ff0ef          	jal	ra,61c <analog_read_reg8>
pm_sleep_wakeup_ram():
C:/Users/Admin/Desktop/test1/telink_b91m_driver_src/chip/B91/drivers/lib/src/pm.c:673
     c20:	01f57513          	andi	a0,a0,31
     c24:	e511                	c.bnez	a0,c30 <pm_sleep_wakeup_ram.constprop.2+0x21c>
C:/Users/Admin/Desktop/test1/telink_b91m_driver_src/chip/B91/drivers/lib/src/pm.c:681
     c26:	310d                	c.jal	848 <pm_sleep_start>
C:/Users/Admin/Desktop/test1/telink_b91m_driver_src/chip/B91/drivers/lib/src/pm.c:683
     c28:	4585                	c.li	a1,1
     c2a:	07f00513          	li	a0,127
     c2e:	3a4d                	c.jal	5e0 <analog_write_reg8>
C:/Users/Admin/Desktop/test1/telink_b91m_driver_src/chip/B91/drivers/lib/src/pm.c:692
     c30:	80140737          	lui	a4,0x80140
     c34:	02000793          	li	a5,32
     c38:	1ef707a3          	sb	a5,495(a4) # 801401ef <_DATA_LMA_START+0x6013cf8f>
C:/Users/Admin/Desktop/test1/telink_b91m_driver_src/chip/B91/drivers/lib/src/pm.c:695
     c3c:	00200793          	li	a5,2
     c40:	20f70c23          	sb	a5,536(a4)
C:/Users/Admin/Desktop/test1/telink_b91m_driver_src/chip/B91/drivers/lib/src/pm.c:696
     c44:	20a70783          	lb	a5,522(a4)
     c48:	0ff7f793          	andi	a5,a5,255
     c4c:	00c7e793          	ori	a5,a5,12
     c50:	20f70523          	sb	a5,522(a4)
C:/Users/Admin/Desktop/test1/telink_b91m_driver_src/chip/B91/drivers/lib/src/pm.c:697
     c54:	eb8ff0ef          	jal	ra,30c <clock_get_32k_tick>
C:/Users/Admin/Desktop/test1/telink_b91m_driver_src/chip/B91/drivers/lib/src/pm.c:698
     c58:	00444783          	lbu	a5,4(s0)
     c5c:	cf81                	c.beqz	a5,c74 <pm_sleep_wakeup_ram.constprop.2+0x260>
C:/Users/Admin/Desktop/test1/telink_b91m_driver_src/chip/B91/drivers/lib/src/pm.c:699
     c5e:	481c                	c.lw	a5,16(s0)
     c60:	5c14                	c.lw	a3,56(s0)
     c62:	40f507b3          	sub	a5,a0,a5
     c66:	4458                	c.lw	a4,12(s0)
     c68:	0785                	c.addi	a5,1
     c6a:	8395                	c.srli	a5,0x5
     c6c:	c4d7977f          	maddr32	a4,a5,a3
     c70:	c418                	c.sw	a4,8(s0)
     c72:	a829                	c.j	c8c <pm_sleep_wakeup_ram.constprop.2+0x278>
C:/Users/Admin/Desktop/test1/telink_b91m_driver_src/chip/B91/drivers/lib/src/pm.c:701
     c74:	481c                	c.lw	a5,16(s0)
     c76:	5c18                	c.lw	a4,56(s0)
     c78:	40f507b3          	sub	a5,a0,a5
     c7c:	0785                	c.addi	a5,1
     c7e:	02e787b3          	mul	a5,a5,a4
     c82:	4458                	c.lw	a4,12(s0)
     c84:	8395                	c.srli	a5,0x5
     c86:	97ba                	c.add	a5,a4
     c88:	00f42423          	sw	a5,8(s0)
C:/Users/Admin/Desktop/test1/telink_b91m_driver_src/chip/B91/drivers/lib/src/pm.c:704
     c8c:	4818                	c.lw	a4,16(s0)
C:/Users/Admin/Desktop/test1/telink_b91m_driver_src/chip/B91/drivers/lib/src/pm.c:705
     c8e:	4414                	c.lw	a3,8(s0)
C:/Users/Admin/Desktop/test1/telink_b91m_driver_src/chip/B91/drivers/lib/src/pm.c:704
     c90:	40e50733          	sub	a4,a0,a4
     c94:	0705                	c.addi	a4,1
C:/Users/Admin/Desktop/test1/telink_b91m_driver_src/chip/B91/drivers/lib/src/pm.c:703
     c96:	0505                	c.addi	a0,1
C:/Users/Admin/Desktop/test1/telink_b91m_driver_src/chip/B91/drivers/lib/src/pm.c:704
     c98:	d058                	c.sw	a4,36(s0)
C:/Users/Admin/Desktop/test1/telink_b91m_driver_src/chip/B91/drivers/lib/src/pm.c:705
     c9a:	0685                	c.addi	a3,1
C:/Users/Admin/Desktop/test1/telink_b91m_driver_src/chip/B91/drivers/lib/src/pm.c:703
     c9c:	02a42423          	sw	a0,40(s0)
C:/Users/Admin/Desktop/test1/telink_b91m_driver_src/chip/B91/drivers/lib/src/pm.c:705
     ca0:	80140737          	lui	a4,0x80140
C:/Users/Admin/Desktop/test1/telink_b91m_driver_src/chip/B91/drivers/lib/src/pm.c:717
     ca4:	801407b7          	lui	a5,0x80140
C:/Users/Admin/Desktop/test1/telink_b91m_driver_src/chip/B91/drivers/lib/src/pm.c:705
     ca8:	20d72023          	sw	a3,512(a4) # 80140200 <_DATA_LMA_START+0x6013cfa0>
C:/Users/Admin/Desktop/test1/telink_b91m_driver_src/chip/B91/drivers/lib/src/pm.c:717
     cac:	20b78703          	lb	a4,523(a5) # 8014020b <_DATA_LMA_START+0x6013cfab>
     cb0:	be777e5b          	bbc	a4,7,cac <pm_sleep_wakeup_ram.constprop.2+0x298>
C:/Users/Admin/Desktop/test1/telink_b91m_driver_src/chip/B91/drivers/lib/src/pm.c:718
     cb4:	20078c23          	sb	zero,536(a5)
C:/Users/Admin/Desktop/test1/telink_b91m_driver_src/chip/B91/drivers/lib/src/pm.c:719
     cb8:	20878703          	lb	a4,520(a5)
pm_get_wakeup_src():
C:\Users\Admin\Desktop\test1\telink_b91m_driver_src\chip\B91\drivers/lib/include/pm.h:224
     cbc:	06400513          	li	a0,100
pm_sleep_wakeup_ram():
C:/Users/Admin/Desktop/test1/telink_b91m_driver_src/chip/B91/drivers/lib/src/pm.c:719
     cc0:	0ff77713          	andi	a4,a4,255
     cc4:	00176713          	ori	a4,a4,1
     cc8:	20e78423          	sb	a4,520(a5)
C:/Users/Admin/Desktop/test1/telink_b91m_driver_src/chip/B91/drivers/lib/src/pm.c:746
     ccc:	1d678c23          	sb	s6,472(a5)
C:/Users/Admin/Desktop/test1/telink_b91m_driver_src/chip/B91/drivers/lib/src/pm.c:747
     cd0:	1f578423          	sb	s5,488(a5)
pm_get_wakeup_src():
C:\Users\Admin\Desktop\test1\telink_b91m_driver_src\chip\B91\drivers/lib/include/pm.h:224
     cd4:	949ff0ef          	jal	ra,61c <analog_read_reg8>
     cd8:	00a00733          	add	a4,zero,a0
pm_sleep_wakeup_ram():
C:/Users/Admin/Desktop/test1/telink_b91m_driver_src/chip/B91/drivers/lib/src/pm.c:756
     cdc:	00157c5b          	bbc	a0,1,cf4 <pm_sleep_wakeup_ram.constprop.2+0x2e0>
C:\Users\Admin\Desktop\test1\telink_b91m_driver_src\chip\B91\drivers/stimer.h:168
     ce0:	80140637          	lui	a2,0x80140
C:/Users/Admin/Desktop/test1/telink_b91m_driver_src/chip/B91/drivers/lib/src/pm.c:759
     ce4:	400006b7          	lui	a3,0x40000
C:\Users\Admin\Desktop\test1\telink_b91m_driver_src\chip\B91\drivers/stimer.h:168
     ce8:	20062783          	lw	a5,512(a2) # 80140200 <_DATA_LMA_START+0x6013cfa0>
C:/Users/Admin/Desktop/test1/telink_b91m_driver_src/chip/B91/drivers/lib/src/pm.c:759
     cec:	414787b3          	sub	a5,a5,s4
     cf0:	fef6ece3          	bltu	a3,a5,ce8 <pm_sleep_wakeup_ram.constprop.2+0x2d4>
core_restore_interrupt():
C:\Users\Admin\Desktop\test1\telink_b91m_driver_src\chip\B91\drivers/core.h:117
     cf4:	00098463          	beqz	s3,cfc <pm_sleep_wakeup_ram.constprop.2+0x2e8>
C:\Users\Admin\Desktop\test1\telink_b91m_driver_src\chip\B91\drivers/core.h:119
     cf8:	3009a9f3          	csrrs	s3,mstatus,s3
pm_sleep_wakeup_ram():
C:/Users/Admin/Desktop/test1/telink_b91m_driver_src/chip/B91/drivers/lib/src/pm.c:772
     cfc:	08000513          	li	a0,128
     d00:	00070663          	beqz	a4,d0c <pm_sleep_wakeup_ram.constprop.2+0x2f8>
     d04:	400007b7          	lui	a5,0x40000
     d08:	00f76533          	or	a0,a4,a5
C:/Users/Admin/Desktop/test1/telink_b91m_driver_src/chip/B91/drivers/lib/src/pm.c:774
     d0c:	40f2                	c.lwsp	ra,28(sp)
     d0e:	4462                	c.lwsp	s0,24(sp)
     d10:	44d2                	c.lwsp	s1,20(sp)
     d12:	4942                	c.lwsp	s2,16(sp)
     d14:	49b2                	c.lwsp	s3,12(sp)
     d16:	4a22                	c.lwsp	s4,8(sp)
     d18:	4a92                	c.lwsp	s5,4(sp)
     d1a:	4b02                	c.lwsp	s6,0(sp)
     d1c:	6105                	c.addi16sp	sp,32
     d1e:	8082                	c.jr	ra

00000d20 <entry_irq63>:
entry_irq63():
E:/promotion/gitlab/opensdk/Mars_B91/telink_mars_b91_driver_sdk_v2.2.0/demo/vendor/common/B91/plic_isr.c:731
 * @brief eoc interrupt handler.
 * @return none
 */
_attribute_ram_code_sec_noinline_ void  entry_irq63(void) __attribute__ ((interrupt ("machine") , aligned(4)));
void  entry_irq63(void)
{
     d20:	1141                	c.addi	sp,-16
     d22:	c03e                	c.swsp	a5,0(sp)
plic_isr():
C:/Users/Admin/Desktop/test1/telink_b91m_driver_src/chip/B91/drivers/lib/src/plic.c:97
     d24:	000007b7          	lui	a5,0x0
     d28:	15878793          	addi	a5,a5,344 # 158 <_AES_VMA_END>
entry_irq63():
E:/promotion/gitlab/opensdk/Mars_B91/telink_mars_b91_driver_sdk_v2.2.0/demo/vendor/common/B91/plic_isr.c:731
     d2c:	c632                	c.swsp	a2,12(sp)
     d2e:	c436                	c.swsp	a3,8(sp)
     d30:	c23a                	c.swsp	a4,4(sp)
plic_isr():
C:/Users/Admin/Desktop/test1/telink_b91m_driver_src/chip/B91/drivers/lib/src/plic.c:97
     d32:	03c78783          	lb	a5,60(a5)
     d36:	0ff7f793          	andi	a5,a5,255
     d3a:	ef89                	c.bnez	a5,d54 <entry_irq63+0x34>
plic_interrupt_complete():
C:\Users\Admin\Desktop\test1\telink_b91m_driver_src\chip\B91\drivers/lib/include/plic.h:281
     d3c:	e42007b7          	lui	a5,0xe4200
     d40:	03f00713          	li	a4,63
     d44:	c3d8                	c.sw	a4,4(a5)
entry_irq63():
E:/promotion/gitlab/opensdk/Mars_B91/telink_mars_b91_driver_sdk_v2.2.0/demo/vendor/common/B91/plic_isr.c:733
	plic_isr(eoc_irq_handler,IRQ63_EOC);
}
     d46:	4632                	c.lwsp	a2,12(sp)
     d48:	46a2                	c.lwsp	a3,8(sp)
     d4a:	4712                	c.lwsp	a4,4(sp)
     d4c:	4782                	c.lwsp	a5,0(sp)
     d4e:	0141                	c.addi	sp,16
     d50:	30200073          	mret
plic_isr():
C:/Users/Admin/Desktop/test1/telink_b91m_driver_src/chip/B91/drivers/lib/src/plic.c:99
     d54:	34102773          	csrr	a4,mepc
     d58:	300026f3          	csrr	a3,mstatus
     d5c:	7c4027f3          	csrr	a5,mxstatus
     d60:	30046673          	csrrsi	a2,mstatus,8
C:/Users/Admin/Desktop/test1/telink_b91m_driver_src/chip/B91/drivers/lib/src/plic.c:101
     d64:	30047673          	csrrci	a2,mstatus,8
     d68:	30069073          	csrw	mstatus,a3
     d6c:	34171073          	csrw	mepc,a4
     d70:	7c479073          	csrw	mxstatus,a5
plic_interrupt_complete():
C:\Users\Admin\Desktop\test1\telink_b91m_driver_src\chip\B91\drivers/lib/include/plic.h:281
     d74:	e42007b7          	lui	a5,0xe4200
     d78:	03f00713          	li	a4,63
     d7c:	c3d8                	c.sw	a4,4(a5)
plic_isr():
C:/Users/Admin/Desktop/test1/telink_b91m_driver_src/chip/B91/drivers/lib/src/plic.c:103
     d7e:	0ff0000f          	fence
entry_irq63():
E:/promotion/gitlab/opensdk/Mars_B91/telink_mars_b91_driver_sdk_v2.2.0/demo/vendor/common/B91/plic_isr.c:733
     d82:	4632                	c.lwsp	a2,12(sp)
     d84:	46a2                	c.lwsp	a3,8(sp)
     d86:	4712                	c.lwsp	a4,4(sp)
     d88:	4782                	c.lwsp	a5,0(sp)
     d8a:	0141                	c.addi	sp,16
     d8c:	30200073          	mret

00000d90 <entry_irq62>:
entry_irq62():
E:/promotion/gitlab/opensdk/Mars_B91/telink_mars_b91_driver_sdk_v2.2.0/demo/vendor/common/B91/plic_isr.c:722
{
     d90:	7135                	c.addi16sp	sp,-160
     d92:	d8be                	c.swsp	a5,112(sp)
plic_isr():
C:/Users/Admin/Desktop/test1/telink_b91m_driver_src/chip/B91/drivers/lib/src/plic.c:97
     d94:	000007b7          	lui	a5,0x0
entry_irq62():
E:/promotion/gitlab/opensdk/Mars_B91/telink_mars_b91_driver_sdk_v2.2.0/demo/vendor/common/B91/plic_isr.c:722
     d98:	cf06                	c.swsp	ra,156(sp)
     d9a:	cd16                	c.swsp	t0,152(sp)
     d9c:	cb1a                	c.swsp	t1,148(sp)
     d9e:	c91e                	c.swsp	t2,144(sp)
     da0:	c722                	c.swsp	s0,140(sp)
     da2:	c526                	c.swsp	s1,136(sp)
     da4:	c32a                	c.swsp	a0,132(sp)
     da6:	c12e                	c.swsp	a1,128(sp)
     da8:	deb2                	c.swsp	a2,124(sp)
     daa:	dcb6                	c.swsp	a3,120(sp)
     dac:	daba                	c.swsp	a4,116(sp)
     dae:	d6c2                	c.swsp	a6,108(sp)
     db0:	d4c6                	c.swsp	a7,104(sp)
     db2:	d2ca                	c.swsp	s2,100(sp)
     db4:	d0f2                	c.swsp	t3,96(sp)
     db6:	cef6                	c.swsp	t4,92(sp)
     db8:	ccfa                	c.swsp	t5,88(sp)
     dba:	cafe                	c.swsp	t6,84(sp)
     dbc:	e682                	c.fswsp	ft0,76(sp)
     dbe:	e486                	c.fswsp	ft1,72(sp)
     dc0:	e28a                	c.fswsp	ft2,68(sp)
     dc2:	e08e                	c.fswsp	ft3,64(sp)
     dc4:	fe12                	c.fswsp	ft4,60(sp)
     dc6:	fc16                	c.fswsp	ft5,56(sp)
     dc8:	fa1a                	c.fswsp	ft6,52(sp)
     dca:	f81e                	c.fswsp	ft7,48(sp)
     dcc:	f62a                	c.fswsp	fa0,44(sp)
     dce:	f42e                	c.fswsp	fa1,40(sp)
     dd0:	f232                	c.fswsp	fa2,36(sp)
     dd2:	f036                	c.fswsp	fa3,32(sp)
     dd4:	ee3a                	c.fswsp	fa4,28(sp)
plic_isr():
C:/Users/Admin/Desktop/test1/telink_b91m_driver_src/chip/B91/drivers/lib/src/plic.c:97
     dd6:	15878793          	addi	a5,a5,344 # 158 <_AES_VMA_END>
entry_irq62():
E:/promotion/gitlab/opensdk/Mars_B91/telink_mars_b91_driver_sdk_v2.2.0/demo/vendor/common/B91/plic_isr.c:722
     dda:	ec3e                	c.fswsp	fa5,24(sp)
     ddc:	ea42                	c.fswsp	fa6,20(sp)
     dde:	e846                	c.fswsp	fa7,16(sp)
     de0:	e672                	c.fswsp	ft8,12(sp)
     de2:	e476                	c.fswsp	ft9,8(sp)
     de4:	e27a                	c.fswsp	ft10,4(sp)
     de6:	e07e                	c.fswsp	ft11,0(sp)
plic_isr():
C:/Users/Admin/Desktop/test1/telink_b91m_driver_src/chip/B91/drivers/lib/src/plic.c:97
     de8:	03c78783          	lb	a5,60(a5)
     dec:	0ff7f793          	andi	a5,a5,255
     df0:	e3b5                	c.bnez	a5,e54 <entry_irq62+0xc4>
C:/Users/Admin/Desktop/test1/telink_b91m_driver_src/chip/B91/drivers/lib/src/plic.c:107
     df2:	36ed                	c.jal	9dc <pm_irq_handler>
plic_interrupt_complete():
C:\Users\Admin\Desktop\test1\telink_b91m_driver_src\chip\B91\drivers/lib/include/plic.h:281
     df4:	e42007b7          	lui	a5,0xe4200
     df8:	03e00713          	li	a4,62
     dfc:	00e7a223          	sw	a4,4(a5) # e4200004 <_DATA_LMA_START+0xc41fcda4>
entry_irq62():
E:/promotion/gitlab/opensdk/Mars_B91/telink_mars_b91_driver_sdk_v2.2.0/demo/vendor/common/B91/plic_isr.c:724
}
     e00:	443a                	c.lwsp	s0,140(sp)
     e02:	40fa                	c.lwsp	ra,156(sp)
     e04:	42ea                	c.lwsp	t0,152(sp)
     e06:	435a                	c.lwsp	t1,148(sp)
     e08:	43ca                	c.lwsp	t2,144(sp)
     e0a:	44aa                	c.lwsp	s1,136(sp)
     e0c:	451a                	c.lwsp	a0,132(sp)
     e0e:	458a                	c.lwsp	a1,128(sp)
     e10:	5676                	c.lwsp	a2,124(sp)
     e12:	56e6                	c.lwsp	a3,120(sp)
     e14:	5756                	c.lwsp	a4,116(sp)
     e16:	57c6                	c.lwsp	a5,112(sp)
     e18:	5836                	c.lwsp	a6,108(sp)
     e1a:	58a6                	c.lwsp	a7,104(sp)
     e1c:	5916                	c.lwsp	s2,100(sp)
     e1e:	5e06                	c.lwsp	t3,96(sp)
     e20:	4ef6                	c.lwsp	t4,92(sp)
     e22:	4f66                	c.lwsp	t5,88(sp)
     e24:	4fd6                	c.lwsp	t6,84(sp)
     e26:	6036                	c.flwsp	ft0,76(sp)
     e28:	60a6                	c.flwsp	ft1,72(sp)
     e2a:	6116                	c.flwsp	ft2,68(sp)
     e2c:	6186                	c.flwsp	ft3,64(sp)
     e2e:	7272                	c.flwsp	ft4,60(sp)
     e30:	72e2                	c.flwsp	ft5,56(sp)
     e32:	7352                	c.flwsp	ft6,52(sp)
     e34:	73c2                	c.flwsp	ft7,48(sp)
     e36:	7532                	c.flwsp	fa0,44(sp)
     e38:	75a2                	c.flwsp	fa1,40(sp)
     e3a:	7612                	c.flwsp	fa2,36(sp)
     e3c:	7682                	c.flwsp	fa3,32(sp)
     e3e:	6772                	c.flwsp	fa4,28(sp)
     e40:	67e2                	c.flwsp	fa5,24(sp)
     e42:	6852                	c.flwsp	fa6,20(sp)
     e44:	68c2                	c.flwsp	fa7,16(sp)
     e46:	6e32                	c.flwsp	ft8,12(sp)
     e48:	6ea2                	c.flwsp	ft9,8(sp)
     e4a:	6f12                	c.flwsp	ft10,4(sp)
     e4c:	6f82                	c.flwsp	ft11,0(sp)
     e4e:	610d                	c.addi16sp	sp,160
     e50:	30200073          	mret
plic_isr():
C:/Users/Admin/Desktop/test1/telink_b91m_driver_src/chip/B91/drivers/lib/src/plic.c:99
     e54:	341024f3          	csrr	s1,mepc
     e58:	30002973          	csrr	s2,mstatus
     e5c:	7c402473          	csrr	s0,mxstatus
     e60:	300467f3          	csrrsi	a5,mstatus,8
C:/Users/Admin/Desktop/test1/telink_b91m_driver_src/chip/B91/drivers/lib/src/plic.c:100
     e64:	b79ff0ef          	jal	ra,9dc <pm_irq_handler>
C:/Users/Admin/Desktop/test1/telink_b91m_driver_src/chip/B91/drivers/lib/src/plic.c:101
     e68:	300477f3          	csrrci	a5,mstatus,8
     e6c:	30091073          	csrw	mstatus,s2
     e70:	34149073          	csrw	mepc,s1
     e74:	7c441073          	csrw	mxstatus,s0
plic_interrupt_complete():
C:\Users\Admin\Desktop\test1\telink_b91m_driver_src\chip\B91\drivers/lib/include/plic.h:281
     e78:	e42007b7          	lui	a5,0xe4200
     e7c:	03e00713          	li	a4,62
     e80:	c3d8                	c.sw	a4,4(a5)
plic_isr():
C:/Users/Admin/Desktop/test1/telink_b91m_driver_src/chip/B91/drivers/lib/src/plic.c:103
     e82:	0ff0000f          	fence
     e86:	bfad                	c.j	e00 <entry_irq62+0x70>

00000e88 <entry_irq61>:
entry_irq61():
E:/promotion/gitlab/opensdk/Mars_B91/telink_mars_b91_driver_sdk_v2.2.0/demo/vendor/common/B91/plic_isr.c:713
{
     e88:	1141                	c.addi	sp,-16
     e8a:	c03e                	c.swsp	a5,0(sp)
plic_isr():
C:/Users/Admin/Desktop/test1/telink_b91m_driver_src/chip/B91/drivers/lib/src/plic.c:97
     e8c:	000007b7          	lui	a5,0x0
     e90:	15878793          	addi	a5,a5,344 # 158 <_AES_VMA_END>
entry_irq61():
E:/promotion/gitlab/opensdk/Mars_B91/telink_mars_b91_driver_sdk_v2.2.0/demo/vendor/common/B91/plic_isr.c:713
     e94:	c632                	c.swsp	a2,12(sp)
     e96:	c436                	c.swsp	a3,8(sp)
     e98:	c23a                	c.swsp	a4,4(sp)
plic_isr():
C:/Users/Admin/Desktop/test1/telink_b91m_driver_src/chip/B91/drivers/lib/src/plic.c:97
     e9a:	03c78783          	lb	a5,60(a5)
     e9e:	0ff7f793          	andi	a5,a5,255
     ea2:	ef89                	c.bnez	a5,ebc <entry_irq61+0x34>
plic_interrupt_complete():
C:\Users\Admin\Desktop\test1\telink_b91m_driver_src\chip\B91\drivers/lib/include/plic.h:281
     ea4:	e42007b7          	lui	a5,0xe4200
     ea8:	03d00713          	li	a4,61
     eac:	c3d8                	c.sw	a4,4(a5)
entry_irq61():
E:/promotion/gitlab/opensdk/Mars_B91/telink_mars_b91_driver_sdk_v2.2.0/demo/vendor/common/B91/plic_isr.c:715
}
     eae:	4632                	c.lwsp	a2,12(sp)
     eb0:	46a2                	c.lwsp	a3,8(sp)
     eb2:	4712                	c.lwsp	a4,4(sp)
     eb4:	4782                	c.lwsp	a5,0(sp)
     eb6:	0141                	c.addi	sp,16
     eb8:	30200073          	mret
plic_isr():
C:/Users/Admin/Desktop/test1/telink_b91m_driver_src/chip/B91/drivers/lib/src/plic.c:99
     ebc:	34102773          	csrr	a4,mepc
     ec0:	300026f3          	csrr	a3,mstatus
     ec4:	7c4027f3          	csrr	a5,mxstatus
     ec8:	30046673          	csrrsi	a2,mstatus,8
C:/Users/Admin/Desktop/test1/telink_b91m_driver_src/chip/B91/drivers/lib/src/plic.c:101
     ecc:	30047673          	csrrci	a2,mstatus,8
     ed0:	30069073          	csrw	mstatus,a3
     ed4:	34171073          	csrw	mepc,a4
     ed8:	7c479073          	csrw	mxstatus,a5
plic_interrupt_complete():
C:\Users\Admin\Desktop\test1\telink_b91m_driver_src\chip\B91\drivers/lib/include/plic.h:281
     edc:	e42007b7          	lui	a5,0xe4200
     ee0:	03d00713          	li	a4,61
     ee4:	c3d8                	c.sw	a4,4(a5)
plic_isr():
C:/Users/Admin/Desktop/test1/telink_b91m_driver_src/chip/B91/drivers/lib/src/plic.c:103
     ee6:	0ff0000f          	fence
entry_irq61():
E:/promotion/gitlab/opensdk/Mars_B91/telink_mars_b91_driver_sdk_v2.2.0/demo/vendor/common/B91/plic_isr.c:715
     eea:	4632                	c.lwsp	a2,12(sp)
     eec:	46a2                	c.lwsp	a3,8(sp)
     eee:	4712                	c.lwsp	a4,4(sp)
     ef0:	4782                	c.lwsp	a5,0(sp)
     ef2:	0141                	c.addi	sp,16
     ef4:	30200073          	mret

00000ef8 <entry_irq60>:
entry_irq60():
E:/promotion/gitlab/opensdk/Mars_B91/telink_mars_b91_driver_sdk_v2.2.0/demo/vendor/common/B91/plic_isr.c:704
{
     ef8:	1141                	c.addi	sp,-16
     efa:	c03e                	c.swsp	a5,0(sp)
plic_isr():
C:/Users/Admin/Desktop/test1/telink_b91m_driver_src/chip/B91/drivers/lib/src/plic.c:97
     efc:	000007b7          	lui	a5,0x0
     f00:	15878793          	addi	a5,a5,344 # 158 <_AES_VMA_END>
entry_irq60():
E:/promotion/gitlab/opensdk/Mars_B91/telink_mars_b91_driver_sdk_v2.2.0/demo/vendor/common/B91/plic_isr.c:704
     f04:	c632                	c.swsp	a2,12(sp)
     f06:	c436                	c.swsp	a3,8(sp)
     f08:	c23a                	c.swsp	a4,4(sp)
plic_isr():
C:/Users/Admin/Desktop/test1/telink_b91m_driver_src/chip/B91/drivers/lib/src/plic.c:97
     f0a:	03c78783          	lb	a5,60(a5)
     f0e:	0ff7f793          	andi	a5,a5,255
     f12:	ef89                	c.bnez	a5,f2c <entry_irq60+0x34>
plic_interrupt_complete():
C:\Users\Admin\Desktop\test1\telink_b91m_driver_src\chip\B91\drivers/lib/include/plic.h:281
     f14:	e42007b7          	lui	a5,0xe4200
     f18:	03c00713          	li	a4,60
     f1c:	c3d8                	c.sw	a4,4(a5)
entry_irq60():
E:/promotion/gitlab/opensdk/Mars_B91/telink_mars_b91_driver_sdk_v2.2.0/demo/vendor/common/B91/plic_isr.c:706
}
     f1e:	4632                	c.lwsp	a2,12(sp)
     f20:	46a2                	c.lwsp	a3,8(sp)
     f22:	4712                	c.lwsp	a4,4(sp)
     f24:	4782                	c.lwsp	a5,0(sp)
     f26:	0141                	c.addi	sp,16
     f28:	30200073          	mret
plic_isr():
C:/Users/Admin/Desktop/test1/telink_b91m_driver_src/chip/B91/drivers/lib/src/plic.c:99
     f2c:	34102773          	csrr	a4,mepc
     f30:	300026f3          	csrr	a3,mstatus
     f34:	7c4027f3          	csrr	a5,mxstatus
     f38:	30046673          	csrrsi	a2,mstatus,8
C:/Users/Admin/Desktop/test1/telink_b91m_driver_src/chip/B91/drivers/lib/src/plic.c:101
     f3c:	30047673          	csrrci	a2,mstatus,8
     f40:	30069073          	csrw	mstatus,a3
     f44:	34171073          	csrw	mepc,a4
     f48:	7c479073          	csrw	mxstatus,a5
plic_interrupt_complete():
C:\Users\Admin\Desktop\test1\telink_b91m_driver_src\chip\B91\drivers/lib/include/plic.h:281
     f4c:	e42007b7          	lui	a5,0xe4200
     f50:	03c00713          	li	a4,60
     f54:	c3d8                	c.sw	a4,4(a5)
plic_isr():
C:/Users/Admin/Desktop/test1/telink_b91m_driver_src/chip/B91/drivers/lib/src/plic.c:103
     f56:	0ff0000f          	fence
entry_irq60():
E:/promotion/gitlab/opensdk/Mars_B91/telink_mars_b91_driver_sdk_v2.2.0/demo/vendor/common/B91/plic_isr.c:706
     f5a:	4632                	c.lwsp	a2,12(sp)
     f5c:	46a2                	c.lwsp	a3,8(sp)
     f5e:	4712                	c.lwsp	a4,4(sp)
     f60:	4782                	c.lwsp	a5,0(sp)
     f62:	0141                	c.addi	sp,16
     f64:	30200073          	mret

00000f68 <entry_irq59>:
entry_irq59():
E:/promotion/gitlab/opensdk/Mars_B91/telink_mars_b91_driver_sdk_v2.2.0/demo/vendor/common/B91/plic_isr.c:695
{
     f68:	1141                	c.addi	sp,-16
     f6a:	c03e                	c.swsp	a5,0(sp)
plic_isr():
C:/Users/Admin/Desktop/test1/telink_b91m_driver_src/chip/B91/drivers/lib/src/plic.c:97
     f6c:	000007b7          	lui	a5,0x0
     f70:	15878793          	addi	a5,a5,344 # 158 <_AES_VMA_END>
entry_irq59():
E:/promotion/gitlab/opensdk/Mars_B91/telink_mars_b91_driver_sdk_v2.2.0/demo/vendor/common/B91/plic_isr.c:695
     f74:	c632                	c.swsp	a2,12(sp)
     f76:	c436                	c.swsp	a3,8(sp)
     f78:	c23a                	c.swsp	a4,4(sp)
plic_isr():
C:/Users/Admin/Desktop/test1/telink_b91m_driver_src/chip/B91/drivers/lib/src/plic.c:97
     f7a:	03c78783          	lb	a5,60(a5)
     f7e:	0ff7f793          	andi	a5,a5,255
     f82:	ef89                	c.bnez	a5,f9c <entry_irq59+0x34>
plic_interrupt_complete():
C:\Users\Admin\Desktop\test1\telink_b91m_driver_src\chip\B91\drivers/lib/include/plic.h:281
     f84:	e42007b7          	lui	a5,0xe4200
     f88:	03b00713          	li	a4,59
     f8c:	c3d8                	c.sw	a4,4(a5)
entry_irq59():
E:/promotion/gitlab/opensdk/Mars_B91/telink_mars_b91_driver_sdk_v2.2.0/demo/vendor/common/B91/plic_isr.c:697
}
     f8e:	4632                	c.lwsp	a2,12(sp)
     f90:	46a2                	c.lwsp	a3,8(sp)
     f92:	4712                	c.lwsp	a4,4(sp)
     f94:	4782                	c.lwsp	a5,0(sp)
     f96:	0141                	c.addi	sp,16
     f98:	30200073          	mret
plic_isr():
C:/Users/Admin/Desktop/test1/telink_b91m_driver_src/chip/B91/drivers/lib/src/plic.c:99
     f9c:	34102773          	csrr	a4,mepc
     fa0:	300026f3          	csrr	a3,mstatus
     fa4:	7c4027f3          	csrr	a5,mxstatus
     fa8:	30046673          	csrrsi	a2,mstatus,8
C:/Users/Admin/Desktop/test1/telink_b91m_driver_src/chip/B91/drivers/lib/src/plic.c:101
     fac:	30047673          	csrrci	a2,mstatus,8
     fb0:	30069073          	csrw	mstatus,a3
     fb4:	34171073          	csrw	mepc,a4
     fb8:	7c479073          	csrw	mxstatus,a5
plic_interrupt_complete():
C:\Users\Admin\Desktop\test1\telink_b91m_driver_src\chip\B91\drivers/lib/include/plic.h:281
     fbc:	e42007b7          	lui	a5,0xe4200
     fc0:	03b00713          	li	a4,59
     fc4:	c3d8                	c.sw	a4,4(a5)
plic_isr():
C:/Users/Admin/Desktop/test1/telink_b91m_driver_src/chip/B91/drivers/lib/src/plic.c:103
     fc6:	0ff0000f          	fence
entry_irq59():
E:/promotion/gitlab/opensdk/Mars_B91/telink_mars_b91_driver_sdk_v2.2.0/demo/vendor/common/B91/plic_isr.c:697
     fca:	4632                	c.lwsp	a2,12(sp)
     fcc:	46a2                	c.lwsp	a3,8(sp)
     fce:	4712                	c.lwsp	a4,4(sp)
     fd0:	4782                	c.lwsp	a5,0(sp)
     fd2:	0141                	c.addi	sp,16
     fd4:	30200073          	mret

00000fd8 <entry_irq58>:
entry_irq58():
E:/promotion/gitlab/opensdk/Mars_B91/telink_mars_b91_driver_sdk_v2.2.0/demo/vendor/common/B91/plic_isr.c:686
{
     fd8:	1141                	c.addi	sp,-16
     fda:	c03e                	c.swsp	a5,0(sp)
plic_isr():
C:/Users/Admin/Desktop/test1/telink_b91m_driver_src/chip/B91/drivers/lib/src/plic.c:97
     fdc:	000007b7          	lui	a5,0x0
     fe0:	15878793          	addi	a5,a5,344 # 158 <_AES_VMA_END>
entry_irq58():
E:/promotion/gitlab/opensdk/Mars_B91/telink_mars_b91_driver_sdk_v2.2.0/demo/vendor/common/B91/plic_isr.c:686
     fe4:	c632                	c.swsp	a2,12(sp)
     fe6:	c436                	c.swsp	a3,8(sp)
     fe8:	c23a                	c.swsp	a4,4(sp)
plic_isr():
C:/Users/Admin/Desktop/test1/telink_b91m_driver_src/chip/B91/drivers/lib/src/plic.c:97
     fea:	03c78783          	lb	a5,60(a5)
     fee:	0ff7f793          	andi	a5,a5,255
     ff2:	ef89                	c.bnez	a5,100c <entry_irq58+0x34>
plic_interrupt_complete():
C:\Users\Admin\Desktop\test1\telink_b91m_driver_src\chip\B91\drivers/lib/include/plic.h:281
     ff4:	e42007b7          	lui	a5,0xe4200
     ff8:	03a00713          	li	a4,58
     ffc:	c3d8                	c.sw	a4,4(a5)
entry_irq58():
E:/promotion/gitlab/opensdk/Mars_B91/telink_mars_b91_driver_sdk_v2.2.0/demo/vendor/common/B91/plic_isr.c:688
}
     ffe:	4632                	c.lwsp	a2,12(sp)
    1000:	46a2                	c.lwsp	a3,8(sp)
    1002:	4712                	c.lwsp	a4,4(sp)
    1004:	4782                	c.lwsp	a5,0(sp)
    1006:	0141                	c.addi	sp,16
    1008:	30200073          	mret
plic_isr():
C:/Users/Admin/Desktop/test1/telink_b91m_driver_src/chip/B91/drivers/lib/src/plic.c:99
    100c:	34102773          	csrr	a4,mepc
    1010:	300026f3          	csrr	a3,mstatus
    1014:	7c4027f3          	csrr	a5,mxstatus
    1018:	30046673          	csrrsi	a2,mstatus,8
C:/Users/Admin/Desktop/test1/telink_b91m_driver_src/chip/B91/drivers/lib/src/plic.c:101
    101c:	30047673          	csrrci	a2,mstatus,8
    1020:	30069073          	csrw	mstatus,a3
    1024:	34171073          	csrw	mepc,a4
    1028:	7c479073          	csrw	mxstatus,a5
plic_interrupt_complete():
C:\Users\Admin\Desktop\test1\telink_b91m_driver_src\chip\B91\drivers/lib/include/plic.h:281
    102c:	e42007b7          	lui	a5,0xe4200
    1030:	03a00713          	li	a4,58
    1034:	c3d8                	c.sw	a4,4(a5)
plic_isr():
C:/Users/Admin/Desktop/test1/telink_b91m_driver_src/chip/B91/drivers/lib/src/plic.c:103
    1036:	0ff0000f          	fence
entry_irq58():
E:/promotion/gitlab/opensdk/Mars_B91/telink_mars_b91_driver_sdk_v2.2.0/demo/vendor/common/B91/plic_isr.c:688
    103a:	4632                	c.lwsp	a2,12(sp)
    103c:	46a2                	c.lwsp	a3,8(sp)
    103e:	4712                	c.lwsp	a4,4(sp)
    1040:	4782                	c.lwsp	a5,0(sp)
    1042:	0141                	c.addi	sp,16
    1044:	30200073          	mret

00001048 <entry_irq57>:
entry_irq57():
E:/promotion/gitlab/opensdk/Mars_B91/telink_mars_b91_driver_sdk_v2.2.0/demo/vendor/common/B91/plic_isr.c:677
{
    1048:	1141                	c.addi	sp,-16
    104a:	c03e                	c.swsp	a5,0(sp)
plic_isr():
C:/Users/Admin/Desktop/test1/telink_b91m_driver_src/chip/B91/drivers/lib/src/plic.c:97
    104c:	000007b7          	lui	a5,0x0
    1050:	15878793          	addi	a5,a5,344 # 158 <_AES_VMA_END>
entry_irq57():
E:/promotion/gitlab/opensdk/Mars_B91/telink_mars_b91_driver_sdk_v2.2.0/demo/vendor/common/B91/plic_isr.c:677
    1054:	c632                	c.swsp	a2,12(sp)
    1056:	c436                	c.swsp	a3,8(sp)
    1058:	c23a                	c.swsp	a4,4(sp)
plic_isr():
C:/Users/Admin/Desktop/test1/telink_b91m_driver_src/chip/B91/drivers/lib/src/plic.c:97
    105a:	03c78783          	lb	a5,60(a5)
    105e:	0ff7f793          	andi	a5,a5,255
    1062:	ef89                	c.bnez	a5,107c <entry_irq57+0x34>
plic_interrupt_complete():
C:\Users\Admin\Desktop\test1\telink_b91m_driver_src\chip\B91\drivers/lib/include/plic.h:281
    1064:	e42007b7          	lui	a5,0xe4200
    1068:	03900713          	li	a4,57
    106c:	c3d8                	c.sw	a4,4(a5)
entry_irq57():
E:/promotion/gitlab/opensdk/Mars_B91/telink_mars_b91_driver_sdk_v2.2.0/demo/vendor/common/B91/plic_isr.c:679
}
    106e:	4632                	c.lwsp	a2,12(sp)
    1070:	46a2                	c.lwsp	a3,8(sp)
    1072:	4712                	c.lwsp	a4,4(sp)
    1074:	4782                	c.lwsp	a5,0(sp)
    1076:	0141                	c.addi	sp,16
    1078:	30200073          	mret
plic_isr():
C:/Users/Admin/Desktop/test1/telink_b91m_driver_src/chip/B91/drivers/lib/src/plic.c:99
    107c:	34102773          	csrr	a4,mepc
    1080:	300026f3          	csrr	a3,mstatus
    1084:	7c4027f3          	csrr	a5,mxstatus
    1088:	30046673          	csrrsi	a2,mstatus,8
C:/Users/Admin/Desktop/test1/telink_b91m_driver_src/chip/B91/drivers/lib/src/plic.c:101
    108c:	30047673          	csrrci	a2,mstatus,8
    1090:	30069073          	csrw	mstatus,a3
    1094:	34171073          	csrw	mepc,a4
    1098:	7c479073          	csrw	mxstatus,a5
plic_interrupt_complete():
C:\Users\Admin\Desktop\test1\telink_b91m_driver_src\chip\B91\drivers/lib/include/plic.h:281
    109c:	e42007b7          	lui	a5,0xe4200
    10a0:	03900713          	li	a4,57
    10a4:	c3d8                	c.sw	a4,4(a5)
plic_isr():
C:/Users/Admin/Desktop/test1/telink_b91m_driver_src/chip/B91/drivers/lib/src/plic.c:103
    10a6:	0ff0000f          	fence
entry_irq57():
E:/promotion/gitlab/opensdk/Mars_B91/telink_mars_b91_driver_sdk_v2.2.0/demo/vendor/common/B91/plic_isr.c:679
    10aa:	4632                	c.lwsp	a2,12(sp)
    10ac:	46a2                	c.lwsp	a3,8(sp)
    10ae:	4712                	c.lwsp	a4,4(sp)
    10b0:	4782                	c.lwsp	a5,0(sp)
    10b2:	0141                	c.addi	sp,16
    10b4:	30200073          	mret

000010b8 <entry_irq56>:
entry_irq56():
E:/promotion/gitlab/opensdk/Mars_B91/telink_mars_b91_driver_sdk_v2.2.0/demo/vendor/common/B91/plic_isr.c:668
{
    10b8:	1141                	c.addi	sp,-16
    10ba:	c03e                	c.swsp	a5,0(sp)
plic_isr():
C:/Users/Admin/Desktop/test1/telink_b91m_driver_src/chip/B91/drivers/lib/src/plic.c:97
    10bc:	000007b7          	lui	a5,0x0
    10c0:	15878793          	addi	a5,a5,344 # 158 <_AES_VMA_END>
entry_irq56():
E:/promotion/gitlab/opensdk/Mars_B91/telink_mars_b91_driver_sdk_v2.2.0/demo/vendor/common/B91/plic_isr.c:668
    10c4:	c632                	c.swsp	a2,12(sp)
    10c6:	c436                	c.swsp	a3,8(sp)
    10c8:	c23a                	c.swsp	a4,4(sp)
plic_isr():
C:/Users/Admin/Desktop/test1/telink_b91m_driver_src/chip/B91/drivers/lib/src/plic.c:97
    10ca:	03c78783          	lb	a5,60(a5)
    10ce:	0ff7f793          	andi	a5,a5,255
    10d2:	ef89                	c.bnez	a5,10ec <entry_irq56+0x34>
plic_interrupt_complete():
C:\Users\Admin\Desktop\test1\telink_b91m_driver_src\chip\B91\drivers/lib/include/plic.h:281
    10d4:	e42007b7          	lui	a5,0xe4200
    10d8:	03800713          	li	a4,56
    10dc:	c3d8                	c.sw	a4,4(a5)
entry_irq56():
E:/promotion/gitlab/opensdk/Mars_B91/telink_mars_b91_driver_sdk_v2.2.0/demo/vendor/common/B91/plic_isr.c:670
}
    10de:	4632                	c.lwsp	a2,12(sp)
    10e0:	46a2                	c.lwsp	a3,8(sp)
    10e2:	4712                	c.lwsp	a4,4(sp)
    10e4:	4782                	c.lwsp	a5,0(sp)
    10e6:	0141                	c.addi	sp,16
    10e8:	30200073          	mret
plic_isr():
C:/Users/Admin/Desktop/test1/telink_b91m_driver_src/chip/B91/drivers/lib/src/plic.c:99
    10ec:	34102773          	csrr	a4,mepc
    10f0:	300026f3          	csrr	a3,mstatus
    10f4:	7c4027f3          	csrr	a5,mxstatus
    10f8:	30046673          	csrrsi	a2,mstatus,8
C:/Users/Admin/Desktop/test1/telink_b91m_driver_src/chip/B91/drivers/lib/src/plic.c:101
    10fc:	30047673          	csrrci	a2,mstatus,8
    1100:	30069073          	csrw	mstatus,a3
    1104:	34171073          	csrw	mepc,a4
    1108:	7c479073          	csrw	mxstatus,a5
plic_interrupt_complete():
C:\Users\Admin\Desktop\test1\telink_b91m_driver_src\chip\B91\drivers/lib/include/plic.h:281
    110c:	e42007b7          	lui	a5,0xe4200
    1110:	03800713          	li	a4,56
    1114:	c3d8                	c.sw	a4,4(a5)
plic_isr():
C:/Users/Admin/Desktop/test1/telink_b91m_driver_src/chip/B91/drivers/lib/src/plic.c:103
    1116:	0ff0000f          	fence
entry_irq56():
E:/promotion/gitlab/opensdk/Mars_B91/telink_mars_b91_driver_sdk_v2.2.0/demo/vendor/common/B91/plic_isr.c:670
    111a:	4632                	c.lwsp	a2,12(sp)
    111c:	46a2                	c.lwsp	a3,8(sp)
    111e:	4712                	c.lwsp	a4,4(sp)
    1120:	4782                	c.lwsp	a5,0(sp)
    1122:	0141                	c.addi	sp,16
    1124:	30200073          	mret

00001128 <entry_irq55>:
entry_irq55():
E:/promotion/gitlab/opensdk/Mars_B91/telink_mars_b91_driver_sdk_v2.2.0/demo/vendor/common/B91/plic_isr.c:659
{
    1128:	1141                	c.addi	sp,-16
    112a:	c03e                	c.swsp	a5,0(sp)
plic_isr():
C:/Users/Admin/Desktop/test1/telink_b91m_driver_src/chip/B91/drivers/lib/src/plic.c:97
    112c:	000007b7          	lui	a5,0x0
    1130:	15878793          	addi	a5,a5,344 # 158 <_AES_VMA_END>
entry_irq55():
E:/promotion/gitlab/opensdk/Mars_B91/telink_mars_b91_driver_sdk_v2.2.0/demo/vendor/common/B91/plic_isr.c:659
    1134:	c632                	c.swsp	a2,12(sp)
    1136:	c436                	c.swsp	a3,8(sp)
    1138:	c23a                	c.swsp	a4,4(sp)
plic_isr():
C:/Users/Admin/Desktop/test1/telink_b91m_driver_src/chip/B91/drivers/lib/src/plic.c:97
    113a:	03c78783          	lb	a5,60(a5)
    113e:	0ff7f793          	andi	a5,a5,255
    1142:	ef89                	c.bnez	a5,115c <entry_irq55+0x34>
plic_interrupt_complete():
C:\Users\Admin\Desktop\test1\telink_b91m_driver_src\chip\B91\drivers/lib/include/plic.h:281
    1144:	e42007b7          	lui	a5,0xe4200
    1148:	03700713          	li	a4,55
    114c:	c3d8                	c.sw	a4,4(a5)
entry_irq55():
E:/promotion/gitlab/opensdk/Mars_B91/telink_mars_b91_driver_sdk_v2.2.0/demo/vendor/common/B91/plic_isr.c:661
}
    114e:	4632                	c.lwsp	a2,12(sp)
    1150:	46a2                	c.lwsp	a3,8(sp)
    1152:	4712                	c.lwsp	a4,4(sp)
    1154:	4782                	c.lwsp	a5,0(sp)
    1156:	0141                	c.addi	sp,16
    1158:	30200073          	mret
plic_isr():
C:/Users/Admin/Desktop/test1/telink_b91m_driver_src/chip/B91/drivers/lib/src/plic.c:99
    115c:	34102773          	csrr	a4,mepc
    1160:	300026f3          	csrr	a3,mstatus
    1164:	7c4027f3          	csrr	a5,mxstatus
    1168:	30046673          	csrrsi	a2,mstatus,8
C:/Users/Admin/Desktop/test1/telink_b91m_driver_src/chip/B91/drivers/lib/src/plic.c:101
    116c:	30047673          	csrrci	a2,mstatus,8
    1170:	30069073          	csrw	mstatus,a3
    1174:	34171073          	csrw	mepc,a4
    1178:	7c479073          	csrw	mxstatus,a5
plic_interrupt_complete():
C:\Users\Admin\Desktop\test1\telink_b91m_driver_src\chip\B91\drivers/lib/include/plic.h:281
    117c:	e42007b7          	lui	a5,0xe4200
    1180:	03700713          	li	a4,55
    1184:	c3d8                	c.sw	a4,4(a5)
plic_isr():
C:/Users/Admin/Desktop/test1/telink_b91m_driver_src/chip/B91/drivers/lib/src/plic.c:103
    1186:	0ff0000f          	fence
entry_irq55():
E:/promotion/gitlab/opensdk/Mars_B91/telink_mars_b91_driver_sdk_v2.2.0/demo/vendor/common/B91/plic_isr.c:661
    118a:	4632                	c.lwsp	a2,12(sp)
    118c:	46a2                	c.lwsp	a3,8(sp)
    118e:	4712                	c.lwsp	a4,4(sp)
    1190:	4782                	c.lwsp	a5,0(sp)
    1192:	0141                	c.addi	sp,16
    1194:	30200073          	mret

00001198 <entry_irq54>:
entry_irq54():
E:/promotion/gitlab/opensdk/Mars_B91/telink_mars_b91_driver_sdk_v2.2.0/demo/vendor/common/B91/plic_isr.c:650
{
    1198:	1141                	c.addi	sp,-16
    119a:	c03e                	c.swsp	a5,0(sp)
plic_isr():
C:/Users/Admin/Desktop/test1/telink_b91m_driver_src/chip/B91/drivers/lib/src/plic.c:97
    119c:	000007b7          	lui	a5,0x0
    11a0:	15878793          	addi	a5,a5,344 # 158 <_AES_VMA_END>
entry_irq54():
E:/promotion/gitlab/opensdk/Mars_B91/telink_mars_b91_driver_sdk_v2.2.0/demo/vendor/common/B91/plic_isr.c:650
    11a4:	c632                	c.swsp	a2,12(sp)
    11a6:	c436                	c.swsp	a3,8(sp)
    11a8:	c23a                	c.swsp	a4,4(sp)
plic_isr():
C:/Users/Admin/Desktop/test1/telink_b91m_driver_src/chip/B91/drivers/lib/src/plic.c:97
    11aa:	03c78783          	lb	a5,60(a5)
    11ae:	0ff7f793          	andi	a5,a5,255
    11b2:	ef89                	c.bnez	a5,11cc <entry_irq54+0x34>
plic_interrupt_complete():
C:\Users\Admin\Desktop\test1\telink_b91m_driver_src\chip\B91\drivers/lib/include/plic.h:281
    11b4:	e42007b7          	lui	a5,0xe4200
    11b8:	03600713          	li	a4,54
    11bc:	c3d8                	c.sw	a4,4(a5)
entry_irq54():
E:/promotion/gitlab/opensdk/Mars_B91/telink_mars_b91_driver_sdk_v2.2.0/demo/vendor/common/B91/plic_isr.c:652
}
    11be:	4632                	c.lwsp	a2,12(sp)
    11c0:	46a2                	c.lwsp	a3,8(sp)
    11c2:	4712                	c.lwsp	a4,4(sp)
    11c4:	4782                	c.lwsp	a5,0(sp)
    11c6:	0141                	c.addi	sp,16
    11c8:	30200073          	mret
plic_isr():
C:/Users/Admin/Desktop/test1/telink_b91m_driver_src/chip/B91/drivers/lib/src/plic.c:99
    11cc:	34102773          	csrr	a4,mepc
    11d0:	300026f3          	csrr	a3,mstatus
    11d4:	7c4027f3          	csrr	a5,mxstatus
    11d8:	30046673          	csrrsi	a2,mstatus,8
C:/Users/Admin/Desktop/test1/telink_b91m_driver_src/chip/B91/drivers/lib/src/plic.c:101
    11dc:	30047673          	csrrci	a2,mstatus,8
    11e0:	30069073          	csrw	mstatus,a3
    11e4:	34171073          	csrw	mepc,a4
    11e8:	7c479073          	csrw	mxstatus,a5
plic_interrupt_complete():
C:\Users\Admin\Desktop\test1\telink_b91m_driver_src\chip\B91\drivers/lib/include/plic.h:281
    11ec:	e42007b7          	lui	a5,0xe4200
    11f0:	03600713          	li	a4,54
    11f4:	c3d8                	c.sw	a4,4(a5)
plic_isr():
C:/Users/Admin/Desktop/test1/telink_b91m_driver_src/chip/B91/drivers/lib/src/plic.c:103
    11f6:	0ff0000f          	fence
entry_irq54():
E:/promotion/gitlab/opensdk/Mars_B91/telink_mars_b91_driver_sdk_v2.2.0/demo/vendor/common/B91/plic_isr.c:652
    11fa:	4632                	c.lwsp	a2,12(sp)
    11fc:	46a2                	c.lwsp	a3,8(sp)
    11fe:	4712                	c.lwsp	a4,4(sp)
    1200:	4782                	c.lwsp	a5,0(sp)
    1202:	0141                	c.addi	sp,16
    1204:	30200073          	mret

00001208 <entry_irq53>:
entry_irq53():
E:/promotion/gitlab/opensdk/Mars_B91/telink_mars_b91_driver_sdk_v2.2.0/demo/vendor/common/B91/plic_isr.c:641
{
    1208:	1141                	c.addi	sp,-16
    120a:	c03e                	c.swsp	a5,0(sp)
plic_isr():
C:/Users/Admin/Desktop/test1/telink_b91m_driver_src/chip/B91/drivers/lib/src/plic.c:97
    120c:	000007b7          	lui	a5,0x0
    1210:	15878793          	addi	a5,a5,344 # 158 <_AES_VMA_END>
entry_irq53():
E:/promotion/gitlab/opensdk/Mars_B91/telink_mars_b91_driver_sdk_v2.2.0/demo/vendor/common/B91/plic_isr.c:641
    1214:	c632                	c.swsp	a2,12(sp)
    1216:	c436                	c.swsp	a3,8(sp)
    1218:	c23a                	c.swsp	a4,4(sp)
plic_isr():
C:/Users/Admin/Desktop/test1/telink_b91m_driver_src/chip/B91/drivers/lib/src/plic.c:97
    121a:	03c78783          	lb	a5,60(a5)
    121e:	0ff7f793          	andi	a5,a5,255
    1222:	ef89                	c.bnez	a5,123c <entry_irq53+0x34>
plic_interrupt_complete():
C:\Users\Admin\Desktop\test1\telink_b91m_driver_src\chip\B91\drivers/lib/include/plic.h:281
    1224:	e42007b7          	lui	a5,0xe4200
    1228:	03500713          	li	a4,53
    122c:	c3d8                	c.sw	a4,4(a5)
entry_irq53():
E:/promotion/gitlab/opensdk/Mars_B91/telink_mars_b91_driver_sdk_v2.2.0/demo/vendor/common/B91/plic_isr.c:643
}
    122e:	4632                	c.lwsp	a2,12(sp)
    1230:	46a2                	c.lwsp	a3,8(sp)
    1232:	4712                	c.lwsp	a4,4(sp)
    1234:	4782                	c.lwsp	a5,0(sp)
    1236:	0141                	c.addi	sp,16
    1238:	30200073          	mret
plic_isr():
C:/Users/Admin/Desktop/test1/telink_b91m_driver_src/chip/B91/drivers/lib/src/plic.c:99
    123c:	34102773          	csrr	a4,mepc
    1240:	300026f3          	csrr	a3,mstatus
    1244:	7c4027f3          	csrr	a5,mxstatus
    1248:	30046673          	csrrsi	a2,mstatus,8
C:/Users/Admin/Desktop/test1/telink_b91m_driver_src/chip/B91/drivers/lib/src/plic.c:101
    124c:	30047673          	csrrci	a2,mstatus,8
    1250:	30069073          	csrw	mstatus,a3
    1254:	34171073          	csrw	mepc,a4
    1258:	7c479073          	csrw	mxstatus,a5
plic_interrupt_complete():
C:\Users\Admin\Desktop\test1\telink_b91m_driver_src\chip\B91\drivers/lib/include/plic.h:281
    125c:	e42007b7          	lui	a5,0xe4200
    1260:	03500713          	li	a4,53
    1264:	c3d8                	c.sw	a4,4(a5)
plic_isr():
C:/Users/Admin/Desktop/test1/telink_b91m_driver_src/chip/B91/drivers/lib/src/plic.c:103
    1266:	0ff0000f          	fence
entry_irq53():
E:/promotion/gitlab/opensdk/Mars_B91/telink_mars_b91_driver_sdk_v2.2.0/demo/vendor/common/B91/plic_isr.c:643
    126a:	4632                	c.lwsp	a2,12(sp)
    126c:	46a2                	c.lwsp	a3,8(sp)
    126e:	4712                	c.lwsp	a4,4(sp)
    1270:	4782                	c.lwsp	a5,0(sp)
    1272:	0141                	c.addi	sp,16
    1274:	30200073          	mret

00001278 <entry_irq52>:
entry_irq52():
E:/promotion/gitlab/opensdk/Mars_B91/telink_mars_b91_driver_sdk_v2.2.0/demo/vendor/common/B91/plic_isr.c:632
{
    1278:	1141                	c.addi	sp,-16
    127a:	c03e                	c.swsp	a5,0(sp)
plic_isr():
C:/Users/Admin/Desktop/test1/telink_b91m_driver_src/chip/B91/drivers/lib/src/plic.c:97
    127c:	000007b7          	lui	a5,0x0
    1280:	15878793          	addi	a5,a5,344 # 158 <_AES_VMA_END>
entry_irq52():
E:/promotion/gitlab/opensdk/Mars_B91/telink_mars_b91_driver_sdk_v2.2.0/demo/vendor/common/B91/plic_isr.c:632
    1284:	c632                	c.swsp	a2,12(sp)
    1286:	c436                	c.swsp	a3,8(sp)
    1288:	c23a                	c.swsp	a4,4(sp)
plic_isr():
C:/Users/Admin/Desktop/test1/telink_b91m_driver_src/chip/B91/drivers/lib/src/plic.c:97
    128a:	03c78783          	lb	a5,60(a5)
    128e:	0ff7f793          	andi	a5,a5,255
    1292:	ef89                	c.bnez	a5,12ac <entry_irq52+0x34>
plic_interrupt_complete():
C:\Users\Admin\Desktop\test1\telink_b91m_driver_src\chip\B91\drivers/lib/include/plic.h:281
    1294:	e42007b7          	lui	a5,0xe4200
    1298:	03400713          	li	a4,52
    129c:	c3d8                	c.sw	a4,4(a5)
entry_irq52():
E:/promotion/gitlab/opensdk/Mars_B91/telink_mars_b91_driver_sdk_v2.2.0/demo/vendor/common/B91/plic_isr.c:634
}
    129e:	4632                	c.lwsp	a2,12(sp)
    12a0:	46a2                	c.lwsp	a3,8(sp)
    12a2:	4712                	c.lwsp	a4,4(sp)
    12a4:	4782                	c.lwsp	a5,0(sp)
    12a6:	0141                	c.addi	sp,16
    12a8:	30200073          	mret
plic_isr():
C:/Users/Admin/Desktop/test1/telink_b91m_driver_src/chip/B91/drivers/lib/src/plic.c:99
    12ac:	34102773          	csrr	a4,mepc
    12b0:	300026f3          	csrr	a3,mstatus
    12b4:	7c4027f3          	csrr	a5,mxstatus
    12b8:	30046673          	csrrsi	a2,mstatus,8
C:/Users/Admin/Desktop/test1/telink_b91m_driver_src/chip/B91/drivers/lib/src/plic.c:101
    12bc:	30047673          	csrrci	a2,mstatus,8
    12c0:	30069073          	csrw	mstatus,a3
    12c4:	34171073          	csrw	mepc,a4
    12c8:	7c479073          	csrw	mxstatus,a5
plic_interrupt_complete():
C:\Users\Admin\Desktop\test1\telink_b91m_driver_src\chip\B91\drivers/lib/include/plic.h:281
    12cc:	e42007b7          	lui	a5,0xe4200
    12d0:	03400713          	li	a4,52
    12d4:	c3d8                	c.sw	a4,4(a5)
plic_isr():
C:/Users/Admin/Desktop/test1/telink_b91m_driver_src/chip/B91/drivers/lib/src/plic.c:103
    12d6:	0ff0000f          	fence
entry_irq52():
E:/promotion/gitlab/opensdk/Mars_B91/telink_mars_b91_driver_sdk_v2.2.0/demo/vendor/common/B91/plic_isr.c:634
    12da:	4632                	c.lwsp	a2,12(sp)
    12dc:	46a2                	c.lwsp	a3,8(sp)
    12de:	4712                	c.lwsp	a4,4(sp)
    12e0:	4782                	c.lwsp	a5,0(sp)
    12e2:	0141                	c.addi	sp,16
    12e4:	30200073          	mret

000012e8 <entry_irq51>:
entry_irq51():
E:/promotion/gitlab/opensdk/Mars_B91/telink_mars_b91_driver_sdk_v2.2.0/demo/vendor/common/B91/plic_isr.c:623
{
    12e8:	1141                	c.addi	sp,-16
    12ea:	c03e                	c.swsp	a5,0(sp)
plic_isr():
C:/Users/Admin/Desktop/test1/telink_b91m_driver_src/chip/B91/drivers/lib/src/plic.c:97
    12ec:	000007b7          	lui	a5,0x0
    12f0:	15878793          	addi	a5,a5,344 # 158 <_AES_VMA_END>
entry_irq51():
E:/promotion/gitlab/opensdk/Mars_B91/telink_mars_b91_driver_sdk_v2.2.0/demo/vendor/common/B91/plic_isr.c:623
    12f4:	c632                	c.swsp	a2,12(sp)
    12f6:	c436                	c.swsp	a3,8(sp)
    12f8:	c23a                	c.swsp	a4,4(sp)
plic_isr():
C:/Users/Admin/Desktop/test1/telink_b91m_driver_src/chip/B91/drivers/lib/src/plic.c:97
    12fa:	03c78783          	lb	a5,60(a5)
    12fe:	0ff7f793          	andi	a5,a5,255
    1302:	ef89                	c.bnez	a5,131c <entry_irq51+0x34>
plic_interrupt_complete():
C:\Users\Admin\Desktop\test1\telink_b91m_driver_src\chip\B91\drivers/lib/include/plic.h:281
    1304:	e42007b7          	lui	a5,0xe4200
    1308:	03300713          	li	a4,51
    130c:	c3d8                	c.sw	a4,4(a5)
entry_irq51():
E:/promotion/gitlab/opensdk/Mars_B91/telink_mars_b91_driver_sdk_v2.2.0/demo/vendor/common/B91/plic_isr.c:625
}
    130e:	4632                	c.lwsp	a2,12(sp)
    1310:	46a2                	c.lwsp	a3,8(sp)
    1312:	4712                	c.lwsp	a4,4(sp)
    1314:	4782                	c.lwsp	a5,0(sp)
    1316:	0141                	c.addi	sp,16
    1318:	30200073          	mret
plic_isr():
C:/Users/Admin/Desktop/test1/telink_b91m_driver_src/chip/B91/drivers/lib/src/plic.c:99
    131c:	34102773          	csrr	a4,mepc
    1320:	300026f3          	csrr	a3,mstatus
    1324:	7c4027f3          	csrr	a5,mxstatus
    1328:	30046673          	csrrsi	a2,mstatus,8
C:/Users/Admin/Desktop/test1/telink_b91m_driver_src/chip/B91/drivers/lib/src/plic.c:101
    132c:	30047673          	csrrci	a2,mstatus,8
    1330:	30069073          	csrw	mstatus,a3
    1334:	34171073          	csrw	mepc,a4
    1338:	7c479073          	csrw	mxstatus,a5
plic_interrupt_complete():
C:\Users\Admin\Desktop\test1\telink_b91m_driver_src\chip\B91\drivers/lib/include/plic.h:281
    133c:	e42007b7          	lui	a5,0xe4200
    1340:	03300713          	li	a4,51
    1344:	c3d8                	c.sw	a4,4(a5)
plic_isr():
C:/Users/Admin/Desktop/test1/telink_b91m_driver_src/chip/B91/drivers/lib/src/plic.c:103
    1346:	0ff0000f          	fence
entry_irq51():
E:/promotion/gitlab/opensdk/Mars_B91/telink_mars_b91_driver_sdk_v2.2.0/demo/vendor/common/B91/plic_isr.c:625
    134a:	4632                	c.lwsp	a2,12(sp)
    134c:	46a2                	c.lwsp	a3,8(sp)
    134e:	4712                	c.lwsp	a4,4(sp)
    1350:	4782                	c.lwsp	a5,0(sp)
    1352:	0141                	c.addi	sp,16
    1354:	30200073          	mret

00001358 <entry_irq50>:
entry_irq50():
E:/promotion/gitlab/opensdk/Mars_B91/telink_mars_b91_driver_sdk_v2.2.0/demo/vendor/common/B91/plic_isr.c:614
{
    1358:	1141                	c.addi	sp,-16
    135a:	c03e                	c.swsp	a5,0(sp)
plic_isr():
C:/Users/Admin/Desktop/test1/telink_b91m_driver_src/chip/B91/drivers/lib/src/plic.c:97
    135c:	000007b7          	lui	a5,0x0
    1360:	15878793          	addi	a5,a5,344 # 158 <_AES_VMA_END>
entry_irq50():
E:/promotion/gitlab/opensdk/Mars_B91/telink_mars_b91_driver_sdk_v2.2.0/demo/vendor/common/B91/plic_isr.c:614
    1364:	c632                	c.swsp	a2,12(sp)
    1366:	c436                	c.swsp	a3,8(sp)
    1368:	c23a                	c.swsp	a4,4(sp)
plic_isr():
C:/Users/Admin/Desktop/test1/telink_b91m_driver_src/chip/B91/drivers/lib/src/plic.c:97
    136a:	03c78783          	lb	a5,60(a5)
    136e:	0ff7f793          	andi	a5,a5,255
    1372:	ef89                	c.bnez	a5,138c <entry_irq50+0x34>
plic_interrupt_complete():
C:\Users\Admin\Desktop\test1\telink_b91m_driver_src\chip\B91\drivers/lib/include/plic.h:281
    1374:	e42007b7          	lui	a5,0xe4200
    1378:	03200713          	li	a4,50
    137c:	c3d8                	c.sw	a4,4(a5)
entry_irq50():
E:/promotion/gitlab/opensdk/Mars_B91/telink_mars_b91_driver_sdk_v2.2.0/demo/vendor/common/B91/plic_isr.c:616
}
    137e:	4632                	c.lwsp	a2,12(sp)
    1380:	46a2                	c.lwsp	a3,8(sp)
    1382:	4712                	c.lwsp	a4,4(sp)
    1384:	4782                	c.lwsp	a5,0(sp)
    1386:	0141                	c.addi	sp,16
    1388:	30200073          	mret
plic_isr():
C:/Users/Admin/Desktop/test1/telink_b91m_driver_src/chip/B91/drivers/lib/src/plic.c:99
    138c:	34102773          	csrr	a4,mepc
    1390:	300026f3          	csrr	a3,mstatus
    1394:	7c4027f3          	csrr	a5,mxstatus
    1398:	30046673          	csrrsi	a2,mstatus,8
C:/Users/Admin/Desktop/test1/telink_b91m_driver_src/chip/B91/drivers/lib/src/plic.c:101
    139c:	30047673          	csrrci	a2,mstatus,8
    13a0:	30069073          	csrw	mstatus,a3
    13a4:	34171073          	csrw	mepc,a4
    13a8:	7c479073          	csrw	mxstatus,a5
plic_interrupt_complete():
C:\Users\Admin\Desktop\test1\telink_b91m_driver_src\chip\B91\drivers/lib/include/plic.h:281
    13ac:	e42007b7          	lui	a5,0xe4200
    13b0:	03200713          	li	a4,50
    13b4:	c3d8                	c.sw	a4,4(a5)
plic_isr():
C:/Users/Admin/Desktop/test1/telink_b91m_driver_src/chip/B91/drivers/lib/src/plic.c:103
    13b6:	0ff0000f          	fence
entry_irq50():
E:/promotion/gitlab/opensdk/Mars_B91/telink_mars_b91_driver_sdk_v2.2.0/demo/vendor/common/B91/plic_isr.c:616
    13ba:	4632                	c.lwsp	a2,12(sp)
    13bc:	46a2                	c.lwsp	a3,8(sp)
    13be:	4712                	c.lwsp	a4,4(sp)
    13c0:	4782                	c.lwsp	a5,0(sp)
    13c2:	0141                	c.addi	sp,16
    13c4:	30200073          	mret

000013c8 <entry_irq49>:
entry_irq49():
E:/promotion/gitlab/opensdk/Mars_B91/telink_mars_b91_driver_sdk_v2.2.0/demo/vendor/common/B91/plic_isr.c:607
}
    13c8:	30200073          	mret

000013cc <entry_irq48>:
entry_irq48():
E:/promotion/gitlab/opensdk/Mars_B91/telink_mars_b91_driver_sdk_v2.2.0/demo/vendor/common/B91/plic_isr.c:601
}
    13cc:	30200073          	mret

000013d0 <entry_irq47>:
entry_irq47():
E:/promotion/gitlab/opensdk/Mars_B91/telink_mars_b91_driver_sdk_v2.2.0/demo/vendor/common/B91/plic_isr.c:595
}
    13d0:	30200073          	mret

000013d4 <entry_irq46>:
entry_irq46():
E:/promotion/gitlab/opensdk/Mars_B91/telink_mars_b91_driver_sdk_v2.2.0/demo/vendor/common/B91/plic_isr.c:586
{
    13d4:	1141                	c.addi	sp,-16
    13d6:	c03e                	c.swsp	a5,0(sp)
plic_isr():
C:/Users/Admin/Desktop/test1/telink_b91m_driver_src/chip/B91/drivers/lib/src/plic.c:97
    13d8:	000007b7          	lui	a5,0x0
    13dc:	15878793          	addi	a5,a5,344 # 158 <_AES_VMA_END>
entry_irq46():
E:/promotion/gitlab/opensdk/Mars_B91/telink_mars_b91_driver_sdk_v2.2.0/demo/vendor/common/B91/plic_isr.c:586
    13e0:	c632                	c.swsp	a2,12(sp)
    13e2:	c436                	c.swsp	a3,8(sp)
    13e4:	c23a                	c.swsp	a4,4(sp)
plic_isr():
C:/Users/Admin/Desktop/test1/telink_b91m_driver_src/chip/B91/drivers/lib/src/plic.c:97
    13e6:	03c78783          	lb	a5,60(a5)
    13ea:	0ff7f793          	andi	a5,a5,255
    13ee:	ef89                	c.bnez	a5,1408 <entry_irq46+0x34>
plic_interrupt_complete():
C:\Users\Admin\Desktop\test1\telink_b91m_driver_src\chip\B91\drivers/lib/include/plic.h:281
    13f0:	e42007b7          	lui	a5,0xe4200
    13f4:	02e00713          	li	a4,46
    13f8:	c3d8                	c.sw	a4,4(a5)
entry_irq46():
E:/promotion/gitlab/opensdk/Mars_B91/telink_mars_b91_driver_sdk_v2.2.0/demo/vendor/common/B91/plic_isr.c:588
}
    13fa:	4632                	c.lwsp	a2,12(sp)
    13fc:	46a2                	c.lwsp	a3,8(sp)
    13fe:	4712                	c.lwsp	a4,4(sp)
    1400:	4782                	c.lwsp	a5,0(sp)
    1402:	0141                	c.addi	sp,16
    1404:	30200073          	mret
plic_isr():
C:/Users/Admin/Desktop/test1/telink_b91m_driver_src/chip/B91/drivers/lib/src/plic.c:99
    1408:	34102773          	csrr	a4,mepc
    140c:	300026f3          	csrr	a3,mstatus
    1410:	7c4027f3          	csrr	a5,mxstatus
    1414:	30046673          	csrrsi	a2,mstatus,8
C:/Users/Admin/Desktop/test1/telink_b91m_driver_src/chip/B91/drivers/lib/src/plic.c:101
    1418:	30047673          	csrrci	a2,mstatus,8
    141c:	30069073          	csrw	mstatus,a3
    1420:	34171073          	csrw	mepc,a4
    1424:	7c479073          	csrw	mxstatus,a5
plic_interrupt_complete():
C:\Users\Admin\Desktop\test1\telink_b91m_driver_src\chip\B91\drivers/lib/include/plic.h:281
    1428:	e42007b7          	lui	a5,0xe4200
    142c:	02e00713          	li	a4,46
    1430:	c3d8                	c.sw	a4,4(a5)
plic_isr():
C:/Users/Admin/Desktop/test1/telink_b91m_driver_src/chip/B91/drivers/lib/src/plic.c:103
    1432:	0ff0000f          	fence
entry_irq46():
E:/promotion/gitlab/opensdk/Mars_B91/telink_mars_b91_driver_sdk_v2.2.0/demo/vendor/common/B91/plic_isr.c:588
    1436:	4632                	c.lwsp	a2,12(sp)
    1438:	46a2                	c.lwsp	a3,8(sp)
    143a:	4712                	c.lwsp	a4,4(sp)
    143c:	4782                	c.lwsp	a5,0(sp)
    143e:	0141                	c.addi	sp,16
    1440:	30200073          	mret

00001444 <entry_irq45>:
entry_irq45():
E:/promotion/gitlab/opensdk/Mars_B91/telink_mars_b91_driver_sdk_v2.2.0/demo/vendor/common/B91/plic_isr.c:579
}
    1444:	30200073          	mret

00001448 <entry_irq44>:
entry_irq44():
E:/promotion/gitlab/opensdk/Mars_B91/telink_mars_b91_driver_sdk_v2.2.0/demo/vendor/common/B91/plic_isr.c:572
{
    1448:	1141                	c.addi	sp,-16
    144a:	c03e                	c.swsp	a5,0(sp)
plic_isr():
C:/Users/Admin/Desktop/test1/telink_b91m_driver_src/chip/B91/drivers/lib/src/plic.c:97
    144c:	000007b7          	lui	a5,0x0
    1450:	15878793          	addi	a5,a5,344 # 158 <_AES_VMA_END>
entry_irq44():
E:/promotion/gitlab/opensdk/Mars_B91/telink_mars_b91_driver_sdk_v2.2.0/demo/vendor/common/B91/plic_isr.c:572
    1454:	c632                	c.swsp	a2,12(sp)
    1456:	c436                	c.swsp	a3,8(sp)
    1458:	c23a                	c.swsp	a4,4(sp)
plic_isr():
C:/Users/Admin/Desktop/test1/telink_b91m_driver_src/chip/B91/drivers/lib/src/plic.c:97
    145a:	03c78783          	lb	a5,60(a5)
    145e:	0ff7f793          	andi	a5,a5,255
    1462:	ef89                	c.bnez	a5,147c <entry_irq44+0x34>
plic_interrupt_complete():
C:\Users\Admin\Desktop\test1\telink_b91m_driver_src\chip\B91\drivers/lib/include/plic.h:281
    1464:	e42007b7          	lui	a5,0xe4200
    1468:	02c00713          	li	a4,44
    146c:	c3d8                	c.sw	a4,4(a5)
entry_irq44():
E:/promotion/gitlab/opensdk/Mars_B91/telink_mars_b91_driver_sdk_v2.2.0/demo/vendor/common/B91/plic_isr.c:574
}
    146e:	4632                	c.lwsp	a2,12(sp)
    1470:	46a2                	c.lwsp	a3,8(sp)
    1472:	4712                	c.lwsp	a4,4(sp)
    1474:	4782                	c.lwsp	a5,0(sp)
    1476:	0141                	c.addi	sp,16
    1478:	30200073          	mret
plic_isr():
C:/Users/Admin/Desktop/test1/telink_b91m_driver_src/chip/B91/drivers/lib/src/plic.c:99
    147c:	34102773          	csrr	a4,mepc
    1480:	300026f3          	csrr	a3,mstatus
    1484:	7c4027f3          	csrr	a5,mxstatus
    1488:	30046673          	csrrsi	a2,mstatus,8
C:/Users/Admin/Desktop/test1/telink_b91m_driver_src/chip/B91/drivers/lib/src/plic.c:101
    148c:	30047673          	csrrci	a2,mstatus,8
    1490:	30069073          	csrw	mstatus,a3
    1494:	34171073          	csrw	mepc,a4
    1498:	7c479073          	csrw	mxstatus,a5
plic_interrupt_complete():
C:\Users\Admin\Desktop\test1\telink_b91m_driver_src\chip\B91\drivers/lib/include/plic.h:281
    149c:	e42007b7          	lui	a5,0xe4200
    14a0:	02c00713          	li	a4,44
    14a4:	c3d8                	c.sw	a4,4(a5)
plic_isr():
C:/Users/Admin/Desktop/test1/telink_b91m_driver_src/chip/B91/drivers/lib/src/plic.c:103
    14a6:	0ff0000f          	fence
entry_irq44():
E:/promotion/gitlab/opensdk/Mars_B91/telink_mars_b91_driver_sdk_v2.2.0/demo/vendor/common/B91/plic_isr.c:574
    14aa:	4632                	c.lwsp	a2,12(sp)
    14ac:	46a2                	c.lwsp	a3,8(sp)
    14ae:	4712                	c.lwsp	a4,4(sp)
    14b0:	4782                	c.lwsp	a5,0(sp)
    14b2:	0141                	c.addi	sp,16
    14b4:	30200073          	mret

000014b8 <entry_irq43>:
entry_irq43():
E:/promotion/gitlab/opensdk/Mars_B91/telink_mars_b91_driver_sdk_v2.2.0/demo/vendor/common/B91/plic_isr.c:562
{
    14b8:	1141                	c.addi	sp,-16
    14ba:	c03e                	c.swsp	a5,0(sp)
plic_isr():
C:/Users/Admin/Desktop/test1/telink_b91m_driver_src/chip/B91/drivers/lib/src/plic.c:97
    14bc:	000007b7          	lui	a5,0x0
    14c0:	15878793          	addi	a5,a5,344 # 158 <_AES_VMA_END>
entry_irq43():
E:/promotion/gitlab/opensdk/Mars_B91/telink_mars_b91_driver_sdk_v2.2.0/demo/vendor/common/B91/plic_isr.c:562
    14c4:	c632                	c.swsp	a2,12(sp)
    14c6:	c436                	c.swsp	a3,8(sp)
    14c8:	c23a                	c.swsp	a4,4(sp)
plic_isr():
C:/Users/Admin/Desktop/test1/telink_b91m_driver_src/chip/B91/drivers/lib/src/plic.c:97
    14ca:	03c78783          	lb	a5,60(a5)
    14ce:	0ff7f793          	andi	a5,a5,255
    14d2:	ef89                	c.bnez	a5,14ec <entry_irq43+0x34>
plic_interrupt_complete():
C:\Users\Admin\Desktop\test1\telink_b91m_driver_src\chip\B91\drivers/lib/include/plic.h:281
    14d4:	e42007b7          	lui	a5,0xe4200
    14d8:	02b00713          	li	a4,43
    14dc:	c3d8                	c.sw	a4,4(a5)
entry_irq43():
E:/promotion/gitlab/opensdk/Mars_B91/telink_mars_b91_driver_sdk_v2.2.0/demo/vendor/common/B91/plic_isr.c:564
}
    14de:	4632                	c.lwsp	a2,12(sp)
    14e0:	46a2                	c.lwsp	a3,8(sp)
    14e2:	4712                	c.lwsp	a4,4(sp)
    14e4:	4782                	c.lwsp	a5,0(sp)
    14e6:	0141                	c.addi	sp,16
    14e8:	30200073          	mret
plic_isr():
C:/Users/Admin/Desktop/test1/telink_b91m_driver_src/chip/B91/drivers/lib/src/plic.c:99
    14ec:	34102773          	csrr	a4,mepc
    14f0:	300026f3          	csrr	a3,mstatus
    14f4:	7c4027f3          	csrr	a5,mxstatus
    14f8:	30046673          	csrrsi	a2,mstatus,8
C:/Users/Admin/Desktop/test1/telink_b91m_driver_src/chip/B91/drivers/lib/src/plic.c:101
    14fc:	30047673          	csrrci	a2,mstatus,8
    1500:	30069073          	csrw	mstatus,a3
    1504:	34171073          	csrw	mepc,a4
    1508:	7c479073          	csrw	mxstatus,a5
plic_interrupt_complete():
C:\Users\Admin\Desktop\test1\telink_b91m_driver_src\chip\B91\drivers/lib/include/plic.h:281
    150c:	e42007b7          	lui	a5,0xe4200
    1510:	02b00713          	li	a4,43
    1514:	c3d8                	c.sw	a4,4(a5)
plic_isr():
C:/Users/Admin/Desktop/test1/telink_b91m_driver_src/chip/B91/drivers/lib/src/plic.c:103
    1516:	0ff0000f          	fence
entry_irq43():
E:/promotion/gitlab/opensdk/Mars_B91/telink_mars_b91_driver_sdk_v2.2.0/demo/vendor/common/B91/plic_isr.c:564
    151a:	4632                	c.lwsp	a2,12(sp)
    151c:	46a2                	c.lwsp	a3,8(sp)
    151e:	4712                	c.lwsp	a4,4(sp)
    1520:	4782                	c.lwsp	a5,0(sp)
    1522:	0141                	c.addi	sp,16
    1524:	30200073          	mret

00001528 <entry_irq42>:
entry_irq42():
E:/promotion/gitlab/opensdk/Mars_B91/telink_mars_b91_driver_sdk_v2.2.0/demo/vendor/common/B91/plic_isr.c:553
{
    1528:	1141                	c.addi	sp,-16
    152a:	c03e                	c.swsp	a5,0(sp)
plic_isr():
C:/Users/Admin/Desktop/test1/telink_b91m_driver_src/chip/B91/drivers/lib/src/plic.c:97
    152c:	000007b7          	lui	a5,0x0
    1530:	15878793          	addi	a5,a5,344 # 158 <_AES_VMA_END>
entry_irq42():
E:/promotion/gitlab/opensdk/Mars_B91/telink_mars_b91_driver_sdk_v2.2.0/demo/vendor/common/B91/plic_isr.c:553
    1534:	c632                	c.swsp	a2,12(sp)
    1536:	c436                	c.swsp	a3,8(sp)
    1538:	c23a                	c.swsp	a4,4(sp)
plic_isr():
C:/Users/Admin/Desktop/test1/telink_b91m_driver_src/chip/B91/drivers/lib/src/plic.c:97
    153a:	03c78783          	lb	a5,60(a5)
    153e:	0ff7f793          	andi	a5,a5,255
    1542:	ef89                	c.bnez	a5,155c <entry_irq42+0x34>
plic_interrupt_complete():
C:\Users\Admin\Desktop\test1\telink_b91m_driver_src\chip\B91\drivers/lib/include/plic.h:281
    1544:	e42007b7          	lui	a5,0xe4200
    1548:	02a00713          	li	a4,42
    154c:	c3d8                	c.sw	a4,4(a5)
entry_irq42():
E:/promotion/gitlab/opensdk/Mars_B91/telink_mars_b91_driver_sdk_v2.2.0/demo/vendor/common/B91/plic_isr.c:555
}
    154e:	4632                	c.lwsp	a2,12(sp)
    1550:	46a2                	c.lwsp	a3,8(sp)
    1552:	4712                	c.lwsp	a4,4(sp)
    1554:	4782                	c.lwsp	a5,0(sp)
    1556:	0141                	c.addi	sp,16
    1558:	30200073          	mret
plic_isr():
C:/Users/Admin/Desktop/test1/telink_b91m_driver_src/chip/B91/drivers/lib/src/plic.c:99
    155c:	34102773          	csrr	a4,mepc
    1560:	300026f3          	csrr	a3,mstatus
    1564:	7c4027f3          	csrr	a5,mxstatus
    1568:	30046673          	csrrsi	a2,mstatus,8
C:/Users/Admin/Desktop/test1/telink_b91m_driver_src/chip/B91/drivers/lib/src/plic.c:101
    156c:	30047673          	csrrci	a2,mstatus,8
    1570:	30069073          	csrw	mstatus,a3
    1574:	34171073          	csrw	mepc,a4
    1578:	7c479073          	csrw	mxstatus,a5
plic_interrupt_complete():
C:\Users\Admin\Desktop\test1\telink_b91m_driver_src\chip\B91\drivers/lib/include/plic.h:281
    157c:	e42007b7          	lui	a5,0xe4200
    1580:	02a00713          	li	a4,42
    1584:	c3d8                	c.sw	a4,4(a5)
plic_isr():
C:/Users/Admin/Desktop/test1/telink_b91m_driver_src/chip/B91/drivers/lib/src/plic.c:103
    1586:	0ff0000f          	fence
entry_irq42():
E:/promotion/gitlab/opensdk/Mars_B91/telink_mars_b91_driver_sdk_v2.2.0/demo/vendor/common/B91/plic_isr.c:555
    158a:	4632                	c.lwsp	a2,12(sp)
    158c:	46a2                	c.lwsp	a3,8(sp)
    158e:	4712                	c.lwsp	a4,4(sp)
    1590:	4782                	c.lwsp	a5,0(sp)
    1592:	0141                	c.addi	sp,16
    1594:	30200073          	mret

00001598 <entry_irq41>:
entry_irq41():
E:/promotion/gitlab/opensdk/Mars_B91/telink_mars_b91_driver_sdk_v2.2.0/demo/vendor/common/B91/plic_isr.c:546
}
    1598:	30200073          	mret

0000159c <entry_irq40>:
entry_irq40():
E:/promotion/gitlab/opensdk/Mars_B91/telink_mars_b91_driver_sdk_v2.2.0/demo/vendor/common/B91/plic_isr.c:541
}
    159c:	30200073          	mret

000015a0 <entry_irq39>:
entry_irq39():
E:/promotion/gitlab/opensdk/Mars_B91/telink_mars_b91_driver_sdk_v2.2.0/demo/vendor/common/B91/plic_isr.c:536
}
    15a0:	30200073          	mret

000015a4 <entry_irq38>:
entry_irq38():
E:/promotion/gitlab/opensdk/Mars_B91/telink_mars_b91_driver_sdk_v2.2.0/demo/vendor/common/B91/plic_isr.c:531
}
    15a4:	30200073          	mret

000015a8 <entry_irq37>:
entry_irq37():
E:/promotion/gitlab/opensdk/Mars_B91/telink_mars_b91_driver_sdk_v2.2.0/demo/vendor/common/B91/plic_isr.c:522
{
    15a8:	1141                	c.addi	sp,-16
    15aa:	c03e                	c.swsp	a5,0(sp)
plic_isr():
C:/Users/Admin/Desktop/test1/telink_b91m_driver_src/chip/B91/drivers/lib/src/plic.c:97
    15ac:	000007b7          	lui	a5,0x0
    15b0:	15878793          	addi	a5,a5,344 # 158 <_AES_VMA_END>
entry_irq37():
E:/promotion/gitlab/opensdk/Mars_B91/telink_mars_b91_driver_sdk_v2.2.0/demo/vendor/common/B91/plic_isr.c:522
    15b4:	c632                	c.swsp	a2,12(sp)
    15b6:	c436                	c.swsp	a3,8(sp)
    15b8:	c23a                	c.swsp	a4,4(sp)
plic_isr():
C:/Users/Admin/Desktop/test1/telink_b91m_driver_src/chip/B91/drivers/lib/src/plic.c:97
    15ba:	03c78783          	lb	a5,60(a5)
    15be:	0ff7f793          	andi	a5,a5,255
    15c2:	ef89                	c.bnez	a5,15dc <entry_irq37+0x34>
plic_interrupt_complete():
C:\Users\Admin\Desktop\test1\telink_b91m_driver_src\chip\B91\drivers/lib/include/plic.h:281
    15c4:	e42007b7          	lui	a5,0xe4200
    15c8:	02500713          	li	a4,37
    15cc:	c3d8                	c.sw	a4,4(a5)
entry_irq37():
E:/promotion/gitlab/opensdk/Mars_B91/telink_mars_b91_driver_sdk_v2.2.0/demo/vendor/common/B91/plic_isr.c:524
}
    15ce:	4632                	c.lwsp	a2,12(sp)
    15d0:	46a2                	c.lwsp	a3,8(sp)
    15d2:	4712                	c.lwsp	a4,4(sp)
    15d4:	4782                	c.lwsp	a5,0(sp)
    15d6:	0141                	c.addi	sp,16
    15d8:	30200073          	mret
plic_isr():
C:/Users/Admin/Desktop/test1/telink_b91m_driver_src/chip/B91/drivers/lib/src/plic.c:99
    15dc:	34102773          	csrr	a4,mepc
    15e0:	300026f3          	csrr	a3,mstatus
    15e4:	7c4027f3          	csrr	a5,mxstatus
    15e8:	30046673          	csrrsi	a2,mstatus,8
C:/Users/Admin/Desktop/test1/telink_b91m_driver_src/chip/B91/drivers/lib/src/plic.c:101
    15ec:	30047673          	csrrci	a2,mstatus,8
    15f0:	30069073          	csrw	mstatus,a3
    15f4:	34171073          	csrw	mepc,a4
    15f8:	7c479073          	csrw	mxstatus,a5
plic_interrupt_complete():
C:\Users\Admin\Desktop\test1\telink_b91m_driver_src\chip\B91\drivers/lib/include/plic.h:281
    15fc:	e42007b7          	lui	a5,0xe4200
    1600:	02500713          	li	a4,37
    1604:	c3d8                	c.sw	a4,4(a5)
plic_isr():
C:/Users/Admin/Desktop/test1/telink_b91m_driver_src/chip/B91/drivers/lib/src/plic.c:103
    1606:	0ff0000f          	fence
entry_irq37():
E:/promotion/gitlab/opensdk/Mars_B91/telink_mars_b91_driver_sdk_v2.2.0/demo/vendor/common/B91/plic_isr.c:524
    160a:	4632                	c.lwsp	a2,12(sp)
    160c:	46a2                	c.lwsp	a3,8(sp)
    160e:	4712                	c.lwsp	a4,4(sp)
    1610:	4782                	c.lwsp	a5,0(sp)
    1612:	0141                	c.addi	sp,16
    1614:	30200073          	mret

00001618 <entry_irq36>:
entry_irq36():
E:/promotion/gitlab/opensdk/Mars_B91/telink_mars_b91_driver_sdk_v2.2.0/demo/vendor/common/B91/plic_isr.c:513
{
    1618:	1141                	c.addi	sp,-16
    161a:	c03e                	c.swsp	a5,0(sp)
plic_isr():
C:/Users/Admin/Desktop/test1/telink_b91m_driver_src/chip/B91/drivers/lib/src/plic.c:97
    161c:	000007b7          	lui	a5,0x0
    1620:	15878793          	addi	a5,a5,344 # 158 <_AES_VMA_END>
entry_irq36():
E:/promotion/gitlab/opensdk/Mars_B91/telink_mars_b91_driver_sdk_v2.2.0/demo/vendor/common/B91/plic_isr.c:513
    1624:	c632                	c.swsp	a2,12(sp)
    1626:	c436                	c.swsp	a3,8(sp)
    1628:	c23a                	c.swsp	a4,4(sp)
plic_isr():
C:/Users/Admin/Desktop/test1/telink_b91m_driver_src/chip/B91/drivers/lib/src/plic.c:97
    162a:	03c78783          	lb	a5,60(a5)
    162e:	0ff7f793          	andi	a5,a5,255
    1632:	ef89                	c.bnez	a5,164c <entry_irq36+0x34>
plic_interrupt_complete():
C:\Users\Admin\Desktop\test1\telink_b91m_driver_src\chip\B91\drivers/lib/include/plic.h:281
    1634:	e42007b7          	lui	a5,0xe4200
    1638:	02400713          	li	a4,36
    163c:	c3d8                	c.sw	a4,4(a5)
entry_irq36():
E:/promotion/gitlab/opensdk/Mars_B91/telink_mars_b91_driver_sdk_v2.2.0/demo/vendor/common/B91/plic_isr.c:515
}
    163e:	4632                	c.lwsp	a2,12(sp)
    1640:	46a2                	c.lwsp	a3,8(sp)
    1642:	4712                	c.lwsp	a4,4(sp)
    1644:	4782                	c.lwsp	a5,0(sp)
    1646:	0141                	c.addi	sp,16
    1648:	30200073          	mret
plic_isr():
C:/Users/Admin/Desktop/test1/telink_b91m_driver_src/chip/B91/drivers/lib/src/plic.c:99
    164c:	34102773          	csrr	a4,mepc
    1650:	300026f3          	csrr	a3,mstatus
    1654:	7c4027f3          	csrr	a5,mxstatus
    1658:	30046673          	csrrsi	a2,mstatus,8
C:/Users/Admin/Desktop/test1/telink_b91m_driver_src/chip/B91/drivers/lib/src/plic.c:101
    165c:	30047673          	csrrci	a2,mstatus,8
    1660:	30069073          	csrw	mstatus,a3
    1664:	34171073          	csrw	mepc,a4
    1668:	7c479073          	csrw	mxstatus,a5
plic_interrupt_complete():
C:\Users\Admin\Desktop\test1\telink_b91m_driver_src\chip\B91\drivers/lib/include/plic.h:281
    166c:	e42007b7          	lui	a5,0xe4200
    1670:	02400713          	li	a4,36
    1674:	c3d8                	c.sw	a4,4(a5)
plic_isr():
C:/Users/Admin/Desktop/test1/telink_b91m_driver_src/chip/B91/drivers/lib/src/plic.c:103
    1676:	0ff0000f          	fence
entry_irq36():
E:/promotion/gitlab/opensdk/Mars_B91/telink_mars_b91_driver_sdk_v2.2.0/demo/vendor/common/B91/plic_isr.c:515
    167a:	4632                	c.lwsp	a2,12(sp)
    167c:	46a2                	c.lwsp	a3,8(sp)
    167e:	4712                	c.lwsp	a4,4(sp)
    1680:	4782                	c.lwsp	a5,0(sp)
    1682:	0141                	c.addi	sp,16
    1684:	30200073          	mret

00001688 <entry_irq35>:
entry_irq35():
E:/promotion/gitlab/opensdk/Mars_B91/telink_mars_b91_driver_sdk_v2.2.0/demo/vendor/common/B91/plic_isr.c:504
{
    1688:	1141                	c.addi	sp,-16
    168a:	c03e                	c.swsp	a5,0(sp)
plic_isr():
C:/Users/Admin/Desktop/test1/telink_b91m_driver_src/chip/B91/drivers/lib/src/plic.c:97
    168c:	000007b7          	lui	a5,0x0
    1690:	15878793          	addi	a5,a5,344 # 158 <_AES_VMA_END>
entry_irq35():
E:/promotion/gitlab/opensdk/Mars_B91/telink_mars_b91_driver_sdk_v2.2.0/demo/vendor/common/B91/plic_isr.c:504
    1694:	c632                	c.swsp	a2,12(sp)
    1696:	c436                	c.swsp	a3,8(sp)
    1698:	c23a                	c.swsp	a4,4(sp)
plic_isr():
C:/Users/Admin/Desktop/test1/telink_b91m_driver_src/chip/B91/drivers/lib/src/plic.c:97
    169a:	03c78783          	lb	a5,60(a5)
    169e:	0ff7f793          	andi	a5,a5,255
    16a2:	ef89                	c.bnez	a5,16bc <entry_irq35+0x34>
plic_interrupt_complete():
C:\Users\Admin\Desktop\test1\telink_b91m_driver_src\chip\B91\drivers/lib/include/plic.h:281
    16a4:	e42007b7          	lui	a5,0xe4200
    16a8:	02300713          	li	a4,35
    16ac:	c3d8                	c.sw	a4,4(a5)
entry_irq35():
E:/promotion/gitlab/opensdk/Mars_B91/telink_mars_b91_driver_sdk_v2.2.0/demo/vendor/common/B91/plic_isr.c:506
}
    16ae:	4632                	c.lwsp	a2,12(sp)
    16b0:	46a2                	c.lwsp	a3,8(sp)
    16b2:	4712                	c.lwsp	a4,4(sp)
    16b4:	4782                	c.lwsp	a5,0(sp)
    16b6:	0141                	c.addi	sp,16
    16b8:	30200073          	mret
plic_isr():
C:/Users/Admin/Desktop/test1/telink_b91m_driver_src/chip/B91/drivers/lib/src/plic.c:99
    16bc:	34102773          	csrr	a4,mepc
    16c0:	300026f3          	csrr	a3,mstatus
    16c4:	7c4027f3          	csrr	a5,mxstatus
    16c8:	30046673          	csrrsi	a2,mstatus,8
C:/Users/Admin/Desktop/test1/telink_b91m_driver_src/chip/B91/drivers/lib/src/plic.c:101
    16cc:	30047673          	csrrci	a2,mstatus,8
    16d0:	30069073          	csrw	mstatus,a3
    16d4:	34171073          	csrw	mepc,a4
    16d8:	7c479073          	csrw	mxstatus,a5
plic_interrupt_complete():
C:\Users\Admin\Desktop\test1\telink_b91m_driver_src\chip\B91\drivers/lib/include/plic.h:281
    16dc:	e42007b7          	lui	a5,0xe4200
    16e0:	02300713          	li	a4,35
    16e4:	c3d8                	c.sw	a4,4(a5)
plic_isr():
C:/Users/Admin/Desktop/test1/telink_b91m_driver_src/chip/B91/drivers/lib/src/plic.c:103
    16e6:	0ff0000f          	fence
entry_irq35():
E:/promotion/gitlab/opensdk/Mars_B91/telink_mars_b91_driver_sdk_v2.2.0/demo/vendor/common/B91/plic_isr.c:506
    16ea:	4632                	c.lwsp	a2,12(sp)
    16ec:	46a2                	c.lwsp	a3,8(sp)
    16ee:	4712                	c.lwsp	a4,4(sp)
    16f0:	4782                	c.lwsp	a5,0(sp)
    16f2:	0141                	c.addi	sp,16
    16f4:	30200073          	mret

000016f8 <entry_irq34>:
entry_irq34():
E:/promotion/gitlab/opensdk/Mars_B91/telink_mars_b91_driver_sdk_v2.2.0/demo/vendor/common/B91/plic_isr.c:495
{
    16f8:	1141                	c.addi	sp,-16
    16fa:	c03e                	c.swsp	a5,0(sp)
plic_isr():
C:/Users/Admin/Desktop/test1/telink_b91m_driver_src/chip/B91/drivers/lib/src/plic.c:97
    16fc:	000007b7          	lui	a5,0x0
    1700:	15878793          	addi	a5,a5,344 # 158 <_AES_VMA_END>
entry_irq34():
E:/promotion/gitlab/opensdk/Mars_B91/telink_mars_b91_driver_sdk_v2.2.0/demo/vendor/common/B91/plic_isr.c:495
    1704:	c632                	c.swsp	a2,12(sp)
    1706:	c436                	c.swsp	a3,8(sp)
    1708:	c23a                	c.swsp	a4,4(sp)
plic_isr():
C:/Users/Admin/Desktop/test1/telink_b91m_driver_src/chip/B91/drivers/lib/src/plic.c:97
    170a:	03c78783          	lb	a5,60(a5)
    170e:	0ff7f793          	andi	a5,a5,255
    1712:	ef89                	c.bnez	a5,172c <entry_irq34+0x34>
plic_interrupt_complete():
C:\Users\Admin\Desktop\test1\telink_b91m_driver_src\chip\B91\drivers/lib/include/plic.h:281
    1714:	e42007b7          	lui	a5,0xe4200
    1718:	02200713          	li	a4,34
    171c:	c3d8                	c.sw	a4,4(a5)
entry_irq34():
E:/promotion/gitlab/opensdk/Mars_B91/telink_mars_b91_driver_sdk_v2.2.0/demo/vendor/common/B91/plic_isr.c:497
}
    171e:	4632                	c.lwsp	a2,12(sp)
    1720:	46a2                	c.lwsp	a3,8(sp)
    1722:	4712                	c.lwsp	a4,4(sp)
    1724:	4782                	c.lwsp	a5,0(sp)
    1726:	0141                	c.addi	sp,16
    1728:	30200073          	mret
plic_isr():
C:/Users/Admin/Desktop/test1/telink_b91m_driver_src/chip/B91/drivers/lib/src/plic.c:99
    172c:	34102773          	csrr	a4,mepc
    1730:	300026f3          	csrr	a3,mstatus
    1734:	7c4027f3          	csrr	a5,mxstatus
    1738:	30046673          	csrrsi	a2,mstatus,8
C:/Users/Admin/Desktop/test1/telink_b91m_driver_src/chip/B91/drivers/lib/src/plic.c:101
    173c:	30047673          	csrrci	a2,mstatus,8
    1740:	30069073          	csrw	mstatus,a3
    1744:	34171073          	csrw	mepc,a4
    1748:	7c479073          	csrw	mxstatus,a5
plic_interrupt_complete():
C:\Users\Admin\Desktop\test1\telink_b91m_driver_src\chip\B91\drivers/lib/include/plic.h:281
    174c:	e42007b7          	lui	a5,0xe4200
    1750:	02200713          	li	a4,34
    1754:	c3d8                	c.sw	a4,4(a5)
plic_isr():
C:/Users/Admin/Desktop/test1/telink_b91m_driver_src/chip/B91/drivers/lib/src/plic.c:103
    1756:	0ff0000f          	fence
entry_irq34():
E:/promotion/gitlab/opensdk/Mars_B91/telink_mars_b91_driver_sdk_v2.2.0/demo/vendor/common/B91/plic_isr.c:497
    175a:	4632                	c.lwsp	a2,12(sp)
    175c:	46a2                	c.lwsp	a3,8(sp)
    175e:	4712                	c.lwsp	a4,4(sp)
    1760:	4782                	c.lwsp	a5,0(sp)
    1762:	0141                	c.addi	sp,16
    1764:	30200073          	mret

00001768 <entry_irq33>:
entry_irq33():
E:/promotion/gitlab/opensdk/Mars_B91/telink_mars_b91_driver_sdk_v2.2.0/demo/vendor/common/B91/plic_isr.c:486
{
    1768:	1141                	c.addi	sp,-16
    176a:	c03e                	c.swsp	a5,0(sp)
plic_isr():
C:/Users/Admin/Desktop/test1/telink_b91m_driver_src/chip/B91/drivers/lib/src/plic.c:97
    176c:	000007b7          	lui	a5,0x0
    1770:	15878793          	addi	a5,a5,344 # 158 <_AES_VMA_END>
entry_irq33():
E:/promotion/gitlab/opensdk/Mars_B91/telink_mars_b91_driver_sdk_v2.2.0/demo/vendor/common/B91/plic_isr.c:486
    1774:	c632                	c.swsp	a2,12(sp)
    1776:	c436                	c.swsp	a3,8(sp)
    1778:	c23a                	c.swsp	a4,4(sp)
plic_isr():
C:/Users/Admin/Desktop/test1/telink_b91m_driver_src/chip/B91/drivers/lib/src/plic.c:97
    177a:	03c78783          	lb	a5,60(a5)
    177e:	0ff7f793          	andi	a5,a5,255
    1782:	ef89                	c.bnez	a5,179c <entry_irq33+0x34>
plic_interrupt_complete():
C:\Users\Admin\Desktop\test1\telink_b91m_driver_src\chip\B91\drivers/lib/include/plic.h:281
    1784:	e42007b7          	lui	a5,0xe4200
    1788:	02100713          	li	a4,33
    178c:	c3d8                	c.sw	a4,4(a5)
entry_irq33():
E:/promotion/gitlab/opensdk/Mars_B91/telink_mars_b91_driver_sdk_v2.2.0/demo/vendor/common/B91/plic_isr.c:488
}
    178e:	4632                	c.lwsp	a2,12(sp)
    1790:	46a2                	c.lwsp	a3,8(sp)
    1792:	4712                	c.lwsp	a4,4(sp)
    1794:	4782                	c.lwsp	a5,0(sp)
    1796:	0141                	c.addi	sp,16
    1798:	30200073          	mret
plic_isr():
C:/Users/Admin/Desktop/test1/telink_b91m_driver_src/chip/B91/drivers/lib/src/plic.c:99
    179c:	34102773          	csrr	a4,mepc
    17a0:	300026f3          	csrr	a3,mstatus
    17a4:	7c4027f3          	csrr	a5,mxstatus
    17a8:	30046673          	csrrsi	a2,mstatus,8
C:/Users/Admin/Desktop/test1/telink_b91m_driver_src/chip/B91/drivers/lib/src/plic.c:101
    17ac:	30047673          	csrrci	a2,mstatus,8
    17b0:	30069073          	csrw	mstatus,a3
    17b4:	34171073          	csrw	mepc,a4
    17b8:	7c479073          	csrw	mxstatus,a5
plic_interrupt_complete():
C:\Users\Admin\Desktop\test1\telink_b91m_driver_src\chip\B91\drivers/lib/include/plic.h:281
    17bc:	e42007b7          	lui	a5,0xe4200
    17c0:	02100713          	li	a4,33
    17c4:	c3d8                	c.sw	a4,4(a5)
plic_isr():
C:/Users/Admin/Desktop/test1/telink_b91m_driver_src/chip/B91/drivers/lib/src/plic.c:103
    17c6:	0ff0000f          	fence
entry_irq33():
E:/promotion/gitlab/opensdk/Mars_B91/telink_mars_b91_driver_sdk_v2.2.0/demo/vendor/common/B91/plic_isr.c:488
    17ca:	4632                	c.lwsp	a2,12(sp)
    17cc:	46a2                	c.lwsp	a3,8(sp)
    17ce:	4712                	c.lwsp	a4,4(sp)
    17d0:	4782                	c.lwsp	a5,0(sp)
    17d2:	0141                	c.addi	sp,16
    17d4:	30200073          	mret

000017d8 <entry_irq32>:
entry_irq32():
E:/promotion/gitlab/opensdk/Mars_B91/telink_mars_b91_driver_sdk_v2.2.0/demo/vendor/common/B91/plic_isr.c:476
{
    17d8:	1141                	c.addi	sp,-16
    17da:	c03e                	c.swsp	a5,0(sp)
plic_isr():
C:/Users/Admin/Desktop/test1/telink_b91m_driver_src/chip/B91/drivers/lib/src/plic.c:97
    17dc:	000007b7          	lui	a5,0x0
    17e0:	15878793          	addi	a5,a5,344 # 158 <_AES_VMA_END>
entry_irq32():
E:/promotion/gitlab/opensdk/Mars_B91/telink_mars_b91_driver_sdk_v2.2.0/demo/vendor/common/B91/plic_isr.c:476
    17e4:	c632                	c.swsp	a2,12(sp)
    17e6:	c436                	c.swsp	a3,8(sp)
    17e8:	c23a                	c.swsp	a4,4(sp)
plic_isr():
C:/Users/Admin/Desktop/test1/telink_b91m_driver_src/chip/B91/drivers/lib/src/plic.c:97
    17ea:	03c78783          	lb	a5,60(a5)
    17ee:	0ff7f793          	andi	a5,a5,255
    17f2:	ef89                	c.bnez	a5,180c <entry_irq32+0x34>
plic_interrupt_complete():
C:\Users\Admin\Desktop\test1\telink_b91m_driver_src\chip\B91\drivers/lib/include/plic.h:281
    17f4:	e42007b7          	lui	a5,0xe4200
    17f8:	02000713          	li	a4,32
    17fc:	c3d8                	c.sw	a4,4(a5)
entry_irq32():
E:/promotion/gitlab/opensdk/Mars_B91/telink_mars_b91_driver_sdk_v2.2.0/demo/vendor/common/B91/plic_isr.c:478
}
    17fe:	4632                	c.lwsp	a2,12(sp)
    1800:	46a2                	c.lwsp	a3,8(sp)
    1802:	4712                	c.lwsp	a4,4(sp)
    1804:	4782                	c.lwsp	a5,0(sp)
    1806:	0141                	c.addi	sp,16
    1808:	30200073          	mret
plic_isr():
C:/Users/Admin/Desktop/test1/telink_b91m_driver_src/chip/B91/drivers/lib/src/plic.c:99
    180c:	34102773          	csrr	a4,mepc
    1810:	300026f3          	csrr	a3,mstatus
    1814:	7c4027f3          	csrr	a5,mxstatus
    1818:	30046673          	csrrsi	a2,mstatus,8
C:/Users/Admin/Desktop/test1/telink_b91m_driver_src/chip/B91/drivers/lib/src/plic.c:101
    181c:	30047673          	csrrci	a2,mstatus,8
    1820:	30069073          	csrw	mstatus,a3
    1824:	34171073          	csrw	mepc,a4
    1828:	7c479073          	csrw	mxstatus,a5
plic_interrupt_complete():
C:\Users\Admin\Desktop\test1\telink_b91m_driver_src\chip\B91\drivers/lib/include/plic.h:281
    182c:	e42007b7          	lui	a5,0xe4200
    1830:	02000713          	li	a4,32
    1834:	c3d8                	c.sw	a4,4(a5)
plic_isr():
C:/Users/Admin/Desktop/test1/telink_b91m_driver_src/chip/B91/drivers/lib/src/plic.c:103
    1836:	0ff0000f          	fence
entry_irq32():
E:/promotion/gitlab/opensdk/Mars_B91/telink_mars_b91_driver_sdk_v2.2.0/demo/vendor/common/B91/plic_isr.c:478
    183a:	4632                	c.lwsp	a2,12(sp)
    183c:	46a2                	c.lwsp	a3,8(sp)
    183e:	4712                	c.lwsp	a4,4(sp)
    1840:	4782                	c.lwsp	a5,0(sp)
    1842:	0141                	c.addi	sp,16
    1844:	30200073          	mret

00001848 <entry_irq31>:
entry_irq31():
E:/promotion/gitlab/opensdk/Mars_B91/telink_mars_b91_driver_sdk_v2.2.0/demo/vendor/common/B91/plic_isr.c:467
{
    1848:	1141                	c.addi	sp,-16
    184a:	c03e                	c.swsp	a5,0(sp)
plic_isr():
C:/Users/Admin/Desktop/test1/telink_b91m_driver_src/chip/B91/drivers/lib/src/plic.c:97
    184c:	000007b7          	lui	a5,0x0
    1850:	15878793          	addi	a5,a5,344 # 158 <_AES_VMA_END>
entry_irq31():
E:/promotion/gitlab/opensdk/Mars_B91/telink_mars_b91_driver_sdk_v2.2.0/demo/vendor/common/B91/plic_isr.c:467
    1854:	c632                	c.swsp	a2,12(sp)
    1856:	c436                	c.swsp	a3,8(sp)
    1858:	c23a                	c.swsp	a4,4(sp)
plic_isr():
C:/Users/Admin/Desktop/test1/telink_b91m_driver_src/chip/B91/drivers/lib/src/plic.c:97
    185a:	03c78783          	lb	a5,60(a5)
    185e:	0ff7f793          	andi	a5,a5,255
    1862:	ef89                	c.bnez	a5,187c <entry_irq31+0x34>
plic_interrupt_complete():
C:\Users\Admin\Desktop\test1\telink_b91m_driver_src\chip\B91\drivers/lib/include/plic.h:281
    1864:	e42007b7          	lui	a5,0xe4200
    1868:	477d                	c.li	a4,31
    186a:	c3d8                	c.sw	a4,4(a5)
entry_irq31():
E:/promotion/gitlab/opensdk/Mars_B91/telink_mars_b91_driver_sdk_v2.2.0/demo/vendor/common/B91/plic_isr.c:469
}
    186c:	4632                	c.lwsp	a2,12(sp)
    186e:	46a2                	c.lwsp	a3,8(sp)
    1870:	4712                	c.lwsp	a4,4(sp)
    1872:	4782                	c.lwsp	a5,0(sp)
    1874:	01010113          	addi	sp,sp,16
    1878:	30200073          	mret
plic_isr():
C:/Users/Admin/Desktop/test1/telink_b91m_driver_src/chip/B91/drivers/lib/src/plic.c:99
    187c:	34102773          	csrr	a4,mepc
    1880:	300026f3          	csrr	a3,mstatus
    1884:	7c4027f3          	csrr	a5,mxstatus
    1888:	30046673          	csrrsi	a2,mstatus,8
C:/Users/Admin/Desktop/test1/telink_b91m_driver_src/chip/B91/drivers/lib/src/plic.c:101
    188c:	30047673          	csrrci	a2,mstatus,8
    1890:	30069073          	csrw	mstatus,a3
    1894:	34171073          	csrw	mepc,a4
    1898:	7c479073          	csrw	mxstatus,a5
plic_interrupt_complete():
C:\Users\Admin\Desktop\test1\telink_b91m_driver_src\chip\B91\drivers/lib/include/plic.h:281
    189c:	e42007b7          	lui	a5,0xe4200
    18a0:	477d                	c.li	a4,31
    18a2:	c3d8                	c.sw	a4,4(a5)
plic_isr():
C:/Users/Admin/Desktop/test1/telink_b91m_driver_src/chip/B91/drivers/lib/src/plic.c:103
    18a4:	0ff0000f          	fence
entry_irq31():
E:/promotion/gitlab/opensdk/Mars_B91/telink_mars_b91_driver_sdk_v2.2.0/demo/vendor/common/B91/plic_isr.c:469
    18a8:	4632                	c.lwsp	a2,12(sp)
    18aa:	46a2                	c.lwsp	a3,8(sp)
    18ac:	4712                	c.lwsp	a4,4(sp)
    18ae:	4782                	c.lwsp	a5,0(sp)
    18b0:	01010113          	addi	sp,sp,16
    18b4:	30200073          	mret

000018b8 <entry_irq30>:
entry_irq30():
E:/promotion/gitlab/opensdk/Mars_B91/telink_mars_b91_driver_sdk_v2.2.0/demo/vendor/common/B91/plic_isr.c:458
{
    18b8:	1141                	c.addi	sp,-16
    18ba:	c03e                	c.swsp	a5,0(sp)
plic_isr():
C:/Users/Admin/Desktop/test1/telink_b91m_driver_src/chip/B91/drivers/lib/src/plic.c:97
    18bc:	000007b7          	lui	a5,0x0
    18c0:	15878793          	addi	a5,a5,344 # 158 <_AES_VMA_END>
entry_irq30():
E:/promotion/gitlab/opensdk/Mars_B91/telink_mars_b91_driver_sdk_v2.2.0/demo/vendor/common/B91/plic_isr.c:458
    18c4:	c632                	c.swsp	a2,12(sp)
    18c6:	c436                	c.swsp	a3,8(sp)
    18c8:	c23a                	c.swsp	a4,4(sp)
plic_isr():
C:/Users/Admin/Desktop/test1/telink_b91m_driver_src/chip/B91/drivers/lib/src/plic.c:97
    18ca:	03c78783          	lb	a5,60(a5)
    18ce:	0ff7f793          	andi	a5,a5,255
    18d2:	ef89                	c.bnez	a5,18ec <entry_irq30+0x34>
plic_interrupt_complete():
C:\Users\Admin\Desktop\test1\telink_b91m_driver_src\chip\B91\drivers/lib/include/plic.h:281
    18d4:	e42007b7          	lui	a5,0xe4200
    18d8:	4779                	c.li	a4,30
    18da:	c3d8                	c.sw	a4,4(a5)
entry_irq30():
E:/promotion/gitlab/opensdk/Mars_B91/telink_mars_b91_driver_sdk_v2.2.0/demo/vendor/common/B91/plic_isr.c:460
}
    18dc:	4632                	c.lwsp	a2,12(sp)
    18de:	46a2                	c.lwsp	a3,8(sp)
    18e0:	4712                	c.lwsp	a4,4(sp)
    18e2:	4782                	c.lwsp	a5,0(sp)
    18e4:	01010113          	addi	sp,sp,16
    18e8:	30200073          	mret
plic_isr():
C:/Users/Admin/Desktop/test1/telink_b91m_driver_src/chip/B91/drivers/lib/src/plic.c:99
    18ec:	34102773          	csrr	a4,mepc
    18f0:	300026f3          	csrr	a3,mstatus
    18f4:	7c4027f3          	csrr	a5,mxstatus
    18f8:	30046673          	csrrsi	a2,mstatus,8
C:/Users/Admin/Desktop/test1/telink_b91m_driver_src/chip/B91/drivers/lib/src/plic.c:101
    18fc:	30047673          	csrrci	a2,mstatus,8
    1900:	30069073          	csrw	mstatus,a3
    1904:	34171073          	csrw	mepc,a4
    1908:	7c479073          	csrw	mxstatus,a5
plic_interrupt_complete():
C:\Users\Admin\Desktop\test1\telink_b91m_driver_src\chip\B91\drivers/lib/include/plic.h:281
    190c:	e42007b7          	lui	a5,0xe4200
    1910:	4779                	c.li	a4,30
    1912:	c3d8                	c.sw	a4,4(a5)
plic_isr():
C:/Users/Admin/Desktop/test1/telink_b91m_driver_src/chip/B91/drivers/lib/src/plic.c:103
    1914:	0ff0000f          	fence
entry_irq30():
E:/promotion/gitlab/opensdk/Mars_B91/telink_mars_b91_driver_sdk_v2.2.0/demo/vendor/common/B91/plic_isr.c:460
    1918:	4632                	c.lwsp	a2,12(sp)
    191a:	46a2                	c.lwsp	a3,8(sp)
    191c:	4712                	c.lwsp	a4,4(sp)
    191e:	4782                	c.lwsp	a5,0(sp)
    1920:	01010113          	addi	sp,sp,16
    1924:	30200073          	mret

00001928 <entry_irq29>:
entry_irq29():
E:/promotion/gitlab/opensdk/Mars_B91/telink_mars_b91_driver_sdk_v2.2.0/demo/vendor/common/B91/plic_isr.c:449
{
    1928:	1141                	c.addi	sp,-16
    192a:	c03e                	c.swsp	a5,0(sp)
plic_isr():
C:/Users/Admin/Desktop/test1/telink_b91m_driver_src/chip/B91/drivers/lib/src/plic.c:97
    192c:	000007b7          	lui	a5,0x0
    1930:	15878793          	addi	a5,a5,344 # 158 <_AES_VMA_END>
entry_irq29():
E:/promotion/gitlab/opensdk/Mars_B91/telink_mars_b91_driver_sdk_v2.2.0/demo/vendor/common/B91/plic_isr.c:449
    1934:	c632                	c.swsp	a2,12(sp)
    1936:	c436                	c.swsp	a3,8(sp)
    1938:	c23a                	c.swsp	a4,4(sp)
plic_isr():
C:/Users/Admin/Desktop/test1/telink_b91m_driver_src/chip/B91/drivers/lib/src/plic.c:97
    193a:	03c78783          	lb	a5,60(a5)
    193e:	0ff7f793          	andi	a5,a5,255
    1942:	ef89                	c.bnez	a5,195c <entry_irq29+0x34>
plic_interrupt_complete():
C:\Users\Admin\Desktop\test1\telink_b91m_driver_src\chip\B91\drivers/lib/include/plic.h:281
    1944:	e42007b7          	lui	a5,0xe4200
    1948:	4775                	c.li	a4,29
    194a:	c3d8                	c.sw	a4,4(a5)
entry_irq29():
E:/promotion/gitlab/opensdk/Mars_B91/telink_mars_b91_driver_sdk_v2.2.0/demo/vendor/common/B91/plic_isr.c:451
}
    194c:	4632                	c.lwsp	a2,12(sp)
    194e:	46a2                	c.lwsp	a3,8(sp)
    1950:	4712                	c.lwsp	a4,4(sp)
    1952:	4782                	c.lwsp	a5,0(sp)
    1954:	01010113          	addi	sp,sp,16
    1958:	30200073          	mret
plic_isr():
C:/Users/Admin/Desktop/test1/telink_b91m_driver_src/chip/B91/drivers/lib/src/plic.c:99
    195c:	34102773          	csrr	a4,mepc
    1960:	300026f3          	csrr	a3,mstatus
    1964:	7c4027f3          	csrr	a5,mxstatus
    1968:	30046673          	csrrsi	a2,mstatus,8
C:/Users/Admin/Desktop/test1/telink_b91m_driver_src/chip/B91/drivers/lib/src/plic.c:101
    196c:	30047673          	csrrci	a2,mstatus,8
    1970:	30069073          	csrw	mstatus,a3
    1974:	34171073          	csrw	mepc,a4
    1978:	7c479073          	csrw	mxstatus,a5
plic_interrupt_complete():
C:\Users\Admin\Desktop\test1\telink_b91m_driver_src\chip\B91\drivers/lib/include/plic.h:281
    197c:	e42007b7          	lui	a5,0xe4200
    1980:	4775                	c.li	a4,29
    1982:	c3d8                	c.sw	a4,4(a5)
plic_isr():
C:/Users/Admin/Desktop/test1/telink_b91m_driver_src/chip/B91/drivers/lib/src/plic.c:103
    1984:	0ff0000f          	fence
entry_irq29():
E:/promotion/gitlab/opensdk/Mars_B91/telink_mars_b91_driver_sdk_v2.2.0/demo/vendor/common/B91/plic_isr.c:451
    1988:	4632                	c.lwsp	a2,12(sp)
    198a:	46a2                	c.lwsp	a3,8(sp)
    198c:	4712                	c.lwsp	a4,4(sp)
    198e:	4782                	c.lwsp	a5,0(sp)
    1990:	01010113          	addi	sp,sp,16
    1994:	30200073          	mret

00001998 <entry_irq28>:
entry_irq28():
E:/promotion/gitlab/opensdk/Mars_B91/telink_mars_b91_driver_sdk_v2.2.0/demo/vendor/common/B91/plic_isr.c:438
{
    1998:	1141                	c.addi	sp,-16
    199a:	c03e                	c.swsp	a5,0(sp)
plic_isr():
C:/Users/Admin/Desktop/test1/telink_b91m_driver_src/chip/B91/drivers/lib/src/plic.c:97
    199c:	000007b7          	lui	a5,0x0
    19a0:	15878793          	addi	a5,a5,344 # 158 <_AES_VMA_END>
entry_irq28():
E:/promotion/gitlab/opensdk/Mars_B91/telink_mars_b91_driver_sdk_v2.2.0/demo/vendor/common/B91/plic_isr.c:438
    19a4:	c632                	c.swsp	a2,12(sp)
    19a6:	c436                	c.swsp	a3,8(sp)
    19a8:	c23a                	c.swsp	a4,4(sp)
plic_isr():
C:/Users/Admin/Desktop/test1/telink_b91m_driver_src/chip/B91/drivers/lib/src/plic.c:97
    19aa:	03c78783          	lb	a5,60(a5)
    19ae:	0ff7f793          	andi	a5,a5,255
    19b2:	ef89                	c.bnez	a5,19cc <entry_irq28+0x34>
plic_interrupt_complete():
C:\Users\Admin\Desktop\test1\telink_b91m_driver_src\chip\B91\drivers/lib/include/plic.h:281
    19b4:	e42007b7          	lui	a5,0xe4200
    19b8:	4771                	c.li	a4,28
    19ba:	c3d8                	c.sw	a4,4(a5)
entry_irq28():
E:/promotion/gitlab/opensdk/Mars_B91/telink_mars_b91_driver_sdk_v2.2.0/demo/vendor/common/B91/plic_isr.c:440
}
    19bc:	4632                	c.lwsp	a2,12(sp)
    19be:	46a2                	c.lwsp	a3,8(sp)
    19c0:	4712                	c.lwsp	a4,4(sp)
    19c2:	4782                	c.lwsp	a5,0(sp)
    19c4:	01010113          	addi	sp,sp,16
    19c8:	30200073          	mret
plic_isr():
C:/Users/Admin/Desktop/test1/telink_b91m_driver_src/chip/B91/drivers/lib/src/plic.c:99
    19cc:	34102773          	csrr	a4,mepc
    19d0:	300026f3          	csrr	a3,mstatus
    19d4:	7c4027f3          	csrr	a5,mxstatus
    19d8:	30046673          	csrrsi	a2,mstatus,8
C:/Users/Admin/Desktop/test1/telink_b91m_driver_src/chip/B91/drivers/lib/src/plic.c:101
    19dc:	30047673          	csrrci	a2,mstatus,8
    19e0:	30069073          	csrw	mstatus,a3
    19e4:	34171073          	csrw	mepc,a4
    19e8:	7c479073          	csrw	mxstatus,a5
plic_interrupt_complete():
C:\Users\Admin\Desktop\test1\telink_b91m_driver_src\chip\B91\drivers/lib/include/plic.h:281
    19ec:	e42007b7          	lui	a5,0xe4200
    19f0:	4771                	c.li	a4,28
    19f2:	c3d8                	c.sw	a4,4(a5)
plic_isr():
C:/Users/Admin/Desktop/test1/telink_b91m_driver_src/chip/B91/drivers/lib/src/plic.c:103
    19f4:	0ff0000f          	fence
entry_irq28():
E:/promotion/gitlab/opensdk/Mars_B91/telink_mars_b91_driver_sdk_v2.2.0/demo/vendor/common/B91/plic_isr.c:440
    19f8:	4632                	c.lwsp	a2,12(sp)
    19fa:	46a2                	c.lwsp	a3,8(sp)
    19fc:	4712                	c.lwsp	a4,4(sp)
    19fe:	4782                	c.lwsp	a5,0(sp)
    1a00:	01010113          	addi	sp,sp,16
    1a04:	30200073          	mret

00001a08 <entry_irq27>:
entry_irq27():
E:/promotion/gitlab/opensdk/Mars_B91/telink_mars_b91_driver_sdk_v2.2.0/demo/vendor/common/B91/plic_isr.c:428
{
    1a08:	1141                	c.addi	sp,-16
    1a0a:	c03e                	c.swsp	a5,0(sp)
plic_isr():
C:/Users/Admin/Desktop/test1/telink_b91m_driver_src/chip/B91/drivers/lib/src/plic.c:97
    1a0c:	000007b7          	lui	a5,0x0
    1a10:	15878793          	addi	a5,a5,344 # 158 <_AES_VMA_END>
entry_irq27():
E:/promotion/gitlab/opensdk/Mars_B91/telink_mars_b91_driver_sdk_v2.2.0/demo/vendor/common/B91/plic_isr.c:428
    1a14:	c632                	c.swsp	a2,12(sp)
    1a16:	c436                	c.swsp	a3,8(sp)
    1a18:	c23a                	c.swsp	a4,4(sp)
plic_isr():
C:/Users/Admin/Desktop/test1/telink_b91m_driver_src/chip/B91/drivers/lib/src/plic.c:97
    1a1a:	03c78783          	lb	a5,60(a5)
    1a1e:	0ff7f793          	andi	a5,a5,255
    1a22:	ef89                	c.bnez	a5,1a3c <entry_irq27+0x34>
plic_interrupt_complete():
C:\Users\Admin\Desktop\test1\telink_b91m_driver_src\chip\B91\drivers/lib/include/plic.h:281
    1a24:	e42007b7          	lui	a5,0xe4200
    1a28:	476d                	c.li	a4,27
    1a2a:	c3d8                	c.sw	a4,4(a5)
entry_irq27():
E:/promotion/gitlab/opensdk/Mars_B91/telink_mars_b91_driver_sdk_v2.2.0/demo/vendor/common/B91/plic_isr.c:430
}
    1a2c:	4632                	c.lwsp	a2,12(sp)
    1a2e:	46a2                	c.lwsp	a3,8(sp)
    1a30:	4712                	c.lwsp	a4,4(sp)
    1a32:	4782                	c.lwsp	a5,0(sp)
    1a34:	01010113          	addi	sp,sp,16
    1a38:	30200073          	mret
plic_isr():
C:/Users/Admin/Desktop/test1/telink_b91m_driver_src/chip/B91/drivers/lib/src/plic.c:99
    1a3c:	34102773          	csrr	a4,mepc
    1a40:	300026f3          	csrr	a3,mstatus
    1a44:	7c4027f3          	csrr	a5,mxstatus
    1a48:	30046673          	csrrsi	a2,mstatus,8
C:/Users/Admin/Desktop/test1/telink_b91m_driver_src/chip/B91/drivers/lib/src/plic.c:101
    1a4c:	30047673          	csrrci	a2,mstatus,8
    1a50:	30069073          	csrw	mstatus,a3
    1a54:	34171073          	csrw	mepc,a4
    1a58:	7c479073          	csrw	mxstatus,a5
plic_interrupt_complete():
C:\Users\Admin\Desktop\test1\telink_b91m_driver_src\chip\B91\drivers/lib/include/plic.h:281
    1a5c:	e42007b7          	lui	a5,0xe4200
    1a60:	476d                	c.li	a4,27
    1a62:	c3d8                	c.sw	a4,4(a5)
plic_isr():
C:/Users/Admin/Desktop/test1/telink_b91m_driver_src/chip/B91/drivers/lib/src/plic.c:103
    1a64:	0ff0000f          	fence
entry_irq27():
E:/promotion/gitlab/opensdk/Mars_B91/telink_mars_b91_driver_sdk_v2.2.0/demo/vendor/common/B91/plic_isr.c:430
    1a68:	4632                	c.lwsp	a2,12(sp)
    1a6a:	46a2                	c.lwsp	a3,8(sp)
    1a6c:	4712                	c.lwsp	a4,4(sp)
    1a6e:	4782                	c.lwsp	a5,0(sp)
    1a70:	01010113          	addi	sp,sp,16
    1a74:	30200073          	mret

00001a78 <entry_irq26>:
entry_irq26():
E:/promotion/gitlab/opensdk/Mars_B91/telink_mars_b91_driver_sdk_v2.2.0/demo/vendor/common/B91/plic_isr.c:417
{
    1a78:	1141                	c.addi	sp,-16
    1a7a:	c03e                	c.swsp	a5,0(sp)
plic_isr():
C:/Users/Admin/Desktop/test1/telink_b91m_driver_src/chip/B91/drivers/lib/src/plic.c:97
    1a7c:	000007b7          	lui	a5,0x0
    1a80:	15878793          	addi	a5,a5,344 # 158 <_AES_VMA_END>
entry_irq26():
E:/promotion/gitlab/opensdk/Mars_B91/telink_mars_b91_driver_sdk_v2.2.0/demo/vendor/common/B91/plic_isr.c:417
    1a84:	c632                	c.swsp	a2,12(sp)
    1a86:	c436                	c.swsp	a3,8(sp)
    1a88:	c23a                	c.swsp	a4,4(sp)
plic_isr():
C:/Users/Admin/Desktop/test1/telink_b91m_driver_src/chip/B91/drivers/lib/src/plic.c:97
    1a8a:	03c78783          	lb	a5,60(a5)
    1a8e:	0ff7f793          	andi	a5,a5,255
    1a92:	ef89                	c.bnez	a5,1aac <entry_irq26+0x34>
plic_interrupt_complete():
C:\Users\Admin\Desktop\test1\telink_b91m_driver_src\chip\B91\drivers/lib/include/plic.h:281
    1a94:	e42007b7          	lui	a5,0xe4200
    1a98:	4769                	c.li	a4,26
    1a9a:	c3d8                	c.sw	a4,4(a5)
entry_irq26():
E:/promotion/gitlab/opensdk/Mars_B91/telink_mars_b91_driver_sdk_v2.2.0/demo/vendor/common/B91/plic_isr.c:419
}
    1a9c:	4632                	c.lwsp	a2,12(sp)
    1a9e:	46a2                	c.lwsp	a3,8(sp)
    1aa0:	4712                	c.lwsp	a4,4(sp)
    1aa2:	4782                	c.lwsp	a5,0(sp)
    1aa4:	01010113          	addi	sp,sp,16
    1aa8:	30200073          	mret
plic_isr():
C:/Users/Admin/Desktop/test1/telink_b91m_driver_src/chip/B91/drivers/lib/src/plic.c:99
    1aac:	34102773          	csrr	a4,mepc
    1ab0:	300026f3          	csrr	a3,mstatus
    1ab4:	7c4027f3          	csrr	a5,mxstatus
    1ab8:	30046673          	csrrsi	a2,mstatus,8
C:/Users/Admin/Desktop/test1/telink_b91m_driver_src/chip/B91/drivers/lib/src/plic.c:101
    1abc:	30047673          	csrrci	a2,mstatus,8
    1ac0:	30069073          	csrw	mstatus,a3
    1ac4:	34171073          	csrw	mepc,a4
    1ac8:	7c479073          	csrw	mxstatus,a5
plic_interrupt_complete():
C:\Users\Admin\Desktop\test1\telink_b91m_driver_src\chip\B91\drivers/lib/include/plic.h:281
    1acc:	e42007b7          	lui	a5,0xe4200
    1ad0:	4769                	c.li	a4,26
    1ad2:	c3d8                	c.sw	a4,4(a5)
plic_isr():
C:/Users/Admin/Desktop/test1/telink_b91m_driver_src/chip/B91/drivers/lib/src/plic.c:103
    1ad4:	0ff0000f          	fence
entry_irq26():
E:/promotion/gitlab/opensdk/Mars_B91/telink_mars_b91_driver_sdk_v2.2.0/demo/vendor/common/B91/plic_isr.c:419
    1ad8:	4632                	c.lwsp	a2,12(sp)
    1ada:	46a2                	c.lwsp	a3,8(sp)
    1adc:	4712                	c.lwsp	a4,4(sp)
    1ade:	4782                	c.lwsp	a5,0(sp)
    1ae0:	01010113          	addi	sp,sp,16
    1ae4:	30200073          	mret

00001ae8 <entry_irq25>:
entry_irq25():
E:/promotion/gitlab/opensdk/Mars_B91/telink_mars_b91_driver_sdk_v2.2.0/demo/vendor/common/B91/plic_isr.c:407
{
    1ae8:	1141                	c.addi	sp,-16
    1aea:	c03e                	c.swsp	a5,0(sp)
plic_isr():
C:/Users/Admin/Desktop/test1/telink_b91m_driver_src/chip/B91/drivers/lib/src/plic.c:97
    1aec:	000007b7          	lui	a5,0x0
    1af0:	15878793          	addi	a5,a5,344 # 158 <_AES_VMA_END>
entry_irq25():
E:/promotion/gitlab/opensdk/Mars_B91/telink_mars_b91_driver_sdk_v2.2.0/demo/vendor/common/B91/plic_isr.c:407
    1af4:	c632                	c.swsp	a2,12(sp)
    1af6:	c436                	c.swsp	a3,8(sp)
    1af8:	c23a                	c.swsp	a4,4(sp)
plic_isr():
C:/Users/Admin/Desktop/test1/telink_b91m_driver_src/chip/B91/drivers/lib/src/plic.c:97
    1afa:	03c78783          	lb	a5,60(a5)
    1afe:	0ff7f793          	andi	a5,a5,255
    1b02:	ef89                	c.bnez	a5,1b1c <entry_irq25+0x34>
plic_interrupt_complete():
C:\Users\Admin\Desktop\test1\telink_b91m_driver_src\chip\B91\drivers/lib/include/plic.h:281
    1b04:	e42007b7          	lui	a5,0xe4200
    1b08:	4765                	c.li	a4,25
    1b0a:	c3d8                	c.sw	a4,4(a5)
entry_irq25():
E:/promotion/gitlab/opensdk/Mars_B91/telink_mars_b91_driver_sdk_v2.2.0/demo/vendor/common/B91/plic_isr.c:409
}
    1b0c:	4632                	c.lwsp	a2,12(sp)
    1b0e:	46a2                	c.lwsp	a3,8(sp)
    1b10:	4712                	c.lwsp	a4,4(sp)
    1b12:	4782                	c.lwsp	a5,0(sp)
    1b14:	01010113          	addi	sp,sp,16
    1b18:	30200073          	mret
plic_isr():
C:/Users/Admin/Desktop/test1/telink_b91m_driver_src/chip/B91/drivers/lib/src/plic.c:99
    1b1c:	34102773          	csrr	a4,mepc
    1b20:	300026f3          	csrr	a3,mstatus
    1b24:	7c4027f3          	csrr	a5,mxstatus
    1b28:	30046673          	csrrsi	a2,mstatus,8
C:/Users/Admin/Desktop/test1/telink_b91m_driver_src/chip/B91/drivers/lib/src/plic.c:101
    1b2c:	30047673          	csrrci	a2,mstatus,8
    1b30:	30069073          	csrw	mstatus,a3
    1b34:	34171073          	csrw	mepc,a4
    1b38:	7c479073          	csrw	mxstatus,a5
plic_interrupt_complete():
C:\Users\Admin\Desktop\test1\telink_b91m_driver_src\chip\B91\drivers/lib/include/plic.h:281
    1b3c:	e42007b7          	lui	a5,0xe4200
    1b40:	4765                	c.li	a4,25
    1b42:	c3d8                	c.sw	a4,4(a5)
plic_isr():
C:/Users/Admin/Desktop/test1/telink_b91m_driver_src/chip/B91/drivers/lib/src/plic.c:103
    1b44:	0ff0000f          	fence
entry_irq25():
E:/promotion/gitlab/opensdk/Mars_B91/telink_mars_b91_driver_sdk_v2.2.0/demo/vendor/common/B91/plic_isr.c:409
    1b48:	4632                	c.lwsp	a2,12(sp)
    1b4a:	46a2                	c.lwsp	a3,8(sp)
    1b4c:	4712                	c.lwsp	a4,4(sp)
    1b4e:	4782                	c.lwsp	a5,0(sp)
    1b50:	01010113          	addi	sp,sp,16
    1b54:	30200073          	mret

00001b58 <entry_irq24>:
entry_irq24():
E:/promotion/gitlab/opensdk/Mars_B91/telink_mars_b91_driver_sdk_v2.2.0/demo/vendor/common/B91/plic_isr.c:397
{
    1b58:	1141                	c.addi	sp,-16
    1b5a:	c03e                	c.swsp	a5,0(sp)
plic_isr():
C:/Users/Admin/Desktop/test1/telink_b91m_driver_src/chip/B91/drivers/lib/src/plic.c:97
    1b5c:	000007b7          	lui	a5,0x0
    1b60:	15878793          	addi	a5,a5,344 # 158 <_AES_VMA_END>
entry_irq24():
E:/promotion/gitlab/opensdk/Mars_B91/telink_mars_b91_driver_sdk_v2.2.0/demo/vendor/common/B91/plic_isr.c:397
    1b64:	c632                	c.swsp	a2,12(sp)
    1b66:	c436                	c.swsp	a3,8(sp)
    1b68:	c23a                	c.swsp	a4,4(sp)
plic_isr():
C:/Users/Admin/Desktop/test1/telink_b91m_driver_src/chip/B91/drivers/lib/src/plic.c:97
    1b6a:	03c78783          	lb	a5,60(a5)
    1b6e:	0ff7f793          	andi	a5,a5,255
    1b72:	ef89                	c.bnez	a5,1b8c <entry_irq24+0x34>
plic_interrupt_complete():
C:\Users\Admin\Desktop\test1\telink_b91m_driver_src\chip\B91\drivers/lib/include/plic.h:281
    1b74:	e42007b7          	lui	a5,0xe4200
    1b78:	4761                	c.li	a4,24
    1b7a:	c3d8                	c.sw	a4,4(a5)
entry_irq24():
E:/promotion/gitlab/opensdk/Mars_B91/telink_mars_b91_driver_sdk_v2.2.0/demo/vendor/common/B91/plic_isr.c:399
}
    1b7c:	4632                	c.lwsp	a2,12(sp)
    1b7e:	46a2                	c.lwsp	a3,8(sp)
    1b80:	4712                	c.lwsp	a4,4(sp)
    1b82:	4782                	c.lwsp	a5,0(sp)
    1b84:	01010113          	addi	sp,sp,16
    1b88:	30200073          	mret
plic_isr():
C:/Users/Admin/Desktop/test1/telink_b91m_driver_src/chip/B91/drivers/lib/src/plic.c:99
    1b8c:	34102773          	csrr	a4,mepc
    1b90:	300026f3          	csrr	a3,mstatus
    1b94:	7c4027f3          	csrr	a5,mxstatus
    1b98:	30046673          	csrrsi	a2,mstatus,8
C:/Users/Admin/Desktop/test1/telink_b91m_driver_src/chip/B91/drivers/lib/src/plic.c:101
    1b9c:	30047673          	csrrci	a2,mstatus,8
    1ba0:	30069073          	csrw	mstatus,a3
    1ba4:	34171073          	csrw	mepc,a4
    1ba8:	7c479073          	csrw	mxstatus,a5
plic_interrupt_complete():
C:\Users\Admin\Desktop\test1\telink_b91m_driver_src\chip\B91\drivers/lib/include/plic.h:281
    1bac:	e42007b7          	lui	a5,0xe4200
    1bb0:	4761                	c.li	a4,24
    1bb2:	c3d8                	c.sw	a4,4(a5)
plic_isr():
C:/Users/Admin/Desktop/test1/telink_b91m_driver_src/chip/B91/drivers/lib/src/plic.c:103
    1bb4:	0ff0000f          	fence
entry_irq24():
E:/promotion/gitlab/opensdk/Mars_B91/telink_mars_b91_driver_sdk_v2.2.0/demo/vendor/common/B91/plic_isr.c:399
    1bb8:	4632                	c.lwsp	a2,12(sp)
    1bba:	46a2                	c.lwsp	a3,8(sp)
    1bbc:	4712                	c.lwsp	a4,4(sp)
    1bbe:	4782                	c.lwsp	a5,0(sp)
    1bc0:	01010113          	addi	sp,sp,16
    1bc4:	30200073          	mret

00001bc8 <entry_irq23>:
entry_irq23():
E:/promotion/gitlab/opensdk/Mars_B91/telink_mars_b91_driver_sdk_v2.2.0/demo/vendor/common/B91/plic_isr.c:386
{
    1bc8:	1141                	c.addi	sp,-16
    1bca:	c03e                	c.swsp	a5,0(sp)
plic_isr():
C:/Users/Admin/Desktop/test1/telink_b91m_driver_src/chip/B91/drivers/lib/src/plic.c:97
    1bcc:	000007b7          	lui	a5,0x0
    1bd0:	15878793          	addi	a5,a5,344 # 158 <_AES_VMA_END>
entry_irq23():
E:/promotion/gitlab/opensdk/Mars_B91/telink_mars_b91_driver_sdk_v2.2.0/demo/vendor/common/B91/plic_isr.c:386
    1bd4:	c632                	c.swsp	a2,12(sp)
    1bd6:	c436                	c.swsp	a3,8(sp)
    1bd8:	c23a                	c.swsp	a4,4(sp)
plic_isr():
C:/Users/Admin/Desktop/test1/telink_b91m_driver_src/chip/B91/drivers/lib/src/plic.c:97
    1bda:	03c78783          	lb	a5,60(a5)
    1bde:	0ff7f793          	andi	a5,a5,255
    1be2:	ef89                	c.bnez	a5,1bfc <entry_irq23+0x34>
plic_interrupt_complete():
C:\Users\Admin\Desktop\test1\telink_b91m_driver_src\chip\B91\drivers/lib/include/plic.h:281
    1be4:	e42007b7          	lui	a5,0xe4200
    1be8:	475d                	c.li	a4,23
    1bea:	c3d8                	c.sw	a4,4(a5)
entry_irq23():
E:/promotion/gitlab/opensdk/Mars_B91/telink_mars_b91_driver_sdk_v2.2.0/demo/vendor/common/B91/plic_isr.c:389
}
    1bec:	4632                	c.lwsp	a2,12(sp)
    1bee:	46a2                	c.lwsp	a3,8(sp)
    1bf0:	4712                	c.lwsp	a4,4(sp)
    1bf2:	4782                	c.lwsp	a5,0(sp)
    1bf4:	01010113          	addi	sp,sp,16
    1bf8:	30200073          	mret
plic_isr():
C:/Users/Admin/Desktop/test1/telink_b91m_driver_src/chip/B91/drivers/lib/src/plic.c:99
    1bfc:	34102773          	csrr	a4,mepc
    1c00:	300026f3          	csrr	a3,mstatus
    1c04:	7c4027f3          	csrr	a5,mxstatus
    1c08:	30046673          	csrrsi	a2,mstatus,8
C:/Users/Admin/Desktop/test1/telink_b91m_driver_src/chip/B91/drivers/lib/src/plic.c:101
    1c0c:	30047673          	csrrci	a2,mstatus,8
    1c10:	30069073          	csrw	mstatus,a3
    1c14:	34171073          	csrw	mepc,a4
    1c18:	7c479073          	csrw	mxstatus,a5
plic_interrupt_complete():
C:\Users\Admin\Desktop\test1\telink_b91m_driver_src\chip\B91\drivers/lib/include/plic.h:281
    1c1c:	e42007b7          	lui	a5,0xe4200
    1c20:	475d                	c.li	a4,23
    1c22:	c3d8                	c.sw	a4,4(a5)
plic_isr():
C:/Users/Admin/Desktop/test1/telink_b91m_driver_src/chip/B91/drivers/lib/src/plic.c:103
    1c24:	0ff0000f          	fence
entry_irq23():
E:/promotion/gitlab/opensdk/Mars_B91/telink_mars_b91_driver_sdk_v2.2.0/demo/vendor/common/B91/plic_isr.c:389
    1c28:	4632                	c.lwsp	a2,12(sp)
    1c2a:	46a2                	c.lwsp	a3,8(sp)
    1c2c:	4712                	c.lwsp	a4,4(sp)
    1c2e:	4782                	c.lwsp	a5,0(sp)
    1c30:	01010113          	addi	sp,sp,16
    1c34:	30200073          	mret

00001c38 <entry_irq22>:
entry_irq22():
E:/promotion/gitlab/opensdk/Mars_B91/telink_mars_b91_driver_sdk_v2.2.0/demo/vendor/common/B91/plic_isr.c:375
{
    1c38:	1141                	c.addi	sp,-16
    1c3a:	c03e                	c.swsp	a5,0(sp)
plic_isr():
C:/Users/Admin/Desktop/test1/telink_b91m_driver_src/chip/B91/drivers/lib/src/plic.c:97
    1c3c:	000007b7          	lui	a5,0x0
    1c40:	15878793          	addi	a5,a5,344 # 158 <_AES_VMA_END>
entry_irq22():
E:/promotion/gitlab/opensdk/Mars_B91/telink_mars_b91_driver_sdk_v2.2.0/demo/vendor/common/B91/plic_isr.c:375
    1c44:	c632                	c.swsp	a2,12(sp)
    1c46:	c436                	c.swsp	a3,8(sp)
    1c48:	c23a                	c.swsp	a4,4(sp)
plic_isr():
C:/Users/Admin/Desktop/test1/telink_b91m_driver_src/chip/B91/drivers/lib/src/plic.c:97
    1c4a:	03c78783          	lb	a5,60(a5)
    1c4e:	0ff7f793          	andi	a5,a5,255
    1c52:	ef89                	c.bnez	a5,1c6c <entry_irq22+0x34>
plic_interrupt_complete():
C:\Users\Admin\Desktop\test1\telink_b91m_driver_src\chip\B91\drivers/lib/include/plic.h:281
    1c54:	e42007b7          	lui	a5,0xe4200
    1c58:	4759                	c.li	a4,22
    1c5a:	c3d8                	c.sw	a4,4(a5)
entry_irq22():
E:/promotion/gitlab/opensdk/Mars_B91/telink_mars_b91_driver_sdk_v2.2.0/demo/vendor/common/B91/plic_isr.c:377
}
    1c5c:	4632                	c.lwsp	a2,12(sp)
    1c5e:	46a2                	c.lwsp	a3,8(sp)
    1c60:	4712                	c.lwsp	a4,4(sp)
    1c62:	4782                	c.lwsp	a5,0(sp)
    1c64:	01010113          	addi	sp,sp,16
    1c68:	30200073          	mret
plic_isr():
C:/Users/Admin/Desktop/test1/telink_b91m_driver_src/chip/B91/drivers/lib/src/plic.c:99
    1c6c:	34102773          	csrr	a4,mepc
    1c70:	300026f3          	csrr	a3,mstatus
    1c74:	7c4027f3          	csrr	a5,mxstatus
    1c78:	30046673          	csrrsi	a2,mstatus,8
C:/Users/Admin/Desktop/test1/telink_b91m_driver_src/chip/B91/drivers/lib/src/plic.c:101
    1c7c:	30047673          	csrrci	a2,mstatus,8
    1c80:	30069073          	csrw	mstatus,a3
    1c84:	34171073          	csrw	mepc,a4
    1c88:	7c479073          	csrw	mxstatus,a5
plic_interrupt_complete():
C:\Users\Admin\Desktop\test1\telink_b91m_driver_src\chip\B91\drivers/lib/include/plic.h:281
    1c8c:	e42007b7          	lui	a5,0xe4200
    1c90:	4759                	c.li	a4,22
    1c92:	c3d8                	c.sw	a4,4(a5)
plic_isr():
C:/Users/Admin/Desktop/test1/telink_b91m_driver_src/chip/B91/drivers/lib/src/plic.c:103
    1c94:	0ff0000f          	fence
entry_irq22():
E:/promotion/gitlab/opensdk/Mars_B91/telink_mars_b91_driver_sdk_v2.2.0/demo/vendor/common/B91/plic_isr.c:377
    1c98:	4632                	c.lwsp	a2,12(sp)
    1c9a:	46a2                	c.lwsp	a3,8(sp)
    1c9c:	4712                	c.lwsp	a4,4(sp)
    1c9e:	4782                	c.lwsp	a5,0(sp)
    1ca0:	01010113          	addi	sp,sp,16
    1ca4:	30200073          	mret

00001ca8 <entry_irq21>:
entry_irq21():
E:/promotion/gitlab/opensdk/Mars_B91/telink_mars_b91_driver_sdk_v2.2.0/demo/vendor/common/B91/plic_isr.c:364
{
    1ca8:	1141                	c.addi	sp,-16
    1caa:	c03e                	c.swsp	a5,0(sp)
plic_isr():
C:/Users/Admin/Desktop/test1/telink_b91m_driver_src/chip/B91/drivers/lib/src/plic.c:97
    1cac:	000007b7          	lui	a5,0x0
    1cb0:	15878793          	addi	a5,a5,344 # 158 <_AES_VMA_END>
entry_irq21():
E:/promotion/gitlab/opensdk/Mars_B91/telink_mars_b91_driver_sdk_v2.2.0/demo/vendor/common/B91/plic_isr.c:364
    1cb4:	c632                	c.swsp	a2,12(sp)
    1cb6:	c436                	c.swsp	a3,8(sp)
    1cb8:	c23a                	c.swsp	a4,4(sp)
plic_isr():
C:/Users/Admin/Desktop/test1/telink_b91m_driver_src/chip/B91/drivers/lib/src/plic.c:97
    1cba:	03c78783          	lb	a5,60(a5)
    1cbe:	0ff7f793          	andi	a5,a5,255
    1cc2:	ef89                	c.bnez	a5,1cdc <entry_irq21+0x34>
plic_interrupt_complete():
C:\Users\Admin\Desktop\test1\telink_b91m_driver_src\chip\B91\drivers/lib/include/plic.h:281
    1cc4:	e42007b7          	lui	a5,0xe4200
    1cc8:	4755                	c.li	a4,21
    1cca:	c3d8                	c.sw	a4,4(a5)
entry_irq21():
E:/promotion/gitlab/opensdk/Mars_B91/telink_mars_b91_driver_sdk_v2.2.0/demo/vendor/common/B91/plic_isr.c:366
}
    1ccc:	4632                	c.lwsp	a2,12(sp)
    1cce:	46a2                	c.lwsp	a3,8(sp)
    1cd0:	4712                	c.lwsp	a4,4(sp)
    1cd2:	4782                	c.lwsp	a5,0(sp)
    1cd4:	01010113          	addi	sp,sp,16
    1cd8:	30200073          	mret
plic_isr():
C:/Users/Admin/Desktop/test1/telink_b91m_driver_src/chip/B91/drivers/lib/src/plic.c:99
    1cdc:	34102773          	csrr	a4,mepc
    1ce0:	300026f3          	csrr	a3,mstatus
    1ce4:	7c4027f3          	csrr	a5,mxstatus
    1ce8:	30046673          	csrrsi	a2,mstatus,8
C:/Users/Admin/Desktop/test1/telink_b91m_driver_src/chip/B91/drivers/lib/src/plic.c:101
    1cec:	30047673          	csrrci	a2,mstatus,8
    1cf0:	30069073          	csrw	mstatus,a3
    1cf4:	34171073          	csrw	mepc,a4
    1cf8:	7c479073          	csrw	mxstatus,a5
plic_interrupt_complete():
C:\Users\Admin\Desktop\test1\telink_b91m_driver_src\chip\B91\drivers/lib/include/plic.h:281
    1cfc:	e42007b7          	lui	a5,0xe4200
    1d00:	4755                	c.li	a4,21
    1d02:	c3d8                	c.sw	a4,4(a5)
plic_isr():
C:/Users/Admin/Desktop/test1/telink_b91m_driver_src/chip/B91/drivers/lib/src/plic.c:103
    1d04:	0ff0000f          	fence
entry_irq21():
E:/promotion/gitlab/opensdk/Mars_B91/telink_mars_b91_driver_sdk_v2.2.0/demo/vendor/common/B91/plic_isr.c:366
    1d08:	4632                	c.lwsp	a2,12(sp)
    1d0a:	46a2                	c.lwsp	a3,8(sp)
    1d0c:	4712                	c.lwsp	a4,4(sp)
    1d0e:	4782                	c.lwsp	a5,0(sp)
    1d10:	01010113          	addi	sp,sp,16
    1d14:	30200073          	mret

00001d18 <entry_irq20>:
entry_irq20():
E:/promotion/gitlab/opensdk/Mars_B91/telink_mars_b91_driver_sdk_v2.2.0/demo/vendor/common/B91/plic_isr.c:354
{
    1d18:	1141                	c.addi	sp,-16
    1d1a:	c03e                	c.swsp	a5,0(sp)
plic_isr():
C:/Users/Admin/Desktop/test1/telink_b91m_driver_src/chip/B91/drivers/lib/src/plic.c:97
    1d1c:	000007b7          	lui	a5,0x0
    1d20:	15878793          	addi	a5,a5,344 # 158 <_AES_VMA_END>
entry_irq20():
E:/promotion/gitlab/opensdk/Mars_B91/telink_mars_b91_driver_sdk_v2.2.0/demo/vendor/common/B91/plic_isr.c:354
    1d24:	c632                	c.swsp	a2,12(sp)
    1d26:	c436                	c.swsp	a3,8(sp)
    1d28:	c23a                	c.swsp	a4,4(sp)
plic_isr():
C:/Users/Admin/Desktop/test1/telink_b91m_driver_src/chip/B91/drivers/lib/src/plic.c:97
    1d2a:	03c78783          	lb	a5,60(a5)
    1d2e:	0ff7f793          	andi	a5,a5,255
    1d32:	ef89                	c.bnez	a5,1d4c <entry_irq20+0x34>
plic_interrupt_complete():
C:\Users\Admin\Desktop\test1\telink_b91m_driver_src\chip\B91\drivers/lib/include/plic.h:281
    1d34:	e42007b7          	lui	a5,0xe4200
    1d38:	4751                	c.li	a4,20
    1d3a:	c3d8                	c.sw	a4,4(a5)
entry_irq20():
E:/promotion/gitlab/opensdk/Mars_B91/telink_mars_b91_driver_sdk_v2.2.0/demo/vendor/common/B91/plic_isr.c:356
}
    1d3c:	4632                	c.lwsp	a2,12(sp)
    1d3e:	46a2                	c.lwsp	a3,8(sp)
    1d40:	4712                	c.lwsp	a4,4(sp)
    1d42:	4782                	c.lwsp	a5,0(sp)
    1d44:	01010113          	addi	sp,sp,16
    1d48:	30200073          	mret
plic_isr():
C:/Users/Admin/Desktop/test1/telink_b91m_driver_src/chip/B91/drivers/lib/src/plic.c:99
    1d4c:	34102773          	csrr	a4,mepc
    1d50:	300026f3          	csrr	a3,mstatus
    1d54:	7c4027f3          	csrr	a5,mxstatus
    1d58:	30046673          	csrrsi	a2,mstatus,8
C:/Users/Admin/Desktop/test1/telink_b91m_driver_src/chip/B91/drivers/lib/src/plic.c:101
    1d5c:	30047673          	csrrci	a2,mstatus,8
    1d60:	30069073          	csrw	mstatus,a3
    1d64:	34171073          	csrw	mepc,a4
    1d68:	7c479073          	csrw	mxstatus,a5
plic_interrupt_complete():
C:\Users\Admin\Desktop\test1\telink_b91m_driver_src\chip\B91\drivers/lib/include/plic.h:281
    1d6c:	e42007b7          	lui	a5,0xe4200
    1d70:	4751                	c.li	a4,20
    1d72:	c3d8                	c.sw	a4,4(a5)
plic_isr():
C:/Users/Admin/Desktop/test1/telink_b91m_driver_src/chip/B91/drivers/lib/src/plic.c:103
    1d74:	0ff0000f          	fence
entry_irq20():
E:/promotion/gitlab/opensdk/Mars_B91/telink_mars_b91_driver_sdk_v2.2.0/demo/vendor/common/B91/plic_isr.c:356
    1d78:	4632                	c.lwsp	a2,12(sp)
    1d7a:	46a2                	c.lwsp	a3,8(sp)
    1d7c:	4712                	c.lwsp	a4,4(sp)
    1d7e:	4782                	c.lwsp	a5,0(sp)
    1d80:	01010113          	addi	sp,sp,16
    1d84:	30200073          	mret

00001d88 <entry_irq19>:
entry_irq19():
E:/promotion/gitlab/opensdk/Mars_B91/telink_mars_b91_driver_sdk_v2.2.0/demo/vendor/common/B91/plic_isr.c:343
{
    1d88:	1141                	c.addi	sp,-16
    1d8a:	c03e                	c.swsp	a5,0(sp)
plic_isr():
C:/Users/Admin/Desktop/test1/telink_b91m_driver_src/chip/B91/drivers/lib/src/plic.c:97
    1d8c:	000007b7          	lui	a5,0x0
    1d90:	15878793          	addi	a5,a5,344 # 158 <_AES_VMA_END>
entry_irq19():
E:/promotion/gitlab/opensdk/Mars_B91/telink_mars_b91_driver_sdk_v2.2.0/demo/vendor/common/B91/plic_isr.c:343
    1d94:	c632                	c.swsp	a2,12(sp)
    1d96:	c436                	c.swsp	a3,8(sp)
    1d98:	c23a                	c.swsp	a4,4(sp)
plic_isr():
C:/Users/Admin/Desktop/test1/telink_b91m_driver_src/chip/B91/drivers/lib/src/plic.c:97
    1d9a:	03c78783          	lb	a5,60(a5)
    1d9e:	0ff7f793          	andi	a5,a5,255
    1da2:	ef89                	c.bnez	a5,1dbc <entry_irq19+0x34>
plic_interrupt_complete():
C:\Users\Admin\Desktop\test1\telink_b91m_driver_src\chip\B91\drivers/lib/include/plic.h:281
    1da4:	e42007b7          	lui	a5,0xe4200
    1da8:	474d                	c.li	a4,19
    1daa:	c3d8                	c.sw	a4,4(a5)
entry_irq19():
E:/promotion/gitlab/opensdk/Mars_B91/telink_mars_b91_driver_sdk_v2.2.0/demo/vendor/common/B91/plic_isr.c:345
}
    1dac:	4632                	c.lwsp	a2,12(sp)
    1dae:	46a2                	c.lwsp	a3,8(sp)
    1db0:	4712                	c.lwsp	a4,4(sp)
    1db2:	4782                	c.lwsp	a5,0(sp)
    1db4:	01010113          	addi	sp,sp,16
    1db8:	30200073          	mret
plic_isr():
C:/Users/Admin/Desktop/test1/telink_b91m_driver_src/chip/B91/drivers/lib/src/plic.c:99
    1dbc:	34102773          	csrr	a4,mepc
    1dc0:	300026f3          	csrr	a3,mstatus
    1dc4:	7c4027f3          	csrr	a5,mxstatus
    1dc8:	30046673          	csrrsi	a2,mstatus,8
C:/Users/Admin/Desktop/test1/telink_b91m_driver_src/chip/B91/drivers/lib/src/plic.c:101
    1dcc:	30047673          	csrrci	a2,mstatus,8
    1dd0:	30069073          	csrw	mstatus,a3
    1dd4:	34171073          	csrw	mepc,a4
    1dd8:	7c479073          	csrw	mxstatus,a5
plic_interrupt_complete():
C:\Users\Admin\Desktop\test1\telink_b91m_driver_src\chip\B91\drivers/lib/include/plic.h:281
    1ddc:	e42007b7          	lui	a5,0xe4200
    1de0:	474d                	c.li	a4,19
    1de2:	c3d8                	c.sw	a4,4(a5)
plic_isr():
C:/Users/Admin/Desktop/test1/telink_b91m_driver_src/chip/B91/drivers/lib/src/plic.c:103
    1de4:	0ff0000f          	fence
entry_irq19():
E:/promotion/gitlab/opensdk/Mars_B91/telink_mars_b91_driver_sdk_v2.2.0/demo/vendor/common/B91/plic_isr.c:345
    1de8:	4632                	c.lwsp	a2,12(sp)
    1dea:	46a2                	c.lwsp	a3,8(sp)
    1dec:	4712                	c.lwsp	a4,4(sp)
    1dee:	4782                	c.lwsp	a5,0(sp)
    1df0:	01010113          	addi	sp,sp,16
    1df4:	30200073          	mret

00001df8 <entry_irq18>:
entry_irq18():
E:/promotion/gitlab/opensdk/Mars_B91/telink_mars_b91_driver_sdk_v2.2.0/demo/vendor/common/B91/plic_isr.c:331
{
    1df8:	1141                	c.addi	sp,-16
    1dfa:	c03e                	c.swsp	a5,0(sp)
plic_isr():
C:/Users/Admin/Desktop/test1/telink_b91m_driver_src/chip/B91/drivers/lib/src/plic.c:97
    1dfc:	000007b7          	lui	a5,0x0
    1e00:	15878793          	addi	a5,a5,344 # 158 <_AES_VMA_END>
entry_irq18():
E:/promotion/gitlab/opensdk/Mars_B91/telink_mars_b91_driver_sdk_v2.2.0/demo/vendor/common/B91/plic_isr.c:331
    1e04:	c632                	c.swsp	a2,12(sp)
    1e06:	c436                	c.swsp	a3,8(sp)
    1e08:	c23a                	c.swsp	a4,4(sp)
plic_isr():
C:/Users/Admin/Desktop/test1/telink_b91m_driver_src/chip/B91/drivers/lib/src/plic.c:97
    1e0a:	03c78783          	lb	a5,60(a5)
    1e0e:	0ff7f793          	andi	a5,a5,255
    1e12:	ef89                	c.bnez	a5,1e2c <entry_irq18+0x34>
plic_interrupt_complete():
C:\Users\Admin\Desktop\test1\telink_b91m_driver_src\chip\B91\drivers/lib/include/plic.h:281
    1e14:	e42007b7          	lui	a5,0xe4200
    1e18:	4749                	c.li	a4,18
    1e1a:	c3d8                	c.sw	a4,4(a5)
entry_irq18():
E:/promotion/gitlab/opensdk/Mars_B91/telink_mars_b91_driver_sdk_v2.2.0/demo/vendor/common/B91/plic_isr.c:333
}
    1e1c:	4632                	c.lwsp	a2,12(sp)
    1e1e:	46a2                	c.lwsp	a3,8(sp)
    1e20:	4712                	c.lwsp	a4,4(sp)
    1e22:	4782                	c.lwsp	a5,0(sp)
    1e24:	01010113          	addi	sp,sp,16
    1e28:	30200073          	mret
plic_isr():
C:/Users/Admin/Desktop/test1/telink_b91m_driver_src/chip/B91/drivers/lib/src/plic.c:99
    1e2c:	34102773          	csrr	a4,mepc
    1e30:	300026f3          	csrr	a3,mstatus
    1e34:	7c4027f3          	csrr	a5,mxstatus
    1e38:	30046673          	csrrsi	a2,mstatus,8
C:/Users/Admin/Desktop/test1/telink_b91m_driver_src/chip/B91/drivers/lib/src/plic.c:101
    1e3c:	30047673          	csrrci	a2,mstatus,8
    1e40:	30069073          	csrw	mstatus,a3
    1e44:	34171073          	csrw	mepc,a4
    1e48:	7c479073          	csrw	mxstatus,a5
plic_interrupt_complete():
C:\Users\Admin\Desktop\test1\telink_b91m_driver_src\chip\B91\drivers/lib/include/plic.h:281
    1e4c:	e42007b7          	lui	a5,0xe4200
    1e50:	4749                	c.li	a4,18
    1e52:	c3d8                	c.sw	a4,4(a5)
plic_isr():
C:/Users/Admin/Desktop/test1/telink_b91m_driver_src/chip/B91/drivers/lib/src/plic.c:103
    1e54:	0ff0000f          	fence
entry_irq18():
E:/promotion/gitlab/opensdk/Mars_B91/telink_mars_b91_driver_sdk_v2.2.0/demo/vendor/common/B91/plic_isr.c:333
    1e58:	4632                	c.lwsp	a2,12(sp)
    1e5a:	46a2                	c.lwsp	a3,8(sp)
    1e5c:	4712                	c.lwsp	a4,4(sp)
    1e5e:	4782                	c.lwsp	a5,0(sp)
    1e60:	01010113          	addi	sp,sp,16
    1e64:	30200073          	mret

00001e68 <entry_irq17>:
entry_irq17():
E:/promotion/gitlab/opensdk/Mars_B91/telink_mars_b91_driver_sdk_v2.2.0/demo/vendor/common/B91/plic_isr.c:319
{
    1e68:	1141                	c.addi	sp,-16
    1e6a:	c03e                	c.swsp	a5,0(sp)
plic_isr():
C:/Users/Admin/Desktop/test1/telink_b91m_driver_src/chip/B91/drivers/lib/src/plic.c:97
    1e6c:	000007b7          	lui	a5,0x0
    1e70:	15878793          	addi	a5,a5,344 # 158 <_AES_VMA_END>
entry_irq17():
E:/promotion/gitlab/opensdk/Mars_B91/telink_mars_b91_driver_sdk_v2.2.0/demo/vendor/common/B91/plic_isr.c:319
    1e74:	c632                	c.swsp	a2,12(sp)
    1e76:	c436                	c.swsp	a3,8(sp)
    1e78:	c23a                	c.swsp	a4,4(sp)
plic_isr():
C:/Users/Admin/Desktop/test1/telink_b91m_driver_src/chip/B91/drivers/lib/src/plic.c:97
    1e7a:	03c78783          	lb	a5,60(a5)
    1e7e:	0ff7f793          	andi	a5,a5,255
    1e82:	ef89                	c.bnez	a5,1e9c <entry_irq17+0x34>
plic_interrupt_complete():
C:\Users\Admin\Desktop\test1\telink_b91m_driver_src\chip\B91\drivers/lib/include/plic.h:281
    1e84:	e42007b7          	lui	a5,0xe4200
    1e88:	4745                	c.li	a4,17
    1e8a:	c3d8                	c.sw	a4,4(a5)
entry_irq17():
E:/promotion/gitlab/opensdk/Mars_B91/telink_mars_b91_driver_sdk_v2.2.0/demo/vendor/common/B91/plic_isr.c:321
}
    1e8c:	4632                	c.lwsp	a2,12(sp)
    1e8e:	46a2                	c.lwsp	a3,8(sp)
    1e90:	4712                	c.lwsp	a4,4(sp)
    1e92:	4782                	c.lwsp	a5,0(sp)
    1e94:	01010113          	addi	sp,sp,16
    1e98:	30200073          	mret
plic_isr():
C:/Users/Admin/Desktop/test1/telink_b91m_driver_src/chip/B91/drivers/lib/src/plic.c:99
    1e9c:	34102773          	csrr	a4,mepc
    1ea0:	300026f3          	csrr	a3,mstatus
    1ea4:	7c4027f3          	csrr	a5,mxstatus
    1ea8:	30046673          	csrrsi	a2,mstatus,8
C:/Users/Admin/Desktop/test1/telink_b91m_driver_src/chip/B91/drivers/lib/src/plic.c:101
    1eac:	30047673          	csrrci	a2,mstatus,8
    1eb0:	30069073          	csrw	mstatus,a3
    1eb4:	34171073          	csrw	mepc,a4
    1eb8:	7c479073          	csrw	mxstatus,a5
plic_interrupt_complete():
C:\Users\Admin\Desktop\test1\telink_b91m_driver_src\chip\B91\drivers/lib/include/plic.h:281
    1ebc:	e42007b7          	lui	a5,0xe4200
    1ec0:	4745                	c.li	a4,17
    1ec2:	c3d8                	c.sw	a4,4(a5)
plic_isr():
C:/Users/Admin/Desktop/test1/telink_b91m_driver_src/chip/B91/drivers/lib/src/plic.c:103
    1ec4:	0ff0000f          	fence
entry_irq17():
E:/promotion/gitlab/opensdk/Mars_B91/telink_mars_b91_driver_sdk_v2.2.0/demo/vendor/common/B91/plic_isr.c:321
    1ec8:	4632                	c.lwsp	a2,12(sp)
    1eca:	46a2                	c.lwsp	a3,8(sp)
    1ecc:	4712                	c.lwsp	a4,4(sp)
    1ece:	4782                	c.lwsp	a5,0(sp)
    1ed0:	01010113          	addi	sp,sp,16
    1ed4:	30200073          	mret

00001ed8 <entry_irq16>:
entry_irq16():
E:/promotion/gitlab/opensdk/Mars_B91/telink_mars_b91_driver_sdk_v2.2.0/demo/vendor/common/B91/plic_isr.c:309
{
    1ed8:	1141                	c.addi	sp,-16
    1eda:	c03e                	c.swsp	a5,0(sp)
plic_isr():
C:/Users/Admin/Desktop/test1/telink_b91m_driver_src/chip/B91/drivers/lib/src/plic.c:97
    1edc:	000007b7          	lui	a5,0x0
    1ee0:	15878793          	addi	a5,a5,344 # 158 <_AES_VMA_END>
entry_irq16():
E:/promotion/gitlab/opensdk/Mars_B91/telink_mars_b91_driver_sdk_v2.2.0/demo/vendor/common/B91/plic_isr.c:309
    1ee4:	c632                	c.swsp	a2,12(sp)
    1ee6:	c436                	c.swsp	a3,8(sp)
    1ee8:	c23a                	c.swsp	a4,4(sp)
plic_isr():
C:/Users/Admin/Desktop/test1/telink_b91m_driver_src/chip/B91/drivers/lib/src/plic.c:97
    1eea:	03c78783          	lb	a5,60(a5)
    1eee:	0ff7f793          	andi	a5,a5,255
    1ef2:	ef89                	c.bnez	a5,1f0c <entry_irq16+0x34>
plic_interrupt_complete():
C:\Users\Admin\Desktop\test1\telink_b91m_driver_src\chip\B91\drivers/lib/include/plic.h:281
    1ef4:	e42007b7          	lui	a5,0xe4200
    1ef8:	4741                	c.li	a4,16
    1efa:	c3d8                	c.sw	a4,4(a5)
entry_irq16():
E:/promotion/gitlab/opensdk/Mars_B91/telink_mars_b91_driver_sdk_v2.2.0/demo/vendor/common/B91/plic_isr.c:311
}
    1efc:	4632                	c.lwsp	a2,12(sp)
    1efe:	46a2                	c.lwsp	a3,8(sp)
    1f00:	4712                	c.lwsp	a4,4(sp)
    1f02:	4782                	c.lwsp	a5,0(sp)
    1f04:	01010113          	addi	sp,sp,16
    1f08:	30200073          	mret
plic_isr():
C:/Users/Admin/Desktop/test1/telink_b91m_driver_src/chip/B91/drivers/lib/src/plic.c:99
    1f0c:	34102773          	csrr	a4,mepc
    1f10:	300026f3          	csrr	a3,mstatus
    1f14:	7c4027f3          	csrr	a5,mxstatus
    1f18:	30046673          	csrrsi	a2,mstatus,8
C:/Users/Admin/Desktop/test1/telink_b91m_driver_src/chip/B91/drivers/lib/src/plic.c:101
    1f1c:	30047673          	csrrci	a2,mstatus,8
    1f20:	30069073          	csrw	mstatus,a3
    1f24:	34171073          	csrw	mepc,a4
    1f28:	7c479073          	csrw	mxstatus,a5
plic_interrupt_complete():
C:\Users\Admin\Desktop\test1\telink_b91m_driver_src\chip\B91\drivers/lib/include/plic.h:281
    1f2c:	e42007b7          	lui	a5,0xe4200
    1f30:	4741                	c.li	a4,16
    1f32:	c3d8                	c.sw	a4,4(a5)
plic_isr():
C:/Users/Admin/Desktop/test1/telink_b91m_driver_src/chip/B91/drivers/lib/src/plic.c:103
    1f34:	0ff0000f          	fence
entry_irq16():
E:/promotion/gitlab/opensdk/Mars_B91/telink_mars_b91_driver_sdk_v2.2.0/demo/vendor/common/B91/plic_isr.c:311
    1f38:	4632                	c.lwsp	a2,12(sp)
    1f3a:	46a2                	c.lwsp	a3,8(sp)
    1f3c:	4712                	c.lwsp	a4,4(sp)
    1f3e:	4782                	c.lwsp	a5,0(sp)
    1f40:	01010113          	addi	sp,sp,16
    1f44:	30200073          	mret

00001f48 <entry_irq15>:
entry_irq15():
E:/promotion/gitlab/opensdk/Mars_B91/telink_mars_b91_driver_sdk_v2.2.0/demo/vendor/common/B91/plic_isr.c:297
{
    1f48:	1141                	c.addi	sp,-16
    1f4a:	c03e                	c.swsp	a5,0(sp)
plic_isr():
C:/Users/Admin/Desktop/test1/telink_b91m_driver_src/chip/B91/drivers/lib/src/plic.c:97
    1f4c:	000007b7          	lui	a5,0x0
    1f50:	15878793          	addi	a5,a5,344 # 158 <_AES_VMA_END>
entry_irq15():
E:/promotion/gitlab/opensdk/Mars_B91/telink_mars_b91_driver_sdk_v2.2.0/demo/vendor/common/B91/plic_isr.c:297
    1f54:	c632                	c.swsp	a2,12(sp)
    1f56:	c436                	c.swsp	a3,8(sp)
    1f58:	c23a                	c.swsp	a4,4(sp)
plic_isr():
C:/Users/Admin/Desktop/test1/telink_b91m_driver_src/chip/B91/drivers/lib/src/plic.c:97
    1f5a:	03c78783          	lb	a5,60(a5)
    1f5e:	0ff7f793          	andi	a5,a5,255
    1f62:	ef89                	c.bnez	a5,1f7c <entry_irq15+0x34>
plic_interrupt_complete():
C:\Users\Admin\Desktop\test1\telink_b91m_driver_src\chip\B91\drivers/lib/include/plic.h:281
    1f64:	e42007b7          	lui	a5,0xe4200
    1f68:	473d                	c.li	a4,15
    1f6a:	c3d8                	c.sw	a4,4(a5)
entry_irq15():
E:/promotion/gitlab/opensdk/Mars_B91/telink_mars_b91_driver_sdk_v2.2.0/demo/vendor/common/B91/plic_isr.c:299
}
    1f6c:	4632                	c.lwsp	a2,12(sp)
    1f6e:	46a2                	c.lwsp	a3,8(sp)
    1f70:	4712                	c.lwsp	a4,4(sp)
    1f72:	4782                	c.lwsp	a5,0(sp)
    1f74:	01010113          	addi	sp,sp,16
    1f78:	30200073          	mret
plic_isr():
C:/Users/Admin/Desktop/test1/telink_b91m_driver_src/chip/B91/drivers/lib/src/plic.c:99
    1f7c:	34102773          	csrr	a4,mepc
    1f80:	300026f3          	csrr	a3,mstatus
    1f84:	7c4027f3          	csrr	a5,mxstatus
    1f88:	30046673          	csrrsi	a2,mstatus,8
C:/Users/Admin/Desktop/test1/telink_b91m_driver_src/chip/B91/drivers/lib/src/plic.c:101
    1f8c:	30047673          	csrrci	a2,mstatus,8
    1f90:	30069073          	csrw	mstatus,a3
    1f94:	34171073          	csrw	mepc,a4
    1f98:	7c479073          	csrw	mxstatus,a5
plic_interrupt_complete():
C:\Users\Admin\Desktop\test1\telink_b91m_driver_src\chip\B91\drivers/lib/include/plic.h:281
    1f9c:	e42007b7          	lui	a5,0xe4200
    1fa0:	473d                	c.li	a4,15
    1fa2:	c3d8                	c.sw	a4,4(a5)
plic_isr():
C:/Users/Admin/Desktop/test1/telink_b91m_driver_src/chip/B91/drivers/lib/src/plic.c:103
    1fa4:	0ff0000f          	fence
entry_irq15():
E:/promotion/gitlab/opensdk/Mars_B91/telink_mars_b91_driver_sdk_v2.2.0/demo/vendor/common/B91/plic_isr.c:299
    1fa8:	4632                	c.lwsp	a2,12(sp)
    1faa:	46a2                	c.lwsp	a3,8(sp)
    1fac:	4712                	c.lwsp	a4,4(sp)
    1fae:	4782                	c.lwsp	a5,0(sp)
    1fb0:	01010113          	addi	sp,sp,16
    1fb4:	30200073          	mret

00001fb8 <entry_irq14>:
entry_irq14():
E:/promotion/gitlab/opensdk/Mars_B91/telink_mars_b91_driver_sdk_v2.2.0/demo/vendor/common/B91/plic_isr.c:287
{
    1fb8:	1141                	c.addi	sp,-16
    1fba:	c03e                	c.swsp	a5,0(sp)
plic_isr():
C:/Users/Admin/Desktop/test1/telink_b91m_driver_src/chip/B91/drivers/lib/src/plic.c:97
    1fbc:	000007b7          	lui	a5,0x0
    1fc0:	15878793          	addi	a5,a5,344 # 158 <_AES_VMA_END>
entry_irq14():
E:/promotion/gitlab/opensdk/Mars_B91/telink_mars_b91_driver_sdk_v2.2.0/demo/vendor/common/B91/plic_isr.c:287
    1fc4:	c632                	c.swsp	a2,12(sp)
    1fc6:	c436                	c.swsp	a3,8(sp)
    1fc8:	c23a                	c.swsp	a4,4(sp)
plic_isr():
C:/Users/Admin/Desktop/test1/telink_b91m_driver_src/chip/B91/drivers/lib/src/plic.c:97
    1fca:	03c78783          	lb	a5,60(a5)
    1fce:	0ff7f793          	andi	a5,a5,255
    1fd2:	ef89                	c.bnez	a5,1fec <entry_irq14+0x34>
plic_interrupt_complete():
C:\Users\Admin\Desktop\test1\telink_b91m_driver_src\chip\B91\drivers/lib/include/plic.h:281
    1fd4:	e42007b7          	lui	a5,0xe4200
    1fd8:	4739                	c.li	a4,14
    1fda:	c3d8                	c.sw	a4,4(a5)
entry_irq14():
E:/promotion/gitlab/opensdk/Mars_B91/telink_mars_b91_driver_sdk_v2.2.0/demo/vendor/common/B91/plic_isr.c:289
}
    1fdc:	4632                	c.lwsp	a2,12(sp)
    1fde:	46a2                	c.lwsp	a3,8(sp)
    1fe0:	4712                	c.lwsp	a4,4(sp)
    1fe2:	4782                	c.lwsp	a5,0(sp)
    1fe4:	01010113          	addi	sp,sp,16
    1fe8:	30200073          	mret
plic_isr():
C:/Users/Admin/Desktop/test1/telink_b91m_driver_src/chip/B91/drivers/lib/src/plic.c:99
    1fec:	34102773          	csrr	a4,mepc
    1ff0:	300026f3          	csrr	a3,mstatus
    1ff4:	7c4027f3          	csrr	a5,mxstatus
    1ff8:	30046673          	csrrsi	a2,mstatus,8
C:/Users/Admin/Desktop/test1/telink_b91m_driver_src/chip/B91/drivers/lib/src/plic.c:101
    1ffc:	30047673          	csrrci	a2,mstatus,8
    2000:	30069073          	csrw	mstatus,a3
    2004:	34171073          	csrw	mepc,a4
    2008:	7c479073          	csrw	mxstatus,a5
plic_interrupt_complete():
C:\Users\Admin\Desktop\test1\telink_b91m_driver_src\chip\B91\drivers/lib/include/plic.h:281
    200c:	e42007b7          	lui	a5,0xe4200
    2010:	4739                	c.li	a4,14
    2012:	c3d8                	c.sw	a4,4(a5)
plic_isr():
C:/Users/Admin/Desktop/test1/telink_b91m_driver_src/chip/B91/drivers/lib/src/plic.c:103
    2014:	0ff0000f          	fence
entry_irq14():
E:/promotion/gitlab/opensdk/Mars_B91/telink_mars_b91_driver_sdk_v2.2.0/demo/vendor/common/B91/plic_isr.c:289
    2018:	4632                	c.lwsp	a2,12(sp)
    201a:	46a2                	c.lwsp	a3,8(sp)
    201c:	4712                	c.lwsp	a4,4(sp)
    201e:	4782                	c.lwsp	a5,0(sp)
    2020:	01010113          	addi	sp,sp,16
    2024:	30200073          	mret

00002028 <entry_irq13>:
entry_irq13():
E:/promotion/gitlab/opensdk/Mars_B91/telink_mars_b91_driver_sdk_v2.2.0/demo/vendor/common/B91/plic_isr.c:276
{
    2028:	1141                	c.addi	sp,-16
    202a:	c03e                	c.swsp	a5,0(sp)
plic_isr():
C:/Users/Admin/Desktop/test1/telink_b91m_driver_src/chip/B91/drivers/lib/src/plic.c:97
    202c:	000007b7          	lui	a5,0x0
    2030:	15878793          	addi	a5,a5,344 # 158 <_AES_VMA_END>
entry_irq13():
E:/promotion/gitlab/opensdk/Mars_B91/telink_mars_b91_driver_sdk_v2.2.0/demo/vendor/common/B91/plic_isr.c:276
    2034:	c632                	c.swsp	a2,12(sp)
    2036:	c436                	c.swsp	a3,8(sp)
    2038:	c23a                	c.swsp	a4,4(sp)
plic_isr():
C:/Users/Admin/Desktop/test1/telink_b91m_driver_src/chip/B91/drivers/lib/src/plic.c:97
    203a:	03c78783          	lb	a5,60(a5)
    203e:	0ff7f793          	andi	a5,a5,255
    2042:	ef89                	c.bnez	a5,205c <entry_irq13+0x34>
plic_interrupt_complete():
C:\Users\Admin\Desktop\test1\telink_b91m_driver_src\chip\B91\drivers/lib/include/plic.h:281
    2044:	e42007b7          	lui	a5,0xe4200
    2048:	4735                	c.li	a4,13
    204a:	c3d8                	c.sw	a4,4(a5)
entry_irq13():
E:/promotion/gitlab/opensdk/Mars_B91/telink_mars_b91_driver_sdk_v2.2.0/demo/vendor/common/B91/plic_isr.c:278
}
    204c:	4632                	c.lwsp	a2,12(sp)
    204e:	46a2                	c.lwsp	a3,8(sp)
    2050:	4712                	c.lwsp	a4,4(sp)
    2052:	4782                	c.lwsp	a5,0(sp)
    2054:	01010113          	addi	sp,sp,16
    2058:	30200073          	mret
plic_isr():
C:/Users/Admin/Desktop/test1/telink_b91m_driver_src/chip/B91/drivers/lib/src/plic.c:99
    205c:	34102773          	csrr	a4,mepc
    2060:	300026f3          	csrr	a3,mstatus
    2064:	7c4027f3          	csrr	a5,mxstatus
    2068:	30046673          	csrrsi	a2,mstatus,8
C:/Users/Admin/Desktop/test1/telink_b91m_driver_src/chip/B91/drivers/lib/src/plic.c:101
    206c:	30047673          	csrrci	a2,mstatus,8
    2070:	30069073          	csrw	mstatus,a3
    2074:	34171073          	csrw	mepc,a4
    2078:	7c479073          	csrw	mxstatus,a5
plic_interrupt_complete():
C:\Users\Admin\Desktop\test1\telink_b91m_driver_src\chip\B91\drivers/lib/include/plic.h:281
    207c:	e42007b7          	lui	a5,0xe4200
    2080:	4735                	c.li	a4,13
    2082:	c3d8                	c.sw	a4,4(a5)
plic_isr():
C:/Users/Admin/Desktop/test1/telink_b91m_driver_src/chip/B91/drivers/lib/src/plic.c:103
    2084:	0ff0000f          	fence
entry_irq13():
E:/promotion/gitlab/opensdk/Mars_B91/telink_mars_b91_driver_sdk_v2.2.0/demo/vendor/common/B91/plic_isr.c:278
    2088:	4632                	c.lwsp	a2,12(sp)
    208a:	46a2                	c.lwsp	a3,8(sp)
    208c:	4712                	c.lwsp	a4,4(sp)
    208e:	4782                	c.lwsp	a5,0(sp)
    2090:	01010113          	addi	sp,sp,16
    2094:	30200073          	mret

00002098 <entry_irq12>:
entry_irq12():
E:/promotion/gitlab/opensdk/Mars_B91/telink_mars_b91_driver_sdk_v2.2.0/demo/vendor/common/B91/plic_isr.c:266
{
    2098:	1141                	c.addi	sp,-16
    209a:	c03e                	c.swsp	a5,0(sp)
plic_isr():
C:/Users/Admin/Desktop/test1/telink_b91m_driver_src/chip/B91/drivers/lib/src/plic.c:97
    209c:	000007b7          	lui	a5,0x0
    20a0:	15878793          	addi	a5,a5,344 # 158 <_AES_VMA_END>
entry_irq12():
E:/promotion/gitlab/opensdk/Mars_B91/telink_mars_b91_driver_sdk_v2.2.0/demo/vendor/common/B91/plic_isr.c:266
    20a4:	c632                	c.swsp	a2,12(sp)
    20a6:	c436                	c.swsp	a3,8(sp)
    20a8:	c23a                	c.swsp	a4,4(sp)
plic_isr():
C:/Users/Admin/Desktop/test1/telink_b91m_driver_src/chip/B91/drivers/lib/src/plic.c:97
    20aa:	03c78783          	lb	a5,60(a5)
    20ae:	0ff7f793          	andi	a5,a5,255
    20b2:	ef89                	c.bnez	a5,20cc <entry_irq12+0x34>
plic_interrupt_complete():
C:\Users\Admin\Desktop\test1\telink_b91m_driver_src\chip\B91\drivers/lib/include/plic.h:281
    20b4:	e42007b7          	lui	a5,0xe4200
    20b8:	4731                	c.li	a4,12
    20ba:	c3d8                	c.sw	a4,4(a5)
entry_irq12():
E:/promotion/gitlab/opensdk/Mars_B91/telink_mars_b91_driver_sdk_v2.2.0/demo/vendor/common/B91/plic_isr.c:268
}
    20bc:	4632                	c.lwsp	a2,12(sp)
    20be:	46a2                	c.lwsp	a3,8(sp)
    20c0:	4712                	c.lwsp	a4,4(sp)
    20c2:	4782                	c.lwsp	a5,0(sp)
    20c4:	01010113          	addi	sp,sp,16
    20c8:	30200073          	mret
plic_isr():
C:/Users/Admin/Desktop/test1/telink_b91m_driver_src/chip/B91/drivers/lib/src/plic.c:99
    20cc:	34102773          	csrr	a4,mepc
    20d0:	300026f3          	csrr	a3,mstatus
    20d4:	7c4027f3          	csrr	a5,mxstatus
    20d8:	30046673          	csrrsi	a2,mstatus,8
C:/Users/Admin/Desktop/test1/telink_b91m_driver_src/chip/B91/drivers/lib/src/plic.c:101
    20dc:	30047673          	csrrci	a2,mstatus,8
    20e0:	30069073          	csrw	mstatus,a3
    20e4:	34171073          	csrw	mepc,a4
    20e8:	7c479073          	csrw	mxstatus,a5
plic_interrupt_complete():
C:\Users\Admin\Desktop\test1\telink_b91m_driver_src\chip\B91\drivers/lib/include/plic.h:281
    20ec:	e42007b7          	lui	a5,0xe4200
    20f0:	4731                	c.li	a4,12
    20f2:	c3d8                	c.sw	a4,4(a5)
plic_isr():
C:/Users/Admin/Desktop/test1/telink_b91m_driver_src/chip/B91/drivers/lib/src/plic.c:103
    20f4:	0ff0000f          	fence
entry_irq12():
E:/promotion/gitlab/opensdk/Mars_B91/telink_mars_b91_driver_sdk_v2.2.0/demo/vendor/common/B91/plic_isr.c:268
    20f8:	4632                	c.lwsp	a2,12(sp)
    20fa:	46a2                	c.lwsp	a3,8(sp)
    20fc:	4712                	c.lwsp	a4,4(sp)
    20fe:	4782                	c.lwsp	a5,0(sp)
    2100:	01010113          	addi	sp,sp,16
    2104:	30200073          	mret

00002108 <entry_irq11>:
entry_irq11():
E:/promotion/gitlab/opensdk/Mars_B91/telink_mars_b91_driver_sdk_v2.2.0/demo/vendor/common/B91/plic_isr.c:256
{
    2108:	1141                	c.addi	sp,-16
    210a:	c03e                	c.swsp	a5,0(sp)
plic_isr():
C:/Users/Admin/Desktop/test1/telink_b91m_driver_src/chip/B91/drivers/lib/src/plic.c:97
    210c:	000007b7          	lui	a5,0x0
    2110:	15878793          	addi	a5,a5,344 # 158 <_AES_VMA_END>
entry_irq11():
E:/promotion/gitlab/opensdk/Mars_B91/telink_mars_b91_driver_sdk_v2.2.0/demo/vendor/common/B91/plic_isr.c:256
    2114:	c632                	c.swsp	a2,12(sp)
    2116:	c436                	c.swsp	a3,8(sp)
    2118:	c23a                	c.swsp	a4,4(sp)
plic_isr():
C:/Users/Admin/Desktop/test1/telink_b91m_driver_src/chip/B91/drivers/lib/src/plic.c:97
    211a:	03c78783          	lb	a5,60(a5)
    211e:	0ff7f793          	andi	a5,a5,255
    2122:	ef89                	c.bnez	a5,213c <entry_irq11+0x34>
plic_interrupt_complete():
C:\Users\Admin\Desktop\test1\telink_b91m_driver_src\chip\B91\drivers/lib/include/plic.h:281
    2124:	e42007b7          	lui	a5,0xe4200
    2128:	472d                	c.li	a4,11
    212a:	c3d8                	c.sw	a4,4(a5)
entry_irq11():
E:/promotion/gitlab/opensdk/Mars_B91/telink_mars_b91_driver_sdk_v2.2.0/demo/vendor/common/B91/plic_isr.c:258
}
    212c:	4632                	c.lwsp	a2,12(sp)
    212e:	46a2                	c.lwsp	a3,8(sp)
    2130:	4712                	c.lwsp	a4,4(sp)
    2132:	4782                	c.lwsp	a5,0(sp)
    2134:	01010113          	addi	sp,sp,16
    2138:	30200073          	mret
plic_isr():
C:/Users/Admin/Desktop/test1/telink_b91m_driver_src/chip/B91/drivers/lib/src/plic.c:99
    213c:	34102773          	csrr	a4,mepc
    2140:	300026f3          	csrr	a3,mstatus
    2144:	7c4027f3          	csrr	a5,mxstatus
    2148:	30046673          	csrrsi	a2,mstatus,8
C:/Users/Admin/Desktop/test1/telink_b91m_driver_src/chip/B91/drivers/lib/src/plic.c:101
    214c:	30047673          	csrrci	a2,mstatus,8
    2150:	30069073          	csrw	mstatus,a3
    2154:	34171073          	csrw	mepc,a4
    2158:	7c479073          	csrw	mxstatus,a5
plic_interrupt_complete():
C:\Users\Admin\Desktop\test1\telink_b91m_driver_src\chip\B91\drivers/lib/include/plic.h:281
    215c:	e42007b7          	lui	a5,0xe4200
    2160:	472d                	c.li	a4,11
    2162:	c3d8                	c.sw	a4,4(a5)
plic_isr():
C:/Users/Admin/Desktop/test1/telink_b91m_driver_src/chip/B91/drivers/lib/src/plic.c:103
    2164:	0ff0000f          	fence
entry_irq11():
E:/promotion/gitlab/opensdk/Mars_B91/telink_mars_b91_driver_sdk_v2.2.0/demo/vendor/common/B91/plic_isr.c:258
    2168:	4632                	c.lwsp	a2,12(sp)
    216a:	46a2                	c.lwsp	a3,8(sp)
    216c:	4712                	c.lwsp	a4,4(sp)
    216e:	4782                	c.lwsp	a5,0(sp)
    2170:	01010113          	addi	sp,sp,16
    2174:	30200073          	mret

00002178 <entry_irq10>:
entry_irq10():
E:/promotion/gitlab/opensdk/Mars_B91/telink_mars_b91_driver_sdk_v2.2.0/demo/vendor/common/B91/plic_isr.c:246
{
    2178:	1141                	c.addi	sp,-16
    217a:	c03e                	c.swsp	a5,0(sp)
plic_isr():
C:/Users/Admin/Desktop/test1/telink_b91m_driver_src/chip/B91/drivers/lib/src/plic.c:97
    217c:	000007b7          	lui	a5,0x0
    2180:	15878793          	addi	a5,a5,344 # 158 <_AES_VMA_END>
entry_irq10():
E:/promotion/gitlab/opensdk/Mars_B91/telink_mars_b91_driver_sdk_v2.2.0/demo/vendor/common/B91/plic_isr.c:246
    2184:	c632                	c.swsp	a2,12(sp)
    2186:	c436                	c.swsp	a3,8(sp)
    2188:	c23a                	c.swsp	a4,4(sp)
plic_isr():
C:/Users/Admin/Desktop/test1/telink_b91m_driver_src/chip/B91/drivers/lib/src/plic.c:97
    218a:	03c78783          	lb	a5,60(a5)
    218e:	0ff7f793          	andi	a5,a5,255
    2192:	ef89                	c.bnez	a5,21ac <entry_irq10+0x34>
plic_interrupt_complete():
C:\Users\Admin\Desktop\test1\telink_b91m_driver_src\chip\B91\drivers/lib/include/plic.h:281
    2194:	e42007b7          	lui	a5,0xe4200
    2198:	4729                	c.li	a4,10
    219a:	c3d8                	c.sw	a4,4(a5)
entry_irq10():
E:/promotion/gitlab/opensdk/Mars_B91/telink_mars_b91_driver_sdk_v2.2.0/demo/vendor/common/B91/plic_isr.c:248
}
    219c:	4632                	c.lwsp	a2,12(sp)
    219e:	46a2                	c.lwsp	a3,8(sp)
    21a0:	4712                	c.lwsp	a4,4(sp)
    21a2:	4782                	c.lwsp	a5,0(sp)
    21a4:	01010113          	addi	sp,sp,16
    21a8:	30200073          	mret
plic_isr():
C:/Users/Admin/Desktop/test1/telink_b91m_driver_src/chip/B91/drivers/lib/src/plic.c:99
    21ac:	34102773          	csrr	a4,mepc
    21b0:	300026f3          	csrr	a3,mstatus
    21b4:	7c4027f3          	csrr	a5,mxstatus
    21b8:	30046673          	csrrsi	a2,mstatus,8
C:/Users/Admin/Desktop/test1/telink_b91m_driver_src/chip/B91/drivers/lib/src/plic.c:101
    21bc:	30047673          	csrrci	a2,mstatus,8
    21c0:	30069073          	csrw	mstatus,a3
    21c4:	34171073          	csrw	mepc,a4
    21c8:	7c479073          	csrw	mxstatus,a5
plic_interrupt_complete():
C:\Users\Admin\Desktop\test1\telink_b91m_driver_src\chip\B91\drivers/lib/include/plic.h:281
    21cc:	e42007b7          	lui	a5,0xe4200
    21d0:	4729                	c.li	a4,10
    21d2:	c3d8                	c.sw	a4,4(a5)
plic_isr():
C:/Users/Admin/Desktop/test1/telink_b91m_driver_src/chip/B91/drivers/lib/src/plic.c:103
    21d4:	0ff0000f          	fence
entry_irq10():
E:/promotion/gitlab/opensdk/Mars_B91/telink_mars_b91_driver_sdk_v2.2.0/demo/vendor/common/B91/plic_isr.c:248
    21d8:	4632                	c.lwsp	a2,12(sp)
    21da:	46a2                	c.lwsp	a3,8(sp)
    21dc:	4712                	c.lwsp	a4,4(sp)
    21de:	4782                	c.lwsp	a5,0(sp)
    21e0:	01010113          	addi	sp,sp,16
    21e4:	30200073          	mret

000021e8 <entry_irq9>:
entry_irq9():
E:/promotion/gitlab/opensdk/Mars_B91/telink_mars_b91_driver_sdk_v2.2.0/demo/vendor/common/B91/plic_isr.c:235
{
    21e8:	1141                	c.addi	sp,-16
    21ea:	c03e                	c.swsp	a5,0(sp)
plic_isr():
C:/Users/Admin/Desktop/test1/telink_b91m_driver_src/chip/B91/drivers/lib/src/plic.c:97
    21ec:	000007b7          	lui	a5,0x0
    21f0:	15878793          	addi	a5,a5,344 # 158 <_AES_VMA_END>
entry_irq9():
E:/promotion/gitlab/opensdk/Mars_B91/telink_mars_b91_driver_sdk_v2.2.0/demo/vendor/common/B91/plic_isr.c:235
    21f4:	c632                	c.swsp	a2,12(sp)
    21f6:	c436                	c.swsp	a3,8(sp)
    21f8:	c23a                	c.swsp	a4,4(sp)
plic_isr():
C:/Users/Admin/Desktop/test1/telink_b91m_driver_src/chip/B91/drivers/lib/src/plic.c:97
    21fa:	03c78783          	lb	a5,60(a5)
    21fe:	0ff7f793          	andi	a5,a5,255
    2202:	ef89                	c.bnez	a5,221c <entry_irq9+0x34>
plic_interrupt_complete():
C:\Users\Admin\Desktop\test1\telink_b91m_driver_src\chip\B91\drivers/lib/include/plic.h:281
    2204:	e42007b7          	lui	a5,0xe4200
    2208:	4725                	c.li	a4,9
    220a:	c3d8                	c.sw	a4,4(a5)
entry_irq9():
E:/promotion/gitlab/opensdk/Mars_B91/telink_mars_b91_driver_sdk_v2.2.0/demo/vendor/common/B91/plic_isr.c:237
}
    220c:	4632                	c.lwsp	a2,12(sp)
    220e:	46a2                	c.lwsp	a3,8(sp)
    2210:	4712                	c.lwsp	a4,4(sp)
    2212:	4782                	c.lwsp	a5,0(sp)
    2214:	01010113          	addi	sp,sp,16
    2218:	30200073          	mret
plic_isr():
C:/Users/Admin/Desktop/test1/telink_b91m_driver_src/chip/B91/drivers/lib/src/plic.c:99
    221c:	34102773          	csrr	a4,mepc
    2220:	300026f3          	csrr	a3,mstatus
    2224:	7c4027f3          	csrr	a5,mxstatus
    2228:	30046673          	csrrsi	a2,mstatus,8
C:/Users/Admin/Desktop/test1/telink_b91m_driver_src/chip/B91/drivers/lib/src/plic.c:101
    222c:	30047673          	csrrci	a2,mstatus,8
    2230:	30069073          	csrw	mstatus,a3
    2234:	34171073          	csrw	mepc,a4
    2238:	7c479073          	csrw	mxstatus,a5
plic_interrupt_complete():
C:\Users\Admin\Desktop\test1\telink_b91m_driver_src\chip\B91\drivers/lib/include/plic.h:281
    223c:	e42007b7          	lui	a5,0xe4200
    2240:	4725                	c.li	a4,9
    2242:	c3d8                	c.sw	a4,4(a5)
plic_isr():
C:/Users/Admin/Desktop/test1/telink_b91m_driver_src/chip/B91/drivers/lib/src/plic.c:103
    2244:	0ff0000f          	fence
entry_irq9():
E:/promotion/gitlab/opensdk/Mars_B91/telink_mars_b91_driver_sdk_v2.2.0/demo/vendor/common/B91/plic_isr.c:237
    2248:	4632                	c.lwsp	a2,12(sp)
    224a:	46a2                	c.lwsp	a3,8(sp)
    224c:	4712                	c.lwsp	a4,4(sp)
    224e:	4782                	c.lwsp	a5,0(sp)
    2250:	01010113          	addi	sp,sp,16
    2254:	30200073          	mret

00002258 <entry_irq8>:
entry_irq8():
E:/promotion/gitlab/opensdk/Mars_B91/telink_mars_b91_driver_sdk_v2.2.0/demo/vendor/common/B91/plic_isr.c:225
{
    2258:	1141                	c.addi	sp,-16
    225a:	c03e                	c.swsp	a5,0(sp)
plic_isr():
C:/Users/Admin/Desktop/test1/telink_b91m_driver_src/chip/B91/drivers/lib/src/plic.c:97
    225c:	000007b7          	lui	a5,0x0
    2260:	15878793          	addi	a5,a5,344 # 158 <_AES_VMA_END>
entry_irq8():
E:/promotion/gitlab/opensdk/Mars_B91/telink_mars_b91_driver_sdk_v2.2.0/demo/vendor/common/B91/plic_isr.c:225
    2264:	c632                	c.swsp	a2,12(sp)
    2266:	c436                	c.swsp	a3,8(sp)
    2268:	c23a                	c.swsp	a4,4(sp)
plic_isr():
C:/Users/Admin/Desktop/test1/telink_b91m_driver_src/chip/B91/drivers/lib/src/plic.c:97
    226a:	03c78783          	lb	a5,60(a5)
    226e:	0ff7f793          	andi	a5,a5,255
    2272:	ef89                	c.bnez	a5,228c <entry_irq8+0x34>
plic_interrupt_complete():
C:\Users\Admin\Desktop\test1\telink_b91m_driver_src\chip\B91\drivers/lib/include/plic.h:281
    2274:	e42007b7          	lui	a5,0xe4200
    2278:	4721                	c.li	a4,8
    227a:	c3d8                	c.sw	a4,4(a5)
entry_irq8():
E:/promotion/gitlab/opensdk/Mars_B91/telink_mars_b91_driver_sdk_v2.2.0/demo/vendor/common/B91/plic_isr.c:227
}
    227c:	4632                	c.lwsp	a2,12(sp)
    227e:	46a2                	c.lwsp	a3,8(sp)
    2280:	4712                	c.lwsp	a4,4(sp)
    2282:	4782                	c.lwsp	a5,0(sp)
    2284:	01010113          	addi	sp,sp,16
    2288:	30200073          	mret
plic_isr():
C:/Users/Admin/Desktop/test1/telink_b91m_driver_src/chip/B91/drivers/lib/src/plic.c:99
    228c:	34102773          	csrr	a4,mepc
    2290:	300026f3          	csrr	a3,mstatus
    2294:	7c4027f3          	csrr	a5,mxstatus
    2298:	30046673          	csrrsi	a2,mstatus,8
C:/Users/Admin/Desktop/test1/telink_b91m_driver_src/chip/B91/drivers/lib/src/plic.c:101
    229c:	30047673          	csrrci	a2,mstatus,8
    22a0:	30069073          	csrw	mstatus,a3
    22a4:	34171073          	csrw	mepc,a4
    22a8:	7c479073          	csrw	mxstatus,a5
plic_interrupt_complete():
C:\Users\Admin\Desktop\test1\telink_b91m_driver_src\chip\B91\drivers/lib/include/plic.h:281
    22ac:	e42007b7          	lui	a5,0xe4200
    22b0:	4721                	c.li	a4,8
    22b2:	c3d8                	c.sw	a4,4(a5)
plic_isr():
C:/Users/Admin/Desktop/test1/telink_b91m_driver_src/chip/B91/drivers/lib/src/plic.c:103
    22b4:	0ff0000f          	fence
entry_irq8():
E:/promotion/gitlab/opensdk/Mars_B91/telink_mars_b91_driver_sdk_v2.2.0/demo/vendor/common/B91/plic_isr.c:227
    22b8:	4632                	c.lwsp	a2,12(sp)
    22ba:	46a2                	c.lwsp	a3,8(sp)
    22bc:	4712                	c.lwsp	a4,4(sp)
    22be:	4782                	c.lwsp	a5,0(sp)
    22c0:	01010113          	addi	sp,sp,16
    22c4:	30200073          	mret

000022c8 <entry_irq7>:
entry_irq7():
E:/promotion/gitlab/opensdk/Mars_B91/telink_mars_b91_driver_sdk_v2.2.0/demo/vendor/common/B91/plic_isr.c:215
{
    22c8:	1141                	c.addi	sp,-16
    22ca:	c03e                	c.swsp	a5,0(sp)
plic_isr():
C:/Users/Admin/Desktop/test1/telink_b91m_driver_src/chip/B91/drivers/lib/src/plic.c:97
    22cc:	000007b7          	lui	a5,0x0
    22d0:	15878793          	addi	a5,a5,344 # 158 <_AES_VMA_END>
entry_irq7():
E:/promotion/gitlab/opensdk/Mars_B91/telink_mars_b91_driver_sdk_v2.2.0/demo/vendor/common/B91/plic_isr.c:215
    22d4:	c632                	c.swsp	a2,12(sp)
    22d6:	c436                	c.swsp	a3,8(sp)
    22d8:	c23a                	c.swsp	a4,4(sp)
plic_isr():
C:/Users/Admin/Desktop/test1/telink_b91m_driver_src/chip/B91/drivers/lib/src/plic.c:97
    22da:	03c78783          	lb	a5,60(a5)
    22de:	0ff7f793          	andi	a5,a5,255
    22e2:	ef89                	c.bnez	a5,22fc <entry_irq7+0x34>
plic_interrupt_complete():
C:\Users\Admin\Desktop\test1\telink_b91m_driver_src\chip\B91\drivers/lib/include/plic.h:281
    22e4:	e42007b7          	lui	a5,0xe4200
    22e8:	471d                	c.li	a4,7
    22ea:	c3d8                	c.sw	a4,4(a5)
entry_irq7():
E:/promotion/gitlab/opensdk/Mars_B91/telink_mars_b91_driver_sdk_v2.2.0/demo/vendor/common/B91/plic_isr.c:217
}
    22ec:	4632                	c.lwsp	a2,12(sp)
    22ee:	46a2                	c.lwsp	a3,8(sp)
    22f0:	4712                	c.lwsp	a4,4(sp)
    22f2:	4782                	c.lwsp	a5,0(sp)
    22f4:	01010113          	addi	sp,sp,16
    22f8:	30200073          	mret
plic_isr():
C:/Users/Admin/Desktop/test1/telink_b91m_driver_src/chip/B91/drivers/lib/src/plic.c:99
    22fc:	34102773          	csrr	a4,mepc
    2300:	300026f3          	csrr	a3,mstatus
    2304:	7c4027f3          	csrr	a5,mxstatus
    2308:	30046673          	csrrsi	a2,mstatus,8
C:/Users/Admin/Desktop/test1/telink_b91m_driver_src/chip/B91/drivers/lib/src/plic.c:101
    230c:	30047673          	csrrci	a2,mstatus,8
    2310:	30069073          	csrw	mstatus,a3
    2314:	34171073          	csrw	mepc,a4
    2318:	7c479073          	csrw	mxstatus,a5
plic_interrupt_complete():
C:\Users\Admin\Desktop\test1\telink_b91m_driver_src\chip\B91\drivers/lib/include/plic.h:281
    231c:	e42007b7          	lui	a5,0xe4200
    2320:	471d                	c.li	a4,7
    2322:	c3d8                	c.sw	a4,4(a5)
plic_isr():
C:/Users/Admin/Desktop/test1/telink_b91m_driver_src/chip/B91/drivers/lib/src/plic.c:103
    2324:	0ff0000f          	fence
entry_irq7():
E:/promotion/gitlab/opensdk/Mars_B91/telink_mars_b91_driver_sdk_v2.2.0/demo/vendor/common/B91/plic_isr.c:217
    2328:	4632                	c.lwsp	a2,12(sp)
    232a:	46a2                	c.lwsp	a3,8(sp)
    232c:	4712                	c.lwsp	a4,4(sp)
    232e:	4782                	c.lwsp	a5,0(sp)
    2330:	01010113          	addi	sp,sp,16
    2334:	30200073          	mret

00002338 <entry_irq6>:
entry_irq6():
E:/promotion/gitlab/opensdk/Mars_B91/telink_mars_b91_driver_sdk_v2.2.0/demo/vendor/common/B91/plic_isr.c:204
{
    2338:	1141                	c.addi	sp,-16
    233a:	c03e                	c.swsp	a5,0(sp)
plic_isr():
C:/Users/Admin/Desktop/test1/telink_b91m_driver_src/chip/B91/drivers/lib/src/plic.c:97
    233c:	000007b7          	lui	a5,0x0
    2340:	15878793          	addi	a5,a5,344 # 158 <_AES_VMA_END>
entry_irq6():
E:/promotion/gitlab/opensdk/Mars_B91/telink_mars_b91_driver_sdk_v2.2.0/demo/vendor/common/B91/plic_isr.c:204
    2344:	c632                	c.swsp	a2,12(sp)
    2346:	c436                	c.swsp	a3,8(sp)
    2348:	c23a                	c.swsp	a4,4(sp)
plic_isr():
C:/Users/Admin/Desktop/test1/telink_b91m_driver_src/chip/B91/drivers/lib/src/plic.c:97
    234a:	03c78783          	lb	a5,60(a5)
    234e:	0ff7f793          	andi	a5,a5,255
    2352:	ef89                	c.bnez	a5,236c <entry_irq6+0x34>
plic_interrupt_complete():
C:\Users\Admin\Desktop\test1\telink_b91m_driver_src\chip\B91\drivers/lib/include/plic.h:281
    2354:	e42007b7          	lui	a5,0xe4200
    2358:	4719                	c.li	a4,6
    235a:	c3d8                	c.sw	a4,4(a5)
entry_irq6():
E:/promotion/gitlab/opensdk/Mars_B91/telink_mars_b91_driver_sdk_v2.2.0/demo/vendor/common/B91/plic_isr.c:206
}
    235c:	4632                	c.lwsp	a2,12(sp)
    235e:	46a2                	c.lwsp	a3,8(sp)
    2360:	4712                	c.lwsp	a4,4(sp)
    2362:	4782                	c.lwsp	a5,0(sp)
    2364:	01010113          	addi	sp,sp,16
    2368:	30200073          	mret
plic_isr():
C:/Users/Admin/Desktop/test1/telink_b91m_driver_src/chip/B91/drivers/lib/src/plic.c:99
    236c:	34102773          	csrr	a4,mepc
    2370:	300026f3          	csrr	a3,mstatus
    2374:	7c4027f3          	csrr	a5,mxstatus
    2378:	30046673          	csrrsi	a2,mstatus,8
C:/Users/Admin/Desktop/test1/telink_b91m_driver_src/chip/B91/drivers/lib/src/plic.c:101
    237c:	30047673          	csrrci	a2,mstatus,8
    2380:	30069073          	csrw	mstatus,a3
    2384:	34171073          	csrw	mepc,a4
    2388:	7c479073          	csrw	mxstatus,a5
plic_interrupt_complete():
C:\Users\Admin\Desktop\test1\telink_b91m_driver_src\chip\B91\drivers/lib/include/plic.h:281
    238c:	e42007b7          	lui	a5,0xe4200
    2390:	4719                	c.li	a4,6
    2392:	c3d8                	c.sw	a4,4(a5)
plic_isr():
C:/Users/Admin/Desktop/test1/telink_b91m_driver_src/chip/B91/drivers/lib/src/plic.c:103
    2394:	0ff0000f          	fence
entry_irq6():
E:/promotion/gitlab/opensdk/Mars_B91/telink_mars_b91_driver_sdk_v2.2.0/demo/vendor/common/B91/plic_isr.c:206
    2398:	4632                	c.lwsp	a2,12(sp)
    239a:	46a2                	c.lwsp	a3,8(sp)
    239c:	4712                	c.lwsp	a4,4(sp)
    239e:	4782                	c.lwsp	a5,0(sp)
    23a0:	01010113          	addi	sp,sp,16
    23a4:	30200073          	mret

000023a8 <entry_irq5>:
entry_irq5():
E:/promotion/gitlab/opensdk/Mars_B91/telink_mars_b91_driver_sdk_v2.2.0/demo/vendor/common/B91/plic_isr.c:194
{
    23a8:	1141                	c.addi	sp,-16
    23aa:	c03e                	c.swsp	a5,0(sp)
plic_isr():
C:/Users/Admin/Desktop/test1/telink_b91m_driver_src/chip/B91/drivers/lib/src/plic.c:97
    23ac:	000007b7          	lui	a5,0x0
    23b0:	15878793          	addi	a5,a5,344 # 158 <_AES_VMA_END>
entry_irq5():
E:/promotion/gitlab/opensdk/Mars_B91/telink_mars_b91_driver_sdk_v2.2.0/demo/vendor/common/B91/plic_isr.c:194
    23b4:	c632                	c.swsp	a2,12(sp)
    23b6:	c436                	c.swsp	a3,8(sp)
    23b8:	c23a                	c.swsp	a4,4(sp)
plic_isr():
C:/Users/Admin/Desktop/test1/telink_b91m_driver_src/chip/B91/drivers/lib/src/plic.c:97
    23ba:	03c78783          	lb	a5,60(a5)
    23be:	0ff7f793          	andi	a5,a5,255
    23c2:	ef89                	c.bnez	a5,23dc <entry_irq5+0x34>
plic_interrupt_complete():
C:\Users\Admin\Desktop\test1\telink_b91m_driver_src\chip\B91\drivers/lib/include/plic.h:281
    23c4:	e42007b7          	lui	a5,0xe4200
    23c8:	4715                	c.li	a4,5
    23ca:	c3d8                	c.sw	a4,4(a5)
entry_irq5():
E:/promotion/gitlab/opensdk/Mars_B91/telink_mars_b91_driver_sdk_v2.2.0/demo/vendor/common/B91/plic_isr.c:196
}
    23cc:	4632                	c.lwsp	a2,12(sp)
    23ce:	46a2                	c.lwsp	a3,8(sp)
    23d0:	4712                	c.lwsp	a4,4(sp)
    23d2:	4782                	c.lwsp	a5,0(sp)
    23d4:	01010113          	addi	sp,sp,16
    23d8:	30200073          	mret
plic_isr():
C:/Users/Admin/Desktop/test1/telink_b91m_driver_src/chip/B91/drivers/lib/src/plic.c:99
    23dc:	34102773          	csrr	a4,mepc
    23e0:	300026f3          	csrr	a3,mstatus
    23e4:	7c4027f3          	csrr	a5,mxstatus
    23e8:	30046673          	csrrsi	a2,mstatus,8
C:/Users/Admin/Desktop/test1/telink_b91m_driver_src/chip/B91/drivers/lib/src/plic.c:101
    23ec:	30047673          	csrrci	a2,mstatus,8
    23f0:	30069073          	csrw	mstatus,a3
    23f4:	34171073          	csrw	mepc,a4
    23f8:	7c479073          	csrw	mxstatus,a5
plic_interrupt_complete():
C:\Users\Admin\Desktop\test1\telink_b91m_driver_src\chip\B91\drivers/lib/include/plic.h:281
    23fc:	e42007b7          	lui	a5,0xe4200
    2400:	4715                	c.li	a4,5
    2402:	c3d8                	c.sw	a4,4(a5)
plic_isr():
C:/Users/Admin/Desktop/test1/telink_b91m_driver_src/chip/B91/drivers/lib/src/plic.c:103
    2404:	0ff0000f          	fence
entry_irq5():
E:/promotion/gitlab/opensdk/Mars_B91/telink_mars_b91_driver_sdk_v2.2.0/demo/vendor/common/B91/plic_isr.c:196
    2408:	4632                	c.lwsp	a2,12(sp)
    240a:	46a2                	c.lwsp	a3,8(sp)
    240c:	4712                	c.lwsp	a4,4(sp)
    240e:	4782                	c.lwsp	a5,0(sp)
    2410:	01010113          	addi	sp,sp,16
    2414:	30200073          	mret

00002418 <entry_irq4>:
entry_irq4():
E:/promotion/gitlab/opensdk/Mars_B91/telink_mars_b91_driver_sdk_v2.2.0/demo/vendor/common/B91/plic_isr.c:183
{
    2418:	1141                	c.addi	sp,-16
    241a:	c03e                	c.swsp	a5,0(sp)
plic_isr():
C:/Users/Admin/Desktop/test1/telink_b91m_driver_src/chip/B91/drivers/lib/src/plic.c:97
    241c:	000007b7          	lui	a5,0x0
    2420:	15878793          	addi	a5,a5,344 # 158 <_AES_VMA_END>
entry_irq4():
E:/promotion/gitlab/opensdk/Mars_B91/telink_mars_b91_driver_sdk_v2.2.0/demo/vendor/common/B91/plic_isr.c:183
    2424:	c632                	c.swsp	a2,12(sp)
    2426:	c436                	c.swsp	a3,8(sp)
    2428:	c23a                	c.swsp	a4,4(sp)
plic_isr():
C:/Users/Admin/Desktop/test1/telink_b91m_driver_src/chip/B91/drivers/lib/src/plic.c:97
    242a:	03c78783          	lb	a5,60(a5)
    242e:	0ff7f793          	andi	a5,a5,255
    2432:	ef89                	c.bnez	a5,244c <entry_irq4+0x34>
plic_interrupt_complete():
C:\Users\Admin\Desktop\test1\telink_b91m_driver_src\chip\B91\drivers/lib/include/plic.h:281
    2434:	e42007b7          	lui	a5,0xe4200
    2438:	4711                	c.li	a4,4
    243a:	c3d8                	c.sw	a4,4(a5)
entry_irq4():
E:/promotion/gitlab/opensdk/Mars_B91/telink_mars_b91_driver_sdk_v2.2.0/demo/vendor/common/B91/plic_isr.c:185
}
    243c:	4632                	c.lwsp	a2,12(sp)
    243e:	46a2                	c.lwsp	a3,8(sp)
    2440:	4712                	c.lwsp	a4,4(sp)
    2442:	4782                	c.lwsp	a5,0(sp)
    2444:	01010113          	addi	sp,sp,16
    2448:	30200073          	mret
plic_isr():
C:/Users/Admin/Desktop/test1/telink_b91m_driver_src/chip/B91/drivers/lib/src/plic.c:99
    244c:	34102773          	csrr	a4,mepc
    2450:	300026f3          	csrr	a3,mstatus
    2454:	7c4027f3          	csrr	a5,mxstatus
    2458:	30046673          	csrrsi	a2,mstatus,8
C:/Users/Admin/Desktop/test1/telink_b91m_driver_src/chip/B91/drivers/lib/src/plic.c:101
    245c:	30047673          	csrrci	a2,mstatus,8
    2460:	30069073          	csrw	mstatus,a3
    2464:	34171073          	csrw	mepc,a4
    2468:	7c479073          	csrw	mxstatus,a5
plic_interrupt_complete():
C:\Users\Admin\Desktop\test1\telink_b91m_driver_src\chip\B91\drivers/lib/include/plic.h:281
    246c:	e42007b7          	lui	a5,0xe4200
    2470:	4711                	c.li	a4,4
    2472:	c3d8                	c.sw	a4,4(a5)
plic_isr():
C:/Users/Admin/Desktop/test1/telink_b91m_driver_src/chip/B91/drivers/lib/src/plic.c:103
    2474:	0ff0000f          	fence
entry_irq4():
E:/promotion/gitlab/opensdk/Mars_B91/telink_mars_b91_driver_sdk_v2.2.0/demo/vendor/common/B91/plic_isr.c:185
    2478:	4632                	c.lwsp	a2,12(sp)
    247a:	46a2                	c.lwsp	a3,8(sp)
    247c:	4712                	c.lwsp	a4,4(sp)
    247e:	4782                	c.lwsp	a5,0(sp)
    2480:	01010113          	addi	sp,sp,16
    2484:	30200073          	mret

00002488 <entry_irq3>:
entry_irq3():
E:/promotion/gitlab/opensdk/Mars_B91/telink_mars_b91_driver_sdk_v2.2.0/demo/vendor/common/B91/plic_isr.c:173
{
    2488:	1141                	c.addi	sp,-16
    248a:	c03e                	c.swsp	a5,0(sp)
plic_isr():
C:/Users/Admin/Desktop/test1/telink_b91m_driver_src/chip/B91/drivers/lib/src/plic.c:97
    248c:	000007b7          	lui	a5,0x0
    2490:	15878793          	addi	a5,a5,344 # 158 <_AES_VMA_END>
entry_irq3():
E:/promotion/gitlab/opensdk/Mars_B91/telink_mars_b91_driver_sdk_v2.2.0/demo/vendor/common/B91/plic_isr.c:173
    2494:	c632                	c.swsp	a2,12(sp)
    2496:	c436                	c.swsp	a3,8(sp)
    2498:	c23a                	c.swsp	a4,4(sp)
plic_isr():
C:/Users/Admin/Desktop/test1/telink_b91m_driver_src/chip/B91/drivers/lib/src/plic.c:97
    249a:	03c78783          	lb	a5,60(a5)
    249e:	0ff7f793          	andi	a5,a5,255
    24a2:	ef89                	c.bnez	a5,24bc <entry_irq3+0x34>
plic_interrupt_complete():
C:\Users\Admin\Desktop\test1\telink_b91m_driver_src\chip\B91\drivers/lib/include/plic.h:281
    24a4:	e42007b7          	lui	a5,0xe4200
    24a8:	470d                	c.li	a4,3
    24aa:	c3d8                	c.sw	a4,4(a5)
entry_irq3():
E:/promotion/gitlab/opensdk/Mars_B91/telink_mars_b91_driver_sdk_v2.2.0/demo/vendor/common/B91/plic_isr.c:175
}
    24ac:	4632                	c.lwsp	a2,12(sp)
    24ae:	46a2                	c.lwsp	a3,8(sp)
    24b0:	4712                	c.lwsp	a4,4(sp)
    24b2:	4782                	c.lwsp	a5,0(sp)
    24b4:	01010113          	addi	sp,sp,16
    24b8:	30200073          	mret
plic_isr():
C:/Users/Admin/Desktop/test1/telink_b91m_driver_src/chip/B91/drivers/lib/src/plic.c:99
    24bc:	34102773          	csrr	a4,mepc
    24c0:	300026f3          	csrr	a3,mstatus
    24c4:	7c4027f3          	csrr	a5,mxstatus
    24c8:	30046673          	csrrsi	a2,mstatus,8
C:/Users/Admin/Desktop/test1/telink_b91m_driver_src/chip/B91/drivers/lib/src/plic.c:101
    24cc:	30047673          	csrrci	a2,mstatus,8
    24d0:	30069073          	csrw	mstatus,a3
    24d4:	34171073          	csrw	mepc,a4
    24d8:	7c479073          	csrw	mxstatus,a5
plic_interrupt_complete():
C:\Users\Admin\Desktop\test1\telink_b91m_driver_src\chip\B91\drivers/lib/include/plic.h:281
    24dc:	e42007b7          	lui	a5,0xe4200
    24e0:	470d                	c.li	a4,3
    24e2:	c3d8                	c.sw	a4,4(a5)
plic_isr():
C:/Users/Admin/Desktop/test1/telink_b91m_driver_src/chip/B91/drivers/lib/src/plic.c:103
    24e4:	0ff0000f          	fence
entry_irq3():
E:/promotion/gitlab/opensdk/Mars_B91/telink_mars_b91_driver_sdk_v2.2.0/demo/vendor/common/B91/plic_isr.c:175
    24e8:	4632                	c.lwsp	a2,12(sp)
    24ea:	46a2                	c.lwsp	a3,8(sp)
    24ec:	4712                	c.lwsp	a4,4(sp)
    24ee:	4782                	c.lwsp	a5,0(sp)
    24f0:	01010113          	addi	sp,sp,16
    24f4:	30200073          	mret

000024f8 <entry_irq2>:
entry_irq2():
E:/promotion/gitlab/opensdk/Mars_B91/telink_mars_b91_driver_sdk_v2.2.0/demo/vendor/common/B91/plic_isr.c:162
{
    24f8:	1141                	c.addi	sp,-16
    24fa:	c03e                	c.swsp	a5,0(sp)
plic_isr():
C:/Users/Admin/Desktop/test1/telink_b91m_driver_src/chip/B91/drivers/lib/src/plic.c:97
    24fc:	000007b7          	lui	a5,0x0
    2500:	15878793          	addi	a5,a5,344 # 158 <_AES_VMA_END>
entry_irq2():
E:/promotion/gitlab/opensdk/Mars_B91/telink_mars_b91_driver_sdk_v2.2.0/demo/vendor/common/B91/plic_isr.c:162
    2504:	c632                	c.swsp	a2,12(sp)
    2506:	c436                	c.swsp	a3,8(sp)
    2508:	c23a                	c.swsp	a4,4(sp)
plic_isr():
C:/Users/Admin/Desktop/test1/telink_b91m_driver_src/chip/B91/drivers/lib/src/plic.c:97
    250a:	03c78783          	lb	a5,60(a5)
    250e:	0ff7f793          	andi	a5,a5,255
    2512:	ef89                	c.bnez	a5,252c <entry_irq2+0x34>
plic_interrupt_complete():
C:\Users\Admin\Desktop\test1\telink_b91m_driver_src\chip\B91\drivers/lib/include/plic.h:281
    2514:	e42007b7          	lui	a5,0xe4200
    2518:	4709                	c.li	a4,2
    251a:	c3d8                	c.sw	a4,4(a5)
entry_irq2():
E:/promotion/gitlab/opensdk/Mars_B91/telink_mars_b91_driver_sdk_v2.2.0/demo/vendor/common/B91/plic_isr.c:164
}
    251c:	4632                	c.lwsp	a2,12(sp)
    251e:	46a2                	c.lwsp	a3,8(sp)
    2520:	4712                	c.lwsp	a4,4(sp)
    2522:	4782                	c.lwsp	a5,0(sp)
    2524:	01010113          	addi	sp,sp,16
    2528:	30200073          	mret
plic_isr():
C:/Users/Admin/Desktop/test1/telink_b91m_driver_src/chip/B91/drivers/lib/src/plic.c:99
    252c:	34102773          	csrr	a4,mepc
    2530:	300026f3          	csrr	a3,mstatus
    2534:	7c4027f3          	csrr	a5,mxstatus
    2538:	30046673          	csrrsi	a2,mstatus,8
C:/Users/Admin/Desktop/test1/telink_b91m_driver_src/chip/B91/drivers/lib/src/plic.c:101
    253c:	30047673          	csrrci	a2,mstatus,8
    2540:	30069073          	csrw	mstatus,a3
    2544:	34171073          	csrw	mepc,a4
    2548:	7c479073          	csrw	mxstatus,a5
plic_interrupt_complete():
C:\Users\Admin\Desktop\test1\telink_b91m_driver_src\chip\B91\drivers/lib/include/plic.h:281
    254c:	e42007b7          	lui	a5,0xe4200
    2550:	4709                	c.li	a4,2
    2552:	c3d8                	c.sw	a4,4(a5)
plic_isr():
C:/Users/Admin/Desktop/test1/telink_b91m_driver_src/chip/B91/drivers/lib/src/plic.c:103
    2554:	0ff0000f          	fence
entry_irq2():
E:/promotion/gitlab/opensdk/Mars_B91/telink_mars_b91_driver_sdk_v2.2.0/demo/vendor/common/B91/plic_isr.c:164
    2558:	4632                	c.lwsp	a2,12(sp)
    255a:	46a2                	c.lwsp	a3,8(sp)
    255c:	4712                	c.lwsp	a4,4(sp)
    255e:	4782                	c.lwsp	a5,0(sp)
    2560:	01010113          	addi	sp,sp,16
    2564:	30200073          	mret

00002568 <entry_irq1>:
entry_irq1():
E:/promotion/gitlab/opensdk/Mars_B91/telink_mars_b91_driver_sdk_v2.2.0/demo/vendor/common/B91/plic_isr.c:152
{
    2568:	1141                	c.addi	sp,-16
    256a:	c03e                	c.swsp	a5,0(sp)
plic_isr():
C:/Users/Admin/Desktop/test1/telink_b91m_driver_src/chip/B91/drivers/lib/src/plic.c:97
    256c:	000007b7          	lui	a5,0x0
    2570:	15878793          	addi	a5,a5,344 # 158 <_AES_VMA_END>
entry_irq1():
E:/promotion/gitlab/opensdk/Mars_B91/telink_mars_b91_driver_sdk_v2.2.0/demo/vendor/common/B91/plic_isr.c:152
    2574:	c632                	c.swsp	a2,12(sp)
    2576:	c436                	c.swsp	a3,8(sp)
    2578:	c23a                	c.swsp	a4,4(sp)
plic_isr():
C:/Users/Admin/Desktop/test1/telink_b91m_driver_src/chip/B91/drivers/lib/src/plic.c:97
    257a:	03c78783          	lb	a5,60(a5)
    257e:	0ff7f793          	andi	a5,a5,255
    2582:	ef89                	c.bnez	a5,259c <entry_irq1+0x34>
plic_interrupt_complete():
C:\Users\Admin\Desktop\test1\telink_b91m_driver_src\chip\B91\drivers/lib/include/plic.h:281
    2584:	e42007b7          	lui	a5,0xe4200
    2588:	4705                	c.li	a4,1
    258a:	c3d8                	c.sw	a4,4(a5)
entry_irq1():
E:/promotion/gitlab/opensdk/Mars_B91/telink_mars_b91_driver_sdk_v2.2.0/demo/vendor/common/B91/plic_isr.c:154
}
    258c:	4632                	c.lwsp	a2,12(sp)
    258e:	46a2                	c.lwsp	a3,8(sp)
    2590:	4712                	c.lwsp	a4,4(sp)
    2592:	4782                	c.lwsp	a5,0(sp)
    2594:	01010113          	addi	sp,sp,16
    2598:	30200073          	mret
plic_isr():
C:/Users/Admin/Desktop/test1/telink_b91m_driver_src/chip/B91/drivers/lib/src/plic.c:99
    259c:	34102773          	csrr	a4,mepc
    25a0:	300026f3          	csrr	a3,mstatus
    25a4:	7c4027f3          	csrr	a5,mxstatus
    25a8:	30046673          	csrrsi	a2,mstatus,8
C:/Users/Admin/Desktop/test1/telink_b91m_driver_src/chip/B91/drivers/lib/src/plic.c:101
    25ac:	30047673          	csrrci	a2,mstatus,8
    25b0:	30069073          	csrw	mstatus,a3
    25b4:	34171073          	csrw	mepc,a4
    25b8:	7c479073          	csrw	mxstatus,a5
plic_interrupt_complete():
C:\Users\Admin\Desktop\test1\telink_b91m_driver_src\chip\B91\drivers/lib/include/plic.h:281
    25bc:	e42007b7          	lui	a5,0xe4200
    25c0:	4705                	c.li	a4,1
    25c2:	c3d8                	c.sw	a4,4(a5)
plic_isr():
C:/Users/Admin/Desktop/test1/telink_b91m_driver_src/chip/B91/drivers/lib/src/plic.c:103
    25c4:	0ff0000f          	fence
entry_irq1():
E:/promotion/gitlab/opensdk/Mars_B91/telink_mars_b91_driver_sdk_v2.2.0/demo/vendor/common/B91/plic_isr.c:154
    25c8:	4632                	c.lwsp	a2,12(sp)
    25ca:	46a2                	c.lwsp	a3,8(sp)
    25cc:	4712                	c.lwsp	a4,4(sp)
    25ce:	4782                	c.lwsp	a5,0(sp)
    25d0:	01010113          	addi	sp,sp,16
    25d4:	30200073          	mret

000025d8 <trap_entry>:
trap_entry():
E:/promotion/gitlab/opensdk/Mars_B91/telink_mars_b91_driver_sdk_v2.2.0/demo/vendor/common/B91/plic_isr.c:74
 {
    25d8:	1101                	c.addi	sp,-32
    25da:	ce36                	c.swsp	a3,28(sp)
    25dc:	cc3a                	c.swsp	a4,24(sp)
    25de:	ca3e                	c.swsp	a5,20(sp)
core_get_mcause():
E:/promotion/gitlab/opensdk/Mars_B91/telink_mars_b91_driver_sdk_v2.2.0/chip/B91/drivers/core.h:217
   This register is updated when a trap, reset, NMI or vector interrupt occurs
 * @return     none
 */
static inline unsigned int core_get_mcause(void)
{
	return read_csr(NDS_MCAUSE);
    25e0:	34202773          	csrr	a4,mcause
except_handler():
E:/promotion/gitlab/opensdk/Mars_B91/telink_mars_b91_driver_sdk_v2.2.0/demo/vendor/common/B91/plic_isr.c:56
	mcause = core_get_mcause();
    25e4:	80efcdab          	swgp	a4,-2024 # 80018 <mcause>
core_get_mepc():
E:/promotion/gitlab/opensdk/Mars_B91/telink_mars_b91_driver_sdk_v2.2.0/chip/B91/drivers/core.h:228
 * to the value of the instruction pc currently encountered with the exception
 * @return     none
 */
static inline unsigned int core_get_mepc(void)
{
	return read_csr(NDS_MEPC);
    25e8:	341026f3          	csrr	a3,mepc
except_handler():
E:/promotion/gitlab/opensdk/Mars_B91/telink_mars_b91_driver_sdk_v2.2.0/demo/vendor/common/B91/plic_isr.c:60
 		for(volatile unsigned int i = 0; i < 0xffff; i++)
    25ec:	6741                	c.lui	a4,0x10
    25ee:	1779                	c.addi	a4,-2
E:/promotion/gitlab/opensdk/Mars_B91/telink_mars_b91_driver_sdk_v2.2.0/demo/vendor/common/B91/plic_isr.c:57
	mepc   = core_get_mepc();
    25f0:	82dfc1ab          	swgp	a3,-2016 # 80020 <mepc>
E:/promotion/gitlab/opensdk/Mars_B91/telink_mars_b91_driver_sdk_v2.2.0/demo/vendor/common/B91/plic_isr.c:60
 		for(volatile unsigned int i = 0; i < 0xffff; i++)
    25f4:	c602                	c.swsp	zero,12(sp)
    25f6:	47b2                	c.lwsp	a5,12(sp)
    25f8:	fef76ee3          	bltu	a4,a5,25f4 <trap_entry+0x1c>
E:/promotion/gitlab/opensdk/Mars_B91/telink_mars_b91_driver_sdk_v2.2.0/demo/vendor/common/B91/plic_isr.c:62
 			__asm__("nop");
    25fc:	0001                	c.nop
E:/promotion/gitlab/opensdk/Mars_B91/telink_mars_b91_driver_sdk_v2.2.0/demo/vendor/common/B91/plic_isr.c:60
 		for(volatile unsigned int i = 0; i < 0xffff; i++)
    25fe:	47b2                	c.lwsp	a5,12(sp)
    2600:	0785                	c.addi	a5,1
    2602:	c63e                	c.swsp	a5,12(sp)
    2604:	47b2                	c.lwsp	a5,12(sp)
    2606:	fef77be3          	bgeu	a4,a5,25fc <trap_entry+0x24>
    260a:	b7ed                	c.j	25f4 <trap_entry+0x1c>
trap_entry():
    260c:	0001                	c.nop
	...

00002700 <__vectors>:
__vectors():
    2700:	25d8                	c.fld	fa4,136(a1)
    2702:	0000                	unimp
    2704:	2568                	c.fld	fa0,200(a0)
    2706:	0000                	unimp
    2708:	24f8                	c.fld	fa4,200(s1)
    270a:	0000                	unimp
    270c:	2488                	c.fld	fa0,8(s1)
    270e:	0000                	unimp
    2710:	2418                	c.fld	fa4,8(s0)
    2712:	0000                	unimp
    2714:	23a8                	c.fld	fa0,64(a5)
    2716:	0000                	unimp
    2718:	2338                	c.fld	fa4,64(a4)
    271a:	0000                	unimp
    271c:	22c8                	c.fld	fa0,128(a3)
    271e:	0000                	unimp
    2720:	2258                	c.fld	fa4,128(a2)
    2722:	0000                	unimp
    2724:	21e8                	c.fld	fa0,192(a1)
    2726:	0000                	unimp
    2728:	2178                	c.fld	fa4,192(a0)
    272a:	0000                	unimp
    272c:	2108                	c.fld	fa0,0(a0)
    272e:	0000                	unimp
    2730:	2098                	c.fld	fa4,0(s1)
    2732:	0000                	unimp
    2734:	2028                	c.fld	fa0,64(s0)
    2736:	0000                	unimp
    2738:	1fb8                	c.addi4spn	a4,sp,1016
    273a:	0000                	unimp
    273c:	1f48                	c.addi4spn	a0,sp,948
    273e:	0000                	unimp
    2740:	1ed8                	c.addi4spn	a4,sp,884
    2742:	0000                	unimp
    2744:	1e68                	c.addi4spn	a0,sp,828
    2746:	0000                	unimp
    2748:	1df8                	c.addi4spn	a4,sp,764
    274a:	0000                	unimp
    274c:	1d88                	c.addi4spn	a0,sp,752
    274e:	0000                	unimp
    2750:	1d18                	c.addi4spn	a4,sp,688
    2752:	0000                	unimp
    2754:	1ca8                	c.addi4spn	a0,sp,632
    2756:	0000                	unimp
    2758:	1c38                	c.addi4spn	a4,sp,568
    275a:	0000                	unimp
    275c:	1bc8                	c.addi4spn	a0,sp,500
    275e:	0000                	unimp
    2760:	1b58                	c.addi4spn	a4,sp,436
    2762:	0000                	unimp
    2764:	1ae8                	c.addi4spn	a0,sp,380
    2766:	0000                	unimp
    2768:	1a78                	c.addi4spn	a4,sp,316
    276a:	0000                	unimp
    276c:	1a08                	c.addi4spn	a0,sp,304
    276e:	0000                	unimp
    2770:	1998                	c.addi4spn	a4,sp,240
    2772:	0000                	unimp
    2774:	1928                	c.addi4spn	a0,sp,184
    2776:	0000                	unimp
    2778:	18b8                	c.addi4spn	a4,sp,120
    277a:	0000                	unimp
    277c:	1848                	c.addi4spn	a0,sp,52
    277e:	0000                	unimp
    2780:	17d8                	c.addi4spn	a4,sp,996
    2782:	0000                	unimp
    2784:	1768                	c.addi4spn	a0,sp,940
    2786:	0000                	unimp
    2788:	16f8                	c.addi4spn	a4,sp,876
    278a:	0000                	unimp
    278c:	1688                	c.addi4spn	a0,sp,864
    278e:	0000                	unimp
    2790:	1618                	c.addi4spn	a4,sp,800
    2792:	0000                	unimp
    2794:	15a8                	c.addi4spn	a0,sp,744
    2796:	0000                	unimp
    2798:	15a4                	c.addi4spn	s1,sp,744
    279a:	0000                	unimp
    279c:	15a0                	c.addi4spn	s0,sp,744
    279e:	0000                	unimp
    27a0:	159c                	c.addi4spn	a5,sp,736
    27a2:	0000                	unimp
    27a4:	1598                	c.addi4spn	a4,sp,736
    27a6:	0000                	unimp
    27a8:	1528                	c.addi4spn	a0,sp,680
    27aa:	0000                	unimp
    27ac:	14b8                	c.addi4spn	a4,sp,616
    27ae:	0000                	unimp
    27b0:	1448                	c.addi4spn	a0,sp,548
    27b2:	0000                	unimp
    27b4:	1444                	c.addi4spn	s1,sp,548
    27b6:	0000                	unimp
    27b8:	13d4                	c.addi4spn	a3,sp,484
    27ba:	0000                	unimp
    27bc:	13d0                	c.addi4spn	a2,sp,484
    27be:	0000                	unimp
    27c0:	13cc                	c.addi4spn	a1,sp,484
    27c2:	0000                	unimp
    27c4:	13c8                	c.addi4spn	a0,sp,484
    27c6:	0000                	unimp
    27c8:	1358                	c.addi4spn	a4,sp,420
    27ca:	0000                	unimp
    27cc:	12e8                	c.addi4spn	a0,sp,364
    27ce:	0000                	unimp
    27d0:	1278                	c.addi4spn	a4,sp,300
    27d2:	0000                	unimp
    27d4:	1208                	c.addi4spn	a0,sp,288
    27d6:	0000                	unimp
    27d8:	1198                	c.addi4spn	a4,sp,224
    27da:	0000                	unimp
    27dc:	1128                	c.addi4spn	a0,sp,168
    27de:	0000                	unimp
    27e0:	10b8                	c.addi4spn	a4,sp,104
    27e2:	0000                	unimp
    27e4:	1048                	c.addi4spn	a0,sp,36
    27e6:	0000                	unimp
    27e8:	0fd8                	c.addi4spn	a4,sp,980
    27ea:	0000                	unimp
    27ec:	0f68                	c.addi4spn	a0,sp,924
    27ee:	0000                	unimp
    27f0:	0ef8                	c.addi4spn	a4,sp,860
    27f2:	0000                	unimp
    27f4:	0e88                	c.addi4spn	a0,sp,848
    27f6:	0000                	unimp
    27f8:	0d90                	c.addi4spn	a2,sp,720
    27fa:	0000                	unimp
    27fc:	0d20                	c.addi4spn	s0,sp,664
    27fe:	0000                	unimp
    2800:	0001                	c.nop

Disassembly of section .text:

20002958 <flash_read_uid.constprop.9>:
flash_read_uid():
E:/promotion/gitlab/opensdk/Mars_B91/telink_mars_b91_driver_sdk_v2.2.0/chip/B91/drivers/flash.c:588
 *
 *              Risk description: When the chip power supply voltage is relatively low, due to the unstable power supply,
 *              there may be a risk of error in the operation of the flash (especially for the write and erase operations.
 *              If an abnormality occurs, the firmware and user data may be rewritten, resulting in the final Product failure)
 */
_attribute_text_sec_ void flash_read_uid(unsigned char idcmd, unsigned char *buf)
20002958:	1141                	c.addi	sp,-16
2000295a:	c606                	c.swsp	ra,12(sp)
2000295c:	872a                	c.mv	a4,a0
E:/promotion/gitlab/opensdk/Mars_B91/telink_mars_b91_driver_sdk_v2.2.0/chip/B91/drivers/flash.c:590
{
	__asm__("csrci 	mmisc_ctl,8");	//disable BTB
2000295e:	7d047073          	csrci	mmisc_ctl,8
E:/promotion/gitlab/opensdk/Mars_B91/telink_mars_b91_driver_sdk_v2.2.0/chip/B91/drivers/flash.c:593
	if(idcmd == FLASH_READ_UID_CMD_GD_PUYA_ZB_TH)	//< GD/PUYA/ZB/TH
	{
		flash_mspi_read_ram(idcmd, 0, 0, 4, buf, 16);
20002962:	47c1                	c.li	a5,16
20002964:	4691                	c.li	a3,4
20002966:	4601                	c.li	a2,0
20002968:	00000593          	li	a1,0
2000296c:	04b00513          	li	a0,75
20002970:	dfffe097          	auipc	ra,0xdfffe
20002974:	af0080e7          	jalr	-1296(ra) # 460 <flash_mspi_read_ram>
E:/promotion/gitlab/opensdk/Mars_B91/telink_mars_b91_driver_sdk_v2.2.0/chip/B91/drivers/flash.c:595
	}
	__asm__("csrsi 	mmisc_ctl,8");	//enable BTB
20002978:	7d046073          	csrsi	mmisc_ctl,8
E:/promotion/gitlab/opensdk/Mars_B91/telink_mars_b91_driver_sdk_v2.2.0/chip/B91/drivers/flash.c:596
}
2000297c:	40b2                	c.lwsp	ra,12(sp)
2000297e:	0141                	c.addi	sp,16
20002980:	00008067          	ret

20002984 <flash_read_mid>:
flash_read_mid():
E:/promotion/gitlab/opensdk/Mars_B91/telink_mars_b91_driver_sdk_v2.2.0/chip/B91/drivers/flash.c:564
{
20002984:	1101                	c.addi	sp,-32
20002986:	ce06                	c.swsp	ra,28(sp)
E:/promotion/gitlab/opensdk/Mars_B91/telink_mars_b91_driver_sdk_v2.2.0/chip/B91/drivers/flash.c:565
	unsigned int flash_mid = 0;
20002988:	c602                	c.swsp	zero,12(sp)
E:/promotion/gitlab/opensdk/Mars_B91/telink_mars_b91_driver_sdk_v2.2.0/chip/B91/drivers/flash.c:566
	__asm__("csrci 	mmisc_ctl,8");	//disable BTB
2000298a:	7d047073          	csrci	mmisc_ctl,8
E:/promotion/gitlab/opensdk/Mars_B91/telink_mars_b91_driver_sdk_v2.2.0/chip/B91/drivers/flash.c:567
	flash_mspi_read_ram(FLASH_GET_JEDEC_ID, 0, 0, 0, (unsigned char*)(&flash_mid), 3);
2000298e:	478d                	c.li	a5,3
20002990:	0078                	c.addi4spn	a4,sp,12
20002992:	4681                	c.li	a3,0
20002994:	4601                	c.li	a2,0
20002996:	4581                	c.li	a1,0
20002998:	09f00513          	li	a0,159
2000299c:	dfffe097          	auipc	ra,0xdfffe
200029a0:	ac4080e7          	jalr	-1340(ra) # 460 <flash_mspi_read_ram>
E:/promotion/gitlab/opensdk/Mars_B91/telink_mars_b91_driver_sdk_v2.2.0/chip/B91/drivers/flash.c:568
	__asm__("csrsi 	mmisc_ctl,8");	//enable BTB
200029a4:	7d046073          	csrsi	mmisc_ctl,8
E:/promotion/gitlab/opensdk/Mars_B91/telink_mars_b91_driver_sdk_v2.2.0/chip/B91/drivers/flash.c:570
}
200029a8:	40f2                	c.lwsp	ra,28(sp)
200029aa:	4532                	c.lwsp	a0,12(sp)
200029ac:	6105                	c.addi16sp	sp,32
200029ae:	8082                	c.jr	ra

200029b0 <flash_read_mid_uid_with_check>:
flash_read_mid_uid_with_check():
E:/promotion/gitlab/opensdk/Mars_B91/telink_mars_b91_driver_sdk_v2.2.0/chip/B91/drivers/flash.c:688
 *              there may be a risk of error in the operation of the flash (especially for the write and erase operations.
 *              If an abnormality occurs, the firmware and user data may be rewritten, resulting in the final Product failure)
 */
_attribute_text_sec_ int flash_read_mid_uid_with_check(unsigned int *flash_mid, unsigned char *flash_uid)
{
	unsigned char no_uid[16]={0x51,0x01,0x51,0x01,0x51,0x01,0x51,0x01,0x51,0x01,0x51,0x01,0x51,0x01,0x51,0x01};
200029b0:	200037b7          	lui	a5,0x20003
200029b4:	23878793          	addi	a5,a5,568 # 20003238 <main+0x5f4>
200029b8:	4798                	c.lw	a4,8(a5)
200029ba:	4390                	c.lw	a2,0(a5)
200029bc:	43d4                	c.lw	a3,4(a5)
200029be:	47dc                	c.lw	a5,12(a5)
E:/promotion/gitlab/opensdk/Mars_B91/telink_mars_b91_driver_sdk_v2.2.0/chip/B91/drivers/flash.c:687
{
200029c0:	1101                	c.addi	sp,-32
200029c2:	cc22                	c.swsp	s0,24(sp)
200029c4:	ca26                	c.swsp	s1,20(sp)
E:/promotion/gitlab/opensdk/Mars_B91/telink_mars_b91_driver_sdk_v2.2.0/chip/B91/drivers/flash.c:688
	unsigned char no_uid[16]={0x51,0x01,0x51,0x01,0x51,0x01,0x51,0x01,0x51,0x01,0x51,0x01,0x51,0x01,0x51,0x01};
200029c6:	c43a                	c.swsp	a4,8(sp)
E:/promotion/gitlab/opensdk/Mars_B91/telink_mars_b91_driver_sdk_v2.2.0/chip/B91/drivers/flash.c:687
{
200029c8:	84aa                	c.mv	s1,a0
E:/promotion/gitlab/opensdk/Mars_B91/telink_mars_b91_driver_sdk_v2.2.0/chip/B91/drivers/flash.c:688
	unsigned char no_uid[16]={0x51,0x01,0x51,0x01,0x51,0x01,0x51,0x01,0x51,0x01,0x51,0x01,0x51,0x01,0x51,0x01};
200029ca:	c63e                	c.swsp	a5,12(sp)
E:/promotion/gitlab/opensdk/Mars_B91/telink_mars_b91_driver_sdk_v2.2.0/chip/B91/drivers/flash.c:687
{
200029cc:	ce06                	c.swsp	ra,28(sp)
200029ce:	842e                	c.mv	s0,a1
E:/promotion/gitlab/opensdk/Mars_B91/telink_mars_b91_driver_sdk_v2.2.0/chip/B91/drivers/flash.c:688
	unsigned char no_uid[16]={0x51,0x01,0x51,0x01,0x51,0x01,0x51,0x01,0x51,0x01,0x51,0x01,0x51,0x01,0x51,0x01};
200029d0:	c032                	c.swsp	a2,0(sp)
200029d2:	c236                	c.swsp	a3,4(sp)
E:/promotion/gitlab/opensdk/Mars_B91/telink_mars_b91_driver_sdk_v2.2.0/chip/B91/drivers/flash.c:690
	unsigned int i,f_cnt=0;
	*flash_mid = flash_read_mid();
200029d4:	fb1ff0ef          	jal	ra,20002984 <flash_read_mid>
E:/promotion/gitlab/opensdk/Mars_B91/telink_mars_b91_driver_sdk_v2.2.0/chip/B91/drivers/flash.c:693

	for(i=0; i<FLASH_CNT; i++){
		if(flash_support_mid[i] == *flash_mid){
200029d8:	77c1                	c.lui	a5,0xffff0
200029da:	17fd                	c.addi	a5,-1
200029dc:	00146737          	lui	a4,0x146
E:/promotion/gitlab/opensdk/Mars_B91/telink_mars_b91_driver_sdk_v2.2.0/chip/B91/drivers/flash.c:690
	*flash_mid = flash_read_mid();
200029e0:	c088                	c.sw	a0,0(s1)
E:/promotion/gitlab/opensdk/Mars_B91/telink_mars_b91_driver_sdk_v2.2.0/chip/B91/drivers/flash.c:693
		if(flash_support_mid[i] == *flash_mid){
200029e2:	8fe9                	c.and	a5,a0
200029e4:	08570713          	addi	a4,a4,133 # 146085 <FLASH_SIZE+0x46085>
200029e8:	02e78063          	beq	a5,a4,20002a08 <flash_read_mid_uid_with_check+0x58>
200029ec:	001667b7          	lui	a5,0x166
200029f0:	08578793          	addi	a5,a5,133 # 166085 <FLASH_SIZE+0x66085>
E:/promotion/gitlab/opensdk/Mars_B91/telink_mars_b91_driver_sdk_v2.2.0/chip/B91/drivers/flash.c:699
			flash_read_uid(FLASH_READ_UID_CMD_GD_PUYA_ZB_TH, (unsigned char *)flash_uid);
			break;
		}
	}
	if(i == FLASH_CNT){
		return 0;
200029f4:	4681                	c.li	a3,0
E:/promotion/gitlab/opensdk/Mars_B91/telink_mars_b91_driver_sdk_v2.2.0/chip/B91/drivers/flash.c:693
		if(flash_support_mid[i] == *flash_mid){
200029f6:	00f50963          	beq	a0,a5,20002a08 <flash_read_mid_uid_with_check+0x58>
E:/promotion/gitlab/opensdk/Mars_B91/telink_mars_b91_driver_sdk_v2.2.0/chip/B91/drivers/flash.c:713
	if(f_cnt == 16){	//no uid flash
		return 0;
	}else{
		return 1;
	}
}
200029fa:	40f2                	c.lwsp	ra,28(sp)
200029fc:	4462                	c.lwsp	s0,24(sp)
200029fe:	44d2                	c.lwsp	s1,20(sp)
20002a00:	8536                	c.mv	a0,a3
20002a02:	6105                	c.addi16sp	sp,32
20002a04:	00008067          	ret
E:/promotion/gitlab/opensdk/Mars_B91/telink_mars_b91_driver_sdk_v2.2.0/chip/B91/drivers/flash.c:694
			flash_read_uid(FLASH_READ_UID_CMD_GD_PUYA_ZB_TH, (unsigned char *)flash_uid);
20002a08:	8522                	c.mv	a0,s0
20002a0a:	37b9                	c.jal	20002958 <flash_read_uid.constprop.9>
20002a0c:	85a2                	c.mv	a1,s0
20002a0e:	870a                	c.mv	a4,sp
20002a10:	0808                	c.addi4spn	a0,sp,16
20002a12:	4681                	c.li	a3,0
E:/promotion/gitlab/opensdk/Mars_B91/telink_mars_b91_driver_sdk_v2.2.0/chip/B91/drivers/flash.c:703
		if(flash_uid[i] == no_uid[i]){
20002a14:	0005c783          	lbu	a5,0(a1)
20002a18:	00074603          	lbu	a2,0(a4)
20002a1c:	0705                	c.addi	a4,1
E:/promotion/gitlab/opensdk/Mars_B91/telink_mars_b91_driver_sdk_v2.2.0/chip/B91/drivers/flash.c:704
			f_cnt++;
20002a1e:	8f91                	c.sub	a5,a2
20002a20:	0017b793          	seqz	a5,a5
20002a24:	96be                	c.add	a3,a5
20002a26:	0585                	c.addi	a1,1
E:/promotion/gitlab/opensdk/Mars_B91/telink_mars_b91_driver_sdk_v2.2.0/chip/B91/drivers/flash.c:702
	for(i=0; i<16; i++){
20002a28:	fee516e3          	bne	a0,a4,20002a14 <flash_read_mid_uid_with_check+0x64>
E:/promotion/gitlab/opensdk/Mars_B91/telink_mars_b91_driver_sdk_v2.2.0/chip/B91/drivers/flash.c:713
}
20002a2c:	40f2                	c.lwsp	ra,28(sp)
20002a2e:	4462                	c.lwsp	s0,24(sp)
E:/promotion/gitlab/opensdk/Mars_B91/telink_mars_b91_driver_sdk_v2.2.0/chip/B91/drivers/flash.c:708
	if(f_cnt == 16){	//no uid flash
20002a30:	16c1                	c.addi	a3,-16
20002a32:	00d036b3          	snez	a3,a3
E:/promotion/gitlab/opensdk/Mars_B91/telink_mars_b91_driver_sdk_v2.2.0/chip/B91/drivers/flash.c:713
}
20002a36:	44d2                	c.lwsp	s1,20(sp)
20002a38:	8536                	c.mv	a0,a3
20002a3a:	6105                	c.addi16sp	sp,32
20002a3c:	00008067          	ret

20002a40 <flash_dread>:
flash_dread():
E:/promotion/gitlab/opensdk/Mars_B91/telink_mars_b91_driver_sdk_v2.2.0/chip/B91/drivers/flash.c:305
{
20002a40:	1141                	c.addi	sp,-16
20002a42:	c606                	c.swsp	ra,12(sp)
20002a44:	87ae                	c.mv	a5,a1
20002a46:	8732                	c.mv	a4,a2
E:/promotion/gitlab/opensdk/Mars_B91/telink_mars_b91_driver_sdk_v2.2.0/chip/B91/drivers/flash.c:306
	__asm__("csrci 	mmisc_ctl,8");	//disable BTB
20002a48:	7d047073          	csrci	mmisc_ctl,8
E:/promotion/gitlab/opensdk/Mars_B91/telink_mars_b91_driver_sdk_v2.2.0/chip/B91/drivers/flash.c:307
	flash_mspi_read_ram(FLASH_DREAD_CMD, addr, 1, 1, buf, len);
20002a4c:	4685                	c.li	a3,1
20002a4e:	85aa                	c.mv	a1,a0
20002a50:	00100613          	li	a2,1
20002a54:	03b00513          	li	a0,59
20002a58:	dfffe097          	auipc	ra,0xdfffe
20002a5c:	a08080e7          	jalr	-1528(ra) # 460 <flash_mspi_read_ram>
E:/promotion/gitlab/opensdk/Mars_B91/telink_mars_b91_driver_sdk_v2.2.0/chip/B91/drivers/flash.c:308
	__asm__("csrsi 	mmisc_ctl,8");	//enable BTB
20002a60:	7d046073          	csrsi	mmisc_ctl,8
E:/promotion/gitlab/opensdk/Mars_B91/telink_mars_b91_driver_sdk_v2.2.0/chip/B91/drivers/flash.c:309
}
20002a64:	40b2                	c.lwsp	ra,12(sp)
20002a66:	0141                	c.addi	sp,16
20002a68:	00008067          	ret

20002a6c <clock_init.constprop.4>:
clock_init():
E:/promotion/gitlab/opensdk/Mars_B91/telink_mars_b91_driver_sdk_v2.2.0/chip/B91/drivers/clock.c:367

_attribute_text_sec_
void clock_init(sys_pll_clk_e pll,
20002a6c:	1141                	c.addi	sp,-16
20002a6e:	c606                	c.swsp	ra,12(sp)
E:/promotion/gitlab/opensdk/Mars_B91/telink_mars_b91_driver_sdk_v2.2.0/chip/B91/drivers/clock.c:374
				sys_pll_div_to_cclk_e cclk_div,
				sys_cclk_div_to_hclk_e hclk_div,
				sys_hclk_div_to_pclk_e pclk_div,
				sys_pll_div_to_mspi_clk_e mspi_clk_div)
{
	__asm__("csrci 	mmisc_ctl,8");	//disable BTB
20002a70:	7d047073          	csrci	mmisc_ctl,8
E:/promotion/gitlab/opensdk/Mars_B91/telink_mars_b91_driver_sdk_v2.2.0/chip/B91/drivers/clock.c:375
	clock_init_ram(pll, src, cclk_div, hclk_div, pclk_div, mspi_clk_div);
20002a74:	dfffe097          	auipc	ra,0xdfffe
20002a78:	bec080e7          	jalr	-1044(ra) # 660 <clock_init_ram.constprop.5>
E:/promotion/gitlab/opensdk/Mars_B91/telink_mars_b91_driver_sdk_v2.2.0/chip/B91/drivers/clock.c:376
	__asm__("csrsi 	mmisc_ctl,8");	//enable BTB
20002a7c:	7d046073          	csrsi	mmisc_ctl,8
E:/promotion/gitlab/opensdk/Mars_B91/telink_mars_b91_driver_sdk_v2.2.0/chip/B91/drivers/clock.c:377
}
20002a80:	40b2                	c.lwsp	ra,12(sp)
20002a82:	0141                	c.addi	sp,16
20002a84:	00008067          	ret

20002a88 <pm_sleep_wakeup.constprop.1>:
pm_sleep_wakeup():
C:/Users/Admin/Desktop/test1/telink_b91m_driver_src/chip/B91/drivers/lib/src/pm.c:788
20002a88:	1141                	c.addi	sp,-16
20002a8a:	c606                	c.swsp	ra,12(sp)
C:/Users/Admin/Desktop/test1/telink_b91m_driver_src/chip/B91/drivers/lib/src/pm.c:791
20002a8c:	7d047073          	csrci	mmisc_ctl,8
C:/Users/Admin/Desktop/test1/telink_b91m_driver_src/chip/B91/drivers/lib/src/pm.c:792
20002a90:	dfffe097          	auipc	ra,0xdfffe
20002a94:	f84080e7          	jalr	-124(ra) # a14 <pm_sleep_wakeup_ram.constprop.2>
C:/Users/Admin/Desktop/test1/telink_b91m_driver_src/chip/B91/drivers/lib/src/pm.c:793
20002a98:	7d046073          	csrsi	mmisc_ctl,8
C:/Users/Admin/Desktop/test1/telink_b91m_driver_src/chip/B91/drivers/lib/src/pm.c:795
20002a9c:	40b2                	c.lwsp	ra,12(sp)
20002a9e:	0141                	c.addi	sp,16
20002aa0:	8082                	c.jr	ra
pm_sleep_wakeup.constprop.1():
20002aa2:	0001                	c.nop

20002aa4 <user_calib_adc_vref.constprop.11>:
user_calib_adc_vref():
E:/promotion/gitlab/opensdk/Mars_B91/telink_mars_b91_driver_sdk_v2.2.0/demo/vendor/common/B91/calibration/calibration.c:32
 * @brief      This function is used to calibrate ADC 1.2V vref.
 * @param[in]  velfrom - the calibration value from flash or otp.
 * @param[in]  addr - the calibration value address of flash or otp.
 * @return 	   1 - the calibration value update, 0 - the calibration value is not update.
 */
unsigned char user_calib_adc_vref(user_calib_from_e velfrom, unsigned int addr)
20002aa4:	1101                	c.addi	sp,-32
20002aa6:	ce06                	c.swsp	ra,28(sp)
E:/promotion/gitlab/opensdk/Mars_B91/telink_mars_b91_driver_sdk_v2.2.0/demo/vendor/common/B91/calibration/calibration.c:45
	deviation of two-point calibrate  in flash:-11~7mv.
	deviation of two-point calibrate  in efuse:-9~24mv.
	deviation of one-point calibrate  in flash:-20~20mv.
	The above statistical results are obtained by testing only 19 9213A chips.
********************************************************************************************/
	unsigned char adc_vref_calib_value[7] = {0};
20002aa8:	c402                	c.swsp	zero,8(sp)
20002aaa:	00011623          	sh	zero,12(sp)
20002aae:	00010723          	sb	zero,14(sp)
E:/promotion/gitlab/opensdk/Mars_B91/telink_mars_b91_driver_sdk_v2.2.0/demo/vendor/common/B91/calibration/calibration.c:48
	unsigned short gpio_calib_value = 0;
	signed char gpio_calib_value_offset = 0;
	if(addr == 0)
20002ab2:	c54d                	c.beqz	a0,20002b5c <user_calib_adc_vref.constprop.11+0xb8>
E:/promotion/gitlab/opensdk/Mars_B91/telink_mars_b91_driver_sdk_v2.2.0/demo/vendor/common/B91/calibration/calibration.c:65
	}
	else
	{
		if(velfrom == USER_CALIB_FROM_FLASH)
		{
			flash_read_page(addr, 7, adc_vref_calib_value);
20002ab4:	000007b7          	lui	a5,0x0
20002ab8:	1587a783          	lw	a5,344(a5) # 158 <_AES_VMA_END>
20002abc:	0030                	c.addi4spn	a2,sp,8
20002abe:	459d                	c.li	a1,7
20002ac0:	9782                	c.jalr	a5
E:/promotion/gitlab/opensdk/Mars_B91/telink_mars_b91_driver_sdk_v2.2.0/demo/vendor/common/B91/calibration/calibration.c:68
		}
		/****** Check the two-point gpio calibration value whether is exist ********/
		if((adc_vref_calib_value[4] != 0xff) && (adc_vref_calib_value[4] <= 0x7f) && (((adc_vref_calib_value[6] << 8) + adc_vref_calib_value[5]) != 0xffff)){
20002ac2:	00c14783          	lbu	a5,12(sp)
20002ac6:	1c07b75b          	bfos	a4,a5,7,0
20002aca:	04074163          	bltz	a4,20002b0c <user_calib_adc_vref.constprop.11+0x68>
20002ace:	00e14703          	lbu	a4,14(sp)
20002ad2:	00d14603          	lbu	a2,13(sp)
20002ad6:	0722                	c.slli	a4,0x8
20002ad8:	66c1                	c.lui	a3,0x10
20002ada:	00c705b3          	add	a1,a4,a2
20002ade:	16fd                	c.addi	a3,-1
20002ae0:	02d58663          	beq	a1,a3,20002b0c <user_calib_adc_vref.constprop.11+0x68>
E:/promotion/gitlab/opensdk/Mars_B91/telink_mars_b91_driver_sdk_v2.2.0/demo/vendor/common/B91/calibration/calibration.c:74
			/****** Method of calculating two-point gpio calibration Flash_gain and Flash_offset value: ********/
			/****** Vref = [(Seven_Byte << 8) + Six_Byte + 1000]mv ********/
			/****** offset = [Five_Byte - 20] mv ********/
			gpio_calib_value = (adc_vref_calib_value[6] << 8) + adc_vref_calib_value[5] + 1000;
			gpio_calib_value_offset = adc_vref_calib_value[4] - 20;
			if ((gpio_calib_value > 1047) && (gpio_calib_value < 1300) && (gpio_calib_value_offset > -20) && (gpio_calib_value_offset < 107))
20002ae4:	fd060613          	addi	a2,a2,-48
20002ae8:	9732                	c.add	a4,a2
20002aea:	3c07275b          	bfoz	a4,a4,15,0
20002aee:	0fb00693          	li	a3,251
20002af2:	08e6e563          	bltu	a3,a4,20002b7c <user_calib_adc_vref.constprop.11+0xd8>
E:/promotion/gitlab/opensdk/Mars_B91/telink_mars_b91_driver_sdk_v2.2.0/demo/vendor/common/B91/calibration/calibration.c:73
			gpio_calib_value_offset = adc_vref_calib_value[4] - 20;
20002af6:	17b1                	c.addi	a5,-20
20002af8:	1c07b7db          	bfos	a5,a5,7,0
E:/promotion/gitlab/opensdk/Mars_B91/telink_mars_b91_driver_sdk_v2.2.0/demo/vendor/common/B91/calibration/calibration.c:74
			if ((gpio_calib_value > 1047) && (gpio_calib_value < 1300) && (gpio_calib_value_offset > -20) && (gpio_calib_value_offset < 107))
20002afc:	5731                	c.li	a4,-20
20002afe:	06e78f63          	beq	a5,a4,20002b7c <user_calib_adc_vref.constprop.11+0xd8>
20002b02:	f9578513          	addi	a0,a5,-107
E:/promotion/gitlab/opensdk/Mars_B91/telink_mars_b91_driver_sdk_v2.2.0/demo/vendor/common/B91/calibration/calibration.c:106
				}
			}
		}
	}

	return 0;
20002b06:	00a03533          	snez	a0,a0
20002b0a:	a89d                	c.j	20002b80 <user_calib_adc_vref.constprop.11+0xdc>
efuse_get_adc_calib_value():
C:/Users/Admin/Desktop/test1/telink_b91m_driver_src/chip/B91/drivers/lib/src/sys.c:268
20002b0c:	801407b7          	lui	a5,0x80140
20002b10:	06500713          	li	a4,101
20002b14:	1ee78a23          	sb	a4,500(a5) # 801401f4 <_DATA_LMA_START+0x6013cf94>
C:/Users/Admin/Desktop/test1/telink_b91m_driver_src/chip/B91/drivers/lib/src/sys.c:269
20002b18:	1c87a703          	lw	a4,456(a5)
C:/Users/Admin/Desktop/test1/telink_b91m_driver_src/chip/B91/drivers/lib/src/sys.c:270
20002b1c:	1e078a23          	sb	zero,500(a5)
C:/Users/Admin/Desktop/test1/telink_b91m_driver_src/chip/B91/drivers/lib/src/sys.c:297
20002b20:	4c47275b          	bfoz	a4,a4,19,4
20002b24:	380727db          	bfoz	a5,a4,14,0
C:/Users/Admin/Desktop/test1/telink_b91m_driver_src/chip/B91/drivers/lib/src/sys.c:298
20002b28:	06078063          	beqz	a5,20002b88 <user_calib_adc_vref.constprop.11+0xe4>
C:/Users/Admin/Desktop/test1/telink_b91m_driver_src/chip/B91/drivers/lib/src/sys.c:302
20002b2c:	1ff77713          	andi	a4,a4,511
user_calib_adc_vref():
E:/promotion/gitlab/opensdk/Mars_B91/telink_mars_b91_driver_sdk_v2.2.0/demo/vendor/common/B91/calibration/calibration.c:85
				if((gpio_calib_value > 1100) && (gpio_calib_value < 1300) && (gpio_calib_value_offset > -20) && (gpio_calib_value_offset < 43))
20002b30:	f9b70713          	addi	a4,a4,-101
20002b34:	3c07275b          	bfoz	a4,a4,15,0
20002b38:	0c600693          	li	a3,198
20002b3c:	04e6e063          	bltu	a3,a4,20002b7c <user_calib_adc_vref.constprop.11+0xd8>
efuse_get_adc_calib_value():
C:/Users/Admin/Desktop/test1/telink_b91m_driver_src/chip/B91/drivers/lib/src/sys.c:304
20002b40:	0097d513          	srli	a0,a5,0x9
20002b44:	1531                	c.addi	a0,-20
20002b46:	1c05355b          	bfos	a0,a0,7,0
user_calib_adc_vref():
E:/promotion/gitlab/opensdk/Mars_B91/telink_mars_b91_driver_sdk_v2.2.0/demo/vendor/common/B91/calibration/calibration.c:85
20002b4a:	57b1                	c.li	a5,-20
20002b4c:	02f50863          	beq	a0,a5,20002b7c <user_calib_adc_vref.constprop.11+0xd8>
20002b50:	fd550513          	addi	a0,a0,-43
E:/promotion/gitlab/opensdk/Mars_B91/telink_mars_b91_driver_sdk_v2.2.0/demo/vendor/common/B91/calibration/calibration.c:106
	return 0;
20002b54:	00a03533          	snez	a0,a0
20002b58:	0280006f          	j	20002b80 <user_calib_adc_vref.constprop.11+0xdc>
efuse_get_adc_calib_value():
C:/Users/Admin/Desktop/test1/telink_b91m_driver_src/chip/B91/drivers/lib/src/sys.c:268
20002b5c:	801407b7          	lui	a5,0x80140
20002b60:	06500713          	li	a4,101
20002b64:	1ee78a23          	sb	a4,500(a5) # 801401f4 <_DATA_LMA_START+0x6013cf94>
C:/Users/Admin/Desktop/test1/telink_b91m_driver_src/chip/B91/drivers/lib/src/sys.c:269
20002b68:	1c87a703          	lw	a4,456(a5)
C:/Users/Admin/Desktop/test1/telink_b91m_driver_src/chip/B91/drivers/lib/src/sys.c:270
20002b6c:	1e078a23          	sb	zero,500(a5)
C:/Users/Admin/Desktop/test1/telink_b91m_driver_src/chip/B91/drivers/lib/src/sys.c:297
20002b70:	4c47275b          	bfoz	a4,a4,19,4
20002b74:	380727db          	bfoz	a5,a4,14,0
C:/Users/Admin/Desktop/test1/telink_b91m_driver_src/chip/B91/drivers/lib/src/sys.c:298
20002b78:	fa079ae3          	bnez	a5,20002b2c <user_calib_adc_vref.constprop.11+0x88>
user_calib_adc_vref():
E:/promotion/gitlab/opensdk/Mars_B91/telink_mars_b91_driver_sdk_v2.2.0/demo/vendor/common/B91/calibration/calibration.c:106
20002b7c:	00000513          	li	a0,0
E:/promotion/gitlab/opensdk/Mars_B91/telink_mars_b91_driver_sdk_v2.2.0/demo/vendor/common/B91/calibration/calibration.c:107
}
20002b80:	40f2                	c.lwsp	ra,28(sp)
20002b82:	6105                	c.addi16sp	sp,32
20002b84:	00008067          	ret
E:/promotion/gitlab/opensdk/Mars_B91/telink_mars_b91_driver_sdk_v2.2.0/demo/vendor/common/B91/calibration/calibration.c:95
				gpio_calib_value = 920 + adc_vref_calib_value[0] + adc_vref_calib_value[1];
20002b88:	00814503          	lbu	a0,8(sp)
20002b8c:	00914783          	lbu	a5,9(sp)
20002b90:	953e                	c.add	a0,a5
E:/promotion/gitlab/opensdk/Mars_B91/telink_mars_b91_driver_sdk_v2.2.0/demo/vendor/common/B91/calibration/calibration.c:97
				if ((gpio_calib_value > 1047) && (gpio_calib_value < 1300))
20002b92:	f8050513          	addi	a0,a0,-128
20002b96:	3c05255b          	bfoz	a0,a0,15,0
E:/promotion/gitlab/opensdk/Mars_B91/telink_mars_b91_driver_sdk_v2.2.0/demo/vendor/common/B91/calibration/calibration.c:106
	return 0;
20002b9a:	0fc53513          	sltiu	a0,a0,252
20002b9e:	b7cd                	c.j	20002b80 <user_calib_adc_vref.constprop.11+0xdc>

20002ba0 <analog_read_reg32.constprop.3>:
core_interrupt_disable():
E:/promotion/gitlab/opensdk/Mars_B91/telink_mars_b91_driver_sdk_v2.2.0/chip/B91/drivers/core.h:101
	unsigned int r = read_csr (NDS_MSTATUS)&FLD_MSTATUS_MIE;
20002ba0:	300027f3          	csrr	a5,mstatus
20002ba4:	8ba1                	c.andi	a5,8
E:/promotion/gitlab/opensdk/Mars_B91/telink_mars_b91_driver_sdk_v2.2.0/chip/B91/drivers/core.h:102
	if(r)
20002ba6:	c399                	c.beqz	a5,20002bac <analog_read_reg32.constprop.3+0xc>
E:/promotion/gitlab/opensdk/Mars_B91/telink_mars_b91_driver_sdk_v2.2.0/chip/B91/drivers/core.h:104
		clear_csr(NDS_MSTATUS,FLD_MSTATUS_MIE);//global interrupts disable
20002ba8:	30047773          	csrrci	a4,mstatus,8
analog_read_reg32():
E:/promotion/gitlab/opensdk/Mars_B91/telink_mars_b91_driver_sdk_v2.2.0/chip/B91/drivers/analog.c:176
	reg_ana_len = 4;
20002bac:	80140737          	lui	a4,0x80140
20002bb0:	00400693          	li	a3,4
20002bb4:	18d701a3          	sb	a3,387(a4) # 80140183 <_DATA_LMA_START+0x6013cf23>
E:/promotion/gitlab/opensdk/Mars_B91/telink_mars_b91_driver_sdk_v2.2.0/chip/B91/drivers/analog.c:177
	reg_ana_addr = addr;
20002bb8:	06000693          	li	a3,96
20002bbc:	18d70023          	sb	a3,384(a4)
E:/promotion/gitlab/opensdk/Mars_B91/telink_mars_b91_driver_sdk_v2.2.0/chip/B91/drivers/analog.c:178
	reg_ana_ctrl = FLD_ANA_CYC;
20002bc0:	04000613          	li	a2,64
analog_wait():
E:/promotion/gitlab/opensdk/Mars_B91/telink_mars_b91_driver_sdk_v2.2.0/chip/B91/drivers/analog.c:432
	while(reg_ana_ctrl & FLD_ANA_BUSY){}
20002bc4:	801406b7          	lui	a3,0x80140
analog_read_reg32():
E:/promotion/gitlab/opensdk/Mars_B91/telink_mars_b91_driver_sdk_v2.2.0/chip/B91/drivers/analog.c:178
	reg_ana_ctrl = FLD_ANA_CYC;
20002bc8:	18c70123          	sb	a2,386(a4)
analog_wait():
E:/promotion/gitlab/opensdk/Mars_B91/telink_mars_b91_driver_sdk_v2.2.0/chip/B91/drivers/analog.c:432
	while(reg_ana_ctrl & FLD_ANA_BUSY){}
20002bcc:	18268703          	lb	a4,386(a3) # 80140182 <_DATA_LMA_START+0x6013cf22>
20002bd0:	fe777e5b          	bbs	a4,7,20002bcc <analog_read_reg32.constprop.3+0x2c>
analog_read_reg32():
E:/promotion/gitlab/opensdk/Mars_B91/telink_mars_b91_driver_sdk_v2.2.0/chip/B91/drivers/analog.c:180
	unsigned int data=reg_ana_addr_data32;
20002bd4:	1846a503          	lw	a0,388(a3)
core_restore_interrupt():
E:/promotion/gitlab/opensdk/Mars_B91/telink_mars_b91_driver_sdk_v2.2.0/chip/B91/drivers/core.h:117
	if(en)
20002bd8:	00078463          	beqz	a5,20002be0 <analog_read_reg32.constprop.3+0x40>
E:/promotion/gitlab/opensdk/Mars_B91/telink_mars_b91_driver_sdk_v2.2.0/chip/B91/drivers/core.h:119
		set_csr(NDS_MSTATUS,en);//global interrupts enable
20002bdc:	3007a7f3          	csrrs	a5,mstatus,a5
analog_read_reg32():
E:/promotion/gitlab/opensdk/Mars_B91/telink_mars_b91_driver_sdk_v2.2.0/chip/B91/drivers/analog.c:183
}
20002be0:	8082                	c.jr	ra
analog_read_reg32.constprop.3():
20002be2:	0001                	c.nop

20002be4 <user_calib_freq_offset.constprop.10>:
user_calib_freq_offset():
E:/promotion/gitlab/opensdk/Mars_B91/telink_mars_b91_driver_sdk_v2.2.0/demo/vendor/common/B91/calibration/calibration.c:120
unsigned char user_calib_freq_offset(user_calib_from_e velfrom, unsigned int addr)
{
	unsigned char frequency_offset_value = 0xff;
	if(velfrom == USER_CALIB_FROM_FLASH)
	{
		flash_read_page(addr, 1, &frequency_offset_value);
20002be4:	000007b7          	lui	a5,0x0
E:/promotion/gitlab/opensdk/Mars_B91/telink_mars_b91_driver_sdk_v2.2.0/demo/vendor/common/B91/calibration/calibration.c:115
unsigned char user_calib_freq_offset(user_calib_from_e velfrom, unsigned int addr)
20002be8:	1101                	c.addi	sp,-32
E:/promotion/gitlab/opensdk/Mars_B91/telink_mars_b91_driver_sdk_v2.2.0/demo/vendor/common/B91/calibration/calibration.c:120
		flash_read_page(addr, 1, &frequency_offset_value);
20002bea:	1587a783          	lw	a5,344(a5) # 158 <_AES_VMA_END>
E:/promotion/gitlab/opensdk/Mars_B91/telink_mars_b91_driver_sdk_v2.2.0/demo/vendor/common/B91/calibration/calibration.c:117
	unsigned char frequency_offset_value = 0xff;
20002bee:	577d                	c.li	a4,-1
E:/promotion/gitlab/opensdk/Mars_B91/telink_mars_b91_driver_sdk_v2.2.0/demo/vendor/common/B91/calibration/calibration.c:120
		flash_read_page(addr, 1, &frequency_offset_value);
20002bf0:	00f10613          	addi	a2,sp,15
20002bf4:	4585                	c.li	a1,1
E:/promotion/gitlab/opensdk/Mars_B91/telink_mars_b91_driver_sdk_v2.2.0/demo/vendor/common/B91/calibration/calibration.c:115
unsigned char user_calib_freq_offset(user_calib_from_e velfrom, unsigned int addr)
20002bf6:	cc22                	c.swsp	s0,24(sp)
20002bf8:	ce06                	c.swsp	ra,28(sp)
E:/promotion/gitlab/opensdk/Mars_B91/telink_mars_b91_driver_sdk_v2.2.0/demo/vendor/common/B91/calibration/calibration.c:117
	unsigned char frequency_offset_value = 0xff;
20002bfa:	00e107a3          	sb	a4,15(sp)
E:/promotion/gitlab/opensdk/Mars_B91/telink_mars_b91_driver_sdk_v2.2.0/demo/vendor/common/B91/calibration/calibration.c:120
		flash_read_page(addr, 1, &frequency_offset_value);
20002bfe:	9782                	c.jalr	a5
E:/promotion/gitlab/opensdk/Mars_B91/telink_mars_b91_driver_sdk_v2.2.0/demo/vendor/common/B91/calibration/calibration.c:122
	}
	if(0xff != frequency_offset_value)
20002c00:	00f14403          	lbu	s0,15(sp)
20002c04:	0ff00793          	li	a5,255
E:/promotion/gitlab/opensdk/Mars_B91/telink_mars_b91_driver_sdk_v2.2.0/demo/vendor/common/B91/calibration/calibration.c:128
	{
		rf_update_internal_cap(frequency_offset_value);
		return 1;
	}

	return 0;
20002c08:	00000513          	li	a0,0
E:/promotion/gitlab/opensdk/Mars_B91/telink_mars_b91_driver_sdk_v2.2.0/demo/vendor/common/B91/calibration/calibration.c:122
	if(0xff != frequency_offset_value)
20002c0c:	02f40663          	beq	s0,a5,20002c38 <user_calib_freq_offset.constprop.10+0x54>
rf_update_internal_cap():
C:/Users/Admin/Desktop/test1/telink_b91m_driver_src/chip/B91/drivers/lib/src/rf.c:1526
20002c10:	08a00513          	li	a0,138
20002c14:	dfffe097          	auipc	ra,0xdfffe
20002c18:	a08080e7          	jalr	-1528(ra) # 61c <analog_read_reg8>
20002c1c:	03f47413          	andi	s0,s0,63
20002c20:	04057593          	andi	a1,a0,64
20002c24:	0085e5b3          	or	a1,a1,s0
20002c28:	08a00513          	li	a0,138
20002c2c:	dfffe097          	auipc	ra,0xdfffe
20002c30:	9b4080e7          	jalr	-1612(ra) # 5e0 <analog_write_reg8>
user_calib_freq_offset():
E:/promotion/gitlab/opensdk/Mars_B91/telink_mars_b91_driver_sdk_v2.2.0/demo/vendor/common/B91/calibration/calibration.c:125
		return 1;
20002c34:	00100513          	li	a0,1
E:/promotion/gitlab/opensdk/Mars_B91/telink_mars_b91_driver_sdk_v2.2.0/demo/vendor/common/B91/calibration/calibration.c:129
}
20002c38:	40f2                	c.lwsp	ra,28(sp)
20002c3a:	4462                	c.lwsp	s0,24(sp)
20002c3c:	6105                	c.addi16sp	sp,32
20002c3e:	8082                	c.jr	ra
user_calib_freq_offset.constprop.10():
20002c40:	0001                	c.nop
	...

20002c44 <main>:
main():
E:/promotion/gitlab/opensdk/Mars_B91/telink_mars_b91_driver_sdk_v2.2.0/demo/vendor/MDEC_Demo/main.c:35
/**
 * @brief		This is main function
 * @return      none
 */
int main (void)
{
20002c44:	7179                	c.addi16sp	sp,-48
sys_init():
C:/Users/Admin/Desktop/test1/telink_b91m_driver_src/chip/B91/drivers/lib/src/sys.c:114
20002c46:	ffbc07b7          	lui	a5,0xffbc0
20002c4a:	17fd                	c.addi	a5,-1
20002c4c:	80140737          	lui	a4,0x80140
main():
E:/promotion/gitlab/opensdk/Mars_B91/telink_mars_b91_driver_sdk_v2.2.0/demo/vendor/MDEC_Demo/main.c:35
20002c50:	d606                	c.swsp	ra,44(sp)
20002c52:	d422                	c.swsp	s0,40(sp)
20002c54:	d226                	c.swsp	s1,36(sp)
20002c56:	d04a                	c.swsp	s2,32(sp)
sys_init():
C:/Users/Admin/Desktop/test1/telink_b91m_driver_src/chip/B91/drivers/lib/src/sys.c:114
20002c58:	1ef72023          	sw	a5,480(a4) # 801401e0 <_DATA_LMA_START+0x6013cf80>
C:/Users/Admin/Desktop/test1/telink_b91m_driver_src/chip/B91/drivers/lib/src/sys.c:117
20002c5c:	00200593          	li	a1,2
20002c60:	08c00513          	li	a0,140
C:/Users/Admin/Desktop/test1/telink_b91m_driver_src/chip/B91/drivers/lib/src/sys.c:115
20002c64:	1ef72223          	sw	a5,484(a4)
C:/Users/Admin/Desktop/test1/telink_b91m_driver_src/chip/B91/drivers/lib/src/sys.c:117
20002c68:	dfffe097          	auipc	ra,0xdfffe
20002c6c:	978080e7          	jalr	-1672(ra) # 5e0 <analog_write_reg8>
C:/Users/Admin/Desktop/test1/telink_b91m_driver_src/chip/B91/drivers/lib/src/sys.c:127
20002c70:	4581                	c.li	a1,0
20002c72:	4529                	c.li	a0,10
20002c74:	dfffe097          	auipc	ra,0xdfffe
20002c78:	96c080e7          	jalr	-1684(ra) # 5e0 <analog_write_reg8>
C:/Users/Admin/Desktop/test1/telink_b91m_driver_src/chip/B91/drivers/lib/src/sys.c:134
20002c7c:	03b00593          	li	a1,59
20002c80:	00b00513          	li	a0,11
20002c84:	dfffe097          	auipc	ra,0xdfffe
20002c88:	95c080e7          	jalr	-1700(ra) # 5e0 <analog_write_reg8>
C:/Users/Admin/Desktop/test1/telink_b91m_driver_src/chip/B91/drivers/lib/src/sys.c:136
20002c8c:	00500513          	li	a0,5
20002c90:	dfffe097          	auipc	ra,0xdfffe
20002c94:	98c080e7          	jalr	-1652(ra) # 61c <analog_read_reg8>
20002c98:	0f757593          	andi	a1,a0,247
20002c9c:	00500513          	li	a0,5
20002ca0:	dfffe097          	auipc	ra,0xdfffe
20002ca4:	940080e7          	jalr	-1728(ra) # 5e0 <analog_write_reg8>
C:/Users/Admin/Desktop/test1/telink_b91m_driver_src/chip/B91/drivers/lib/src/sys.c:138
20002ca8:	00600513          	li	a0,6
20002cac:	dfffe097          	auipc	ra,0xdfffe
20002cb0:	970080e7          	jalr	-1680(ra) # 61c <analog_read_reg8>
20002cb4:	03e57593          	andi	a1,a0,62
20002cb8:	00600513          	li	a0,6
20002cbc:	dfffe097          	auipc	ra,0xdfffe
20002cc0:	924080e7          	jalr	-1756(ra) # 5e0 <analog_write_reg8>
C:/Users/Admin/Desktop/test1/telink_b91m_driver_src/chip/B91/drivers/lib/src/sys.c:143
20002cc4:	04500593          	li	a1,69
20002cc8:	00100513          	li	a0,1
20002ccc:	dfffe097          	auipc	ra,0xdfffe
20002cd0:	914080e7          	jalr	-1772(ra) # 5e0 <analog_write_reg8>
C:/Users/Admin/Desktop/test1/telink_b91m_driver_src/chip/B91/drivers/lib/src/sys.c:149
20002cd4:	04c00593          	li	a1,76
20002cd8:	01c00513          	li	a0,28
20002cdc:	dfffe097          	auipc	ra,0xdfffe
20002ce0:	904080e7          	jalr	-1788(ra) # 5e0 <analog_write_reg8>
20002ce4:	001007b7          	lui	a5,0x100
20002ce8:	44478693          	addi	a3,a5,1092 # 100444 <FLASH_SIZE+0x444>
C:\Users\Admin\Desktop\test1\telink_b91m_driver_src\chip\B91\drivers/dma.h:203
20002cec:	800005b7          	lui	a1,0x80000
C:/Users/Admin/Desktop/test1/telink_b91m_driver_src/chip/B91/drivers/lib/src/sys.c:153
20002cf0:	4e478713          	addi	a4,a5,1252
C:\Users\Admin\Desktop\test1\telink_b91m_driver_src\chip\B91\drivers/dma.h:203
20002cf4:	00b6e633          	or	a2,a3,a1
20002cf8:	00060783          	lb	a5,0(a2)
20002cfc:	01468693          	addi	a3,a3,20
20002d00:	0ff7f793          	andi	a5,a5,255
20002d04:	00e7e793          	ori	a5,a5,14
20002d08:	00f60023          	sb	a5,0(a2)
C:/Users/Admin/Desktop/test1/telink_b91m_driver_src/chip/B91/drivers/lib/src/sys.c:153
20002d0c:	fee694e3          	bne	a3,a4,20002cf4 <main+0xb0>
C:\Users\Admin\Desktop\test1\telink_b91m_driver_src\chip\B91\drivers/usbhw.h:154
20002d10:	801017b7          	lui	a5,0x80101
20002d14:	83a78703          	lb	a4,-1990(a5) # 8010083a <_DATA_LMA_START+0x600fd5da>
pm_update_status_info():
C:/Users/Admin/Desktop/test1/telink_b91m_driver_src/chip/B91/drivers/lib/src/pm.c:223
20002d18:	03800513          	li	a0,56
sys_init():
C:\Users\Admin\Desktop\test1\telink_b91m_driver_src\chip\B91\drivers/usbhw.h:154
20002d1c:	82078d23          	sb	zero,-1990(a5)
pm_update_status_info():
C:/Users/Admin/Desktop/test1/telink_b91m_driver_src/chip/B91/drivers/lib/src/pm.c:223
20002d20:	dfffe097          	auipc	ra,0xdfffe
20002d24:	8fc080e7          	jalr	-1796(ra) # 61c <analog_read_reg8>
20002d28:	00a00433          	add	s0,zero,a0
C:/Users/Admin/Desktop/test1/telink_b91m_driver_src/chip/B91/drivers/lib/src/pm.c:224
20002d2c:	03900513          	li	a0,57
20002d30:	dfffe097          	auipc	ra,0xdfffe
20002d34:	8ec080e7          	jalr	-1812(ra) # 61c <analog_read_reg8>
20002d38:	84aa                	c.mv	s1,a0
C:/Users/Admin/Desktop/test1/telink_b91m_driver_src/chip/B91/drivers/lib/src/pm.c:226
20002d3a:	4004745b          	bbs	s0,0,20002d42 <main+0xfe>
20002d3e:	38e0006f          	j	200030cc <main+0x488>
20002d42:	0fe47593          	andi	a1,s0,254
C:/Users/Admin/Desktop/test1/telink_b91m_driver_src/chip/B91/drivers/lib/src/pm.c:228
20002d46:	815f940b          	addigp	s0,-2028 # 80014 <g_pm_status_info>
C:/Users/Admin/Desktop/test1/telink_b91m_driver_src/chip/B91/drivers/lib/src/pm.c:229
20002d4a:	03800513          	li	a0,56
C:/Users/Admin/Desktop/test1/telink_b91m_driver_src/chip/B91/drivers/lib/src/pm.c:227
20002d4e:	4004f45b          	bbs	s1,0,20002d56 <main+0x112>
20002d52:	3520006f          	j	200030a4 <main+0x460>
C:/Users/Admin/Desktop/test1/telink_b91m_driver_src/chip/B91/drivers/lib/src/pm.c:228
20002d56:	4791                	c.li	a5,4
20002d58:	00f40123          	sb	a5,2(s0)
C:/Users/Admin/Desktop/test1/telink_b91m_driver_src/chip/B91/drivers/lib/src/pm.c:229
20002d5c:	dfffe097          	auipc	ra,0xdfffe
20002d60:	884080e7          	jalr	-1916(ra) # 5e0 <analog_write_reg8>
C:/Users/Admin/Desktop/test1/telink_b91m_driver_src/chip/B91/drivers/lib/src/pm.c:245
20002d64:	00100593          	li	a1,1
20002d68:	07f00513          	li	a0,127
20002d6c:	dfffe097          	auipc	ra,0xdfffe
20002d70:	874080e7          	jalr	-1932(ra) # 5e0 <analog_write_reg8>
pm_get_wakeup_src():
C:\Users\Admin\Desktop\test1\telink_b91m_driver_src\chip\B91\drivers/lib/include/pm.h:224
20002d74:	06400513          	li	a0,100
20002d78:	dfffe097          	auipc	ra,0xdfffe
20002d7c:	8a4080e7          	jalr	-1884(ra) # 61c <analog_read_reg8>
pm_update_status_info():
C:/Users/Admin/Desktop/test1/telink_b91m_driver_src/chip/B91/drivers/lib/src/pm.c:247
20002d80:	0c3527db          	bfoz	a5,a0,3,3
C:/Users/Admin/Desktop/test1/telink_b91m_driver_src/chip/B91/drivers/lib/src/pm.c:246
20002d84:	00a400a3          	sb	a0,1(s0)
C:/Users/Admin/Desktop/test1/telink_b91m_driver_src/chip/B91/drivers/lib/src/pm.c:247
20002d88:	00f40023          	sb	a5,0(s0)
sys_init():
C:/Users/Admin/Desktop/test1/telink_b91m_driver_src/chip/B91/drivers/lib/src/sys.c:164
20002d8c:	08800513          	li	a0,136
20002d90:	dfffe097          	auipc	ra,0xdfffe
20002d94:	88c080e7          	jalr	-1908(ra) # 61c <analog_read_reg8>
20002d98:	be757a5b          	bbc	a0,7,20002d8c <main+0x148>
C:/Users/Admin/Desktop/test1/telink_b91m_driver_src/chip/B91/drivers/lib/src/sys.c:169
20002d9c:	dfffe097          	auipc	ra,0xdfffe
20002da0:	9f8080e7          	jalr	-1544(ra) # 794 <pm_wait_bbpll_done>
C:/Users/Admin/Desktop/test1/telink_b91m_driver_src/chip/B91/drivers/lib/src/sys.c:171
20002da4:	00244783          	lbu	a5,2(s0)
20002da8:	0c87d25b          	beqc	a5,8,20002e6c <main+0x228>
C:/Users/Admin/Desktop/test1/telink_b91m_driver_src/chip/B91/drivers/lib/src/sys.c:176
20002dac:	80140737          	lui	a4,0x80140
20002db0:	20a70783          	lb	a5,522(a4) # 8014020a <_DATA_LMA_START+0x6013cfaa>
20002db4:	0ff7f793          	andi	a5,a5,255
20002db8:	00c7e793          	ori	a5,a5,12
20002dbc:	20f70523          	sb	a5,522(a4)
C:/Users/Admin/Desktop/test1/telink_b91m_driver_src/chip/B91/drivers/lib/src/sys.c:177
20002dc0:	00100793          	li	a5,1
20002dc4:	20f72023          	sw	a5,512(a4)
C:/Users/Admin/Desktop/test1/telink_b91m_driver_src/chip/B91/drivers/lib/src/sys.c:183
20002dc8:	801404b7          	lui	s1,0x80140
20002dcc:	1fd48783          	lb	a5,509(s1) # 801401fd <_DATA_LMA_START+0x6013cf9d>
20002dd0:	0ff7f793          	andi	a5,a5,255
20002dd4:	80ffc9ab          	swgp	a5,-2032 # 80010 <g_chip_version>
C:/Users/Admin/Desktop/test1/telink_b91m_driver_src/chip/B91/drivers/lib/src/sys.c:186
20002dd8:	00244703          	lbu	a4,2(s0)
20002ddc:	04475e5b          	beqc	a4,4,20002e38 <main+0x1f4>
C:/Users/Admin/Desktop/test1/telink_b91m_driver_src/chip/B91/drivers/lib/src/sys.c:194
20002de0:	0ff00693          	li	a3,255
20002de4:	04d78263          	beq	a5,a3,20002e28 <main+0x1e4>
C:/Users/Admin/Desktop/test1/telink_b91m_driver_src/chip/B91/drivers/lib/src/sys.c:202
20002de8:	08000593          	li	a1,128
20002dec:	07d00513          	li	a0,125
20002df0:	dfffd097          	auipc	ra,0xdfffd
20002df4:	7f0080e7          	jalr	2032(ra) # 5e0 <analog_write_reg8>
efuse_get_low_word():
C:/Users/Admin/Desktop/test1/telink_b91m_driver_src/chip/B91/drivers/lib/src/sys.c:268
20002df8:	80140737          	lui	a4,0x80140
20002dfc:	06500793          	li	a5,101
20002e00:	1ef70a23          	sb	a5,500(a4) # 801401f4 <_DATA_LMA_START+0x6013cf94>
C:/Users/Admin/Desktop/test1/telink_b91m_driver_src/chip/B91/drivers/lib/src/sys.c:269
20002e04:	1c872783          	lw	a5,456(a4)
C:/Users/Admin/Desktop/test1/telink_b91m_driver_src/chip/B91/drivers/lib/src/sys.c:270
20002e08:	1e070a23          	sb	zero,500(a4)
efuse_check_protection_code():
C:/Users/Admin/Desktop/test1/telink_b91m_driver_src/chip/B91/drivers/lib/src/sys.c:63
20002e0c:	8bbd                	c.andi	a5,15
C:/Users/Admin/Desktop/test1/telink_b91m_driver_src/chip/B91/drivers/lib/src/sys.c:67
20002e0e:	0037d55b          	beqc	a5,3,20002e18 <main+0x1d4>
20002e12:	4725                	c.li	a4,9
20002e14:	06f77263          	bgeu	a4,a5,20002e78 <main+0x234>
C:/Users/Admin/Desktop/test1/telink_b91m_driver_src/chip/B91/drivers/lib/src/sys.c:69
20002e18:	801407b7          	lui	a5,0x80140
20002e1c:	02000713          	li	a4,32
20002e20:	1ee787a3          	sb	a4,495(a5) # 801401ef <_DATA_LMA_START+0x6013cf8f>
20002e24:	0000006f          	j	20002e24 <main+0x1e0>
sys_init():
C:/Users/Admin/Desktop/test1/telink_b91m_driver_src/chip/B91/drivers/lib/src/sys.c:196
20002e28:	bc17605b          	bnec	a4,1,20002de8 <main+0x1a4>
C:/Users/Admin/Desktop/test1/telink_b91m_driver_src/chip/B91/drivers/lib/src/sys.c:198
20002e2c:	07d00513          	li	a0,125
20002e30:	08000593          	li	a1,128
20002e34:	01c0006f          	j	20002e50 <main+0x20c>
C:/Users/Admin/Desktop/test1/telink_b91m_driver_src/chip/B91/drivers/lib/src/sys.c:189
20002e38:	03900513          	li	a0,57
20002e3c:	dfffd097          	auipc	ra,0xdfffd
20002e40:	7e0080e7          	jalr	2016(ra) # 61c <analog_read_reg8>
20002e44:	00256593          	ori	a1,a0,2
20002e48:	0ff5f593          	andi	a1,a1,255
20002e4c:	03900513          	li	a0,57
C:/Users/Admin/Desktop/test1/telink_b91m_driver_src/chip/B91/drivers/lib/src/sys.c:198
20002e50:	dfffd097          	auipc	ra,0xdfffd
20002e54:	790080e7          	jalr	1936(ra) # 5e0 <analog_write_reg8>
C:\Users\Admin\Desktop\test1\telink_b91m_driver_src\chip\B91\drivers/stimer.h:168
20002e58:	2004a503          	lw	a0,512(s1)
C:/Users/Admin/Desktop/test1/telink_b91m_driver_src/chip/B91/drivers/lib/src/sys.c:199
20002e5c:	001877b7          	lui	a5,0x187
20002e60:	a0078793          	addi	a5,a5,-1536 # 186a00 <FLASH_SIZE+0x86a00>
20002e64:	953e                	c.add	a0,a5
20002e66:	310d                	c.jal	20002a88 <pm_sleep_wakeup.constprop.1>
20002e68:	f81ff06f          	j	20002de8 <main+0x1a4>
C:/Users/Admin/Desktop/test1/telink_b91m_driver_src/chip/B91/drivers/lib/src/sys.c:173
20002e6c:	dfffd097          	auipc	ra,0xdfffd
20002e70:	4d0080e7          	jalr	1232(ra) # 33c <pm_stimer_recover>
20002e74:	f55ff06f          	j	20002dc8 <main+0x184>
user_read_flash_value_calib():
E:/promotion/gitlab/opensdk/Mars_B91/telink_mars_b91_driver_sdk_v2.2.0/demo/vendor/common/B91/calibration/calibration.c:145
	unsigned char flash_mid[4];
	unsigned char flash_uid[16];
	unsigned char flash_mid_sure = 0;

	/******check for flash mid********/
	flash_mid_sure = flash_read_mid_uid_with_check((unsigned int *)flash_mid, flash_uid);
20002e78:	080c                	c.addi4spn	a1,sp,16
20002e7a:	0068                	c.addi4spn	a0,sp,12
20002e7c:	b35ff0ef          	jal	ra,200029b0 <flash_read_mid_uid_with_check>
E:/promotion/gitlab/opensdk/Mars_B91/telink_mars_b91_driver_sdk_v2.2.0/demo/vendor/common/B91/calibration/calibration.c:147

	if (1 == flash_mid_sure)
20002e80:	0ff57513          	andi	a0,a0,255
20002e84:	0015545b          	beqc	a0,1,20002e8c <main+0x248>
20002e88:	38c0006f          	j	20003214 <main+0x5d0>
E:/promotion/gitlab/opensdk/Mars_B91/telink_mars_b91_driver_sdk_v2.2.0/demo/vendor/common/B91/calibration/calibration.c:149
	{
		switch (flash_mid[2])
20002e8c:	00e14783          	lbu	a5,14(sp)
20002e90:	474d                	c.li	a4,19
20002e92:	0137e45b          	bnec	a5,19,20002e9a <main+0x256>
20002e96:	3660006f          	j	200031fc <main+0x5b8>
20002e9a:	34f77163          	bgeu	a4,a5,200031dc <main+0x598>
20002e9e:	4755                	c.li	a4,21
20002ea0:	3357d25b          	beqc	a5,21,200031c4 <main+0x580>
20002ea4:	2ee7e263          	bltu	a5,a4,20003188 <main+0x544>
20002ea8:	0167d45b          	beqc	a5,22,20002eb0 <main+0x26c>
20002eac:	3680006f          	j	20003214 <main+0x5d0>
E:/promotion/gitlab/opensdk/Mars_B91/telink_mars_b91_driver_sdk_v2.2.0/demo/vendor/common/B91/calibration/calibration.c:172
			case FLASH_SIZE_2M:
				user_calib_adc_vref(USER_CALIB_FROM_FLASH, FLASH_ADC_VREF_CALIB_ADDR_2M);
				user_calib_freq_offset(USER_CALIB_FROM_FLASH, FLASH_CAP_VALUE_ADDR_2M);
				break;
			case FLASH_SIZE_4M:
				user_calib_adc_vref(USER_CALIB_FROM_FLASH, FLASH_ADC_VREF_CALIB_ADDR_4M);
20002eb0:	003fe537          	lui	a0,0x3fe
20002eb4:	0c050513          	addi	a0,a0,192 # 3fe0c0 <FLASH_SIZE+0x2fe0c0>
20002eb8:	bedff0ef          	jal	ra,20002aa4 <user_calib_adc_vref.constprop.11>
E:/promotion/gitlab/opensdk/Mars_B91/telink_mars_b91_driver_sdk_v2.2.0/demo/vendor/common/B91/calibration/calibration.c:173
				user_calib_freq_offset(USER_CALIB_FROM_FLASH, FLASH_CAP_VALUE_ADDR_4M);
20002ebc:	003fe537          	lui	a0,0x3fe
20002ec0:	d25ff0ef          	jal	ra,20002be4 <user_calib_freq_offset.constprop.10>
main():
E:/promotion/gitlab/opensdk/Mars_B91/telink_mars_b91_driver_sdk_v2.2.0/demo/vendor/MDEC_Demo/main.c:41
	sys_init(LDO_1P4_LDO_1P8, VBAT_MAX_VALUE_GREATER_THAN_3V6);
	//Note: This function can improve the performance of some modules, which is described in the function comments.
	//Called immediately after sys_init, set in other positions, some calibration values may not take effect.
	user_read_flash_value_calib();

	CCLK_24M_HCLK_24M_PCLK_24M;
20002ec4:	ba9ff0ef          	jal	ra,20002a6c <clock_init.constprop.4>
gpio_function_en():
E:/promotion/gitlab/opensdk/Mars_B91/telink_mars_b91_driver_sdk_v2.2.0/chip/B91/drivers/gpio.h:194
	BM_SET(reg_gpio_func(pin), bit);
20002ec8:	801407b7          	lui	a5,0x80140
20002ecc:	30e78703          	lb	a4,782(a5) # 8014030e <_DATA_LMA_START+0x6013d0ae>
clock_cal_32k_rc():
E:/promotion/gitlab/opensdk/Mars_B91/telink_mars_b91_driver_sdk_v2.2.0/chip/B91/drivers/clock.c:186
	analog_write_reg8(0x4f, ((analog_read_reg8(0x4f) & 0x3f) | 0x40));
20002ed0:	04f00513          	li	a0,79
gpio_function_en():
E:/promotion/gitlab/opensdk/Mars_B91/telink_mars_b91_driver_sdk_v2.2.0/chip/B91/drivers/gpio.h:194
20002ed4:	0ff77713          	andi	a4,a4,255
20002ed8:	01076713          	ori	a4,a4,16
20002edc:	30e78723          	sb	a4,782(a5)
gpio_output_en():
E:/promotion/gitlab/opensdk/Mars_B91/telink_mars_b91_driver_sdk_v2.2.0/chip/B91/drivers/gpio.h:302
 * @return     none.
 */
static inline void gpio_output_en(gpio_pin_e pin)
{
	unsigned char	bit = pin & 0xff;
	BM_CLR(reg_gpio_oen(pin), bit);
20002ee0:	30a78703          	lb	a4,778(a5)
20002ee4:	0ef77713          	andi	a4,a4,239
20002ee8:	30e78523          	sb	a4,778(a5)
gpio_input_dis():
E:/promotion/gitlab/opensdk/Mars_B91/telink_mars_b91_driver_sdk_v2.2.0/chip/B91/drivers/gpio.c:98
	unsigned char	bit = pin & 0xff;
	unsigned short group = pin & 0xf00;

	if(group == GPIO_GROUPA || group == GPIO_GROUPB || group == GPIO_GROUPE)
	{
		BM_CLR(reg_gpio_ie(pin), bit);
20002eec:	30978703          	lb	a4,777(a5)
20002ef0:	0ef77713          	andi	a4,a4,239
20002ef4:	30e784a3          	sb	a4,777(a5)
gpio_function_en():
E:/promotion/gitlab/opensdk/Mars_B91/telink_mars_b91_driver_sdk_v2.2.0/chip/B91/drivers/gpio.h:194
	BM_SET(reg_gpio_func(pin), bit);
20002ef8:	30e78703          	lb	a4,782(a5)
20002efc:	0ff77713          	andi	a4,a4,255
20002f00:	02076713          	ori	a4,a4,32
20002f04:	30e78723          	sb	a4,782(a5)
gpio_output_en():
E:/promotion/gitlab/opensdk/Mars_B91/telink_mars_b91_driver_sdk_v2.2.0/chip/B91/drivers/gpio.h:302
	BM_CLR(reg_gpio_oen(pin), bit);
20002f08:	30a78703          	lb	a4,778(a5)
20002f0c:	0df77713          	andi	a4,a4,223
20002f10:	30e78523          	sb	a4,778(a5)
gpio_input_dis():
E:/promotion/gitlab/opensdk/Mars_B91/telink_mars_b91_driver_sdk_v2.2.0/chip/B91/drivers/gpio.c:98
20002f14:	30978703          	lb	a4,777(a5)
20002f18:	0df77713          	andi	a4,a4,223
20002f1c:	30e784a3          	sb	a4,777(a5)
clock_cal_32k_rc():
E:/promotion/gitlab/opensdk/Mars_B91/telink_mars_b91_driver_sdk_v2.2.0/chip/B91/drivers/clock.c:186
20002f20:	dfffd097          	auipc	ra,0xdfffd
20002f24:	6fc080e7          	jalr	1788(ra) # 61c <analog_read_reg8>
20002f28:	03f57593          	andi	a1,a0,63
20002f2c:	0405e593          	ori	a1,a1,64
20002f30:	04f00513          	li	a0,79
20002f34:	dfffd097          	auipc	ra,0xdfffd
20002f38:	6ac080e7          	jalr	1708(ra) # 5e0 <analog_write_reg8>
E:/promotion/gitlab/opensdk/Mars_B91/telink_mars_b91_driver_sdk_v2.2.0/chip/B91/drivers/clock.c:187
	analog_write_reg8(0xc6, 0xf6);
20002f3c:	0f600593          	li	a1,246
20002f40:	0c600513          	li	a0,198
20002f44:	dfffd097          	auipc	ra,0xdfffd
20002f48:	69c080e7          	jalr	1692(ra) # 5e0 <analog_write_reg8>
E:/promotion/gitlab/opensdk/Mars_B91/telink_mars_b91_driver_sdk_v2.2.0/chip/B91/drivers/clock.c:188
	analog_write_reg8(0xc6, 0xf7);
20002f4c:	0f700593          	li	a1,247
20002f50:	0c600513          	li	a0,198
20002f54:	dfffd097          	auipc	ra,0xdfffd
20002f58:	68c080e7          	jalr	1676(ra) # 5e0 <analog_write_reg8>
E:/promotion/gitlab/opensdk/Mars_B91/telink_mars_b91_driver_sdk_v2.2.0/chip/B91/drivers/clock.c:189
    while(0 == (analog_read_reg8(0xcf) & BIT(6))){};
20002f5c:	0cf00513          	li	a0,207
20002f60:	dfffd097          	auipc	ra,0xdfffd
20002f64:	6bc080e7          	jalr	1724(ra) # 61c <analog_read_reg8>
20002f68:	be657a5b          	bbc	a0,6,20002f5c <main+0x318>
E:/promotion/gitlab/opensdk/Mars_B91/telink_mars_b91_driver_sdk_v2.2.0/chip/B91/drivers/clock.c:190
	unsigned char res1 = analog_read_reg8(0xc9);	//read 32k res[13:6]
20002f6c:	0c900513          	li	a0,201
20002f70:	dfffd097          	auipc	ra,0xdfffd
20002f74:	6ac080e7          	jalr	1708(ra) # 61c <analog_read_reg8>
E:/promotion/gitlab/opensdk/Mars_B91/telink_mars_b91_driver_sdk_v2.2.0/chip/B91/drivers/clock.c:191
	analog_write_reg8(0x51, res1);		//write 32k res[13:6] into manual register
20002f78:	00a005b3          	add	a1,zero,a0
20002f7c:	05100513          	li	a0,81
20002f80:	dfffd097          	auipc	ra,0xdfffd
20002f84:	660080e7          	jalr	1632(ra) # 5e0 <analog_write_reg8>
E:/promotion/gitlab/opensdk/Mars_B91/telink_mars_b91_driver_sdk_v2.2.0/chip/B91/drivers/clock.c:192
	unsigned char res2 = analog_read_reg8(0xca);	//read 32k res[5:0]
20002f88:	0ca00513          	li	a0,202
20002f8c:	dfffd097          	auipc	ra,0xdfffd
20002f90:	690080e7          	jalr	1680(ra) # 61c <analog_read_reg8>
20002f94:	00a00433          	add	s0,zero,a0
E:/promotion/gitlab/opensdk/Mars_B91/telink_mars_b91_driver_sdk_v2.2.0/chip/B91/drivers/clock.c:193
	analog_write_reg8(0x4f, (res2 | (analog_read_reg8(0x4f) & 0xc0)));		//write 32k res[5:0] into manual register
20002f98:	04f00513          	li	a0,79
20002f9c:	dfffd097          	auipc	ra,0xdfffd
20002fa0:	680080e7          	jalr	1664(ra) # 61c <analog_read_reg8>
20002fa4:	fc057593          	andi	a1,a0,-64
20002fa8:	0085e5b3          	or	a1,a1,s0
20002fac:	0ff5f593          	andi	a1,a1,255
20002fb0:	04f00513          	li	a0,79
20002fb4:	dfffd097          	auipc	ra,0xdfffd
20002fb8:	62c080e7          	jalr	1580(ra) # 5e0 <analog_write_reg8>
E:/promotion/gitlab/opensdk/Mars_B91/telink_mars_b91_driver_sdk_v2.2.0/chip/B91/drivers/clock.c:194
	analog_write_reg8(0xc6, 0xf6);
20002fbc:	0f600593          	li	a1,246
20002fc0:	0c600513          	li	a0,198
20002fc4:	dfffd097          	auipc	ra,0xdfffd
20002fc8:	61c080e7          	jalr	1564(ra) # 5e0 <analog_write_reg8>
E:/promotion/gitlab/opensdk/Mars_B91/telink_mars_b91_driver_sdk_v2.2.0/chip/B91/drivers/clock.c:195
	analog_write_reg8(0x4f, ((analog_read_reg8(0x4f) & 0x3f) | 0x00));//manual on
20002fcc:	04f00513          	li	a0,79
20002fd0:	dfffd097          	auipc	ra,0xdfffd
20002fd4:	64c080e7          	jalr	1612(ra) # 61c <analog_read_reg8>
20002fd8:	03f57593          	andi	a1,a0,63
20002fdc:	04f00513          	li	a0,79
20002fe0:	dfffd097          	auipc	ra,0xdfffd
20002fe4:	600080e7          	jalr	1536(ra) # 5e0 <analog_write_reg8>
mdec_init():
E:/promotion/gitlab/opensdk/Mars_B91/telink_mars_b91_driver_sdk_v2.2.0/chip/B91/drivers/mdec.c:38
 * 					  In order to distinguish which pin the data is input from,only one input pin can be selected one time.
 * @return		none.
 */
void mdec_init(mdec_pin_e pin)
{
	analog_write_reg8(mdec_rst_addr,(analog_read_reg8(mdec_rst_addr) & (~FLD_CLS_MDEC)) | pin);//A0/B7/C4/D0/E0
20002fe8:	05300513          	li	a0,83
20002fec:	dfffd097          	auipc	ra,0xdfffd
20002ff0:	630080e7          	jalr	1584(ra) # 61c <analog_read_reg8>
20002ff4:	0e057593          	andi	a1,a0,224
20002ff8:	0105e593          	ori	a1,a1,16
20002ffc:	05300513          	li	a0,83
20003000:	dfffd097          	auipc	ra,0xdfffd
20003004:	5e0080e7          	jalr	1504(ra) # 5e0 <analog_write_reg8>
mdec_clr_irq_status():
E:/promotion/gitlab/opensdk/Mars_B91/telink_mars_b91_driver_sdk_v2.2.0/chip/B91/drivers/mdec.h:59
20003008:	06400513          	li	a0,100
2000300c:	dfffd097          	auipc	ra,0xdfffd
20003010:	610080e7          	jalr	1552(ra) # 61c <analog_read_reg8>
20003014:	01656593          	ori	a1,a0,22
20003018:	0ff5f593          	andi	a1,a1,255
2000301c:	06400513          	li	a0,100
20003020:	dfffd097          	auipc	ra,0xdfffd
20003024:	5c0080e7          	jalr	1472(ra) # 5e0 <analog_write_reg8>
plic_interrupt_enable():
E:\promotion\gitlab\opensdk\Mars_B91\telink_mars_b91_driver_sdk_v2.2.0\chip\B91\drivers/lib/include/plic.h:260
 * @param[in]   src - interrupt source.
 * @return  none
 */
static inline void plic_interrupt_enable(irq_source_e  src)
{
	reg_irq_src(src) |= BIT(src%32);
20003028:	e40026b7          	lui	a3,0xe4002
2000302c:	42dc                	c.lw	a5,4(a3)
2000302e:	40000737          	lui	a4,0x40000
20003032:	8fd9                	c.or	a5,a4
plic_interrupt_claim():
E:\promotion\gitlab\opensdk\Mars_B91\telink_mars_b91_driver_sdk_v2.2.0\chip\B91\drivers/lib/include/plic.h:292
 * @note     vector interrupt the hardware will automatically claim an interrupt, in general, the software does not need to claim.
 *
 */
static inline  unsigned int plic_interrupt_claim(void)
{
	return reg_irq_done;
20003034:	e4200737          	lui	a4,0xe4200
plic_interrupt_enable():
E:\promotion\gitlab\opensdk\Mars_B91\telink_mars_b91_driver_sdk_v2.2.0\chip\B91\drivers/lib/include/plic.h:260
	reg_irq_src(src) |= BIT(src%32);
20003038:	c2dc                	c.sw	a5,4(a3)
plic_interrupt_claim():
E:\promotion\gitlab\opensdk\Mars_B91\telink_mars_b91_driver_sdk_v2.2.0\chip\B91\drivers/lib/include/plic.h:292
	return reg_irq_done;
2000303a:	435c                	c.lw	a5,4(a4)
plic_interrupt_complete():
E:\promotion\gitlab\opensdk\Mars_B91\telink_mars_b91_driver_sdk_v2.2.0\chip\B91\drivers/lib/include/plic.h:281
	reg_irq_done = src;
2000303c:	03e00793          	li	a5,62
20003040:	c35c                	c.sw	a5,4(a4)
core_interrupt_enable():
E:/promotion/gitlab/opensdk/Mars_B91/telink_mars_b91_driver_sdk_v2.2.0/chip/B91/drivers/core.h:130
	set_csr(NDS_MSTATUS,FLD_MSTATUS_MIE);//global interrupts enable
20003042:	300467f3          	csrrsi	a5,mstatus,8
E:/promotion/gitlab/opensdk/Mars_B91/telink_mars_b91_driver_sdk_v2.2.0/chip/B91/drivers/core.h:131
	set_csr(NDS_MIE,FLD_MIE_MSIE |FLD_MIE_MTIE|FLD_MIE_MEIE);//machine Interrupt enable selectively
20003046:	6785                	c.lui	a5,0x1
20003048:	88878793          	addi	a5,a5,-1912 # 888 <pm_sleep_start+0x40>
2000304c:	3047a7f3          	csrrs	a5,mie,a5
mdec_reset():
E:/promotion/gitlab/opensdk/Mars_B91/telink_mars_b91_driver_sdk_v2.2.0/chip/B91/drivers/mdec.h:36
	analog_write_reg8(mdec_rst_addr,analog_read_reg8(mdec_rst_addr) | FLD_MDEC_RST);
20003050:	05300513          	li	a0,83
20003054:	dfffd097          	auipc	ra,0xdfffd
20003058:	5c8080e7          	jalr	1480(ra) # 61c <analog_read_reg8>
2000305c:	f8056593          	ori	a1,a0,-128
20003060:	0ff5f593          	andi	a1,a1,255
20003064:	05300513          	li	a0,83
20003068:	dfffd097          	auipc	ra,0xdfffd
2000306c:	578080e7          	jalr	1400(ra) # 5e0 <analog_write_reg8>
E:/promotion/gitlab/opensdk/Mars_B91/telink_mars_b91_driver_sdk_v2.2.0/chip/B91/drivers/mdec.h:37
	analog_write_reg8(mdec_rst_addr,analog_read_reg8(mdec_rst_addr) & (~FLD_MDEC_RST));
20003070:	05300513          	li	a0,83
20003074:	dfffd097          	auipc	ra,0xdfffd
20003078:	5a8080e7          	jalr	1448(ra) # 61c <analog_read_reg8>
2000307c:	07f57593          	andi	a1,a0,127
20003080:	81df948b          	addigp	s1,-2020 # 8001c <mdec_test_cnt>
20003084:	05300513          	li	a0,83
20003088:	809f940b          	addigp	s0,-2040 # 80008 <_BSS_VMA_START>
gpio_toggle():
E:/promotion/gitlab/opensdk/Mars_B91/telink_mars_b91_driver_sdk_v2.2.0/chip/B91/drivers/gpio.h:289
	reg_gpio_out(pin) ^= (pin & 0xFF);
2000308c:	80140937          	lui	s2,0x80140
mdec_reset():
E:/promotion/gitlab/opensdk/Mars_B91/telink_mars_b91_driver_sdk_v2.2.0/chip/B91/drivers/mdec.h:37
20003090:	dfffd097          	auipc	ra,0xdfffd
20003094:	550080e7          	jalr	1360(ra) # 5e0 <analog_write_reg8>
main_loop():
E:/promotion/gitlab/opensdk/Mars_B91/telink_mars_b91_driver_sdk_v2.2.0/demo/vendor/MDEC_Demo/app.c:65
	mdec_reset();
}

void main_loop (void)
{
	if(mdec_test_cnt)
20003098:	0004c783          	lbu	a5,0(s1)
2000309c:	04079863          	bnez	a5,200030ec <main+0x4a8>
200030a0:	0000006f          	j	200030a0 <main+0x45c>
pm_update_status_info():
C:/Users/Admin/Desktop/test1/telink_b91m_driver_src/chip/B91/drivers/lib/src/pm.c:231
200030a4:	00100793          	li	a5,1
200030a8:	00f40123          	sb	a5,2(s0)
C:/Users/Admin/Desktop/test1/telink_b91m_driver_src/chip/B91/drivers/lib/src/pm.c:232
200030ac:	dfffd097          	auipc	ra,0xdfffd
200030b0:	534080e7          	jalr	1332(ra) # 5e0 <analog_write_reg8>
C:/Users/Admin/Desktop/test1/telink_b91m_driver_src/chip/B91/drivers/lib/src/pm.c:233
200030b4:	0014e593          	ori	a1,s1,1
200030b8:	0ff5f593          	andi	a1,a1,255
200030bc:	03900513          	li	a0,57
200030c0:	dfffd097          	auipc	ra,0xdfffd
200030c4:	520080e7          	jalr	1312(ra) # 5e0 <analog_write_reg8>
200030c8:	c9dff06f          	j	20002d64 <main+0x120>
pm_get_deep_retention_flag():
C:\Users\Admin\Desktop\test1\telink_b91m_driver_src\chip\B91\drivers/lib/include/pm.h:215
200030cc:	07f00513          	li	a0,127
200030d0:	dfffd097          	auipc	ra,0xdfffd
200030d4:	54c080e7          	jalr	1356(ra) # 61c <analog_read_reg8>
pm_update_status_info():
C:/Users/Admin/Desktop/test1/telink_b91m_driver_src/chip/B91/drivers/lib/src/pm.c:237
200030d8:	815f940b          	addigp	s0,-2028 # 80014 <g_pm_status_info>
C:/Users/Admin/Desktop/test1/telink_b91m_driver_src/chip/B91/drivers/lib/src/pm.c:236
200030dc:	0e05705b          	bbc	a0,0,200031bc <main+0x578>
C:/Users/Admin/Desktop/test1/telink_b91m_driver_src/chip/B91/drivers/lib/src/pm.c:238
200030e0:	4c14f05b          	bbs	s1,1,200031a0 <main+0x55c>
C:/Users/Admin/Desktop/test1/telink_b91m_driver_src/chip/B91/drivers/lib/src/pm.c:242
200030e4:	47c1                	c.li	a5,16
200030e6:	00f40123          	sb	a5,2(s0)
200030ea:	b9ad                	c.j	20002d64 <main+0x120>
mdec_read_dat():
E:/promotion/gitlab/opensdk/Mars_B91/telink_mars_b91_driver_sdk_v2.2.0/chip/B91/drivers/mdec.c:50
 */
unsigned char mdec_read_dat(unsigned char *dat)
{
	unsigned char m0,m1,m2,data_crc;

	dat[0]=analog_read_reg8(0x6a);
200030ec:	06a00513          	li	a0,106
main_loop():
E:/promotion/gitlab/opensdk/Mars_B91/telink_mars_b91_driver_sdk_v2.2.0/demo/vendor/MDEC_Demo/app.c:67
	{
		mdec_test_cnt = 0;
200030f0:	00048023          	sb	zero,0(s1)
mdec_read_dat():
E:/promotion/gitlab/opensdk/Mars_B91/telink_mars_b91_driver_sdk_v2.2.0/chip/B91/drivers/mdec.c:50
200030f4:	dfffd097          	auipc	ra,0xdfffd
200030f8:	528080e7          	jalr	1320(ra) # 61c <analog_read_reg8>
200030fc:	00a40023          	sb	a0,0(s0)
E:/promotion/gitlab/opensdk/Mars_B91/telink_mars_b91_driver_sdk_v2.2.0/chip/B91/drivers/mdec.c:51
	dat[1]=analog_read_reg8(0x6b);
20003100:	06b00513          	li	a0,107
20003104:	dfffd097          	auipc	ra,0xdfffd
20003108:	518080e7          	jalr	1304(ra) # 61c <analog_read_reg8>
2000310c:	00a400a3          	sb	a0,1(s0)
E:/promotion/gitlab/opensdk/Mars_B91/telink_mars_b91_driver_sdk_v2.2.0/chip/B91/drivers/mdec.c:52
	dat[2]=analog_read_reg8(0x6c);
20003110:	06c00513          	li	a0,108
20003114:	dfffd097          	auipc	ra,0xdfffd
20003118:	508080e7          	jalr	1288(ra) # 61c <analog_read_reg8>
2000311c:	00a40123          	sb	a0,2(s0)
E:/promotion/gitlab/opensdk/Mars_B91/telink_mars_b91_driver_sdk_v2.2.0/chip/B91/drivers/mdec.c:53
	dat[3]=analog_read_reg8(0x6d);
20003120:	06d00513          	li	a0,109
20003124:	dfffd097          	auipc	ra,0xdfffd
20003128:	4f8080e7          	jalr	1272(ra) # 61c <analog_read_reg8>
2000312c:	00a401a3          	sb	a0,3(s0)
E:/promotion/gitlab/opensdk/Mars_B91/telink_mars_b91_driver_sdk_v2.2.0/chip/B91/drivers/mdec.c:54
	dat[4]=analog_read_reg8(0x6e);
20003130:	06e00513          	li	a0,110
20003134:	dfffd097          	auipc	ra,0xdfffd
20003138:	4e8080e7          	jalr	1256(ra) # 61c <analog_read_reg8>
E:/promotion/gitlab/opensdk/Mars_B91/telink_mars_b91_driver_sdk_v2.2.0/chip/B91/drivers/mdec.c:56

	m0= ((dat[0]>>5)<<4);
2000313c:	00044703          	lbu	a4,0(s0)
E:/promotion/gitlab/opensdk/Mars_B91/telink_mars_b91_driver_sdk_v2.2.0/chip/B91/drivers/mdec.c:59
	m1= dat[0]&0x07;
	m2= m0+m1;
	data_crc=(((m2+dat[1])^dat[2])+dat[3])^0xa5;
20003140:	00140683          	lb	a3,1(s0)
E:/promotion/gitlab/opensdk/Mars_B91/telink_mars_b91_driver_sdk_v2.2.0/chip/B91/drivers/mdec.c:57
	m1= dat[0]&0x07;
20003144:	00777793          	andi	a5,a4,7
E:/promotion/gitlab/opensdk/Mars_B91/telink_mars_b91_driver_sdk_v2.2.0/chip/B91/drivers/mdec.c:56
	m0= ((dat[0]>>5)<<4);
20003148:	8315                	c.srli	a4,0x5
E:/promotion/gitlab/opensdk/Mars_B91/telink_mars_b91_driver_sdk_v2.2.0/chip/B91/drivers/mdec.c:59
	data_crc=(((m2+dat[1])^dat[2])+dat[3])^0xa5;
2000314a:	97b6                	c.add	a5,a3
2000314c:	00240603          	lb	a2,2(s0)
E:/promotion/gitlab/opensdk/Mars_B91/telink_mars_b91_driver_sdk_v2.2.0/chip/B91/drivers/mdec.c:56
	m0= ((dat[0]>>5)<<4);
20003150:	0712                	c.slli	a4,0x4
E:/promotion/gitlab/opensdk/Mars_B91/telink_mars_b91_driver_sdk_v2.2.0/chip/B91/drivers/mdec.c:59
	data_crc=(((m2+dat[1])^dat[2])+dat[3])^0xa5;
20003152:	00340683          	lb	a3,3(s0)
20003156:	97ba                	c.add	a5,a4
20003158:	8fb1                	c.xor	a5,a2
2000315a:	97b6                	c.add	a5,a3
2000315c:	fa57c793          	xori	a5,a5,-91
E:/promotion/gitlab/opensdk/Mars_B91/telink_mars_b91_driver_sdk_v2.2.0/chip/B91/drivers/mdec.c:54
	dat[4]=analog_read_reg8(0x6e);
20003160:	00a40223          	sb	a0,4(s0)
E:/promotion/gitlab/opensdk/Mars_B91/telink_mars_b91_driver_sdk_v2.2.0/chip/B91/drivers/mdec.c:61

	if(data_crc==dat[4]){
20003164:	0ff7f793          	andi	a5,a5,255
20003168:	f2f518e3          	bne	a0,a5,20003098 <main+0x454>
gpio_toggle():
E:/promotion/gitlab/opensdk/Mars_B91/telink_mars_b91_driver_sdk_v2.2.0/chip/B91/drivers/gpio.h:289
2000316c:	30b90783          	lb	a5,779(s2) # 8014030b <_DATA_LMA_START+0x6013d0ab>
20003170:	0207c793          	xori	a5,a5,32
20003174:	0ff7f793          	andi	a5,a5,255
20003178:	30f905a3          	sb	a5,779(s2)
main_loop():
E:/promotion/gitlab/opensdk/Mars_B91/telink_mars_b91_driver_sdk_v2.2.0/demo/vendor/MDEC_Demo/app.c:71
		if(mdec_read_dat(dat))
		{
			gpio_toggle(LED2);
			delay_ms(2000);
2000317c:	dfffd097          	auipc	ra,0xdfffd
20003180:	084080e7          	jalr	132(ra) # 200 <delay_ms.constprop.8>
20003184:	f15ff06f          	j	20003098 <main+0x454>
user_read_flash_value_calib():
E:/promotion/gitlab/opensdk/Mars_B91/telink_mars_b91_driver_sdk_v2.2.0/demo/vendor/common/B91/calibration/calibration.c:164
				user_calib_adc_vref(USER_CALIB_FROM_FLASH, FLASH_ADC_VREF_CALIB_ADDR_1M);
20003188:	000fe537          	lui	a0,0xfe
2000318c:	0c050513          	addi	a0,a0,192 # fe0c0 <_STACK_TOP+0x5e0c0>
20003190:	915ff0ef          	jal	ra,20002aa4 <user_calib_adc_vref.constprop.11>
E:/promotion/gitlab/opensdk/Mars_B91/telink_mars_b91_driver_sdk_v2.2.0/demo/vendor/common/B91/calibration/calibration.c:165
				user_calib_freq_offset(USER_CALIB_FROM_FLASH, FLASH_CAP_VALUE_ADDR_1M);
20003194:	000fe537          	lui	a0,0xfe
20003198:	a4dff0ef          	jal	ra,20002be4 <user_calib_freq_offset.constprop.10>
2000319c:	d29ff06f          	j	20002ec4 <main+0x280>
pm_update_status_info():
C:/Users/Admin/Desktop/test1/telink_b91m_driver_src/chip/B91/drivers/lib/src/pm.c:239
200031a0:	02000793          	li	a5,32
C:/Users/Admin/Desktop/test1/telink_b91m_driver_src/chip/B91/drivers/lib/src/pm.c:240
200031a4:	0fd4f593          	andi	a1,s1,253
200031a8:	03900513          	li	a0,57
C:/Users/Admin/Desktop/test1/telink_b91m_driver_src/chip/B91/drivers/lib/src/pm.c:239
200031ac:	00f40123          	sb	a5,2(s0)
C:/Users/Admin/Desktop/test1/telink_b91m_driver_src/chip/B91/drivers/lib/src/pm.c:240
200031b0:	dfffd097          	auipc	ra,0xdfffd
200031b4:	430080e7          	jalr	1072(ra) # 5e0 <analog_write_reg8>
200031b8:	badff06f          	j	20002d64 <main+0x120>
C:/Users/Admin/Desktop/test1/telink_b91m_driver_src/chip/B91/drivers/lib/src/pm.c:237
200031bc:	47a1                	c.li	a5,8
200031be:	00f40123          	sb	a5,2(s0)
200031c2:	b64d                	c.j	20002d64 <main+0x120>
user_read_flash_value_calib():
E:/promotion/gitlab/opensdk/Mars_B91/telink_mars_b91_driver_sdk_v2.2.0/demo/vendor/common/B91/calibration/calibration.c:168
				user_calib_adc_vref(USER_CALIB_FROM_FLASH, FLASH_ADC_VREF_CALIB_ADDR_2M);
200031c4:	001fe537          	lui	a0,0x1fe
200031c8:	0c050513          	addi	a0,a0,192 # 1fe0c0 <FLASH_SIZE+0xfe0c0>
200031cc:	8d9ff0ef          	jal	ra,20002aa4 <user_calib_adc_vref.constprop.11>
E:/promotion/gitlab/opensdk/Mars_B91/telink_mars_b91_driver_sdk_v2.2.0/demo/vendor/common/B91/calibration/calibration.c:169
				user_calib_freq_offset(USER_CALIB_FROM_FLASH, FLASH_CAP_VALUE_ADDR_2M);
200031d0:	001fe537          	lui	a0,0x1fe
200031d4:	a11ff0ef          	jal	ra,20002be4 <user_calib_freq_offset.constprop.10>
200031d8:	cedff06f          	j	20002ec4 <main+0x280>
E:/promotion/gitlab/opensdk/Mars_B91/telink_mars_b91_driver_sdk_v2.2.0/demo/vendor/common/B91/calibration/calibration.c:149
		switch (flash_mid[2])
200031dc:	0507d25b          	beqc	a5,16,20003220 <main+0x5dc>
200031e0:	0317ea5b          	bnec	a5,17,20003214 <main+0x5d0>
E:/promotion/gitlab/opensdk/Mars_B91/telink_mars_b91_driver_sdk_v2.2.0/demo/vendor/common/B91/calibration/calibration.c:156
				user_calib_adc_vref(USER_CALIB_FROM_FLASH, FLASH_ADC_VREF_CALIB_ADDR_128K);
200031e4:	0001e537          	lui	a0,0x1e
200031e8:	0c050513          	addi	a0,a0,192 # 1e0c0 <BIN_SIZE+0x1ae38>
200031ec:	8b9ff0ef          	jal	ra,20002aa4 <user_calib_adc_vref.constprop.11>
E:/promotion/gitlab/opensdk/Mars_B91/telink_mars_b91_driver_sdk_v2.2.0/demo/vendor/common/B91/calibration/calibration.c:157
				user_calib_freq_offset(USER_CALIB_FROM_FLASH, FLASH_CAP_VALUE_ADDR_128K);
200031f0:	0001e537          	lui	a0,0x1e
200031f4:	9f1ff0ef          	jal	ra,20002be4 <user_calib_freq_offset.constprop.10>
200031f8:	ccdff06f          	j	20002ec4 <main+0x280>
E:/promotion/gitlab/opensdk/Mars_B91/telink_mars_b91_driver_sdk_v2.2.0/demo/vendor/common/B91/calibration/calibration.c:160
				user_calib_adc_vref(USER_CALIB_FROM_FLASH, FLASH_ADC_VREF_CALIB_ADDR_512K);
200031fc:	0007e537          	lui	a0,0x7e
20003200:	0c050513          	addi	a0,a0,192 # 7e0c0 <BIN_SIZE+0x7ae38>
20003204:	8a1ff0ef          	jal	ra,20002aa4 <user_calib_adc_vref.constprop.11>
E:/promotion/gitlab/opensdk/Mars_B91/telink_mars_b91_driver_sdk_v2.2.0/demo/vendor/common/B91/calibration/calibration.c:161
				user_calib_freq_offset(USER_CALIB_FROM_FLASH, FLASH_CAP_VALUE_ADDR_512K);
20003208:	0007e537          	lui	a0,0x7e
2000320c:	9d9ff0ef          	jal	ra,20002be4 <user_calib_freq_offset.constprop.10>
20003210:	cb5ff06f          	j	20002ec4 <main+0x280>
E:/promotion/gitlab/opensdk/Mars_B91/telink_mars_b91_driver_sdk_v2.2.0/demo/vendor/common/B91/calibration/calibration.c:182
				break;
		}
	}
	else
	{
		user_calib_adc_vref(USER_CALIB_FROM_FLASH, 0);
20003214:	00000513          	li	a0,0
20003218:	88dff0ef          	jal	ra,20002aa4 <user_calib_adc_vref.constprop.11>
2000321c:	ca9ff06f          	j	20002ec4 <main+0x280>
E:/promotion/gitlab/opensdk/Mars_B91/telink_mars_b91_driver_sdk_v2.2.0/demo/vendor/common/B91/calibration/calibration.c:152
				user_calib_adc_vref(USER_CALIB_FROM_FLASH, FLASH_ADC_VREF_CALIB_ADDR_64K);
20003220:	0000e537          	lui	a0,0xe
20003224:	0c050513          	addi	a0,a0,192 # e0c0 <BIN_SIZE+0xae38>
20003228:	87dff0ef          	jal	ra,20002aa4 <user_calib_adc_vref.constprop.11>
E:/promotion/gitlab/opensdk/Mars_B91/telink_mars_b91_driver_sdk_v2.2.0/demo/vendor/common/B91/calibration/calibration.c:153
				user_calib_freq_offset(USER_CALIB_FROM_FLASH, FLASH_CAP_VALUE_ADDR_64K);
2000322c:	0000e537          	lui	a0,0xe
20003230:	9b5ff0ef          	jal	ra,20002be4 <user_calib_freq_offset.constprop.10>
20003234:	b941                	c.j	20002ec4 <main+0x280>
main():
20003236:	0001                	c.nop
