
Mars_B91_Mother_V2.2.elf:     file format elf32-littleriscv
Mars_B91_Mother_V2.2.elf
architecture: riscv:rv32, flags 0x00000112:
EXEC_P, HAS_SYMS, D_PAGED
start address 0x20000000

Program Header:
    LOAD off    0x00001000 vaddr 0x20000000 paddr 0x20000000 align 2**12
         filesz 0x0000018a memsz 0x0000018a flags r-x
    LOAD off    0x00002000 vaddr 0x00000000 paddr 0x20000190 align 2**12
         filesz 0x000001c4 memsz 0x000001c4 flags rwx
    LOAD off    0x00002200 vaddr 0x00000200 paddr 0x20000358 align 2**12
         filesz 0x00002702 memsz 0x00002702 flags r-x
    LOAD off    0x00004a60 vaddr 0x20002a60 paddr 0x20002a60 align 2**12
         filesz 0x00005578 memsz 0x00005578 flags r-x
    LOAD off    0x0000a000 vaddr 0x00080000 paddr 0x20007fd8 align 2**12
         filesz 0x00000014 memsz 0x00000014 flags rw-
    LOAD off    0x0000a128 vaddr 0x00081128 paddr 0x20007fec align 2**12
         filesz 0x00000022 memsz 0x00000022 flags rw-
    LOAD off    0x0000b018 vaddr 0x00080018 paddr 0x20007ff0 align 2**12
         filesz 0x00000000 memsz 0x00001110 flags rw-
0x70000000 off    0x00030b7e vaddr 0x00000000 paddr 0x00000000 align 2**0
         filesz 0x0000003b memsz 0x00000000 flags r--

Sections:
Idx Name              Size      VMA       LMA       File off  Algn  Flags
  0 .vectors          0000018a  20000000  20000000  00001000  2**2  CONTENTS, ALLOC, LOAD, READONLY, CODE
  1 .retention_reset  00000154  00000000  20000190  00002000  2**2  CONTENTS, ALLOC, LOAD, READONLY, CODE
  2 .retention_data   0000006c  00000158  200002e8  00002158  2**2  CONTENTS, ALLOC, LOAD, DATA
  3 .ram_code         00002702  00000200  20000358  00002200  2**8  CONTENTS, ALLOC, LOAD, READONLY, CODE
  4 .text             00004d2c  20002a60  20002a60  00004a60  2**2  CONTENTS, ALLOC, LOAD, READONLY, CODE
  5 .rodata           00000738  20007790  20007790  00009790  2**3  CONTENTS, ALLOC, LOAD, READONLY, DATA
  6 .eh_frame         000000f8  20007ee0  20007ee0  00009ee0  2**2  CONTENTS, ALLOC, LOAD, READONLY, DATA
  7 .data             00000014  00080000  20007fd8  0000a000  2**2  CONTENTS, ALLOC, LOAD, DATA
  8 .sbss             00000050  00080018  20007ff0  0000b018  2**2  ALLOC
  9 .bss              000010c0  00080068  20008040  0000b018  2**2  ALLOC
 10 .sdk_version      00000022  00081128  20007fec  0000a128  2**2  CONTENTS, ALLOC, LOAD, DATA
 11 .debug_info       0000b8c5  00000000  00000000  0000a14a  2**0  CONTENTS, READONLY, DEBUGGING
 12 .debug_abbrev     0000138d  00000000  00000000  00015a0f  2**0  CONTENTS, READONLY, DEBUGGING
 13 .debug_loc        0000ab64  00000000  00000000  00016d9c  2**0  CONTENTS, READONLY, DEBUGGING
 14 .debug_aranges    000004e8  00000000  00000000  00021900  2**3  CONTENTS, READONLY, DEBUGGING
 15 .debug_ranges     000028e8  00000000  00000000  00021de8  2**3  CONTENTS, READONLY, DEBUGGING
 16 .debug_line       0000780b  00000000  00000000  000246d0  2**0  CONTENTS, READONLY, DEBUGGING
 17 .debug_str        00004c6c  00000000  00000000  0002bedb  2**0  CONTENTS, READONLY, DEBUGGING
 18 .comment          00000037  00000000  00000000  00030b47  2**0  CONTENTS, READONLY
 19 .riscv.attributes 0000003b  00000000  00000000  00030b7e  2**0  CONTENTS, READONLY
 20 .debug_frame      000014f0  00000000  00000000  00030bbc  2**2  CONTENTS, READONLY, DEBUGGING
SYMBOL TABLE:
20000000 l    d  .vectors	00000000 .vectors
00000000 l    d  .retention_reset	00000000 .retention_reset
00000158 l    d  .retention_data	00000000 .retention_data
00000200 l    d  .ram_code	00000000 .ram_code
20002a60 l    d  .text	00000000 .text
20007790 l    d  .rodata	00000000 .rodata
20007ee0 l    d  .eh_frame	00000000 .eh_frame
00080000 l    d  .data	00000000 .data
00080018 l    d  .sbss	00000000 .sbss
00080068 l    d  .bss	00000000 .bss
00081128 l    d  .sdk_version	00000000 .sdk_version
00000000 l    d  .debug_info	00000000 .debug_info
00000000 l    d  .debug_abbrev	00000000 .debug_abbrev
00000000 l    d  .debug_loc	00000000 .debug_loc
00000000 l    d  .debug_aranges	00000000 .debug_aranges
00000000 l    d  .debug_ranges	00000000 .debug_ranges
00000000 l    d  .debug_line	00000000 .debug_line
00000000 l    d  .debug_str	00000000 .debug_str
00000000 l    d  .comment	00000000 .comment
00000000 l    d  .riscv.attributes	00000000 .riscv.attributes
00000000 l    d  .debug_frame	00000000 .debug_frame
00000000 l    df *ABS*	00000000 ./boot/cstartup_flash.o
20000028 l       .vectors	00000000 _START
2000008e l       .vectors	00000000 _RETENTION_RESET_INIT
200000a6 l       .vectors	00000000 _RETENTION_RESET_BEGIN
200000b8 l       .vectors	00000000 _RETENTION_DATA_INIT
200000cc l       .vectors	00000000 _RETENTION_DATA_INIT_BEGIN
200000de l       .vectors	00000000 _RAMCODE_INIT
200000f6 l       .vectors	00000000 _RAMCODE_INIT_BEGIN
20000108 l       .vectors	00000000 _DATA_INIT
20000120 l       .vectors	00000000 _DATA_INIT_BEGIN
20000132 l       .vectors	00000000 _ZERO_BSS
20000146 l       .vectors	00000000 _ZERO_BSS_BEGIN
20000152 l       .vectors	00000000 _ZERO_AES
20000166 l       .vectors	00000000 _ZERO_AES_BEGIN
20000172 l       .vectors	00000000 _FILL_STK
20000172 l       .vectors	00000000 _MAIN_FUNC
20000188 l       .vectors	00000000 _END
00000022 l       .retention_reset	00000000 _ISTART
0000002a l       .retention_reset	00000000 _ISWS_USB_DIS
00000088 l       .retention_reset	00000000 _WAKEUP_FLASH
000000a2 l       .retention_reset	00000000 _MSPI_WAIT
000000bc l       .retention_reset	00000000 _WAIT_EFUSE_LOAD_FINISH
000000c2 l       .retention_reset	00000000 _MULTI_ADDRESS_BEGIN
000000d2 l       .retention_reset	00000000 _IDATA_INIT
000000ea l       .retention_reset	00000000 _IDATA_INIT_BEGIN
000000fc l       .retention_reset	00000000 _IZERO_BSS
00000110 l       .retention_reset	00000000 _IZERO_BSS_BEGIN
0000011c l       .retention_reset	00000000 _IZERO_AES
00000130 l       .retention_reset	00000000 _IZERO_AES_BEGIN
0000013c l       .retention_reset	00000000 _IFILL_STK
0000013c l       .retention_reset	00000000 _IMAIN_FUNC
00000152 l       .retention_reset	00000000 _IEND
00000040 l       *ABS*	00000000 irqno
00000000 l    df *ABS*	00000000 
20002bac l     F .text	0000014a user_calib_adc_vref.constprop.44
20002cf8 l     F .text	000000b4 i2c_master_read.constprop.36
00000200 l     F .ram_code	00000020 delay_ms.constprop.34
20002db0 l     F .text	00000196 set_grb.constprop.10
00000220 l     F .ram_code	00000020 delay_us.constprop.9
20002f48 l     F .text	00000022 pwm_set_pin.constprop.8
20002f6c l     F .text	0000005a uart_is_prime
20002fc8 l     F .text	000000b0 i2c_master_write
2000307c l     F .text	00000080 OLED_Fill.constprop.40
00000240 l     F .ram_code	00000044 flash_send_addr
00000284 l     F .ram_code	00000048 flash_send_cmd
000002cc l     F .ram_code	00000060 clock_set_32k_tick
200030fc l     F .text	0000000e read_btn_left
2000310c l     F .text	0000000e read_btn_mid
2000311c l     F .text	0000000e read_btn_right
0000032c l     F .ram_code	00000064 pwm_irq_handler
00000390 l     F .ram_code	000000fc uart0_irq_handler
00080098 l     O .bss	00001000 UART_RX_BUF
2000312c l     F .text	00000052 uart_send_array
20003180 l     F .text	0000005c OLED_SetPos
200031dc l     F .text	00000104 OLED_ShowStr
200032e0 l     F .text	0000004a OLED_Show_Arrow
2000332c l     F .text	00000034 BTN_DOUBLE_CLICK_Handler
20003364 l     F .text	00000066 BTN_SINGLE_CLICK_Handler
200033cc l     F .text	00000042 analog_read_reg32.constprop.3
0000048c l     F .ram_code	00000030 clock_get_32k_tick
000004bc l     F .ram_code	00000094 pm_stimer_recover
00000550 l     F .ram_code	00000044 plic_exit_critical_sec
00000594 l     F .ram_code	0000004c plic_enter_critical_sec
000005e0 l     F .ram_code	00000180 flash_mspi_read_ram
20002a60 l     F .text	0000002c flash_read_uid.constprop.42
20002a8c l     F .text	0000002c flash_read_mid
20002ab8 l     F .text	00000090 flash_read_mid_uid_with_check
20002b48 l     F .text	0000002c flash_dread
00000760 l     F .ram_code	0000003c analog_write_reg8
0000079c l     F .ram_code	00000044 analog_read_reg8
20003410 l     F .text	0000005c user_calib_freq_offset.constprop.43
20003470 l     F .text	00000088 gpio_set_up_down_res.constprop.38
000007e0 l     F .ram_code	00000140 clock_init_ram.constprop.5
20002b74 l     F .text	0000001c clock_init.constprop.4
00000920 l     F .ram_code	000000b4 pm_wait_bbpll_done
000009d4 l     F .ram_code	00000194 pm_sleep_start
200034f8 l     F .text	0000002a gpio_input_dis
20003524 l     F .text	000000a2 gpio_input_en
00000b68 l     F .ram_code	0000030c pm_sleep_wakeup_ram.constprop.2
20002b90 l     F .text	0000001a pm_sleep_wakeup.constprop.1
200035c8 l     F .text	0000006c button_init
00080068 l     O .bss	00000030 IRQ_IR_DMA_Buff
00081098 l     O .bss	00000010 adc_sample_buffer
000810a8 l     O .bss	00000028 btn_left
000810d0 l     O .bss	00000028 btn_mid
000810f8 l     O .bss	00000028 btn_right
00000158 l     O .retention_data	00000002 g_adc_gpio_calib_vref
0000015a l     O .retention_data	00000001 g_adc_gpio_calib_vref_offset
0000015c l     O .retention_data	00000004 flash_read_page
00000160 l     O .retention_data	00000001 g_pm_long_suspend
00000164 l     O .retention_data	00000004 g_pm_tick_cur
00000168 l     O .retention_data	00000029 pmcd
00000194 l     O .retention_data	00000004 g_pm_tick_32k_calib
00000198 l     O .retention_data	00000001 g_plic_preempt_en
0000019c l     O .retention_data	00000002 s_flash_preempt_config
0000019e l     O .retention_data	00000001 g_pm_suspend_power_cfg
000001a0 l     O .retention_data	00000008 g_pm_early_wakeup_time_us
000001a8 l     O .retention_data	00000004 g_pm_tick_32k_cur
000001ac l     O .retention_data	00000001 g_pm_tick_update_en
000001b0 l     O .retention_data	00000004 g_pm_r_delay_cycle
000001b4 l     O .retention_data	00000002 g_adc_vref
000001b6 l     O .retention_data	00000001 g_adc_vref_offset
000001b8 l     O .retention_data	00000008 g_pm_longsleep_early_wakeup_time_us
200077f4 l     O .rodata	000005f0 F8X16
00080018 l     O .sbss	00000001 adc_dma_chn
00080019 l     O .sbss	00000001 g_adc_pre_scale
0008001a l     O .sbss	00000001 g_adc_vbat_divider
0008001c l     O .sbss	00000006 g_axis_info
00080024 l     O .sbss	00000004 g_chip_version
00080028 l     O .sbss	00000004 g_line_num
0008002c l     O .sbss	00000004 g_pm_status_info
00080030 l     O .sbss	00000004 g_time0
00080034 l     O .sbss	00000004 g_time1
00080038 l     O .sbss	00000004 g_uart_last_length
0008003c l     O .sbss	00000004 g_uart_length
00080040 l     O .sbss	00000004 g_uart_rec_time
00080044 l     O .sbss	00000004 head_handle
00080048 l     O .sbss	00000004 mcause
0008004c l     O .sbss	00000004 mepc
00080050 l     O .sbss	00000004 pwm_irq_index
00080054 l     O .sbss	00000002 uart_rx_byte_index
00080058 l     O .sbss	00000002 uart_tx_byte_index
00080000 l     O .data	00000003 g_grb
00080004 l     O .data	00000006 sys_clk
0008000c l     O .data	00000004 adc_rx_dma_config
00080010 l     O .data	00000004 pwm_tx_dma_config
00081128 l     O .sdk_version	00000022 sdk_version
00000000 l    df *ABS*	00000000 divdf3.c
00000000 l    df *ABS*	00000000 muldf3.c
00000000 l    df *ABS*	00000000 subdf3.c
00000000 l    df *ABS*	00000000 floatsidf.c
00000000 l    df *ABS*	00000000 extendsfdf2.c
00000000 l    df *ABS*	00000000 truncdfsf2.c
00000000 l    df *ABS*	00000000 printf.c
00000000 l    df *ABS*	00000000 sprintf.c
00000000 l    df *ABS*	00000000 vprintf.c
20006b5a l     F .text	0000003a __vprintf_help
0008005c l     O .sbss	00000004 __vprintf_buf
00080060 l     O .sbss	00000004 __vprintf_buf_len
00000000 l    df *ABS*	00000000 vsprintf.c
20006be0 l     F .text	0000001c __vsprintf_help
00000000 l    df *ABS*	00000000 printf_impl.c
00000000 l    df *ABS*	00000000 printf_impl_float.c
00000000 l    df *ABS*	00000000 strcpy.c
00000000 l    df *ABS*	00000000 strnlen.c
00000000 l    df *ABS*	00000000 libgcc2.c
00000000 l    df *ABS*	00000000 libgcc2.c
00000000 l    df *ABS*	00000000 printf_data.c
000011f4 g     F .ram_code	00000070 entry_irq55
00002204 g     F .ram_code	00000070 entry_irq13
2000758c g     F .text	0000007c strcpy
00002124 g     F .ram_code	00000070 entry_irq15
200076fc g     F .text	0000002e .hidden __ashldi3
00001ad4 g     F .ram_code	00000070 entry_irq27
00000fc4 g     F .ram_code	00000070 entry_irq60
00002744 g     F .ram_code	00000070 entry_irq1
00001344 g     F .ram_code	00000070 entry_irq52
00001424 g     F .ram_code	00000070 entry_irq50
00000ee4 g     F .ram_code	00000070 entry_irq62
20006b20 g     F .text	0000001e printf
00080800 g       .data	00000000 __global_pointer$
20006bfc g     F .text	00000028 vsprintf
20007734 g       .text	00000000 .hidden __riscv_save_8
000010a4 g     F .ram_code	00000070 entry_irq58
20007780 g       .text	00000000 .hidden __riscv_restore_3
000001c4 g       .retention_data	00000000 _RETENTION_DATA_VMA_END
2000776c g       .text	00000000 .hidden __riscv_restore_10
20007734 g       .text	00000000 .hidden __riscv_save_11
20006c24 g     F .text	0000004c __print_integral
00000000 g       .retention_reset	00000000 _RETENTION_RESET_VMA_START
00002354 g     F .ram_code	00000070 entry_irq10
00001d74 g     F .ram_code	00000070 entry_irq21
00000158 g       .retention_data	00000000 _AES_VMA_START
00001498 g     F .ram_code	00000004 entry_irq48
20007780 g       .text	00000000 .hidden __riscv_restore_2
00002434 g     F .ram_code	00000070 entry_irq8
00001834 g     F .ram_code	00000070 entry_irq33
00081128 g       .bss	00000000 _BSS_VMA_END
20000190 g       *ABS*	00000000 _RETENTION_RESET_LMA_START
20006694 g     F .text	0000007a .hidden __floatsidf
20006c70 g     F .text	00000470 __printf_impl
00002274 g     F .ram_code	00000070 entry_irq12
00002194 g     F .ram_code	00000070 entry_irq14
2000772c g       .text	00000000 .hidden __riscv_save_12
000026d4 g     F .ram_code	00000070 entry_irq2
000013b4 g     F .ram_code	00000070 entry_irq51
2000776c g       .text	00000000 .hidden __riscv_restore_11
00001a64 g     F .ram_code	00000070 entry_irq28
00001584 g     F .ram_code	00000070 entry_irq43
2000775c g       .text	00000000 .hidden __riscv_save_1
20007780 g       .text	00000000 .hidden __riscv_restore_0
00001de4 g     F .ram_code	00000070 entry_irq20
20007742 g       .text	00000000 .hidden __riscv_save_7
00080018 g       .sbss	00000000 _BSS_VMA_START
00000e74 g     F .ram_code	00000070 entry_irq63
00080014 g       .data	00000000 _DATA_VMA_END
20006710 g     F .text	00000110 .hidden __extendsfdf2
000014a0 g     F .ram_code	00000070 entry_irq46
00001914 g     F .ram_code	00000070 entry_irq31
0000202c g     F .ram_code	000000f8 entry_irq16
00100000 g       *ABS*	00000000 FLASH_SIZE
20007776 g       .text	00000000 .hidden __riscv_restore_5
00080000 g       .data	00000000 _DATA_VMA_START
000012d4 g     F .ram_code	00000070 entry_irq53
000022e4 g     F .ram_code	00000070 entry_irq11
00000154 g       .retention_reset	00000000 _RETENTION_RESET_VMA_END
2000760a g     F .text	00000018 strnlen
20007776 g       .text	00000000 .hidden __riscv_restore_6
00002584 g     F .ram_code	00000070 entry_irq5
00001c94 g     F .ram_code	00000070 entry_irq23
000017c4 g     F .ram_code	00000070 entry_irq34
200076cc g     F .text	0000002e .hidden __lshrdi3
000016e4 g     F .ram_code	00000070 entry_irq36
20007734 g       .text	00000000 .hidden __riscv_save_9
00001514 g     F .ram_code	00000070 entry_irq44
20006b94 g     F .text	0000004c vprintf
00001510 g     F .ram_code	00000004 entry_irq45
00001b44 g     F .ram_code	00000070 entry_irq26
20007742 g       .text	00000000 .hidden __riscv_save_4
00001664 g     F .ram_code	00000004 entry_irq41
00000f54 g     F .ram_code	00000070 entry_irq61
20000000 g       .vectors	00000000 BIN_BEGIN
2000775c g       .text	00000000 .hidden __riscv_save_3
00001670 g     F .ram_code	00000004 entry_irq38
00002800 g       .ram_code	00000000 __vectors
0000800e g       *ABS*	00000000 BIN_SIZE
20007eb0 g     O .rodata	00000010 __digits
20000358 g       *ABS*	00000000 _RAMCODE_LMA_START
00080064 g     O .sbss	00000004 __printf_count
00001034 g     F .ram_code	00000070 entry_irq59
20004e4c g     F .text	000007ee .hidden __divdf3
00002514 g     F .ram_code	00000070 entry_irq6
2000563c g     F .text	0000064c .hidden __muldf3
20007734 g       .text	00000000 .hidden __riscv_save_10
20007fd8 g       *ABS*	00000000 _DATA_LMA_START
200070fe g     F .text	00000090 __print_integral_poly
20000000 g       *ABS*	00000000 NDS_SAG_LMA_FLASH
20007776 g       .text	00000000 .hidden __riscv_restore_4
2000776c g       .text	00000000 .hidden __riscv_restore_8
20007742 g       .text	00000000 .hidden __riscv_save_6
20000000  w      .vectors	00000000 _RELAX_END_
20007622 g     F .text	000000aa memset
2000718e g     F .text	000003fe __printf_float_impl
2000776c g       .text	00000000 .hidden __riscv_restore_9
20007776 g       .text	00000000 .hidden __riscv_restore_7
20003638 g     F .text	000016ec main
00002664 g     F .ram_code	00000070 entry_irq3
000027b4 g     F .ram_code	00000034 trap_entry
00000158 g       .retention_data	00000000 _AES_VMA_END
20006820 g     F .text	00000300 .hidden __truncdfsf2
0000166c g     F .ram_code	00000004 entry_irq39
00001494 g     F .ram_code	00000004 entry_irq49
00001114 g     F .ram_code	00000070 entry_irq57
0000149c g     F .ram_code	00000004 entry_irq47
200002e8 g       *ABS*	00000000 _RETENTION_DATA_LMA_START
20000000 g     F .vectors	00000000 _RESET_ENTRY
00000158 g       .retention_data	00000000 _RETENTION_DATA_VMA_START
20006b3e g     F .text	0000001c sprintf
000025f4 g     F .ram_code	00000070 entry_irq4
000a0000 g       *ABS*	00000000 _STACK_TOP
00001d04 g     F .ram_code	00000070 entry_irq22
00001984 g     F .ram_code	00000070 entry_irq30
000015f4 g     F .ram_code	00000070 entry_irq42
00001c24 g     F .ram_code	00000070 entry_irq24
2000775c g       .text	00000000 .hidden __riscv_save_2
00002902 g       .ram_code	00000000 _RAMCODE_VMA_END
00000000  w      *ABS*	00000000 _ITB_BASE_
20007742 g       .text	00000000 .hidden __riscv_save_5
00001e54 g     F .ram_code	000000f8 entry_irq19
20004d24 g     F .text	00000124 _write
00081150 g       .sdk_version	00000000 _end
00001fbc g     F .ram_code	00000070 entry_irq17
000023c4 g     F .ram_code	00000070 entry_irq9
00001184 g     F .ram_code	00000070 entry_irq56
00001754 g     F .ram_code	00000070 entry_irq35
00001674 g     F .ram_code	00000070 entry_irq37
000001c0 g     O .retention_data	00000004 g_pm_mspi_cfg
00001264 g     F .ram_code	00000070 entry_irq54
00001668 g     F .ram_code	00000004 entry_irq40
20007768 g       .text	00000000 .hidden __riscv_restore_12
00000200 g       .ram_code	00000000 _RAMCODE_VMA_START
2000775c g       .text	00000000 .hidden __riscv_save_0
000019f4 g     F .ram_code	00000070 entry_irq29
00081120 g     O .bss	00000004 __vsprintf_buf
20007780 g       .text	00000000 .hidden __riscv_restore_1
20005c8c g     F .text	00000a08 .hidden __subdf3
000024a4 g     F .ram_code	00000070 entry_irq7
000018a4 g     F .ram_code	00000070 entry_irq32
00000000 g     F .retention_reset	00000000 _IRESET_ENTRY
00001f4c g     F .ram_code	00000070 entry_irq18
200070e0 g     F .text	0000001e __int_to_poly
00001bb4 g     F .ram_code	00000070 entry_irq25



Disassembly of section .vectors:

20000000 <_RESET_ENTRY>:
BIN_BEGIN():
E:/promotion/gitlab/telink_b91m_driver_sdk/telink_b91m_driver_sdk/chip/B91/boot/cstartup_flash.S:54
    .global _RESET_ENTRY
 	.type _RESET_ENTRY,@function

    .align 2
_RESET_ENTRY:
	j 		 _START
20000000:	a025                	c.j	20000028 <_START>
	...
20000016:	0000                	unimp
20000018:	800e                	c.mv	zero,gp
2000001a:	0000                	unimp
2000001c:	0000                	unimp
2000001e:	0000                	unimp
20000020:	544c4e4b          	fnmsub.h	ft8,fs8,ft4,fa0,rmm
20000024:	0000                	unimp
20000026:	          	sllw	a4,zero,zero

20000028 <_START>:
_START():
E:/promotion/gitlab/telink_b91m_driver_sdk/telink_b91m_driver_sdk/chip/B91/boot/cstartup_flash.S:85
	sb		t2 , 0x30b(t0)		 //0x8014030b  PB output  =  0x10
#endif
	/* Initialize global pointer */
    .option push
    .option norelax
    la     gp, __global_pointer$
20000028:	e0080197          	auipc	gp,0xe0080
2000002c:	7d818193          	addi	gp,gp,2008 # 80800 <__global_pointer$>
E:/promotion/gitlab/telink_b91m_driver_sdk/telink_b91m_driver_sdk/chip/B91/boot/cstartup_flash.S:89
    .option pop

#if DP_THROUGH_SWIRE_DIS
	lui		t0, 0x80100
20000030:	801002b7          	lui	t0,0x80100
E:/promotion/gitlab/telink_b91m_driver_sdk/telink_b91m_driver_sdk/chip/B91/boot/cstartup_flash.S:90
	addi	t0 , t0 , 0x700
20000034:	70028293          	addi	t0,t0,1792 # 80100700 <_DATA_LMA_START+0x600f8728>
E:/promotion/gitlab/telink_b91m_driver_sdk/telink_b91m_driver_sdk/chip/B91/boot/cstartup_flash.S:91
	li		t1, 0x040
20000038:	04000313          	li	t1,64
E:/promotion/gitlab/telink_b91m_driver_sdk/telink_b91m_driver_sdk/chip/B91/boot/cstartup_flash.S:92
	sb		t1, 0x501(t0)  //0x80100c01 -> 0x40  <7>: 0 swire_usb_dis <6>:read-only bit
2000003c:	506280a3          	sb	t1,1281(t0)
E:/promotion/gitlab/telink_b91m_driver_sdk/telink_b91m_driver_sdk/chip/B91/boot/cstartup_flash.S:95
#endif
	/* Initialize stack pointer */
    la     t0, _STACK_TOP
20000040:	e00a0297          	auipc	t0,0xe00a0
20000044:	fc028293          	addi	t0,t0,-64 # a0000 <_STACK_TOP>
E:/promotion/gitlab/telink_b91m_driver_sdk/telink_b91m_driver_sdk/chip/B91/boot/cstartup_flash.S:96
    mv     sp, t0
20000048:	8116                	c.mv	sp,t0
E:/promotion/gitlab/telink_b91m_driver_sdk/telink_b91m_driver_sdk/chip/B91/boot/cstartup_flash.S:100

#ifdef __nds_execit
	/* Initialize EXEC.IT table */
	la t0, _ITB_BASE_
2000004a:	e0000297          	auipc	t0,0xe0000
2000004e:	fb628293          	addi	t0,t0,-74 # 0 <_ITB_BASE_>
E:/promotion/gitlab/telink_b91m_driver_sdk/telink_b91m_driver_sdk/chip/B91/boot/cstartup_flash.S:101
	csrw uitb, t0
20000052:	80029073          	csrw	uitb,t0
E:/promotion/gitlab/telink_b91m_driver_sdk/telink_b91m_driver_sdk/chip/B91/boot/cstartup_flash.S:106
#endif

#ifdef __riscv_flen
	/* Enable FPU */
	li t0, 0x00006000
20000056:	6299                	c.lui	t0,0x6
E:/promotion/gitlab/telink_b91m_driver_sdk/telink_b91m_driver_sdk/chip/B91/boot/cstartup_flash.S:107
	csrrs t0, mstatus, t0
20000058:	3002a2f3          	csrrs	t0,mstatus,t0
E:/promotion/gitlab/telink_b91m_driver_sdk/telink_b91m_driver_sdk/chip/B91/boot/cstartup_flash.S:109
	/* Initialize FCSR */
	fscsr zero
2000005c:	00301073          	fssr	zero
E:/promotion/gitlab/telink_b91m_driver_sdk/telink_b91m_driver_sdk/chip/B91/boot/cstartup_flash.S:113
#endif

    /* Initial machine trap-vector Base */
    la     t0, __vectors
20000060:	e0002297          	auipc	t0,0xe0002
20000064:	7a028293          	addi	t0,t0,1952 # 2800 <__vectors>
E:/promotion/gitlab/telink_b91m_driver_sdk/telink_b91m_driver_sdk/chip/B91/boot/cstartup_flash.S:114
    csrw   mtvec, t0
20000068:	30529073          	csrw	mtvec,t0
E:/promotion/gitlab/telink_b91m_driver_sdk/telink_b91m_driver_sdk/chip/B91/boot/cstartup_flash.S:117

    /* Enable vectored external plic interrupt */
    csrsi  mmisc_ctl, 2
2000006c:	7d016073          	csrsi	mmisc_ctl,2
E:/promotion/gitlab/telink_b91m_driver_sdk/telink_b91m_driver_sdk/chip/B91/boot/cstartup_flash.S:120

	/*vector mode enable bit (VECTORED) of the Feature Enable Register */
    lui		t0, 0xe4000
20000070:	e40002b7          	lui	t0,0xe4000
E:/promotion/gitlab/telink_b91m_driver_sdk/telink_b91m_driver_sdk/chip/B91/boot/cstartup_flash.S:121
	li		t1, 0x02
20000074:	4309                	c.li	t1,2
E:/promotion/gitlab/telink_b91m_driver_sdk/telink_b91m_driver_sdk/chip/B91/boot/cstartup_flash.S:122
	sw		t1, 0x0(t0)		 //(*(volatile unsigned long*)(0xe4000000))= 0x02
20000076:	0062a023          	sw	t1,0(t0) # e4000000 <_DATA_LMA_START+0xc3ff8028>
E:/promotion/gitlab/telink_b91m_driver_sdk/telink_b91m_driver_sdk/chip/B91/boot/cstartup_flash.S:125

    /* Enable I/D-Cache */
    csrr   t0,  mcache_ctl
2000007a:	7ca022f3          	csrr	t0,mcache_ctl
E:/promotion/gitlab/telink_b91m_driver_sdk/telink_b91m_driver_sdk/chip/B91/boot/cstartup_flash.S:126
    ori    t0,  t0,  1  #/I-Cache
2000007e:	0012e293          	ori	t0,t0,1
E:/promotion/gitlab/telink_b91m_driver_sdk/telink_b91m_driver_sdk/chip/B91/boot/cstartup_flash.S:127
    ori    t0,  t0,  2  #/D-Cache
20000082:	0022e293          	ori	t0,t0,2
E:/promotion/gitlab/telink_b91m_driver_sdk/telink_b91m_driver_sdk/chip/B91/boot/cstartup_flash.S:128
    csrw   mcache_ctl,  t0
20000086:	7ca29073          	csrw	mcache_ctl,t0
E:/promotion/gitlab/telink_b91m_driver_sdk/telink_b91m_driver_sdk/chip/B91/boot/cstartup_flash.S:129
    fence.i
2000008a:	0000100f          	fence.i

2000008e <_RETENTION_RESET_INIT>:
_RETENTION_RESET_INIT():
E:/promotion/gitlab/telink_b91m_driver_sdk/telink_b91m_driver_sdk/chip/B91/boot/cstartup_flash.S:133
	/* Move retention reset from flash to sram */
_RETENTION_RESET_INIT:

    la     t1, _RETENTION_RESET_LMA_START
2000008e:	00000317          	auipc	t1,0x0
20000092:	10230313          	addi	t1,t1,258 # 20000190 <_RETENTION_RESET_LMA_START>
E:/promotion/gitlab/telink_b91m_driver_sdk/telink_b91m_driver_sdk/chip/B91/boot/cstartup_flash.S:134
    la     t2, _RETENTION_RESET_VMA_START
20000096:	e0000397          	auipc	t2,0xe0000
2000009a:	f6a38393          	addi	t2,t2,-150 # 0 <_ITB_BASE_>
E:/promotion/gitlab/telink_b91m_driver_sdk/telink_b91m_driver_sdk/chip/B91/boot/cstartup_flash.S:135
    la     t3, _RETENTION_RESET_VMA_END
2000009e:	e0000e17          	auipc	t3,0xe0000
200000a2:	0b6e0e13          	addi	t3,t3,182 # 154 <_RETENTION_RESET_VMA_END>

200000a6 <_RETENTION_RESET_BEGIN>:
_RETENTION_RESET_BEGIN():
E:/promotion/gitlab/telink_b91m_driver_sdk/telink_b91m_driver_sdk/chip/B91/boot/cstartup_flash.S:137
_RETENTION_RESET_BEGIN:
    bleu    t3, t2, _RETENTION_DATA_INIT
200000a6:	01c3f963          	bgeu	t2,t3,200000b8 <_RETENTION_DATA_INIT>
E:/promotion/gitlab/telink_b91m_driver_sdk/telink_b91m_driver_sdk/chip/B91/boot/cstartup_flash.S:138
    lw     t0, 0(t1)
200000aa:	00032283          	lw	t0,0(t1)
E:/promotion/gitlab/telink_b91m_driver_sdk/telink_b91m_driver_sdk/chip/B91/boot/cstartup_flash.S:139
    sw     t0, 0(t2)
200000ae:	0053a023          	sw	t0,0(t2)
E:/promotion/gitlab/telink_b91m_driver_sdk/telink_b91m_driver_sdk/chip/B91/boot/cstartup_flash.S:140
    addi   t1, t1, 4
200000b2:	0311                	c.addi	t1,4
E:/promotion/gitlab/telink_b91m_driver_sdk/telink_b91m_driver_sdk/chip/B91/boot/cstartup_flash.S:141
    addi   t2, t2, 4
200000b4:	0391                	c.addi	t2,4
E:/promotion/gitlab/telink_b91m_driver_sdk/telink_b91m_driver_sdk/chip/B91/boot/cstartup_flash.S:142
    j      _RETENTION_RESET_BEGIN
200000b6:	bfc5                	c.j	200000a6 <_RETENTION_RESET_BEGIN>

200000b8 <_RETENTION_DATA_INIT>:
_RETENTION_DATA_INIT():
E:/promotion/gitlab/telink_b91m_driver_sdk/telink_b91m_driver_sdk/chip/B91/boot/cstartup_flash.S:147

	/* Move retention from flash to sram */
_RETENTION_DATA_INIT:

    la     t1, _RETENTION_DATA_LMA_START
200000b8:	00000317          	auipc	t1,0x0
200000bc:	23030313          	addi	t1,t1,560 # 200002e8 <_RETENTION_DATA_LMA_START>
E:/promotion/gitlab/telink_b91m_driver_sdk/telink_b91m_driver_sdk/chip/B91/boot/cstartup_flash.S:148
    la     t2, _RETENTION_DATA_VMA_START
200000c0:	15800393          	li	t2,344
E:/promotion/gitlab/telink_b91m_driver_sdk/telink_b91m_driver_sdk/chip/B91/boot/cstartup_flash.S:149
    la     t3, _RETENTION_DATA_VMA_END
200000c4:	e0000e17          	auipc	t3,0xe0000
200000c8:	100e0e13          	addi	t3,t3,256 # 1c4 <_RETENTION_DATA_VMA_END>

200000cc <_RETENTION_DATA_INIT_BEGIN>:
_RETENTION_DATA_INIT_BEGIN():
E:/promotion/gitlab/telink_b91m_driver_sdk/telink_b91m_driver_sdk/chip/B91/boot/cstartup_flash.S:151
_RETENTION_DATA_INIT_BEGIN:
    bleu   t3, t2, _RAMCODE_INIT
200000cc:	01c3f963          	bgeu	t2,t3,200000de <_RAMCODE_INIT>
E:/promotion/gitlab/telink_b91m_driver_sdk/telink_b91m_driver_sdk/chip/B91/boot/cstartup_flash.S:152
    lw     t0, 0(t1)
200000d0:	00032283          	lw	t0,0(t1)
E:/promotion/gitlab/telink_b91m_driver_sdk/telink_b91m_driver_sdk/chip/B91/boot/cstartup_flash.S:153
    sw     t0, 0(t2)
200000d4:	0053a023          	sw	t0,0(t2)
E:/promotion/gitlab/telink_b91m_driver_sdk/telink_b91m_driver_sdk/chip/B91/boot/cstartup_flash.S:154
    addi   t1, t1, 4
200000d8:	0311                	c.addi	t1,4
E:/promotion/gitlab/telink_b91m_driver_sdk/telink_b91m_driver_sdk/chip/B91/boot/cstartup_flash.S:155
    addi   t2, t2, 4
200000da:	0391                	c.addi	t2,4
E:/promotion/gitlab/telink_b91m_driver_sdk/telink_b91m_driver_sdk/chip/B91/boot/cstartup_flash.S:156
    j      _RETENTION_DATA_INIT_BEGIN
200000dc:	bfc5                	c.j	200000cc <_RETENTION_DATA_INIT_BEGIN>

200000de <_RAMCODE_INIT>:
_RAMCODE_INIT():
E:/promotion/gitlab/telink_b91m_driver_sdk/telink_b91m_driver_sdk/chip/B91/boot/cstartup_flash.S:161

	/* Move ramcode from flash to sram */
_RAMCODE_INIT:

    la     t1, _RAMCODE_LMA_START
200000de:	00000317          	auipc	t1,0x0
200000e2:	27a30313          	addi	t1,t1,634 # 20000358 <_RAMCODE_LMA_START>
E:/promotion/gitlab/telink_b91m_driver_sdk/telink_b91m_driver_sdk/chip/B91/boot/cstartup_flash.S:162
    la     t2, _RAMCODE_VMA_START
200000e6:	e0000397          	auipc	t2,0xe0000
200000ea:	11a38393          	addi	t2,t2,282 # 200 <delay_ms.constprop.34>
E:/promotion/gitlab/telink_b91m_driver_sdk/telink_b91m_driver_sdk/chip/B91/boot/cstartup_flash.S:163
    la     t3, _RAMCODE_VMA_END
200000ee:	e0003e17          	auipc	t3,0xe0003
200000f2:	814e0e13          	addi	t3,t3,-2028 # 2902 <_RAMCODE_VMA_END>

200000f6 <_RAMCODE_INIT_BEGIN>:
_RAMCODE_INIT_BEGIN():
E:/promotion/gitlab/telink_b91m_driver_sdk/telink_b91m_driver_sdk/chip/B91/boot/cstartup_flash.S:165
_RAMCODE_INIT_BEGIN:
    bleu    t3, t2, _DATA_INIT
200000f6:	01c3f963          	bgeu	t2,t3,20000108 <_DATA_INIT>
E:/promotion/gitlab/telink_b91m_driver_sdk/telink_b91m_driver_sdk/chip/B91/boot/cstartup_flash.S:166
    lw     t0, 0(t1)
200000fa:	00032283          	lw	t0,0(t1)
E:/promotion/gitlab/telink_b91m_driver_sdk/telink_b91m_driver_sdk/chip/B91/boot/cstartup_flash.S:167
    sw     t0, 0(t2)
200000fe:	0053a023          	sw	t0,0(t2)
E:/promotion/gitlab/telink_b91m_driver_sdk/telink_b91m_driver_sdk/chip/B91/boot/cstartup_flash.S:168
    addi   t1, t1, 4
20000102:	0311                	c.addi	t1,4
E:/promotion/gitlab/telink_b91m_driver_sdk/telink_b91m_driver_sdk/chip/B91/boot/cstartup_flash.S:169
    addi   t2, t2, 4
20000104:	0391                	c.addi	t2,4
E:/promotion/gitlab/telink_b91m_driver_sdk/telink_b91m_driver_sdk/chip/B91/boot/cstartup_flash.S:170
    j      _RAMCODE_INIT_BEGIN
20000106:	bfc5                	c.j	200000f6 <_RAMCODE_INIT_BEGIN>

20000108 <_DATA_INIT>:
_DATA_INIT():
E:/promotion/gitlab/telink_b91m_driver_sdk/telink_b91m_driver_sdk/chip/B91/boot/cstartup_flash.S:175


	/* Move Data from flash to sram */
_DATA_INIT:
    la     t1, _DATA_LMA_START
20000108:	00008317          	auipc	t1,0x8
2000010c:	ed030313          	addi	t1,t1,-304 # 20007fd8 <_DATA_LMA_START>
E:/promotion/gitlab/telink_b91m_driver_sdk/telink_b91m_driver_sdk/chip/B91/boot/cstartup_flash.S:176
    la     t2, _DATA_VMA_START
20000110:	e0080397          	auipc	t2,0xe0080
20000114:	ef038393          	addi	t2,t2,-272 # 80000 <_DATA_VMA_START>
E:/promotion/gitlab/telink_b91m_driver_sdk/telink_b91m_driver_sdk/chip/B91/boot/cstartup_flash.S:177
    la     t3, _DATA_VMA_END
20000118:	e0080e17          	auipc	t3,0xe0080
2000011c:	efce0e13          	addi	t3,t3,-260 # 80014 <_DATA_VMA_END>

20000120 <_DATA_INIT_BEGIN>:
_DATA_INIT_BEGIN():
E:/promotion/gitlab/telink_b91m_driver_sdk/telink_b91m_driver_sdk/chip/B91/boot/cstartup_flash.S:179
_DATA_INIT_BEGIN:
    bleu   t3, t2, _ZERO_BSS
20000120:	01c3f963          	bgeu	t2,t3,20000132 <_ZERO_BSS>
E:/promotion/gitlab/telink_b91m_driver_sdk/telink_b91m_driver_sdk/chip/B91/boot/cstartup_flash.S:180
    lw     t0, 0(t1)
20000124:	00032283          	lw	t0,0(t1)
E:/promotion/gitlab/telink_b91m_driver_sdk/telink_b91m_driver_sdk/chip/B91/boot/cstartup_flash.S:181
    sw     t0, 0(t2)
20000128:	0053a023          	sw	t0,0(t2)
E:/promotion/gitlab/telink_b91m_driver_sdk/telink_b91m_driver_sdk/chip/B91/boot/cstartup_flash.S:182
    addi   t1, t1, 4
2000012c:	0311                	c.addi	t1,4
E:/promotion/gitlab/telink_b91m_driver_sdk/telink_b91m_driver_sdk/chip/B91/boot/cstartup_flash.S:183
    addi   t2, t2, 4
2000012e:	0391                	c.addi	t2,4
E:/promotion/gitlab/telink_b91m_driver_sdk/telink_b91m_driver_sdk/chip/B91/boot/cstartup_flash.S:184
    j      _DATA_INIT_BEGIN
20000130:	bfc5                	c.j	20000120 <_DATA_INIT_BEGIN>

20000132 <_ZERO_BSS>:
_ZERO_BSS():
E:/promotion/gitlab/telink_b91m_driver_sdk/telink_b91m_driver_sdk/chip/B91/boot/cstartup_flash.S:190



	/* Zero .bss section in sram */
_ZERO_BSS:
    lui    t0, 0
20000132:	000002b7          	lui	t0,0x0
E:/promotion/gitlab/telink_b91m_driver_sdk/telink_b91m_driver_sdk/chip/B91/boot/cstartup_flash.S:191
    la     t2, _BSS_VMA_START
20000136:	e0080397          	auipc	t2,0xe0080
2000013a:	ee238393          	addi	t2,t2,-286 # 80018 <_BSS_VMA_START>
E:/promotion/gitlab/telink_b91m_driver_sdk/telink_b91m_driver_sdk/chip/B91/boot/cstartup_flash.S:192
    la     t3, _BSS_VMA_END
2000013e:	e0081e17          	auipc	t3,0xe0081
20000142:	feae0e13          	addi	t3,t3,-22 # 81128 <_BSS_VMA_END>

20000146 <_ZERO_BSS_BEGIN>:
_ZERO_BSS_BEGIN():
E:/promotion/gitlab/telink_b91m_driver_sdk/telink_b91m_driver_sdk/chip/B91/boot/cstartup_flash.S:194
_ZERO_BSS_BEGIN:
    bleu   t3, t2, _ZERO_AES
20000146:	01c3f663          	bgeu	t2,t3,20000152 <_ZERO_AES>
E:/promotion/gitlab/telink_b91m_driver_sdk/telink_b91m_driver_sdk/chip/B91/boot/cstartup_flash.S:195
    sw     t0, 0(t2)
2000014a:	0053a023          	sw	t0,0(t2)
E:/promotion/gitlab/telink_b91m_driver_sdk/telink_b91m_driver_sdk/chip/B91/boot/cstartup_flash.S:196
    addi   t2, t2, 4
2000014e:	0391                	c.addi	t2,4
E:/promotion/gitlab/telink_b91m_driver_sdk/telink_b91m_driver_sdk/chip/B91/boot/cstartup_flash.S:197
    j      _ZERO_BSS_BEGIN
20000150:	bfdd                	c.j	20000146 <_ZERO_BSS_BEGIN>

20000152 <_ZERO_AES>:
_ZERO_AES():
E:/promotion/gitlab/telink_b91m_driver_sdk/telink_b91m_driver_sdk/chip/B91/boot/cstartup_flash.S:201

	/* Zero .aes section in sram */
_ZERO_AES:
    lui    t0, 0
20000152:	000002b7          	lui	t0,0x0
E:/promotion/gitlab/telink_b91m_driver_sdk/telink_b91m_driver_sdk/chip/B91/boot/cstartup_flash.S:202
    la     t2, _AES_VMA_START
20000156:	e0000397          	auipc	t2,0xe0000
2000015a:	00238393          	addi	t2,t2,2 # 158 <_AES_VMA_END>
E:/promotion/gitlab/telink_b91m_driver_sdk/telink_b91m_driver_sdk/chip/B91/boot/cstartup_flash.S:203
    la     t3, _AES_VMA_END
2000015e:	e0000e17          	auipc	t3,0xe0000
20000162:	ffae0e13          	addi	t3,t3,-6 # 158 <_AES_VMA_END>

20000166 <_ZERO_AES_BEGIN>:
_ZERO_AES_BEGIN():
E:/promotion/gitlab/telink_b91m_driver_sdk/telink_b91m_driver_sdk/chip/B91/boot/cstartup_flash.S:205
_ZERO_AES_BEGIN:
    bleu   t3, t2, _FILL_STK
20000166:	01c3f663          	bgeu	t2,t3,20000172 <_FILL_STK>
E:/promotion/gitlab/telink_b91m_driver_sdk/telink_b91m_driver_sdk/chip/B91/boot/cstartup_flash.S:206
    sw     t0, 0(t2)
2000016a:	0053a023          	sw	t0,0(t2)
E:/promotion/gitlab/telink_b91m_driver_sdk/telink_b91m_driver_sdk/chip/B91/boot/cstartup_flash.S:207
    addi   t2, t2, 4
2000016e:	0391                	c.addi	t2,4
E:/promotion/gitlab/telink_b91m_driver_sdk/telink_b91m_driver_sdk/chip/B91/boot/cstartup_flash.S:208
    j      _ZERO_AES_BEGIN
20000170:	bfdd                	c.j	20000166 <_ZERO_AES_BEGIN>

20000172 <_FILL_STK>:
_FILL_STK():
E:/promotion/gitlab/telink_b91m_driver_sdk/telink_b91m_driver_sdk/chip/B91/boot/cstartup_flash.S:225
    addi   t2, t2, 4
    j      _FILL_STK_BEGIN
#endif
	/* Jump to the main function */
_MAIN_FUNC:
    nop
20000172:	0001                	c.nop
E:/promotion/gitlab/telink_b91m_driver_sdk/telink_b91m_driver_sdk/chip/B91/boot/cstartup_flash.S:227

    la     t0, main
20000174:	00003297          	auipc	t0,0x3
20000178:	4c428293          	addi	t0,t0,1220 # 20003638 <main>
E:/promotion/gitlab/telink_b91m_driver_sdk/telink_b91m_driver_sdk/chip/B91/boot/cstartup_flash.S:228
    jalr   t0
2000017c:	9282                	c.jalr	t0
E:/promotion/gitlab/telink_b91m_driver_sdk/telink_b91m_driver_sdk/chip/B91/boot/cstartup_flash.S:230

    nop
2000017e:	0001                	c.nop
E:/promotion/gitlab/telink_b91m_driver_sdk/telink_b91m_driver_sdk/chip/B91/boot/cstartup_flash.S:231
    nop
20000180:	0001                	c.nop
E:/promotion/gitlab/telink_b91m_driver_sdk/telink_b91m_driver_sdk/chip/B91/boot/cstartup_flash.S:232
    nop
20000182:	0001                	c.nop
E:/promotion/gitlab/telink_b91m_driver_sdk/telink_b91m_driver_sdk/chip/B91/boot/cstartup_flash.S:233
    nop
20000184:	0001                	c.nop
E:/promotion/gitlab/telink_b91m_driver_sdk/telink_b91m_driver_sdk/chip/B91/boot/cstartup_flash.S:234
    nop
20000186:	0001                	c.nop

20000188 <_END>:
_END():
E:/promotion/gitlab/telink_b91m_driver_sdk/telink_b91m_driver_sdk/chip/B91/boot/cstartup_flash.S:236
_END:
    j    _END
20000188:	a001                	c.j	20000188 <_END>

Disassembly of section .retention_reset:

00000000 <_IRESET_ENTRY>:
_RETENTION_RESET_VMA_START():
E:/promotion/gitlab/telink_b91m_driver_sdk/telink_b91m_driver_sdk/chip/B91/boot/cstartup_flash.S:248
 	.type _IRESET_ENTRY,@function

    .align 2
_IRESET_ENTRY:
	/* Decide whether this is an NMI or cold reset */
	j 		_ISTART
   0:	a00d                	c.j	22 <_ISTART>
	...

00000022 <_ISTART>:
_ISTART():
E:/promotion/gitlab/telink_b91m_driver_sdk/telink_b91m_driver_sdk/chip/B91/boot/cstartup_flash.S:262
	sb		t1 , 0x30a(t0)		 //0x8014030a  PB oen     =  0xef
	sb		t2 , 0x30b(t0)		 //0x8014030b  PB output  =  0x10
#endif
	/* Initialize global pointer */

    la     gp, __global_pointer$
  22:	00080197          	auipc	gp,0x80
  26:	7de18193          	addi	gp,gp,2014 # 80800 <__global_pointer$>

0000002a <_ISWS_USB_DIS>:
_ISWS_USB_DIS():
E:/promotion/gitlab/telink_b91m_driver_sdk/telink_b91m_driver_sdk/chip/B91/boot/cstartup_flash.S:270
/*
* swire usb enable default.when dp and dm use as GPIO, it has a risk to trigger the swire through usb function
* to do something unexcept when toggle dp pin
*/
_ISWS_USB_DIS:
	lui		t0, 0x80100
  2a:	801002b7          	lui	t0,0x80100
E:/promotion/gitlab/telink_b91m_driver_sdk/telink_b91m_driver_sdk/chip/B91/boot/cstartup_flash.S:271
	addi	t0 , t0 , 0x700
  2e:	70028293          	addi	t0,t0,1792 # 80100700 <_DATA_LMA_START+0x600f8728>
E:/promotion/gitlab/telink_b91m_driver_sdk/telink_b91m_driver_sdk/chip/B91/boot/cstartup_flash.S:272
	li		t1, 0x40
  32:	04000313          	li	t1,64
E:/promotion/gitlab/telink_b91m_driver_sdk/telink_b91m_driver_sdk/chip/B91/boot/cstartup_flash.S:273
	sb		t1, 0x501(t0)  //0x80100c01 -> 0x40  <7>: 0 swire_usb_dis
  36:	506280a3          	sb	t1,1281(t0)
E:/promotion/gitlab/telink_b91m_driver_sdk/telink_b91m_driver_sdk/chip/B91/boot/cstartup_flash.S:276

	/* Initialize stack pointer */
    la     t0, _STACK_TOP
  3a:	000a0297          	auipc	t0,0xa0
  3e:	fc628293          	addi	t0,t0,-58 # a0000 <_STACK_TOP>
E:/promotion/gitlab/telink_b91m_driver_sdk/telink_b91m_driver_sdk/chip/B91/boot/cstartup_flash.S:277
    mv     sp, t0
  42:	8116                	c.mv	sp,t0
E:/promotion/gitlab/telink_b91m_driver_sdk/telink_b91m_driver_sdk/chip/B91/boot/cstartup_flash.S:281

#ifdef __nds_execit
	/* Initialize EXEC.IT table */
	la t0, _ITB_BASE_
  44:	00000297          	auipc	t0,0x0
  48:	fbc28293          	addi	t0,t0,-68 # 0 <_IRESET_ENTRY>
E:/promotion/gitlab/telink_b91m_driver_sdk/telink_b91m_driver_sdk/chip/B91/boot/cstartup_flash.S:282
	csrw uitb, t0
  4c:	80029073          	csrw	uitb,t0
E:/promotion/gitlab/telink_b91m_driver_sdk/telink_b91m_driver_sdk/chip/B91/boot/cstartup_flash.S:287
#endif

#ifdef __riscv_flen
	/* Enable FPU */
	li t0, 0x00006000
  50:	6299                	c.lui	t0,0x6
E:/promotion/gitlab/telink_b91m_driver_sdk/telink_b91m_driver_sdk/chip/B91/boot/cstartup_flash.S:288
	csrrs t0, mstatus, t0
  52:	3002a2f3          	csrrs	t0,mstatus,t0
E:/promotion/gitlab/telink_b91m_driver_sdk/telink_b91m_driver_sdk/chip/B91/boot/cstartup_flash.S:290
	/* Initialize FCSR */
	fscsr zero
  56:	00301073          	fssr	zero
E:/promotion/gitlab/telink_b91m_driver_sdk/telink_b91m_driver_sdk/chip/B91/boot/cstartup_flash.S:294
#endif

    /* Initial machine trap-vector Base */
    la     t0, __vectors
  5a:	00002297          	auipc	t0,0x2
  5e:	7a628293          	addi	t0,t0,1958 # 2800 <__vectors>
E:/promotion/gitlab/telink_b91m_driver_sdk/telink_b91m_driver_sdk/chip/B91/boot/cstartup_flash.S:295
    csrw   mtvec, t0
  62:	30529073          	csrw	mtvec,t0
E:/promotion/gitlab/telink_b91m_driver_sdk/telink_b91m_driver_sdk/chip/B91/boot/cstartup_flash.S:298

    /* Enable vectored external plic interrupt */
    csrsi  mmisc_ctl, 2
  66:	7d016073          	csrsi	mmisc_ctl,2
E:/promotion/gitlab/telink_b91m_driver_sdk/telink_b91m_driver_sdk/chip/B91/boot/cstartup_flash.S:301

	/*vector mode enable bit (VECTORED) of the Feature Enable Register */
    lui		t0, 0xe4000
  6a:	e40002b7          	lui	t0,0xe4000
E:/promotion/gitlab/telink_b91m_driver_sdk/telink_b91m_driver_sdk/chip/B91/boot/cstartup_flash.S:302
	li		t1, 0x02
  6e:	4309                	c.li	t1,2
E:/promotion/gitlab/telink_b91m_driver_sdk/telink_b91m_driver_sdk/chip/B91/boot/cstartup_flash.S:303
	sw		t1, 0x0(t0)		 //(*(volatile unsigned long*)(0xe4000000))= 0x02
  70:	0062a023          	sw	t1,0(t0) # e4000000 <_DATA_LMA_START+0xc3ff8028>
E:/promotion/gitlab/telink_b91m_driver_sdk/telink_b91m_driver_sdk/chip/B91/boot/cstartup_flash.S:306

    /* Enable I/D-Cache */
    csrr   t0,  mcache_ctl
  74:	7ca022f3          	csrr	t0,mcache_ctl
E:/promotion/gitlab/telink_b91m_driver_sdk/telink_b91m_driver_sdk/chip/B91/boot/cstartup_flash.S:307
    ori    t0,  t0,  1  #/I-Cache
  78:	0012e293          	ori	t0,t0,1
E:/promotion/gitlab/telink_b91m_driver_sdk/telink_b91m_driver_sdk/chip/B91/boot/cstartup_flash.S:308
    ori    t0,  t0,  2  #/D-Cache
  7c:	0022e293          	ori	t0,t0,2
E:/promotion/gitlab/telink_b91m_driver_sdk/telink_b91m_driver_sdk/chip/B91/boot/cstartup_flash.S:309
    csrw   mcache_ctl,  t0
  80:	7ca29073          	csrw	mcache_ctl,t0
E:/promotion/gitlab/telink_b91m_driver_sdk/telink_b91m_driver_sdk/chip/B91/boot/cstartup_flash.S:310
    fence.i
  84:	0000100f          	fence.i

00000088 <_WAKEUP_FLASH>:
_WAKEUP_FLASH():
E:/promotion/gitlab/telink_b91m_driver_sdk/telink_b91m_driver_sdk/chip/B91/boot/cstartup_flash.S:315


/* flash wakeup */
_WAKEUP_FLASH:
	lui		t0 , 0x80140
  88:	801402b7          	lui	t0,0x80140
E:/promotion/gitlab/telink_b91m_driver_sdk/telink_b91m_driver_sdk/chip/B91/boot/cstartup_flash.S:316
	li		t1 , 0xff
  8c:	0ff00313          	li	t1,255
E:/promotion/gitlab/telink_b91m_driver_sdk/telink_b91m_driver_sdk/chip/B91/boot/cstartup_flash.S:317
	li		t2 , 0x0
  90:	4381                	c.li	t2,0
E:/promotion/gitlab/telink_b91m_driver_sdk/telink_b91m_driver_sdk/chip/B91/boot/cstartup_flash.S:318
	li		t3 , 0xab
  92:	0ab00e13          	li	t3,171
E:/promotion/gitlab/telink_b91m_driver_sdk/telink_b91m_driver_sdk/chip/B91/boot/cstartup_flash.S:319
	sb		t1 , 0x329(t0)			 //mspi ie enable	:0x140329:0x1f
  96:	326284a3          	sb	t1,809(t0) # 80140329 <_DATA_LMA_START+0x60138351>
E:/promotion/gitlab/telink_b91m_driver_sdk/telink_b91m_driver_sdk/chip/B91/boot/cstartup_flash.S:320
	sb		t2 , 0x101(t0)			 //cs_low			:0x140101:0x00
  9a:	107280a3          	sb	t2,257(t0)
E:/promotion/gitlab/telink_b91m_driver_sdk/telink_b91m_driver_sdk/chip/B91/boot/cstartup_flash.S:321
	sb		t3 , 0x100(t0)			 //wakeup_cmd		:0x140100:0xab
  9e:	11c28023          	sb	t3,256(t0)

000000a2 <_MSPI_WAIT>:
_MSPI_WAIT():
E:/promotion/gitlab/telink_b91m_driver_sdk/telink_b91m_driver_sdk/chip/B91/boot/cstartup_flash.S:323
_MSPI_WAIT:
	lui		t0 , 0x80140
  a2:	801402b7          	lui	t0,0x80140
E:/promotion/gitlab/telink_b91m_driver_sdk/telink_b91m_driver_sdk/chip/B91/boot/cstartup_flash.S:324
	lb		t2 , 0x102(t0)			//read reg_mspi_status FLD_MSPI_BUSY(bit0)
  a6:	10228383          	lb	t2,258(t0) # 80140102 <_DATA_LMA_START+0x6013812a>
E:/promotion/gitlab/telink_b91m_driver_sdk/telink_b91m_driver_sdk/chip/B91/boot/cstartup_flash.S:325
	li		t3 , 0x1
  aa:	4e05                	c.li	t3,1
E:/promotion/gitlab/telink_b91m_driver_sdk/telink_b91m_driver_sdk/chip/B91/boot/cstartup_flash.S:326
	li		t4 , 0x10
  ac:	4ec1                	c.li	t4,16
E:/promotion/gitlab/telink_b91m_driver_sdk/telink_b91m_driver_sdk/chip/B91/boot/cstartup_flash.S:327
	beq 	t3 , t2 ,_MSPI_WAIT
  ae:	fe7e0ae3          	beq	t3,t2,a2 <_MSPI_WAIT>
E:/promotion/gitlab/telink_b91m_driver_sdk/telink_b91m_driver_sdk/chip/B91/boot/cstartup_flash.S:328
	sb		t4 , 0x101(t0)			//cs_high			:0x140101:0x10
  b2:	11d280a3          	sb	t4,257(t0)
E:/promotion/gitlab/telink_b91m_driver_sdk/telink_b91m_driver_sdk/chip/B91/boot/cstartup_flash.S:336
	lui		t0,0x80140 			//0x8014030a
	li		t1, 0x00
	sb		t1 , 0x30b(t0)		 //0x8014030b  PB output  =  0x00
#endif
/*efuse load need delay about 18us */
	li		t0 , 0
  b6:	4281                	c.li	t0,0
E:/promotion/gitlab/telink_b91m_driver_sdk/telink_b91m_driver_sdk/chip/B91/boot/cstartup_flash.S:337
	li		t1 , 226
  b8:	0e200313          	li	t1,226

000000bc <_WAIT_EFUSE_LOAD_FINISH>:
_WAIT_EFUSE_LOAD_FINISH():
E:/promotion/gitlab/telink_b91m_driver_sdk/telink_b91m_driver_sdk/chip/B91/boot/cstartup_flash.S:339
_WAIT_EFUSE_LOAD_FINISH:
	addi 	t0 , t0 , 1
  bc:	0285                	c.addi	t0,1
E:/promotion/gitlab/telink_b91m_driver_sdk/telink_b91m_driver_sdk/chip/B91/boot/cstartup_flash.S:340
	bgeu 	t1 , t0 , _WAIT_EFUSE_LOAD_FINISH
  be:	fe537fe3          	bgeu	t1,t0,bc <_WAIT_EFUSE_LOAD_FINISH>

000000c2 <_MULTI_ADDRESS_BEGIN>:
_MULTI_ADDRESS_BEGIN():
E:/promotion/gitlab/telink_b91m_driver_sdk/telink_b91m_driver_sdk/chip/B91/boot/cstartup_flash.S:349
	lui		t0,0x80140 			//0x8014030a
	li		t1, 0x10
	sb		t1 , 0x30b(t0)		 //0x8014030b  PB output  =  0x00
#endif
_MULTI_ADDRESS_BEGIN:
	lui		t0 , 0x80140
  c2:	801402b7          	lui	t0,0x80140
E:/promotion/gitlab/telink_b91m_driver_sdk/telink_b91m_driver_sdk/chip/B91/boot/cstartup_flash.S:350
	la		t1 , g_pm_mspi_cfg
  c6:	1c000313          	li	t1,448
E:/promotion/gitlab/telink_b91m_driver_sdk/telink_b91m_driver_sdk/chip/B91/boot/cstartup_flash.S:351
	lw		t2 , 0(t1)
  ca:	00032383          	lw	t2,0(t1)
E:/promotion/gitlab/telink_b91m_driver_sdk/telink_b91m_driver_sdk/chip/B91/boot/cstartup_flash.S:352
	sw		t2 , 0x104(t0)			 //g_pm_mspi_cfg->0x80140104
  ce:	1072a223          	sw	t2,260(t0) # 80140104 <_DATA_LMA_START+0x6013812c>

000000d2 <_IDATA_INIT>:
_IDATA_INIT():
E:/promotion/gitlab/telink_b91m_driver_sdk/telink_b91m_driver_sdk/chip/B91/boot/cstartup_flash.S:372
    j      _IRAMCODE_INIT_BEGIN
#endif

	/* Move Data from flash to sram */
_IDATA_INIT:
    la     t1, _DATA_LMA_START
  d2:	20008317          	auipc	t1,0x20008
  d6:	f0630313          	addi	t1,t1,-250 # 20007fd8 <_DATA_LMA_START>
E:/promotion/gitlab/telink_b91m_driver_sdk/telink_b91m_driver_sdk/chip/B91/boot/cstartup_flash.S:373
    la     t2, _DATA_VMA_START
  da:	00080397          	auipc	t2,0x80
  de:	f2638393          	addi	t2,t2,-218 # 80000 <_DATA_VMA_START>
E:/promotion/gitlab/telink_b91m_driver_sdk/telink_b91m_driver_sdk/chip/B91/boot/cstartup_flash.S:374
    la     t3, _DATA_VMA_END
  e2:	00080e17          	auipc	t3,0x80
  e6:	f32e0e13          	addi	t3,t3,-206 # 80014 <_DATA_VMA_END>

000000ea <_IDATA_INIT_BEGIN>:
_IDATA_INIT_BEGIN():
E:/promotion/gitlab/telink_b91m_driver_sdk/telink_b91m_driver_sdk/chip/B91/boot/cstartup_flash.S:376
_IDATA_INIT_BEGIN:
    bleu   t3, t2, _IZERO_BSS
  ea:	01c3f963          	bgeu	t2,t3,fc <_IZERO_BSS>
E:/promotion/gitlab/telink_b91m_driver_sdk/telink_b91m_driver_sdk/chip/B91/boot/cstartup_flash.S:377
    lw     t0, 0(t1)
  ee:	00032283          	lw	t0,0(t1)
E:/promotion/gitlab/telink_b91m_driver_sdk/telink_b91m_driver_sdk/chip/B91/boot/cstartup_flash.S:378
    sw     t0, 0(t2)
  f2:	0053a023          	sw	t0,0(t2)
E:/promotion/gitlab/telink_b91m_driver_sdk/telink_b91m_driver_sdk/chip/B91/boot/cstartup_flash.S:379
    addi   t1, t1, 4
  f6:	0311                	c.addi	t1,4
E:/promotion/gitlab/telink_b91m_driver_sdk/telink_b91m_driver_sdk/chip/B91/boot/cstartup_flash.S:380
    addi   t2, t2, 4
  f8:	0391                	c.addi	t2,4
E:/promotion/gitlab/telink_b91m_driver_sdk/telink_b91m_driver_sdk/chip/B91/boot/cstartup_flash.S:381
    j      _IDATA_INIT_BEGIN
  fa:	bfc5                	c.j	ea <_IDATA_INIT_BEGIN>

000000fc <_IZERO_BSS>:
_IZERO_BSS():
E:/promotion/gitlab/telink_b91m_driver_sdk/telink_b91m_driver_sdk/chip/B91/boot/cstartup_flash.S:387



	/* Zero .bss section in sram */
_IZERO_BSS:
    lui    t0, 0
  fc:	000002b7          	lui	t0,0x0
E:/promotion/gitlab/telink_b91m_driver_sdk/telink_b91m_driver_sdk/chip/B91/boot/cstartup_flash.S:388
    la     t2, _BSS_VMA_START
 100:	00080397          	auipc	t2,0x80
 104:	f1838393          	addi	t2,t2,-232 # 80018 <_BSS_VMA_START>
E:/promotion/gitlab/telink_b91m_driver_sdk/telink_b91m_driver_sdk/chip/B91/boot/cstartup_flash.S:389
    la     t3, _BSS_VMA_END
 108:	00081e17          	auipc	t3,0x81
 10c:	020e0e13          	addi	t3,t3,32 # 81128 <_BSS_VMA_END>

00000110 <_IZERO_BSS_BEGIN>:
_IZERO_BSS_BEGIN():
E:/promotion/gitlab/telink_b91m_driver_sdk/telink_b91m_driver_sdk/chip/B91/boot/cstartup_flash.S:391
_IZERO_BSS_BEGIN:
    bleu   t3, t2, _IZERO_AES
 110:	01c3f663          	bgeu	t2,t3,11c <_IZERO_AES>
E:/promotion/gitlab/telink_b91m_driver_sdk/telink_b91m_driver_sdk/chip/B91/boot/cstartup_flash.S:392
    sw     t0, 0(t2)
 114:	0053a023          	sw	t0,0(t2)
E:/promotion/gitlab/telink_b91m_driver_sdk/telink_b91m_driver_sdk/chip/B91/boot/cstartup_flash.S:393
    addi   t2, t2, 4
 118:	0391                	c.addi	t2,4
E:/promotion/gitlab/telink_b91m_driver_sdk/telink_b91m_driver_sdk/chip/B91/boot/cstartup_flash.S:394
    j      _IZERO_BSS_BEGIN
 11a:	bfdd                	c.j	110 <_IZERO_BSS_BEGIN>

0000011c <_IZERO_AES>:
_IZERO_AES():
E:/promotion/gitlab/telink_b91m_driver_sdk/telink_b91m_driver_sdk/chip/B91/boot/cstartup_flash.S:398

	/* Zero .aes section in sram */
_IZERO_AES:
    lui    t0, 0
 11c:	000002b7          	lui	t0,0x0
E:/promotion/gitlab/telink_b91m_driver_sdk/telink_b91m_driver_sdk/chip/B91/boot/cstartup_flash.S:399
    la     t2, _AES_VMA_START
 120:	00000397          	auipc	t2,0x0
 124:	03838393          	addi	t2,t2,56 # 158 <_AES_VMA_END>
E:/promotion/gitlab/telink_b91m_driver_sdk/telink_b91m_driver_sdk/chip/B91/boot/cstartup_flash.S:400
    la     t3, _AES_VMA_END
 128:	00000e17          	auipc	t3,0x0
 12c:	030e0e13          	addi	t3,t3,48 # 158 <_AES_VMA_END>

00000130 <_IZERO_AES_BEGIN>:
_IZERO_AES_BEGIN():
E:/promotion/gitlab/telink_b91m_driver_sdk/telink_b91m_driver_sdk/chip/B91/boot/cstartup_flash.S:402
_IZERO_AES_BEGIN:
    bleu   t3, t2, _IFILL_STK
 130:	01c3f663          	bgeu	t2,t3,13c <_IFILL_STK>
E:/promotion/gitlab/telink_b91m_driver_sdk/telink_b91m_driver_sdk/chip/B91/boot/cstartup_flash.S:403
    sw     t0, 0(t2)
 134:	0053a023          	sw	t0,0(t2)
E:/promotion/gitlab/telink_b91m_driver_sdk/telink_b91m_driver_sdk/chip/B91/boot/cstartup_flash.S:404
    addi   t2, t2, 4
 138:	0391                	c.addi	t2,4
E:/promotion/gitlab/telink_b91m_driver_sdk/telink_b91m_driver_sdk/chip/B91/boot/cstartup_flash.S:405
    j      _IZERO_AES_BEGIN
 13a:	bfdd                	c.j	130 <_IZERO_AES_BEGIN>

0000013c <_IFILL_STK>:
_IFILL_STK():
E:/promotion/gitlab/telink_b91m_driver_sdk/telink_b91m_driver_sdk/chip/B91/boot/cstartup_flash.S:423
    addi   t2, t2, 4
    j      _IFILL_STK_BEGIN
#endif
	/* Jump to the main function */
_IMAIN_FUNC:
    nop
 13c:	0001                	c.nop
E:/promotion/gitlab/telink_b91m_driver_sdk/telink_b91m_driver_sdk/chip/B91/boot/cstartup_flash.S:425

    la     t0, main
 13e:	20003297          	auipc	t0,0x20003
 142:	4fa28293          	addi	t0,t0,1274 # 20003638 <main>
E:/promotion/gitlab/telink_b91m_driver_sdk/telink_b91m_driver_sdk/chip/B91/boot/cstartup_flash.S:426
    jalr   t0
 146:	9282                	c.jalr	t0
E:/promotion/gitlab/telink_b91m_driver_sdk/telink_b91m_driver_sdk/chip/B91/boot/cstartup_flash.S:428

    nop
 148:	0001                	c.nop
E:/promotion/gitlab/telink_b91m_driver_sdk/telink_b91m_driver_sdk/chip/B91/boot/cstartup_flash.S:429
    nop
 14a:	0001                	c.nop
E:/promotion/gitlab/telink_b91m_driver_sdk/telink_b91m_driver_sdk/chip/B91/boot/cstartup_flash.S:430
    nop
 14c:	0001                	c.nop
E:/promotion/gitlab/telink_b91m_driver_sdk/telink_b91m_driver_sdk/chip/B91/boot/cstartup_flash.S:431
    nop
 14e:	0001                	c.nop
E:/promotion/gitlab/telink_b91m_driver_sdk/telink_b91m_driver_sdk/chip/B91/boot/cstartup_flash.S:432
    nop
 150:	0001                	c.nop

00000152 <_IEND>:
_IEND():
E:/promotion/gitlab/telink_b91m_driver_sdk/telink_b91m_driver_sdk/chip/B91/boot/cstartup_flash.S:434
_IEND:
    j    _IEND
 152:	a001                	c.j	152 <_IEND>

Disassembly of section .ram_code:

00000200 <delay_ms.constprop.34>:
stimer_get_tick():
E:/promotion/gitlab/telink_b91m_driver_sdk/telink_b91m_driver_sdk/chip/B91/drivers/stimer.h:168
 * @return    system timer tick value.
**/
static inline unsigned int stimer_get_tick(void)
{

	return reg_system_tick;
     200:	801407b7          	lui	a5,0x80140
delay_ms():
E:/promotion/gitlab/telink_b91m_driver_sdk/telink_b91m_driver_sdk/chip/B91/drivers/stimer.c:45
 * @return    none
*/
 void delay_ms(unsigned int millisec)
{
	unsigned long t = stimer_get_tick();
	while(!clock_time_exceed(t, millisec*1000)){
     204:	00187737          	lui	a4,0x187
stimer_get_tick():
E:/promotion/gitlab/telink_b91m_driver_sdk/telink_b91m_driver_sdk/chip/B91/drivers/stimer.h:168
     208:	2007a603          	lw	a2,512(a5) # 80140200 <_DATA_LMA_START+0x60138228>
     20c:	801406b7          	lui	a3,0x80140
delay_ms():
E:/promotion/gitlab/telink_b91m_driver_sdk/telink_b91m_driver_sdk/chip/B91/drivers/stimer.c:45
     210:	a0070713          	addi	a4,a4,-1536 # 186a00 <FLASH_SIZE+0x86a00>
stimer_get_tick():
E:/promotion/gitlab/telink_b91m_driver_sdk/telink_b91m_driver_sdk/chip/B91/drivers/stimer.h:168
     214:	2006a783          	lw	a5,512(a3) # 80140200 <_DATA_LMA_START+0x60138228>
clock_time_exceed():
E:/promotion/gitlab/telink_b91m_driver_sdk/telink_b91m_driver_sdk/chip/B91/drivers/stimer.h:179
 * @param[in] us   - count by us.
 * @return    true - timeout, false - not timeout
 */
static inline _Bool clock_time_exceed(unsigned int ref, unsigned int us)
{
	return ((unsigned int)(stimer_get_tick() - ref) > us * SYSTEM_TIMER_TICK_1US);
     218:	8f91                	c.sub	a5,a2
delay_ms():
E:/promotion/gitlab/telink_b91m_driver_sdk/telink_b91m_driver_sdk/chip/B91/drivers/stimer.c:45
     21a:	fef77de3          	bgeu	a4,a5,214 <delay_ms.constprop.34+0x14>
E:/promotion/gitlab/telink_b91m_driver_sdk/telink_b91m_driver_sdk/chip/B91/drivers/stimer.c:47
	}
}
     21e:	8082                	c.jr	ra

00000220 <delay_us.constprop.9>:
stimer_get_tick():
E:/promotion/gitlab/telink_b91m_driver_sdk/telink_b91m_driver_sdk/chip/B91/drivers/stimer.h:168
	return reg_system_tick;
     220:	801407b7          	lui	a5,0x80140
delay_us():
E:/promotion/gitlab/telink_b91m_driver_sdk/telink_b91m_driver_sdk/chip/B91/drivers/stimer.c:33
	while(!clock_time_exceed(t, microsec)){
     224:	00001737          	lui	a4,0x1
stimer_get_tick():
E:/promotion/gitlab/telink_b91m_driver_sdk/telink_b91m_driver_sdk/chip/B91/drivers/stimer.h:168
     228:	2007a603          	lw	a2,512(a5) # 80140200 <_DATA_LMA_START+0x60138228>
     22c:	801406b7          	lui	a3,0x80140
delay_us():
E:/promotion/gitlab/telink_b91m_driver_sdk/telink_b91m_driver_sdk/chip/B91/drivers/stimer.c:33
     230:	2c070713          	addi	a4,a4,704 # 12c0 <entry_irq54+0x5c>
stimer_get_tick():
E:/promotion/gitlab/telink_b91m_driver_sdk/telink_b91m_driver_sdk/chip/B91/drivers/stimer.h:168
     234:	2006a783          	lw	a5,512(a3) # 80140200 <_DATA_LMA_START+0x60138228>
clock_time_exceed():
E:/promotion/gitlab/telink_b91m_driver_sdk/telink_b91m_driver_sdk/chip/B91/drivers/stimer.h:179
	return ((unsigned int)(stimer_get_tick() - ref) > us * SYSTEM_TIMER_TICK_1US);
     238:	8f91                	c.sub	a5,a2
delay_us():
E:/promotion/gitlab/telink_b91m_driver_sdk/telink_b91m_driver_sdk/chip/B91/drivers/stimer.c:33
     23a:	fef77de3          	bgeu	a4,a5,234 <delay_us.constprop.9+0x14>
E:/promotion/gitlab/telink_b91m_driver_sdk/telink_b91m_driver_sdk/chip/B91/drivers/stimer.c:35
}
     23e:	8082                	c.jr	ra

00000240 <flash_send_addr>:
flash_send_addr():
E:/promotion/gitlab/telink_b91m_driver_sdk/telink_b91m_driver_sdk/chip/B91/drivers/flash.c:111
 * @brief		This function serves to send flash address.
 * @param[in]	addr	- the flash address.
 * @return		none.
 */
_attribute_ram_code_sec_noinline_ static void flash_send_addr(unsigned int addr){
	mspi_write((unsigned char)(addr>>16));
     240:	5d05275b          	bfoz	a4,a0,23,16
mspi_write():
E:/promotion/gitlab/telink_b91m_driver_sdk/telink_b91m_driver_sdk/chip/B91/drivers/mspi.h:120
 * @brief		This function servers to write the spi.
 * @param[in]	c	- the char need to be write.
 * @return		none.
 */
_attribute_ram_code_sec_ static inline void mspi_write(unsigned char c){
	reg_mspi_data = c;
     244:	801407b7          	lui	a5,0x80140
mspi_wait():
E:/promotion/gitlab/telink_b91m_driver_sdk/telink_b91m_driver_sdk/chip/B91/drivers/mspi.h:46
	while(reg_mspi_status & FLD_MSPI_BUSY);
     248:	801406b7          	lui	a3,0x80140
mspi_write():
E:/promotion/gitlab/telink_b91m_driver_sdk/telink_b91m_driver_sdk/chip/B91/drivers/mspi.h:120
	reg_mspi_data = c;
     24c:	10e78023          	sb	a4,256(a5) # 80140100 <_DATA_LMA_START+0x60138128>
mspi_wait():
E:/promotion/gitlab/telink_b91m_driver_sdk/telink_b91m_driver_sdk/chip/B91/drivers/mspi.h:46
	while(reg_mspi_status & FLD_MSPI_BUSY);
     250:	10268783          	lb	a5,258(a3) # 80140102 <_DATA_LMA_START+0x6013812a>
     254:	fe07fe5b          	bbs	a5,0,250 <flash_send_addr+0x10>
flash_send_addr():
E:/promotion/gitlab/telink_b91m_driver_sdk/telink_b91m_driver_sdk/chip/B91/drivers/flash.c:113
	mspi_wait();
	mspi_write((unsigned char)(addr>>8));
     258:	3c8527db          	bfoz	a5,a0,15,8
mspi_wait():
E:/promotion/gitlab/telink_b91m_driver_sdk/telink_b91m_driver_sdk/chip/B91/drivers/mspi.h:46
     25c:	80140737          	lui	a4,0x80140
mspi_write():
E:/promotion/gitlab/telink_b91m_driver_sdk/telink_b91m_driver_sdk/chip/B91/drivers/mspi.h:120
	reg_mspi_data = c;
     260:	10f68023          	sb	a5,256(a3)
mspi_wait():
E:/promotion/gitlab/telink_b91m_driver_sdk/telink_b91m_driver_sdk/chip/B91/drivers/mspi.h:46
	while(reg_mspi_status & FLD_MSPI_BUSY);
     264:	10270783          	lb	a5,258(a4) # 80140102 <_DATA_LMA_START+0x6013812a>
     268:	fe07fe5b          	bbs	a5,0,264 <flash_send_addr+0x24>
flash_send_addr():
E:/promotion/gitlab/telink_b91m_driver_sdk/telink_b91m_driver_sdk/chip/B91/drivers/flash.c:115
	mspi_wait();
	mspi_write((unsigned char)(addr));
     26c:	0ff57513          	andi	a0,a0,255
mspi_wait():
E:/promotion/gitlab/telink_b91m_driver_sdk/telink_b91m_driver_sdk/chip/B91/drivers/mspi.h:46
     270:	801406b7          	lui	a3,0x80140
mspi_write():
E:/promotion/gitlab/telink_b91m_driver_sdk/telink_b91m_driver_sdk/chip/B91/drivers/mspi.h:120
	reg_mspi_data = c;
     274:	10a70023          	sb	a0,256(a4)
mspi_wait():
E:/promotion/gitlab/telink_b91m_driver_sdk/telink_b91m_driver_sdk/chip/B91/drivers/mspi.h:46
	while(reg_mspi_status & FLD_MSPI_BUSY);
     278:	10268783          	lb	a5,258(a3) # 80140102 <_DATA_LMA_START+0x6013812a>
     27c:	fe07fe5b          	bbs	a5,0,278 <flash_send_addr+0x38>
flash_send_addr():
E:/promotion/gitlab/telink_b91m_driver_sdk/telink_b91m_driver_sdk/chip/B91/drivers/flash.c:117
	mspi_wait();
}
     280:	00008067          	ret

00000284 <flash_send_cmd>:
mspi_high():
E:/promotion/gitlab/telink_b91m_driver_sdk/telink_b91m_driver_sdk/chip/B91/drivers/mspi.h:95
	reg_mspi_fm |= FLD_MSPI_CSN;
     284:	801407b7          	lui	a5,0x80140
     288:	10178703          	lb	a4,257(a5) # 80140101 <_DATA_LMA_START+0x60138129>
     28c:	0ff77713          	andi	a4,a4,255
     290:	01076713          	ori	a4,a4,16
     294:	10e780a3          	sb	a4,257(a5)
flash_send_cmd():
E:/promotion/gitlab/telink_b91m_driver_sdk/telink_b91m_driver_sdk/chip/B91/drivers/flash.c:99
	CLOCK_DLY_10_CYC;
     298:	0001                	c.nop
     29a:	0001                	c.nop
     29c:	0001                	c.nop
     29e:	0001                	c.nop
     2a0:	0001                	c.nop
     2a2:	0001                	c.nop
     2a4:	0001                	c.nop
     2a6:	0001                	c.nop
     2a8:	0001                	c.nop
     2aa:	0001                	c.nop
mspi_low():
E:/promotion/gitlab/telink_b91m_driver_sdk/telink_b91m_driver_sdk/chip/B91/drivers/mspi.h:103
	reg_mspi_fm &= ~FLD_MSPI_CSN;
     2ac:	10178683          	lb	a3,257(a5)
mspi_wait():
E:/promotion/gitlab/telink_b91m_driver_sdk/telink_b91m_driver_sdk/chip/B91/drivers/mspi.h:46
	while(reg_mspi_status & FLD_MSPI_BUSY);
     2b0:	80140737          	lui	a4,0x80140
mspi_low():
E:/promotion/gitlab/telink_b91m_driver_sdk/telink_b91m_driver_sdk/chip/B91/drivers/mspi.h:103
	reg_mspi_fm &= ~FLD_MSPI_CSN;
     2b4:	0ef6f693          	andi	a3,a3,239
     2b8:	10d780a3          	sb	a3,257(a5)
mspi_write():
E:/promotion/gitlab/telink_b91m_driver_sdk/telink_b91m_driver_sdk/chip/B91/drivers/mspi.h:120
	reg_mspi_data = c;
     2bc:	10a78023          	sb	a0,256(a5)
mspi_wait():
E:/promotion/gitlab/telink_b91m_driver_sdk/telink_b91m_driver_sdk/chip/B91/drivers/mspi.h:46
	while(reg_mspi_status & FLD_MSPI_BUSY);
     2c0:	10270783          	lb	a5,258(a4) # 80140102 <_DATA_LMA_START+0x6013812a>
     2c4:	fe07fe5b          	bbs	a5,0,2c0 <flash_send_cmd+0x3c>
flash_send_cmd():
E:/promotion/gitlab/telink_b91m_driver_sdk/telink_b91m_driver_sdk/chip/B91/drivers/flash.c:103
}
     2c8:	00008067          	ret

000002cc <clock_set_32k_tick>:
clock_set_32k_tick():
E:/promotion/gitlab/telink_b91m_driver_sdk/telink_b91m_driver_sdk/chip/B91/drivers/clock.c:205
 * @param  tick - the value of to be set to 32k.
 * @return none.
 */
void clock_set_32k_tick(unsigned int tick)
{
	reg_system_ctrl |= FLD_SYSTEM_32K_WR_EN;//r_32k_wr = 1;
     2cc:	801406b7          	lui	a3,0x80140
     2d0:	20a68783          	lb	a5,522(a3) # 8014020a <_DATA_LMA_START+0x60138232>
E:/promotion/gitlab/telink_b91m_driver_sdk/telink_b91m_driver_sdk/chip/B91/drivers/clock.c:206
	while(reg_system_st & FLD_SYSTEM_RD_BUSY);
     2d4:	80140737          	lui	a4,0x80140
E:/promotion/gitlab/telink_b91m_driver_sdk/telink_b91m_driver_sdk/chip/B91/drivers/clock.c:205
	reg_system_ctrl |= FLD_SYSTEM_32K_WR_EN;//r_32k_wr = 1;
     2d8:	0ff7f793          	andi	a5,a5,255
     2dc:	0017e793          	ori	a5,a5,1
     2e0:	20f68523          	sb	a5,522(a3)
E:/promotion/gitlab/telink_b91m_driver_sdk/telink_b91m_driver_sdk/chip/B91/drivers/clock.c:206
	while(reg_system_st & FLD_SYSTEM_RD_BUSY);
     2e4:	20b70683          	lb	a3,523(a4) # 8014020b <_DATA_LMA_START+0x60138233>
     2e8:	20b70793          	addi	a5,a4,523
     2ec:	fe66fc5b          	bbs	a3,6,2e4 <clock_set_32k_tick+0x18>
E:/promotion/gitlab/telink_b91m_driver_sdk/telink_b91m_driver_sdk/chip/B91/drivers/clock.c:207
	reg_system_timer_set_32k = tick;
     2f0:	20a72623          	sw	a0,524(a4)
E:/promotion/gitlab/telink_b91m_driver_sdk/telink_b91m_driver_sdk/chip/B91/drivers/clock.c:209

	reg_system_st = FLD_SYSTEM_CMD_SYNC;//cmd_sync = 1,trig write
     2f4:	4721                	c.li	a4,8
     2f6:	00e78023          	sb	a4,0(a5)
E:/promotion/gitlab/telink_b91m_driver_sdk/telink_b91m_driver_sdk/chip/B91/drivers/clock.c:211
	//delay 10us
	__asm__("nop");__asm__("nop");__asm__("nop");__asm__("nop");
     2fa:	0001                	c.nop
     2fc:	0001                	c.nop
     2fe:	0001                	c.nop
     300:	0001                	c.nop
E:/promotion/gitlab/telink_b91m_driver_sdk/telink_b91m_driver_sdk/chip/B91/drivers/clock.c:212
	__asm__("nop");__asm__("nop");__asm__("nop");__asm__("nop");
     302:	0001                	c.nop
     304:	0001                	c.nop
     306:	0001                	c.nop
     308:	0001                	c.nop
E:/promotion/gitlab/telink_b91m_driver_sdk/telink_b91m_driver_sdk/chip/B91/drivers/clock.c:213
	__asm__("nop");__asm__("nop");__asm__("nop");__asm__("nop");
     30a:	0001                	c.nop
     30c:	0001                	c.nop
     30e:	0001                	c.nop
     310:	0001                	c.nop
E:/promotion/gitlab/telink_b91m_driver_sdk/telink_b91m_driver_sdk/chip/B91/drivers/clock.c:214
	__asm__("nop");__asm__("nop");__asm__("nop");__asm__("nop");
     312:	0001                	c.nop
     314:	0001                	c.nop
     316:	0001                	c.nop
     318:	00000013          	nop
E:/promotion/gitlab/telink_b91m_driver_sdk/telink_b91m_driver_sdk/chip/B91/drivers/clock.c:215
	while(reg_system_st & FLD_SYSTEM_CMD_SYNC);//wait wr_busy = 0
     31c:	801407b7          	lui	a5,0x80140
     320:	20b78703          	lb	a4,523(a5) # 8014020b <_DATA_LMA_START+0x60138233>
     324:	fe377e5b          	bbs	a4,3,320 <clock_set_32k_tick+0x54>
E:/promotion/gitlab/telink_b91m_driver_sdk/telink_b91m_driver_sdk/chip/B91/drivers/clock.c:217

}
     328:	00008067          	ret

0000032c <pwm_irq_handler>:
pwm_get_irq_status():
E:/promotion/gitlab/telink_b91m_driver_sdk/telink_b91m_driver_sdk/chip/B91/drivers/pwm.h:342
	{
		return (reg_pwm_irq_sta(1) & BIT(0));
	}
	else
	{
		return (reg_pwm_irq_sta(0) & status);
     32c:	80140737          	lui	a4,0x80140
     330:	43170783          	lb	a5,1073(a4) # 80140431 <_DATA_LMA_START+0x60138459>
pwm_irq_handler():
E:/promotion/gitlab/telink_b91m_driver_sdk/telink_b91m_driver_sdk/demo/vendor/Mars_B91_Mother_V2.2/device/ws2812b.c:39
	IRQ_IR_DMA_Buff[23]= pwm_cal_pwm0_ir_fifo_cfg_data(1, 0X01 == (grb[2]&0X01), 1);
}

_attribute_ram_code_sec_ void pwm_irq_handler(void)
{
	if(pwm_get_irq_status(FLD_PWM0_IR_DMA_FIFO_IRQ)){
     334:	0417fc5b          	bbc	a5,1,38c <pwm_irq_handler+0x60>
E:/promotion/gitlab/telink_b91m_driver_sdk/telink_b91m_driver_sdk/demo/vendor/Mars_B91_Mother_V2.2/device/ws2812b.c:41
		pwm_clr_irq_status(FLD_PWM0_IR_DMA_FIFO_IRQ);
		pwm_irq_index++;
     338:	851f978b          	addigp	a5,-1968 # 80050 <pwm_irq_index>
pwm_clr_irq_status():
E:/promotion/gitlab/telink_b91m_driver_sdk/telink_b91m_driver_sdk/chip/B91/drivers/pwm.h:361
	{
		reg_pwm_irq_sta(1) = BIT(0);
	}
	else
	{
		reg_pwm_irq_sta(0) = status;
     33c:	4689                	c.li	a3,2
     33e:	42d708a3          	sb	a3,1073(a4)
pwm_irq_handler():
E:/promotion/gitlab/telink_b91m_driver_sdk/telink_b91m_driver_sdk/demo/vendor/Mars_B91_Mother_V2.2/device/ws2812b.c:41
     342:	4398                	c.lw	a4,0(a5)
     344:	0705                	c.addi	a4,1
     346:	c398                	c.sw	a4,0(a5)
E:/promotion/gitlab/telink_b91m_driver_sdk/telink_b91m_driver_sdk/demo/vendor/Mars_B91_Mother_V2.2/device/ws2812b.c:42
		if(pwm_irq_index != WS2812B_NUM){
     348:	439c                	c.lw	a5,0(a5)
     34a:	0417d15b          	beqc	a5,1,38c <pwm_irq_handler+0x60>
E:/promotion/gitlab/telink_b91m_driver_sdk/telink_b91m_driver_sdk/demo/vendor/Mars_B91_Mother_V2.2/device/ws2812b.c:43
		   pwm_set_dma_buf(DMA_CHN,(unsigned int) IRQ_IR_DMA_Buff,48);
     34e:	869f978b          	addigp	a5,-1944 # 80068 <IRQ_IR_DMA_Buff>
dma_set_address():
E:/promotion/gitlab/telink_b91m_driver_sdk/telink_b91m_driver_sdk/chip/B91/drivers/dma.h:308
 * @note       1. src_addr and dst_addr must be aligned by word (4 bytes), otherwise the program will enter an exception
 *             2. When a certain dma channel has not finished the transmission (bit 0 of reg_dma_ctr0(chn): 1-the transmission has not been completed,0-the transmission is completed),need to disable dma before writing to the dma register.
 */
static inline void dma_set_address(dma_chn_e chn,unsigned int src_addr,unsigned int dst_addr)
{
	reg_dma_src_addr(chn)= (unsigned int)convert_ram_addr_cpu2bus(src_addr);
     352:	000a0737          	lui	a4,0xa0
     356:	00e7f563          	bgeu	a5,a4,360 <pwm_irq_handler+0x34>
     35a:	c0180737          	lui	a4,0xc0180
     35e:	97ba                	c.add	a5,a4
     360:	80100737          	lui	a4,0x80100
     364:	46f72823          	sw	a5,1136(a4) # 80100470 <_DATA_LMA_START+0x600f8498>
E:/promotion/gitlab/telink_b91m_driver_sdk/telink_b91m_driver_sdk/chip/B91/drivers/dma.h:309
	reg_dma_dst_addr(chn)= (unsigned int)convert_ram_addr_cpu2bus(dst_addr);
     368:	801407b7          	lui	a5,0x80140
     36c:	44878793          	addi	a5,a5,1096 # 80140448 <_DATA_LMA_START+0x60138470>
     370:	46f72a23          	sw	a5,1140(a4)
dma_set_size():
E:/promotion/gitlab/telink_b91m_driver_sdk/telink_b91m_driver_sdk/chip/B91/drivers/dma.h:278
	reg_dma_size(chn) =((size_byte+byte_width-1)/byte_width)|( (size_byte % byte_width)<<22);
     374:	00c00793          	li	a5,12
     378:	46f72c23          	sw	a5,1144(a4)
dma_chn_en():
E:/promotion/gitlab/telink_b91m_driver_sdk/telink_b91m_driver_sdk/chip/B91/drivers/dma.h:170
	BM_SET(reg_dma_ctr0(chn),BIT(0));
     37c:	46c70783          	lb	a5,1132(a4)
     380:	0ff7f793          	andi	a5,a5,255
     384:	0017e793          	ori	a5,a5,1
     388:	46f70623          	sb	a5,1132(a4)
pwm_irq_handler():
E:/promotion/gitlab/telink_b91m_driver_sdk/telink_b91m_driver_sdk/demo/vendor/Mars_B91_Mother_V2.2/device/ws2812b.c:47
		   pwm_ir_dma_mode_start(DMA_CHN);
		}
	}
}
     38c:	00008067          	ret

00000390 <uart0_irq_handler>:
uart_get_irq_status():
E:/promotion/gitlab/telink_b91m_driver_sdk/telink_b91m_driver_sdk/chip/B91/drivers/uart.h:598
 * @return    irq status
 */
static inline unsigned int  uart_get_irq_status(uart_num_e uart_num,uart_irq_status_get_e status)
{
	if(status == UART_RX_ERR){
		return (reg_uart_status1(uart_num) & (status));
     390:	801407b7          	lui	a5,0x80140
     394:	08d78703          	lb	a4,141(a5) # 8014008d <_DATA_LMA_START+0x601380b5>
uart0_irq_handler():
E:/promotion/gitlab/telink_b91m_driver_sdk/telink_b91m_driver_sdk/demo/vendor/Mars_B91_Mother_V2.2/device/serial_port.c:48
	}
}

_attribute_ram_code_sec_ void uart0_irq_handler(void)
{
	if(uart_get_irq_status(UART0, UART_RX_ERR)){
     398:	44777e5b          	bbs	a4,7,3f4 <uart0_irq_handler+0x64>
uart_get_irq_status():
E:/promotion/gitlab/telink_b91m_driver_sdk/telink_b91m_driver_sdk/chip/B91/drivers/uart.h:602
	}
	else
	{
		return (reg_uart_status2(uart_num) & (status));
     39c:	801407b7          	lui	a5,0x80140
     3a0:	08e78703          	lb	a4,142(a5) # 8014008e <_DATA_LMA_START+0x601380b6>
uart0_irq_handler():
E:/promotion/gitlab/telink_b91m_driver_sdk/telink_b91m_driver_sdk/demo/vendor/Mars_B91_Mother_V2.2/device/serial_port.c:53
		uart_clr_irq_status(UART0,UART_CLR_RX);// it will clear rx_fifo and rx_err_irq ,rx_buff_irq,so it won't enter rx_buff_irq interrupt.
		uart_reset(UART0); 		  //clear hardware pointer
		uart_clr_rx_index(UART0); //clear software pointer
	}
	if(uart_get_irq_status(UART0, UART_RXBUF_IRQ_STATUS)){
     3a4:	0237785b          	bbc	a4,3,3d4 <uart0_irq_handler+0x44>
     3a8:	855f970b          	addigp	a4,-1964 # 80054 <uart_rx_byte_index>
E:/promotion/gitlab/telink_b91m_driver_sdk/telink_b91m_driver_sdk/demo/vendor/Mars_B91_Mother_V2.2/device/serial_port.c:54
		if(g_uart_length < USART_REC_LEN){
     3ac:	00074683          	lbu	a3,0(a4)
     3b0:	83df960b          	addigp	a2,-1988 # 8003c <g_uart_length>
     3b4:	00062803          	lw	a6,0(a2)
     3b8:	08078793          	addi	a5,a5,128
     3bc:	00168593          	addi	a1,a3,1
     3c0:	6505                	c.lui	a0,0x1
     3c2:	97b6                	c.add	a5,a3
     3c4:	898d                	c.andi	a1,3
     3c6:	00a86963          	bltu	a6,a0,3d8 <uart0_irq_handler+0x48>
uart_read_byte():
E:/promotion/gitlab/telink_b91m_driver_sdk/telink_b91m_driver_sdk/chip/B91/drivers/uart.c:314
 * @param[in] uart_num - UART0 or UART1.
 * @return    none
 */
unsigned char uart_read_byte(uart_num_e uart_num)
{
	unsigned char rx_data = reg_uart_data_buf(uart_num, uart_rx_byte_index[uart_num]) ;
     3ca:	00078783          	lb	a5,0(a5)
E:/promotion/gitlab/telink_b91m_driver_sdk/telink_b91m_driver_sdk/chip/B91/drivers/uart.c:316
	uart_rx_byte_index[uart_num]++;
	uart_rx_byte_index[uart_num] &= 0x03 ;
     3ce:	00b70023          	sb	a1,0(a4)
     3d2:	8082                	c.jr	ra
uart0_irq_handler():
E:/promotion/gitlab/telink_b91m_driver_sdk/telink_b91m_driver_sdk/demo/vendor/Mars_B91_Mother_V2.2/device/serial_port.c:61
		}
		else{
			uart_read_byte(UART0);
		}
	}
}
     3d4:	00008067          	ret
E:/promotion/gitlab/telink_b91m_driver_sdk/telink_b91m_driver_sdk/demo/vendor/Mars_B91_Mother_V2.2/device/serial_port.c:55
			UART_RX_BUF[g_uart_length++] = uart_read_byte(UART0);
     3d8:	4214                	c.lw	a3,0(a2)
uart_read_byte():
E:/promotion/gitlab/telink_b91m_driver_sdk/telink_b91m_driver_sdk/chip/B91/drivers/uart.c:316
     3da:	00b70023          	sb	a1,0(a4)
uart0_irq_handler():
E:/promotion/gitlab/telink_b91m_driver_sdk/telink_b91m_driver_sdk/demo/vendor/Mars_B91_Mother_V2.2/device/serial_port.c:55
     3de:	00168513          	addi	a0,a3,1
     3e2:	c208                	c.sw	a0,0(a2)
uart_read_byte():
E:/promotion/gitlab/telink_b91m_driver_sdk/telink_b91m_driver_sdk/chip/B91/drivers/uart.c:314
	unsigned char rx_data = reg_uart_data_buf(uart_num, uart_rx_byte_index[uart_num]) ;
     3e4:	00078603          	lb	a2,0(a5)
uart0_irq_handler():
E:/promotion/gitlab/telink_b91m_driver_sdk/telink_b91m_driver_sdk/demo/vendor/Mars_B91_Mother_V2.2/device/serial_port.c:55
     3e8:	899f978b          	addigp	a5,-1896 # 80098 <UART_RX_BUF>
     3ec:	96be                	c.add	a3,a5
     3ee:	00c68023          	sb	a2,0(a3)
     3f2:	8082                	c.jr	ra
uart_clr_irq_status():
E:/promotion/gitlab/telink_b91m_driver_sdk/telink_b91m_driver_sdk/chip/B91/drivers/uart.h:615
 * @param[in] status - uart irq status.
 * @return    none
 */
static inline void uart_clr_irq_status(uart_num_e uart_num,uart_irq_status_clr_e status)
{
	reg_uart_status1(uart_num) |= (status);
     3f4:	08d78703          	lb	a4,141(a5)
     3f8:	0ff77713          	andi	a4,a4,255
     3fc:	04076713          	ori	a4,a4,64
     400:	08e786a3          	sb	a4,141(a5)
uart_reset():
E:/promotion/gitlab/telink_b91m_driver_sdk/telink_b91m_driver_sdk/chip/B91/drivers/uart.h:299
	if(reg_uart_rx_timeout1(uart_num)&FLD_UART_MASK_TXDONE)
     404:	08b78703          	lb	a4,139(a5)
     408:	42677c5b          	bbs	a4,6,440 <uart0_irq_handler+0xb0>
E:/promotion/gitlab/telink_b91m_driver_sdk/telink_b91m_driver_sdk/chip/B91/drivers/uart.h:304
	reg_rst0 &= (~((uart_num)?FLD_RST0_UART1:FLD_RST0_UART0));
     40c:	1e078703          	lb	a4,480(a5)
     410:	0fb77713          	andi	a4,a4,251
     414:	1ee78023          	sb	a4,480(a5)
E:/promotion/gitlab/telink_b91m_driver_sdk/telink_b91m_driver_sdk/chip/B91/drivers/uart.h:305
	reg_rst0 |= ((uart_num)?FLD_RST0_UART1:FLD_RST0_UART0);
     418:	1e078703          	lb	a4,480(a5)
     41c:	00476713          	ori	a4,a4,4
     420:	0ff77713          	andi	a4,a4,255
     424:	1ee78023          	sb	a4,480(a5)
E:/promotion/gitlab/telink_b91m_driver_sdk/telink_b91m_driver_sdk/chip/B91/drivers/uart.h:306
	reg_uart_state(uart_num) |=FLD_UART_CLR_TXDONE;
     428:	08f78703          	lb	a4,143(a5)
     42c:	f8076713          	ori	a4,a4,-128
     430:	0ff77713          	andi	a4,a4,255
     434:	08e787a3          	sb	a4,143(a5)
uart_clr_rx_index():
E:/promotion/gitlab/telink_b91m_driver_sdk/telink_b91m_driver_sdk/chip/B91/drivers/uart.h:728
 *               because after suspend wakes up, the chip is equivalent to performing a uart_reset,
 *               so the software read and write pointer also needs to be cleared to zero.
 */
static inline void uart_clr_rx_index(uart_num_e uart_num)
{
	uart_rx_byte_index[uart_num]=0;
     438:	840fba8b          	sbgp	zero,-1964 # 80054 <uart_rx_byte_index>
     43c:	f61ff06f          	j	39c <uart0_irq_handler+0xc>
uart_reset():
E:/promotion/gitlab/telink_b91m_driver_sdk/telink_b91m_driver_sdk/chip/B91/drivers/uart.h:302
		reg_uart_rx_timeout1(uart_num)&=~FLD_UART_MASK_TXDONE;
     440:	08b78703          	lb	a4,139(a5)
     444:	0bf77713          	andi	a4,a4,191
     448:	08e785a3          	sb	a4,139(a5)
E:/promotion/gitlab/telink_b91m_driver_sdk/telink_b91m_driver_sdk/chip/B91/drivers/uart.h:304
	reg_rst0 &= (~((uart_num)?FLD_RST0_UART1:FLD_RST0_UART0));
     44c:	1e078703          	lb	a4,480(a5)
     450:	0fb77713          	andi	a4,a4,251
     454:	1ee78023          	sb	a4,480(a5)
E:/promotion/gitlab/telink_b91m_driver_sdk/telink_b91m_driver_sdk/chip/B91/drivers/uart.h:305
	reg_rst0 |= ((uart_num)?FLD_RST0_UART1:FLD_RST0_UART0);
     458:	1e078703          	lb	a4,480(a5)
     45c:	00476713          	ori	a4,a4,4
     460:	0ff77713          	andi	a4,a4,255
     464:	1ee78023          	sb	a4,480(a5)
E:/promotion/gitlab/telink_b91m_driver_sdk/telink_b91m_driver_sdk/chip/B91/drivers/uart.h:306
	reg_uart_state(uart_num) |=FLD_UART_CLR_TXDONE;
     468:	08f78703          	lb	a4,143(a5)
     46c:	f8076713          	ori	a4,a4,-128
     470:	0ff77713          	andi	a4,a4,255
     474:	08e787a3          	sb	a4,143(a5)
E:/promotion/gitlab/telink_b91m_driver_sdk/telink_b91m_driver_sdk/chip/B91/drivers/uart.h:308
		reg_uart_rx_timeout1(uart_num)|=FLD_UART_MASK_TXDONE;
     478:	08b78703          	lb	a4,139(a5)
     47c:	0ff77713          	andi	a4,a4,255
     480:	04076713          	ori	a4,a4,64
     484:	08e785a3          	sb	a4,139(a5)
     488:	fb1ff06f          	j	438 <uart0_irq_handler+0xa8>

0000048c <clock_get_32k_tick>:
clock_get_32k_tick():
E:/promotion/gitlab/telink_b91m_driver_sdk/telink_b91m_driver_sdk/chip/B91/drivers/clock.c:242
 * modify by yi.bao,confirmed by guangjun at 20210105
 * Use digital register way to get 32k tick may read error tick,cause the wakeup time is
 * incorrect with the setting time,the sleep time will very little or very big,will not wakeup on time.
 */
unsigned int clock_get_32k_tick(void)
{
     48c:	1141                	c.addi	sp,-16
     48e:	c422                	c.swsp	s0,8(sp)
     490:	00112623          	sw	ra,12(sp)
E:/promotion/gitlab/telink_b91m_driver_sdk/telink_b91m_driver_sdk/chip/B91/drivers/clock.c:250

    //In the system timer auto mode, when writing a tick value to the system tick, if the writing operation overlaps
    //with the 32k rising edge, the writing operation will be unsuccessful. When reading the 32k tick value,
    //first wait for the rising edge to pass to avoid overlap with the subsequent write tick value operation.
    //modify by weihua.zhang, confirmed by jianzhi at 20210126
	t0 = analog_read_reg32(0x60);
     494:	20003097          	auipc	ra,0x20003
     498:	f38080e7          	jalr	-200(ra) # 200033cc <analog_read_reg32.constprop.3>
     49c:	00a00433          	add	s0,zero,a0
E:/promotion/gitlab/telink_b91m_driver_sdk/telink_b91m_driver_sdk/chip/B91/drivers/clock.c:253
	while(1)
	{
		t1 = analog_read_reg32(0x60);
     4a0:	20003097          	auipc	ra,0x20003
     4a4:	f2c080e7          	jalr	-212(ra) # 200033cc <analog_read_reg32.constprop.3>
E:/promotion/gitlab/telink_b91m_driver_sdk/telink_b91m_driver_sdk/chip/B91/drivers/clock.c:254
		if((t1-t0) == 1)
     4a8:	40850733          	sub	a4,a0,s0
E:/promotion/gitlab/telink_b91m_driver_sdk/telink_b91m_driver_sdk/chip/B91/drivers/clock.c:253
		t1 = analog_read_reg32(0x60);
     4ac:	842a                	c.mv	s0,a0
E:/promotion/gitlab/telink_b91m_driver_sdk/telink_b91m_driver_sdk/chip/B91/drivers/clock.c:254
		if((t1-t0) == 1)
     4ae:	be17695b          	bnec	a4,1,4a0 <clock_get_32k_tick+0x14>
E:/promotion/gitlab/telink_b91m_driver_sdk/telink_b91m_driver_sdk/chip/B91/drivers/clock.c:263
		else if(t1-t0)
		{
			t0 = t1;
		}
	}
}
     4b2:	40b2                	c.lwsp	ra,12(sp)
     4b4:	4422                	c.lwsp	s0,8(sp)
     4b6:	0141                	c.addi	sp,16
     4b8:	00008067          	ret

000004bc <pm_stimer_recover>:
pm_stimer_recover():
C:/Users/Admin/Desktop/test1/telink_b91m_driver_src/chip/B91/drivers/lib/src/pm.c:113
     4bc:	1141                	c.addi	sp,-16
C:/Users/Admin/Desktop/test1/telink_b91m_driver_src/chip/B91/drivers/lib/src/pm.c:115
     4be:	80140737          	lui	a4,0x80140
C:/Users/Admin/Desktop/test1/telink_b91m_driver_src/chip/B91/drivers/lib/src/pm.c:113
     4c2:	c606                	c.swsp	ra,12(sp)
C:/Users/Admin/Desktop/test1/telink_b91m_driver_src/chip/B91/drivers/lib/src/pm.c:115
     4c4:	4789                	c.li	a5,2
     4c6:	20f70c23          	sb	a5,536(a4) # 80140218 <_DATA_LMA_START+0x60138240>
C:/Users/Admin/Desktop/test1/telink_b91m_driver_src/chip/B91/drivers/lib/src/pm.c:116
     4ca:	20a70783          	lb	a5,522(a4)
     4ce:	0ff7f793          	andi	a5,a5,255
     4d2:	00c7e793          	ori	a5,a5,12
     4d6:	20f70523          	sb	a5,522(a4)
C:/Users/Admin/Desktop/test1/telink_b91m_driver_src/chip/B91/drivers/lib/src/pm.c:117
     4da:	3f4d                	c.jal	48c <clock_get_32k_tick>
C:/Users/Admin/Desktop/test1/telink_b91m_driver_src/chip/B91/drivers/lib/src/pm.c:118
     4dc:	000007b7          	lui	a5,0x0
     4e0:	15878713          	addi	a4,a5,344 # 158 <_AES_VMA_END>
     4e4:	00874703          	lbu	a4,8(a4)
     4e8:	15878793          	addi	a5,a5,344
     4ec:	cf01                	c.beqz	a4,504 <pm_stimer_recover+0x48>
C:/Users/Admin/Desktop/test1/telink_b91m_driver_src/chip/B91/drivers/lib/src/pm.c:119
     4ee:	4bd8                	c.lw	a4,20(a5)
     4f0:	5fd0                	c.lw	a2,60(a5)
     4f2:	40e50733          	sub	a4,a0,a4
     4f6:	4b94                	c.lw	a3,16(a5)
     4f8:	0705                	c.addi	a4,1
     4fa:	8315                	c.srli	a4,0x5
     4fc:	c4c716ff          	maddr32	a3,a4,a2
     500:	c7d4                	c.sw	a3,12(a5)
     502:	a829                	c.j	51c <pm_stimer_recover+0x60>
C:/Users/Admin/Desktop/test1/telink_b91m_driver_src/chip/B91/drivers/lib/src/pm.c:121
     504:	4bd8                	c.lw	a4,20(a5)
     506:	5fd4                	c.lw	a3,60(a5)
     508:	40e50733          	sub	a4,a0,a4
     50c:	0705                	c.addi	a4,1
     50e:	02d70733          	mul	a4,a4,a3
     512:	4b94                	c.lw	a3,16(a5)
     514:	8315                	c.srli	a4,0x5
     516:	9736                	c.add	a4,a3
     518:	00e7a623          	sw	a4,12(a5)
C:/Users/Admin/Desktop/test1/telink_b91m_driver_src/chip/B91/drivers/lib/src/pm.c:124
     51c:	4bd8                	c.lw	a4,20(a5)
C:/Users/Admin/Desktop/test1/telink_b91m_driver_src/chip/B91/drivers/lib/src/pm.c:125
     51e:	47d4                	c.lw	a3,12(a5)
C:/Users/Admin/Desktop/test1/telink_b91m_driver_src/chip/B91/drivers/lib/src/pm.c:124
     520:	40e50733          	sub	a4,a0,a4
     524:	0705                	c.addi	a4,1
C:/Users/Admin/Desktop/test1/telink_b91m_driver_src/chip/B91/drivers/lib/src/pm.c:123
     526:	0505                	c.addi	a0,1
C:/Users/Admin/Desktop/test1/telink_b91m_driver_src/chip/B91/drivers/lib/src/pm.c:125
     528:	0685                	c.addi	a3,1
C:/Users/Admin/Desktop/test1/telink_b91m_driver_src/chip/B91/drivers/lib/src/pm.c:123
     52a:	d7c8                	c.sw	a0,44(a5)
C:/Users/Admin/Desktop/test1/telink_b91m_driver_src/chip/B91/drivers/lib/src/pm.c:124
     52c:	02e7a423          	sw	a4,40(a5)
C:/Users/Admin/Desktop/test1/telink_b91m_driver_src/chip/B91/drivers/lib/src/pm.c:128
     530:	80140637          	lui	a2,0x80140
C:/Users/Admin/Desktop/test1/telink_b91m_driver_src/chip/B91/drivers/lib/src/pm.c:125
     534:	801407b7          	lui	a5,0x80140
     538:	20d7a023          	sw	a3,512(a5) # 80140200 <_DATA_LMA_START+0x60138228>
C:/Users/Admin/Desktop/test1/telink_b91m_driver_src/chip/B91/drivers/lib/src/pm.c:128
     53c:	20b60783          	lb	a5,523(a2) # 8014020b <_DATA_LMA_START+0x60138233>
     540:	be77fe5b          	bbc	a5,7,53c <pm_stimer_recover+0x80>
C:/Users/Admin/Desktop/test1/telink_b91m_driver_src/chip/B91/drivers/lib/src/pm.c:129
     544:	20060c23          	sb	zero,536(a2)
C:/Users/Admin/Desktop/test1/telink_b91m_driver_src/chip/B91/drivers/lib/src/pm.c:142
     548:	40b2                	c.lwsp	ra,12(sp)
     54a:	0141                	c.addi	sp,16
     54c:	00008067          	ret

00000550 <plic_exit_critical_sec>:
plic_exit_critical_sec():
C:/Users/Admin/Desktop/test1/telink_b91m_driver_src/chip/B91/drivers/lib/src/plic.c:75
     550:	000007b7          	lui	a5,0x0
     554:	15878793          	addi	a5,a5,344 # 158 <_AES_VMA_END>
     558:	04078783          	lb	a5,64(a5)
     55c:	0ff7f793          	andi	a5,a5,255
     560:	c385                	c.beqz	a5,580 <plic_exit_critical_sec+0x30>
     562:	cd19                	c.beqz	a0,580 <plic_exit_critical_sec+0x30>
core_interrupt_disable():
C:\Users\Admin\Desktop\test1\telink_b91m_driver_src\chip\B91\drivers/core.h:101
     564:	300027f3          	csrr	a5,mstatus
     568:	8ba1                	c.andi	a5,8
C:\Users\Admin\Desktop\test1\telink_b91m_driver_src\chip\B91\drivers/core.h:102
     56a:	cf99                	c.beqz	a5,588 <plic_exit_critical_sec+0x38>
C:\Users\Admin\Desktop\test1\telink_b91m_driver_src\chip\B91\drivers/core.h:104
     56c:	30047773          	csrrci	a4,mstatus,8
plic_exit_critical_sec():
C:\Users\Admin\Desktop\test1\telink_b91m_driver_src\chip\B91\drivers/lib/include/plic.h:236
     570:	e4200737          	lui	a4,0xe4200
     574:	00072023          	sw	zero,0(a4) # e4200000 <_DATA_LMA_START+0xc41f8028>
core_restore_interrupt():
C:\Users\Admin\Desktop\test1\telink_b91m_driver_src\chip\B91\drivers/core.h:119
     578:	3007a7f3          	csrrs	a5,mstatus,a5
     57c:	00008067          	ret
C:\Users\Admin\Desktop\test1\telink_b91m_driver_src\chip\B91\drivers/core.h:117
     580:	c981                	c.beqz	a1,590 <plic_exit_critical_sec+0x40>
C:\Users\Admin\Desktop\test1\telink_b91m_driver_src\chip\B91\drivers/core.h:119
     582:	3005a5f3          	csrrs	a1,mstatus,a1
     586:	8082                	c.jr	ra
plic_exit_critical_sec():
C:\Users\Admin\Desktop\test1\telink_b91m_driver_src\chip\B91\drivers/lib/include/plic.h:236
     588:	e42007b7          	lui	a5,0xe4200
     58c:	0007a023          	sw	zero,0(a5) # e4200000 <_DATA_LMA_START+0xc41f8028>
C:/Users/Admin/Desktop/test1/telink_b91m_driver_src/chip/B91/drivers/lib/src/plic.c:83
     590:	00008067          	ret

00000594 <plic_enter_critical_sec>:
plic_enter_critical_sec():
C:/Users/Admin/Desktop/test1/telink_b91m_driver_src/chip/B91/drivers/lib/src/plic.c:50
     594:	000007b7          	lui	a5,0x0
     598:	15878793          	addi	a5,a5,344 # 158 <_AES_VMA_END>
     59c:	04078783          	lb	a5,64(a5)
     5a0:	0ff7f793          	andi	a5,a5,255
     5a4:	c385                	c.beqz	a5,5c4 <plic_enter_critical_sec+0x30>
     5a6:	cd19                	c.beqz	a0,5c4 <plic_enter_critical_sec+0x30>
core_interrupt_disable():
C:\Users\Admin\Desktop\test1\telink_b91m_driver_src\chip\B91\drivers/core.h:101
     5a8:	30002573          	csrr	a0,mstatus
     5ac:	8921                	c.andi	a0,8
C:\Users\Admin\Desktop\test1\telink_b91m_driver_src\chip\B91\drivers/core.h:102
     5ae:	c11d                	c.beqz	a0,5d4 <plic_enter_critical_sec+0x40>
C:\Users\Admin\Desktop\test1\telink_b91m_driver_src\chip\B91\drivers/core.h:104
     5b0:	300477f3          	csrrci	a5,mstatus,8
plic_enter_critical_sec():
C:\Users\Admin\Desktop\test1\telink_b91m_driver_src\chip\B91\drivers/lib/include/plic.h:236
     5b4:	e42007b7          	lui	a5,0xe4200
     5b8:	c38c                	c.sw	a1,0(a5)
core_restore_interrupt():
C:\Users\Admin\Desktop\test1\telink_b91m_driver_src\chip\B91\drivers/core.h:119
     5ba:	30052573          	csrrs	a0,mstatus,a0
plic_enter_critical_sec():
C:/Users/Admin/Desktop/test1/telink_b91m_driver_src/chip/B91/drivers/lib/src/plic.c:53
     5be:	4501                	c.li	a0,0
     5c0:	00008067          	ret
core_interrupt_disable():
C:\Users\Admin\Desktop\test1\telink_b91m_driver_src\chip\B91\drivers/core.h:101
     5c4:	30002573          	csrr	a0,mstatus
     5c8:	8921                	c.andi	a0,8
C:\Users\Admin\Desktop\test1\telink_b91m_driver_src\chip\B91\drivers/core.h:102
     5ca:	c909                	c.beqz	a0,5dc <plic_enter_critical_sec+0x48>
C:\Users\Admin\Desktop\test1\telink_b91m_driver_src\chip\B91\drivers/core.h:104
     5cc:	300477f3          	csrrci	a5,mstatus,8
     5d0:	00008067          	ret
plic_enter_critical_sec():
C:\Users\Admin\Desktop\test1\telink_b91m_driver_src\chip\B91\drivers/lib/include/plic.h:236
     5d4:	e42007b7          	lui	a5,0xe4200
     5d8:	00b7a023          	sw	a1,0(a5) # e4200000 <_DATA_LMA_START+0xc41f8028>
C:/Users/Admin/Desktop/test1/telink_b91m_driver_src/chip/B91/drivers/lib/src/plic.c:60
     5dc:	00008067          	ret

000005e0 <flash_mspi_read_ram>:
flash_mspi_read_ram():
E:/promotion/gitlab/telink_b91m_driver_sdk/telink_b91m_driver_sdk/chip/B91/drivers/flash.c:151
 * @param[out]  data		- the start address of the data buffer(ram address).
 * @param[in]   data_len	- the length(in byte) of content needs to read out.
 * @return 		none.
 */
_attribute_ram_code_sec_noinline_ void flash_mspi_read_ram(flash_command_e cmd, unsigned long addr, unsigned char addr_en, unsigned char dummy_cnt, unsigned char *data, unsigned long data_len)
{
     5e0:	7179                	c.addi16sp	sp,-48
     5e2:	d226                	c.swsp	s1,36(sp)
E:/promotion/gitlab/telink_b91m_driver_sdk/telink_b91m_driver_sdk/chip/B91/drivers/flash.c:152
	unsigned int r=plic_enter_critical_sec(s_flash_preempt_config.preempt_en,s_flash_preempt_config.threshold);
     5e4:	000004b7          	lui	s1,0x0
     5e8:	15848493          	addi	s1,s1,344 # 158 <_AES_VMA_END>
E:/promotion/gitlab/telink_b91m_driver_sdk/telink_b91m_driver_sdk/chip/B91/drivers/flash.c:151
{
     5ec:	d04a                	c.swsp	s2,32(sp)
     5ee:	c65e                	c.swsp	s7,12(sp)
     5f0:	892a                	c.mv	s2,a0
     5f2:	8bae                	c.mv	s7,a1
E:/promotion/gitlab/telink_b91m_driver_sdk/telink_b91m_driver_sdk/chip/B91/drivers/flash.c:152
	unsigned int r=plic_enter_critical_sec(s_flash_preempt_config.preempt_en,s_flash_preempt_config.threshold);
     5f4:	0444c503          	lbu	a0,68(s1)
     5f8:	0454c583          	lbu	a1,69(s1)
E:/promotion/gitlab/telink_b91m_driver_sdk/telink_b91m_driver_sdk/chip/B91/drivers/flash.c:151
{
     5fc:	d422                	c.swsp	s0,40(sp)
     5fe:	ce4e                	c.swsp	s3,28(sp)
     600:	cc52                	c.swsp	s4,24(sp)
     602:	ca56                	c.swsp	s5,20(sp)
     604:	c85a                	c.swsp	s6,16(sp)
     606:	d606                	c.swsp	ra,44(sp)
     608:	8b32                	c.mv	s6,a2
     60a:	8ab6                	c.mv	s5,a3
     60c:	843a                	c.mv	s0,a4
     60e:	8a3e                	c.mv	s4,a5
E:/promotion/gitlab/telink_b91m_driver_sdk/telink_b91m_driver_sdk/chip/B91/drivers/flash.c:152
	unsigned int r=plic_enter_critical_sec(s_flash_preempt_config.preempt_en,s_flash_preempt_config.threshold);
     610:	f85ff0ef          	jal	ra,594 <plic_enter_critical_sec>
mspi_wait():
E:/promotion/gitlab/telink_b91m_driver_sdk/telink_b91m_driver_sdk/chip/B91/drivers/mspi.h:46
     614:	80140637          	lui	a2,0x80140
flash_mspi_read_ram():
E:/promotion/gitlab/telink_b91m_driver_sdk/telink_b91m_driver_sdk/chip/B91/drivers/flash.c:152
     618:	00a009b3          	add	s3,zero,a0
mspi_wait():
E:/promotion/gitlab/telink_b91m_driver_sdk/telink_b91m_driver_sdk/chip/B91/drivers/mspi.h:46
     61c:	10260783          	lb	a5,258(a2) # 80140102 <_DATA_LMA_START+0x6013812a>
     620:	fe07fe5b          	bbs	a5,0,61c <flash_mspi_read_ram+0x3c>
mspi_high():
E:/promotion/gitlab/telink_b91m_driver_sdk/telink_b91m_driver_sdk/chip/B91/drivers/mspi.h:95
	reg_mspi_fm |= FLD_MSPI_CSN;
     624:	10160783          	lb	a5,257(a2)
gpio_get_level():
E:/promotion/gitlab/telink_b91m_driver_sdk/telink_b91m_driver_sdk/chip/B91/drivers/gpio.h:262
 * @return    1: the pin's level is high.
 * 			  0: the pin's level is low.
 */
static inline _Bool gpio_get_level(gpio_pin_e pin)
{
	return BM_IS_SET(reg_gpio_in(pin), pin & 0xff);
     628:	80140737          	lui	a4,0x80140
mspi_high():
E:/promotion/gitlab/telink_b91m_driver_sdk/telink_b91m_driver_sdk/chip/B91/drivers/mspi.h:95
     62c:	0ff7f793          	andi	a5,a5,255
     630:	0107e793          	ori	a5,a5,16
     634:	10f600a3          	sb	a5,257(a2)
gpio_get_level():
E:/promotion/gitlab/telink_b91m_driver_sdk/telink_b91m_driver_sdk/chip/B91/drivers/gpio.h:262
     638:	32870783          	lb	a5,808(a4) # 80140328 <_DATA_LMA_START+0x60138350>
mspi_stop_xip():
E:/promotion/gitlab/telink_b91m_driver_sdk/telink_b91m_driver_sdk/chip/B91/drivers/mspi.h:150
 */
_attribute_ram_code_sec_ static inline void mspi_stop_xip(void)
{
	mspi_wait();	//wait xip busy=0
	mspi_high();	//mspi_cn=1, stop xip read
	while(gpio_get_level(GPIO_PF3) == 0);	//wait cn=1
     63c:	be37fe5b          	bbc	a5,3,638 <flash_mspi_read_ram+0x58>
mspi_fm_write_en():
E:/promotion/gitlab/telink_b91m_driver_sdk/telink_b91m_driver_sdk/chip/B91/drivers/mspi.h:78
	reg_mspi_fm &= ~FLD_MSPI_RD_MODE;
     640:	10170783          	lb	a5,257(a4)
flash_mspi_read_ram():
E:/promotion/gitlab/telink_b91m_driver_sdk/telink_b91m_driver_sdk/chip/B91/drivers/flash.c:157
	mspi_stop_xip();
	/*Flash single line mode does not distinguish between mspi read and mspi write.This is just to be compatible with single line, dual line and quad line.*/
	mspi_fm_write_en();			/* write mode */
	mspi_fm_data_line(MSPI_SINGLE_LINE);
	flash_send_cmd(cmd);
     644:	854a                	c.mv	a0,s2
mspi_fm_write_en():
E:/promotion/gitlab/telink_b91m_driver_sdk/telink_b91m_driver_sdk/chip/B91/drivers/mspi.h:78
     646:	0fd7f793          	andi	a5,a5,253
     64a:	10f700a3          	sb	a5,257(a4)
mspi_fm_data_line():
E:/promotion/gitlab/telink_b91m_driver_sdk/telink_b91m_driver_sdk/chip/B91/drivers/mspi.h:87
	reg_mspi_fm = (reg_mspi_fm & (~FLD_MSPI_DATA_LINE)) | line;
     64e:	10170783          	lb	a5,257(a4)
     652:	0f37f793          	andi	a5,a5,243
     656:	10f700a3          	sb	a5,257(a4)
flash_mspi_read_ram():
E:/promotion/gitlab/telink_b91m_driver_sdk/telink_b91m_driver_sdk/chip/B91/drivers/flash.c:157
     65a:	312d                	c.jal	284 <flash_send_cmd>
E:/promotion/gitlab/telink_b91m_driver_sdk/telink_b91m_driver_sdk/chip/B91/drivers/flash.c:162
	if(cmd == FLASH_X4READ_CMD)
	{
		mspi_fm_data_line(MSPI_QUAD_LINE);
	}
	if(addr_en)
     65c:	0e0b1e63          	bnez	s6,758 <flash_mspi_read_ram+0x178>
E:/promotion/gitlab/telink_b91m_driver_sdk/telink_b91m_driver_sdk/chip/B91/drivers/flash.c:166
	{
		flash_send_addr(addr);
	}
	for(unsigned int i = 0; i < dummy_cnt; ++i)
     660:	020a8063          	beqz	s5,680 <flash_mspi_read_ram+0xa0>
     664:	00000713          	li	a4,0
mspi_write():
E:/promotion/gitlab/telink_b91m_driver_sdk/telink_b91m_driver_sdk/chip/B91/drivers/mspi.h:120
	reg_mspi_data = c;
     668:	80140637          	lui	a2,0x80140
     66c:	10060023          	sb	zero,256(a2) # 80140100 <_DATA_LMA_START+0x60138128>
mspi_wait():
E:/promotion/gitlab/telink_b91m_driver_sdk/telink_b91m_driver_sdk/chip/B91/drivers/mspi.h:46
	while(reg_mspi_status & FLD_MSPI_BUSY);
     670:	10260783          	lb	a5,258(a2)
     674:	fe07fe5b          	bbs	a5,0,670 <flash_mspi_read_ram+0x90>
flash_mspi_read_ram():
E:/promotion/gitlab/telink_b91m_driver_sdk/telink_b91m_driver_sdk/chip/B91/drivers/flash.c:166
     678:	00170713          	addi	a4,a4,1
     67c:	ff5718e3          	bne	a4,s5,66c <flash_mspi_read_ram+0x8c>
E:/promotion/gitlab/telink_b91m_driver_sdk/telink_b91m_driver_sdk/chip/B91/drivers/flash.c:171
	{
		mspi_write(0x00);		/* dummy */
		mspi_wait();
	}
	if(cmd == FLASH_DREAD_CMD)
     680:	01b96cdb          	bnec	s2,59,698 <flash_mspi_read_ram+0xb8>
mspi_fm_data_line():
E:/promotion/gitlab/telink_b91m_driver_sdk/telink_b91m_driver_sdk/chip/B91/drivers/mspi.h:87
	reg_mspi_fm = (reg_mspi_fm & (~FLD_MSPI_DATA_LINE)) | line;
     684:	80140737          	lui	a4,0x80140
     688:	10170783          	lb	a5,257(a4) # 80140101 <_DATA_LMA_START+0x60138129>
     68c:	0f37f793          	andi	a5,a5,243
     690:	0047e793          	ori	a5,a5,4
     694:	10f700a3          	sb	a5,257(a4)
mspi_fm_read_en():
E:/promotion/gitlab/telink_b91m_driver_sdk/telink_b91m_driver_sdk/chip/B91/drivers/mspi.h:70
	reg_mspi_fm |= FLD_MSPI_RD_MODE;
     698:	801406b7          	lui	a3,0x80140
     69c:	10168783          	lb	a5,257(a3) # 80140101 <_DATA_LMA_START+0x60138129>
mspi_wait():
E:/promotion/gitlab/telink_b91m_driver_sdk/telink_b91m_driver_sdk/chip/B91/drivers/mspi.h:46
	while(reg_mspi_status & FLD_MSPI_BUSY);
     6a0:	80140737          	lui	a4,0x80140
mspi_fm_read_en():
E:/promotion/gitlab/telink_b91m_driver_sdk/telink_b91m_driver_sdk/chip/B91/drivers/mspi.h:70
	reg_mspi_fm |= FLD_MSPI_RD_MODE;
     6a4:	0ff7f793          	andi	a5,a5,255
     6a8:	0027e793          	ori	a5,a5,2
     6ac:	10f680a3          	sb	a5,257(a3)
mspi_write():
E:/promotion/gitlab/telink_b91m_driver_sdk/telink_b91m_driver_sdk/chip/B91/drivers/mspi.h:120
	reg_mspi_data = c;
     6b0:	10068023          	sb	zero,256(a3)
mspi_wait():
E:/promotion/gitlab/telink_b91m_driver_sdk/telink_b91m_driver_sdk/chip/B91/drivers/mspi.h:46
	while(reg_mspi_status & FLD_MSPI_BUSY);
     6b4:	10270783          	lb	a5,258(a4) # 80140102 <_DATA_LMA_START+0x6013812a>
     6b8:	fe07fe5b          	bbs	a5,0,6b4 <flash_mspi_read_ram+0xd4>
mspi_fm_rd_trig_en():
E:/promotion/gitlab/telink_b91m_driver_sdk/telink_b91m_driver_sdk/chip/B91/drivers/mspi.h:54
	reg_mspi_fm |= FLD_MSPI_RD_TRIG_EN;
     6bc:	10170783          	lb	a5,257(a4)
mspi_wait():
E:/promotion/gitlab/telink_b91m_driver_sdk/telink_b91m_driver_sdk/chip/B91/drivers/mspi.h:46
	while(reg_mspi_status & FLD_MSPI_BUSY);
     6c0:	801406b7          	lui	a3,0x80140
mspi_fm_rd_trig_en():
E:/promotion/gitlab/telink_b91m_driver_sdk/telink_b91m_driver_sdk/chip/B91/drivers/mspi.h:54
	reg_mspi_fm |= FLD_MSPI_RD_TRIG_EN;
     6c4:	0ff7f793          	andi	a5,a5,255
     6c8:	0017e793          	ori	a5,a5,1
     6cc:	10f700a3          	sb	a5,257(a4)
mspi_wait():
E:/promotion/gitlab/telink_b91m_driver_sdk/telink_b91m_driver_sdk/chip/B91/drivers/mspi.h:46
	while(reg_mspi_status & FLD_MSPI_BUSY);
     6d0:	10268783          	lb	a5,258(a3) # 80140102 <_DATA_LMA_START+0x6013812a>
     6d4:	fe07fe5b          	bbs	a5,0,6d0 <flash_mspi_read_ram+0xf0>
flash_mspi_read_ram():
E:/promotion/gitlab/telink_b91m_driver_sdk/telink_b91m_driver_sdk/chip/B91/drivers/flash.c:180
	mspi_fm_read_en();			/* read mode */
	mspi_write(0x00);			/* to issue clock */
	mspi_wait();
	mspi_fm_rd_trig_en();		/* auto mode, mspi_get() automatically triggers mspi_write(0x00) once. */
	mspi_wait();
	for(unsigned int i = 0; i < data_len; ++i)
     6d8:	020a0263          	beqz	s4,6fc <flash_mspi_read_ram+0x11c>
     6dc:	008a0a33          	add	s4,s4,s0
mspi_get():
E:/promotion/gitlab/telink_b91m_driver_sdk/telink_b91m_driver_sdk/chip/B91/drivers/mspi.h:111
	return reg_mspi_data;
     6e0:	801406b7          	lui	a3,0x80140
     6e4:	10068783          	lb	a5,256(a3) # 80140100 <_DATA_LMA_START+0x60138128>
flash_mspi_read_ram():
E:/promotion/gitlab/telink_b91m_driver_sdk/telink_b91m_driver_sdk/chip/B91/drivers/flash.c:182
	{
		*data++ = mspi_get();
     6e8:	00140413          	addi	s0,s0,1
     6ec:	fef40fa3          	sb	a5,-1(s0)
mspi_wait():
E:/promotion/gitlab/telink_b91m_driver_sdk/telink_b91m_driver_sdk/chip/B91/drivers/mspi.h:46
	while(reg_mspi_status & FLD_MSPI_BUSY);
     6f0:	10268783          	lb	a5,258(a3)
     6f4:	fe07fe5b          	bbs	a5,0,6f0 <flash_mspi_read_ram+0x110>
flash_mspi_read_ram():
E:/promotion/gitlab/telink_b91m_driver_sdk/telink_b91m_driver_sdk/chip/B91/drivers/flash.c:180
	for(unsigned int i = 0; i < data_len; ++i)
     6f8:	ff4416e3          	bne	s0,s4,6e4 <flash_mspi_read_ram+0x104>
mspi_fm_rd_trig_dis():
E:/promotion/gitlab/telink_b91m_driver_sdk/telink_b91m_driver_sdk/chip/B91/drivers/mspi.h:62
	reg_mspi_fm &= ~FLD_MSPI_RD_TRIG_EN;
     6fc:	801407b7          	lui	a5,0x80140
     700:	10178703          	lb	a4,257(a5) # 80140101 <_DATA_LMA_START+0x60138129>
     704:	0fe77713          	andi	a4,a4,254
     708:	10e780a3          	sb	a4,257(a5)
flash_mspi_read_ram():
E:/promotion/gitlab/telink_b91m_driver_sdk/telink_b91m_driver_sdk/chip/B91/drivers/flash.c:186
		mspi_wait();
	}
	mspi_fm_rd_trig_dis();		/* off read auto mode */
	if((cmd == FLASH_X4READ_CMD)||(cmd == FLASH_DREAD_CMD))
     70c:	01b968db          	bnec	s2,59,71c <flash_mspi_read_ram+0x13c>
mspi_fm_data_line():
E:/promotion/gitlab/telink_b91m_driver_sdk/telink_b91m_driver_sdk/chip/B91/drivers/mspi.h:87
	reg_mspi_fm = (reg_mspi_fm & (~FLD_MSPI_DATA_LINE)) | line;
     710:	10178703          	lb	a4,257(a5)
     714:	0f377713          	andi	a4,a4,243
     718:	10e780a3          	sb	a4,257(a5)
mspi_high():
E:/promotion/gitlab/telink_b91m_driver_sdk/telink_b91m_driver_sdk/chip/B91/drivers/mspi.h:95
	reg_mspi_fm |= FLD_MSPI_CSN;
     71c:	80140737          	lui	a4,0x80140
     720:	10170783          	lb	a5,257(a4) # 80140101 <_DATA_LMA_START+0x60138129>
     724:	0ff7f793          	andi	a5,a5,255
     728:	0107e793          	ori	a5,a5,16
     72c:	10f700a3          	sb	a5,257(a4)
flash_mspi_read_ram():
E:/promotion/gitlab/telink_b91m_driver_sdk/telink_b91m_driver_sdk/chip/B91/drivers/flash.c:192
	{
		mspi_fm_data_line(MSPI_SINGLE_LINE);
	}
	mspi_high();

	CLOCK_DLY_5_CYC;
     730:	0001                	c.nop
     732:	0001                	c.nop
     734:	0001                	c.nop
     736:	0001                	c.nop
     738:	0001                	c.nop
E:/promotion/gitlab/telink_b91m_driver_sdk/telink_b91m_driver_sdk/chip/B91/drivers/flash.c:194
	plic_exit_critical_sec(s_flash_preempt_config.preempt_en,r);
}
     73a:	5422                	c.lwsp	s0,40(sp)
E:/promotion/gitlab/telink_b91m_driver_sdk/telink_b91m_driver_sdk/chip/B91/drivers/flash.c:193
	plic_exit_critical_sec(s_flash_preempt_config.preempt_en,r);
     73c:	0444c503          	lbu	a0,68(s1)
E:/promotion/gitlab/telink_b91m_driver_sdk/telink_b91m_driver_sdk/chip/B91/drivers/flash.c:194
}
     740:	50b2                	c.lwsp	ra,44(sp)
     742:	5492                	c.lwsp	s1,36(sp)
     744:	5902                	c.lwsp	s2,32(sp)
     746:	4a62                	c.lwsp	s4,24(sp)
     748:	4ad2                	c.lwsp	s5,20(sp)
     74a:	4b42                	c.lwsp	s6,16(sp)
     74c:	4bb2                	c.lwsp	s7,12(sp)
E:/promotion/gitlab/telink_b91m_driver_sdk/telink_b91m_driver_sdk/chip/B91/drivers/flash.c:193
	plic_exit_critical_sec(s_flash_preempt_config.preempt_en,r);
     74e:	85ce                	c.mv	a1,s3
E:/promotion/gitlab/telink_b91m_driver_sdk/telink_b91m_driver_sdk/chip/B91/drivers/flash.c:194
}
     750:	49f2                	c.lwsp	s3,28(sp)
     752:	6145                	c.addi16sp	sp,48
E:/promotion/gitlab/telink_b91m_driver_sdk/telink_b91m_driver_sdk/chip/B91/drivers/flash.c:193
	plic_exit_critical_sec(s_flash_preempt_config.preempt_en,r);
     754:	dfdff06f          	j	550 <plic_exit_critical_sec>
E:/promotion/gitlab/telink_b91m_driver_sdk/telink_b91m_driver_sdk/chip/B91/drivers/flash.c:164
		flash_send_addr(addr);
     758:	855e                	c.mv	a0,s7
     75a:	34dd                	c.jal	240 <flash_send_addr>
     75c:	f05ff06f          	j	660 <flash_mspi_read_ram+0x80>

00000760 <analog_write_reg8>:
core_interrupt_disable():
E:/promotion/gitlab/telink_b91m_driver_sdk/telink_b91m_driver_sdk/chip/B91/drivers/core.h:101
 * @return  r - the MIE bit value of machine status register(MSTATUS).
 * @note  this function must be used when the system wants to disable all the interrupt.
 * @return     none
 */
static inline unsigned int core_interrupt_disable(void){
	unsigned int r = read_csr (NDS_MSTATUS)&FLD_MSTATUS_MIE;
     760:	30002673          	csrr	a2,mstatus
     764:	8a21                	c.andi	a2,8
E:/promotion/gitlab/telink_b91m_driver_sdk/telink_b91m_driver_sdk/chip/B91/drivers/core.h:102
	if(r)
     766:	c219                	c.beqz	a2,76c <analog_write_reg8+0xc>
E:/promotion/gitlab/telink_b91m_driver_sdk/telink_b91m_driver_sdk/chip/B91/drivers/core.h:104
	{
		clear_csr(NDS_MSTATUS,FLD_MSTATUS_MIE);//global interrupts disable
     768:	300477f3          	csrrci	a5,mstatus,8
analog_write_reg8():
E:/promotion/gitlab/telink_b91m_driver_sdk/telink_b91m_driver_sdk/chip/B91/drivers/analog.c:125
 * @param[in]  data - the value need to be write.
 * @return     none.
 */
void analog_write_reg8(unsigned char addr, unsigned char data){
	unsigned int r=core_interrupt_disable();
	reg_ana_addr = addr;
     76c:	80140737          	lui	a4,0x80140
     770:	18a70023          	sb	a0,384(a4) # 80140180 <_DATA_LMA_START+0x601381a8>
E:/promotion/gitlab/telink_b91m_driver_sdk/telink_b91m_driver_sdk/chip/B91/drivers/analog.c:126
    reg_ana_data(0) = data;
     774:	18b70223          	sb	a1,388(a4)
E:/promotion/gitlab/telink_b91m_driver_sdk/telink_b91m_driver_sdk/chip/B91/drivers/analog.c:127
    reg_ana_ctrl = (FLD_ANA_CYC | FLD_ANA_RW);
     778:	06000693          	li	a3,96
analog_wait():
E:/promotion/gitlab/telink_b91m_driver_sdk/telink_b91m_driver_sdk/chip/B91/drivers/analog.c:432
/**
 * @brief      This function serves to judge whether analog write/read is busy .
 * @return     none.
 */
static inline void analog_wait(){
	while(reg_ana_ctrl & FLD_ANA_BUSY){}
     77c:	801407b7          	lui	a5,0x80140
analog_write_reg8():
E:/promotion/gitlab/telink_b91m_driver_sdk/telink_b91m_driver_sdk/chip/B91/drivers/analog.c:127
    reg_ana_ctrl = (FLD_ANA_CYC | FLD_ANA_RW);
     780:	18d70123          	sb	a3,386(a4)
analog_wait():
E:/promotion/gitlab/telink_b91m_driver_sdk/telink_b91m_driver_sdk/chip/B91/drivers/analog.c:432
	while(reg_ana_ctrl & FLD_ANA_BUSY){}
     784:	18278703          	lb	a4,386(a5) # 80140182 <_DATA_LMA_START+0x601381aa>
     788:	fe777e5b          	bbs	a4,7,784 <analog_write_reg8+0x24>
analog_write_reg8():
E:/promotion/gitlab/telink_b91m_driver_sdk/telink_b91m_driver_sdk/chip/B91/drivers/analog.c:129
	reg_ana_ctrl =0x00;
     78c:	18078123          	sb	zero,386(a5)
core_restore_interrupt():
E:/promotion/gitlab/telink_b91m_driver_sdk/telink_b91m_driver_sdk/chip/B91/drivers/core.h:117
 * this  parameter must be the return value of the core_interrupt_disable function.
 * @return     0
 * @note this function must be used when the system wants to restore all the interrupt.
 */
static inline unsigned int core_restore_interrupt(unsigned int en){
	if(en)
     790:	00060463          	beqz	a2,798 <analog_write_reg8+0x38>
E:/promotion/gitlab/telink_b91m_driver_sdk/telink_b91m_driver_sdk/chip/B91/drivers/core.h:119
	{
		set_csr(NDS_MSTATUS,en);//global interrupts enable
     794:	30062673          	csrrs	a2,mstatus,a2
analog_write_reg8():
E:/promotion/gitlab/telink_b91m_driver_sdk/telink_b91m_driver_sdk/chip/B91/drivers/analog.c:131
}
     798:	00008067          	ret

0000079c <analog_read_reg8>:
core_interrupt_disable():
E:/promotion/gitlab/telink_b91m_driver_sdk/telink_b91m_driver_sdk/chip/B91/drivers/core.h:101
	unsigned int r = read_csr (NDS_MSTATUS)&FLD_MSTATUS_MIE;
     79c:	300026f3          	csrr	a3,mstatus
     7a0:	8aa1                	c.andi	a3,8
E:/promotion/gitlab/telink_b91m_driver_sdk/telink_b91m_driver_sdk/chip/B91/drivers/core.h:102
	if(r)
     7a2:	c299                	c.beqz	a3,7a8 <analog_read_reg8+0xc>
E:/promotion/gitlab/telink_b91m_driver_sdk/telink_b91m_driver_sdk/chip/B91/drivers/core.h:104
		clear_csr(NDS_MSTATUS,FLD_MSTATUS_MIE);//global interrupts disable
     7a4:	300477f3          	csrrci	a5,mstatus,8
analog_read_reg8():
E:/promotion/gitlab/telink_b91m_driver_sdk/telink_b91m_driver_sdk/chip/B91/drivers/analog.c:107
	reg_ana_addr = addr;
     7a8:	801407b7          	lui	a5,0x80140
     7ac:	18a78023          	sb	a0,384(a5) # 80140180 <_DATA_LMA_START+0x601381a8>
E:/promotion/gitlab/telink_b91m_driver_sdk/telink_b91m_driver_sdk/chip/B91/drivers/analog.c:108
	reg_ana_len=0x1;
     7b0:	00100713          	li	a4,1
     7b4:	18e781a3          	sb	a4,387(a5)
E:/promotion/gitlab/telink_b91m_driver_sdk/telink_b91m_driver_sdk/chip/B91/drivers/analog.c:109
    reg_ana_ctrl = FLD_ANA_CYC;
     7b8:	04000613          	li	a2,64
analog_wait():
E:/promotion/gitlab/telink_b91m_driver_sdk/telink_b91m_driver_sdk/chip/B91/drivers/analog.c:432
	while(reg_ana_ctrl & FLD_ANA_BUSY){}
     7bc:	80140737          	lui	a4,0x80140
analog_read_reg8():
E:/promotion/gitlab/telink_b91m_driver_sdk/telink_b91m_driver_sdk/chip/B91/drivers/analog.c:109
    reg_ana_ctrl = FLD_ANA_CYC;
     7c0:	18c78123          	sb	a2,386(a5)
analog_wait():
E:/promotion/gitlab/telink_b91m_driver_sdk/telink_b91m_driver_sdk/chip/B91/drivers/analog.c:432
	while(reg_ana_ctrl & FLD_ANA_BUSY){}
     7c4:	18270783          	lb	a5,386(a4) # 80140182 <_DATA_LMA_START+0x601381aa>
     7c8:	fe77fe5b          	bbs	a5,7,7c4 <analog_read_reg8+0x28>
analog_read_reg8():
E:/promotion/gitlab/telink_b91m_driver_sdk/telink_b91m_driver_sdk/chip/B91/drivers/analog.c:111
	unsigned char data= reg_ana_data(0);
     7cc:	18470503          	lb	a0,388(a4)
     7d0:	0ff57513          	andi	a0,a0,255
core_restore_interrupt():
E:/promotion/gitlab/telink_b91m_driver_sdk/telink_b91m_driver_sdk/chip/B91/drivers/core.h:117
	if(en)
     7d4:	00068463          	beqz	a3,7dc <analog_read_reg8+0x40>
E:/promotion/gitlab/telink_b91m_driver_sdk/telink_b91m_driver_sdk/chip/B91/drivers/core.h:119
		set_csr(NDS_MSTATUS,en);//global interrupts enable
     7d8:	3006a6f3          	csrrs	a3,mstatus,a3
analog_read_reg8():
E:/promotion/gitlab/telink_b91m_driver_sdk/telink_b91m_driver_sdk/chip/B91/drivers/analog.c:115
}
     7dc:	00008067          	ret

000007e0 <clock_init_ram.constprop.5>:
clock_init_ram():
E:/promotion/gitlab/telink_b91m_driver_sdk/telink_b91m_driver_sdk/chip/B91/drivers/clock.c:285
 * 			    because during the clock switching process, the system clock will be
 * 			    suspended for a period of time, which may cause data loss

 */
_attribute_ram_code_sec_noinline_
void clock_init_ram(sys_pll_clk_e pll,
     7e0:	1141                	c.addi	sp,-16
E:/promotion/gitlab/telink_b91m_driver_sdk/telink_b91m_driver_sdk/chip/B91/drivers/clock.c:294
		sys_hclk_div_to_pclk_e pclk_div,
		sys_pll_div_to_mspi_clk_e mspi_clk_div)
{

	//pll clk
	analog_write_reg8(0x80, (analog_read_reg8(0x80) & 0xe0) | ((pll >> 2) & 0x1f));
     7e2:	08000513          	li	a0,128
E:/promotion/gitlab/telink_b91m_driver_sdk/telink_b91m_driver_sdk/chip/B91/drivers/clock.c:285
void clock_init_ram(sys_pll_clk_e pll,
     7e6:	c606                	c.swsp	ra,12(sp)
     7e8:	c422                	c.swsp	s0,8(sp)
E:/promotion/gitlab/telink_b91m_driver_sdk/telink_b91m_driver_sdk/chip/B91/drivers/clock.c:294
	analog_write_reg8(0x80, (analog_read_reg8(0x80) & 0xe0) | ((pll >> 2) & 0x1f));
     7ea:	3f4d                	c.jal	79c <analog_read_reg8>
     7ec:	0e057593          	andi	a1,a0,224
     7f0:	0105e593          	ori	a1,a1,16
     7f4:	08000513          	li	a0,128
     7f8:	f69ff0ef          	jal	ra,760 <analog_write_reg8>
E:/promotion/gitlab/telink_b91m_driver_sdk/telink_b91m_driver_sdk/chip/B91/drivers/clock.c:295
	analog_write_reg8(0x09, (analog_read_reg8(0x09) & 0xf3) | ((pll&0x03) << 2));
     7fc:	00900513          	li	a0,9
     800:	f9dff0ef          	jal	ra,79c <analog_read_reg8>
     804:	0f357593          	andi	a1,a0,243
     808:	0085e593          	ori	a1,a1,8
     80c:	4525                	c.li	a0,9
     80e:	3f89                	c.jal	760 <analog_write_reg8>
E:/promotion/gitlab/telink_b91m_driver_sdk/telink_b91m_driver_sdk/chip/B91/drivers/clock.c:296
	sys_clk.pll_clk = (pll >> 8);
     810:	0c000793          	li	a5,192
     814:	805f940b          	addigp	s0,-2044 # 80004 <sys_clk>
     818:	00f41023          	sh	a5,0(s0)
E:/promotion/gitlab/telink_b91m_driver_sdk/telink_b91m_driver_sdk/chip/B91/drivers/clock.c:299

	//usb clock (192M/4 =48M) pll clock should be the multiple of 48, because USB clock is 48M.
	write_reg8(0x1401fb, sys_clk.pll_clk/48);
     81c:	4711                	c.li	a4,4
     81e:	801407b7          	lui	a5,0x80140
E:/promotion/gitlab/telink_b91m_driver_sdk/telink_b91m_driver_sdk/chip/B91/drivers/clock.c:302

	//wait for PLL stable
	analog_write_reg8(0x81, (analog_read_reg8(0x81) | BIT(6)));
     822:	08100513          	li	a0,129
E:/promotion/gitlab/telink_b91m_driver_sdk/telink_b91m_driver_sdk/chip/B91/drivers/clock.c:299
	write_reg8(0x1401fb, sys_clk.pll_clk/48);
     826:	1ee78da3          	sb	a4,507(a5) # 801401fb <_DATA_LMA_START+0x60138223>
E:/promotion/gitlab/telink_b91m_driver_sdk/telink_b91m_driver_sdk/chip/B91/drivers/clock.c:302
	analog_write_reg8(0x81, (analog_read_reg8(0x81) | BIT(6)));
     82a:	3f8d                	c.jal	79c <analog_read_reg8>
     82c:	04056593          	ori	a1,a0,64
     830:	0ff5f593          	andi	a1,a1,255
     834:	08100513          	li	a0,129
     838:	f29ff0ef          	jal	ra,760 <analog_write_reg8>
E:/promotion/gitlab/telink_b91m_driver_sdk/telink_b91m_driver_sdk/chip/B91/drivers/clock.c:303
	while(BIT(5) != (analog_read_reg8(0x88) & BIT(5)));
     83c:	08800513          	li	a0,136
     840:	f5dff0ef          	jal	ra,79c <analog_read_reg8>
     844:	be557c5b          	bbc	a0,5,83c <clock_init_ram.constprop.5+0x5c>
E:/promotion/gitlab/telink_b91m_driver_sdk/telink_b91m_driver_sdk/chip/B91/drivers/clock.c:304
	analog_write_reg8(0x81, (analog_read_reg8(0x81) & ~BIT(6)));
     848:	08100513          	li	a0,129
     84c:	f51ff0ef          	jal	ra,79c <analog_read_reg8>
     850:	0bf57593          	andi	a1,a0,191
     854:	08100513          	li	a0,129
     858:	f09ff0ef          	jal	ra,760 <analog_write_reg8>
mspi_wait():
E:/promotion/gitlab/telink_b91m_driver_sdk/telink_b91m_driver_sdk/chip/B91/drivers/mspi.h:46
	while(reg_mspi_status & FLD_MSPI_BUSY);
     85c:	80140737          	lui	a4,0x80140
     860:	10270783          	lb	a5,258(a4) # 80140102 <_DATA_LMA_START+0x6013812a>
     864:	fe07fe5b          	bbs	a5,0,860 <clock_init_ram.constprop.5+0x80>
mspi_high():
E:/promotion/gitlab/telink_b91m_driver_sdk/telink_b91m_driver_sdk/chip/B91/drivers/mspi.h:95
	reg_mspi_fm |= FLD_MSPI_CSN;
     868:	10170683          	lb	a3,257(a4)
gpio_get_level():
E:/promotion/gitlab/telink_b91m_driver_sdk/telink_b91m_driver_sdk/chip/B91/drivers/gpio.h:262
     86c:	801407b7          	lui	a5,0x80140
mspi_high():
E:/promotion/gitlab/telink_b91m_driver_sdk/telink_b91m_driver_sdk/chip/B91/drivers/mspi.h:95
     870:	0ff6f693          	andi	a3,a3,255
     874:	0106e693          	ori	a3,a3,16
     878:	10d700a3          	sb	a3,257(a4)
gpio_get_level():
E:/promotion/gitlab/telink_b91m_driver_sdk/telink_b91m_driver_sdk/chip/B91/drivers/gpio.h:262
     87c:	32878703          	lb	a4,808(a5) # 80140328 <_DATA_LMA_START+0x60138350>
mspi_stop_xip():
E:/promotion/gitlab/telink_b91m_driver_sdk/telink_b91m_driver_sdk/chip/B91/drivers/mspi.h:150
	while(gpio_get_level(GPIO_PF3) == 0);	//wait cn=1
     880:	be377e5b          	bbc	a4,3,87c <clock_init_ram.constprop.5+0x9c>
clock_init_ram():
E:/promotion/gitlab/telink_b91m_driver_sdk/telink_b91m_driver_sdk/chip/B91/drivers/clock.c:316
	{
		write_reg8(0x1401e8, read_reg8(0x1401e8) & 0x7f);  //bit7 0
	}
	else
	{
		write_reg8(0x1401e9, (read_reg8(0x1401e9) & 0x0f) | (mspi_clk_div<<4) );
     884:	1e978703          	lb	a4,489(a5)
     888:	8b3d                	c.andi	a4,15
     88a:	04076713          	ori	a4,a4,64
     88e:	1ee784a3          	sb	a4,489(a5)
E:/promotion/gitlab/telink_b91m_driver_sdk/telink_b91m_driver_sdk/chip/B91/drivers/clock.c:317
		write_reg8(0x1401e8, read_reg8(0x1401e8) | BIT(7));  //if the div is odd, should set two times to ensure the correct sequence.
     892:	1e878703          	lb	a4,488(a5)
     896:	f8076713          	ori	a4,a4,-128
     89a:	0ff77713          	andi	a4,a4,255
     89e:	1ee78423          	sb	a4,488(a5)
E:/promotion/gitlab/telink_b91m_driver_sdk/telink_b91m_driver_sdk/chip/B91/drivers/clock.c:318
		write_reg8(0x1401e8, read_reg8(0x1401e8) | BIT(7));
     8a2:	1e878703          	lb	a4,488(a5)
     8a6:	f8076713          	ori	a4,a4,-128
     8aa:	0ff77713          	andi	a4,a4,255
     8ae:	1ee78423          	sb	a4,488(a5)
E:/promotion/gitlab/telink_b91m_driver_sdk/telink_b91m_driver_sdk/chip/B91/drivers/clock.c:329
	{
		write_reg8(0x1401d8, read_reg8(0x1401d8) & ~BIT(2));
	}
	else
	{
		write_reg8(0x1401d8, read_reg8(0x1401d8) | BIT(2));
     8b2:	1d878703          	lb	a4,472(a5)
E:/promotion/gitlab/telink_b91m_driver_sdk/telink_b91m_driver_sdk/chip/B91/drivers/clock.c:319
		sys_clk.mspi_clk = sys_clk.pll_clk / mspi_clk_div;
     8b6:	00045683          	lhu	a3,0(s0)
E:/promotion/gitlab/telink_b91m_driver_sdk/telink_b91m_driver_sdk/chip/B91/drivers/clock.c:329
		write_reg8(0x1401d8, read_reg8(0x1401d8) | BIT(2));
     8ba:	0ff77713          	andi	a4,a4,255
     8be:	00476713          	ori	a4,a4,4
     8c2:	1ce78c23          	sb	a4,472(a5)
E:/promotion/gitlab/telink_b91m_driver_sdk/telink_b91m_driver_sdk/chip/B91/drivers/clock.c:339
	{
		write_reg8(0x1401d8, read_reg8(0x1401d8) & 0xfc);
	}
	else
	{
		write_reg8(0x1401d8, (read_reg8(0x1401d8) & 0xfc) | (pclk_div/2));
     8c6:	1d878703          	lb	a4,472(a5)
E:/promotion/gitlab/telink_b91m_driver_sdk/telink_b91m_driver_sdk/chip/B91/drivers/clock.c:319
		sys_clk.mspi_clk = sys_clk.pll_clk / mspi_clk_div;
     8ca:	8689                	c.srai	a3,0x2
E:/promotion/gitlab/telink_b91m_driver_sdk/telink_b91m_driver_sdk/chip/B91/drivers/clock.c:339
		write_reg8(0x1401d8, (read_reg8(0x1401d8) & 0xfc) | (pclk_div/2));
     8cc:	0fc77713          	andi	a4,a4,252
E:/promotion/gitlab/telink_b91m_driver_sdk/telink_b91m_driver_sdk/chip/B91/drivers/clock.c:319
		sys_clk.mspi_clk = sys_clk.pll_clk / mspi_clk_div;
     8d0:	00d402a3          	sb	a3,5(s0)
E:/promotion/gitlab/telink_b91m_driver_sdk/telink_b91m_driver_sdk/chip/B91/drivers/clock.c:339
		write_reg8(0x1401d8, (read_reg8(0x1401d8) & 0xfc) | (pclk_div/2));
     8d4:	00176713          	ori	a4,a4,1
     8d8:	1ce78c23          	sb	a4,472(a5)
E:/promotion/gitlab/telink_b91m_driver_sdk/telink_b91m_driver_sdk/chip/B91/drivers/clock.c:345
	}

	//select cclk source(RC24M/PAD24M/PAD_PLL_DIV/PAD_PLL)
	if(PAD_PLL_DIV == src)
	{
		write_reg8(0x1401e8, (read_reg8(0x1401e8) & 0xf0) | cclk_div);
     8dc:	1e878703          	lb	a4,488(a5)
     8e0:	0f077713          	andi	a4,a4,240
     8e4:	00276713          	ori	a4,a4,2
     8e8:	1ee78423          	sb	a4,488(a5)
E:/promotion/gitlab/telink_b91m_driver_sdk/telink_b91m_driver_sdk/chip/B91/drivers/clock.c:356
	}
	else
	{
		sys_clk.cclk = 24;
	}
	write_reg8(0x1401e8, (read_reg8(0x1401e8) & 0x8f) | (src << 4));
     8ec:	1e878703          	lb	a4,488(a5)
E:/promotion/gitlab/telink_b91m_driver_sdk/telink_b91m_driver_sdk/chip/B91/drivers/clock.c:346
		sys_clk.cclk = sys_clk.pll_clk / cclk_div;
     8f0:	00045683          	lhu	a3,0(s0)
E:/promotion/gitlab/telink_b91m_driver_sdk/telink_b91m_driver_sdk/chip/B91/drivers/clock.c:356
	write_reg8(0x1401e8, (read_reg8(0x1401e8) & 0x8f) | (src << 4));
     8f4:	08f77713          	andi	a4,a4,143
E:/promotion/gitlab/telink_b91m_driver_sdk/telink_b91m_driver_sdk/chip/B91/drivers/clock.c:346
		sys_clk.cclk = sys_clk.pll_clk / cclk_div;
     8f8:	8685                	c.srai	a3,0x1
     8fa:	00d40123          	sb	a3,2(s0)
E:/promotion/gitlab/telink_b91m_driver_sdk/telink_b91m_driver_sdk/chip/B91/drivers/clock.c:356
	write_reg8(0x1401e8, (read_reg8(0x1401e8) & 0x8f) | (src << 4));
     8fe:	02076713          	ori	a4,a4,32
E:/promotion/gitlab/telink_b91m_driver_sdk/telink_b91m_driver_sdk/chip/B91/drivers/clock.c:359

	//clk record.
	sys_clk.hclk = sys_clk.cclk/hclk_div;
     902:	0ff6f693          	andi	a3,a3,255
E:/promotion/gitlab/telink_b91m_driver_sdk/telink_b91m_driver_sdk/chip/B91/drivers/clock.c:356
	write_reg8(0x1401e8, (read_reg8(0x1401e8) & 0x8f) | (src << 4));
     906:	1ee78423          	sb	a4,488(a5)
E:/promotion/gitlab/telink_b91m_driver_sdk/telink_b91m_driver_sdk/chip/B91/drivers/clock.c:359
	sys_clk.hclk = sys_clk.cclk/hclk_div;
     90a:	0016d613          	srli	a2,a3,0x1
E:/promotion/gitlab/telink_b91m_driver_sdk/telink_b91m_driver_sdk/chip/B91/drivers/clock.c:360
	sys_clk.pclk = sys_clk.hclk / pclk_div;
     90e:	8289                	c.srli	a3,0x2
E:/promotion/gitlab/telink_b91m_driver_sdk/telink_b91m_driver_sdk/chip/B91/drivers/clock.c:359
	sys_clk.hclk = sys_clk.cclk/hclk_div;
     910:	00c401a3          	sb	a2,3(s0)
E:/promotion/gitlab/telink_b91m_driver_sdk/telink_b91m_driver_sdk/chip/B91/drivers/clock.c:360
	sys_clk.pclk = sys_clk.hclk / pclk_div;
     914:	00d40223          	sb	a3,4(s0)
E:/promotion/gitlab/telink_b91m_driver_sdk/telink_b91m_driver_sdk/chip/B91/drivers/clock.c:364
	if(CCLK_TO_MSPI_CLK == mspi_clk_div){
		sys_clk.mspi_clk = sys_clk.cclk;
	}
}
     918:	40b2                	c.lwsp	ra,12(sp)
     91a:	4422                	c.lwsp	s0,8(sp)
     91c:	0141                	c.addi	sp,16
     91e:	8082                	c.jr	ra

00000920 <pm_wait_bbpll_done>:
pm_wait_bbpll_done():
C:/Users/Admin/Desktop/test1/telink_b91m_driver_src/chip/B91/drivers/lib/src/pm.c:189
     920:	1101                	c.addi	sp,-32
C:/Users/Admin/Desktop/test1/telink_b91m_driver_src/chip/B91/drivers/lib/src/pm.c:190
     922:	08100513          	li	a0,129
C:/Users/Admin/Desktop/test1/telink_b91m_driver_src/chip/B91/drivers/lib/src/pm.c:189
     926:	cc22                	c.swsp	s0,24(sp)
     928:	ca26                	c.swsp	s1,20(sp)
     92a:	c84a                	c.swsp	s2,16(sp)
     92c:	ce06                	c.swsp	ra,28(sp)
C:/Users/Admin/Desktop/test1/telink_b91m_driver_src/chip/B91/drivers/lib/src/pm.c:190
     92e:	35bd                	c.jal	79c <analog_read_reg8>
C:/Users/Admin/Desktop/test1/telink_b91m_driver_src/chip/B91/drivers/lib/src/pm.c:191
     930:	04056593          	ori	a1,a0,64
C:/Users/Admin/Desktop/test1/telink_b91m_driver_src/chip/B91/drivers/lib/src/pm.c:190
     934:	892a                	c.mv	s2,a0
C:/Users/Admin/Desktop/test1/telink_b91m_driver_src/chip/B91/drivers/lib/src/pm.c:191
     936:	0ff5f593          	andi	a1,a1,255
     93a:	08100513          	li	a0,129
     93e:	0bf97913          	andi	s2,s2,191
     942:	4481                	c.li	s1,0
C:/Users/Admin/Desktop/test1/telink_b91m_driver_src/chip/B91/drivers/lib/src/pm.c:194
     944:	4475                	c.li	s0,29
C:/Users/Admin/Desktop/test1/telink_b91m_driver_src/chip/B91/drivers/lib/src/pm.c:191
     946:	3d29                	c.jal	760 <analog_write_reg8>
C:/Users/Admin/Desktop/test1/telink_b91m_driver_src/chip/B91/drivers/lib/src/pm.c:194
     948:	000107a3          	sb	zero,15(sp)
     94c:	00f10783          	lb	a5,15(sp)
     950:	0ff7f793          	andi	a5,a5,255
     954:	02f46063          	bltu	s0,a5,974 <pm_wait_bbpll_done+0x54>
C:/Users/Admin/Desktop/test1/telink_b91m_driver_src/chip/B91/drivers/lib/src/pm.c:195
     958:	0001                	c.nop
C:/Users/Admin/Desktop/test1/telink_b91m_driver_src/chip/B91/drivers/lib/src/pm.c:194
     95a:	00f10783          	lb	a5,15(sp)
     95e:	0785                	c.addi	a5,1
     960:	0ff7f793          	andi	a5,a5,255
     964:	00f107a3          	sb	a5,15(sp)
     968:	00f10783          	lb	a5,15(sp)
     96c:	0ff7f793          	andi	a5,a5,255
     970:	fef474e3          	bgeu	s0,a5,958 <pm_wait_bbpll_done+0x38>
C:/Users/Admin/Desktop/test1/telink_b91m_driver_src/chip/B91/drivers/lib/src/pm.c:197
     974:	08800513          	li	a0,136
     978:	e25ff0ef          	jal	ra,79c <analog_read_reg8>
     97c:	4255765b          	bbs	a0,5,9a8 <pm_wait_bbpll_done+0x88>
C:/Users/Admin/Desktop/test1/telink_b91m_driver_src/chip/B91/drivers/lib/src/pm.c:204
     980:	cc95                	c.beqz	s1,9bc <pm_wait_bbpll_done+0x9c>
C:/Users/Admin/Desktop/test1/telink_b91m_driver_src/chip/B91/drivers/lib/src/pm.c:207
     982:	0414d35b          	beqc	s1,1,9c8 <pm_wait_bbpll_done+0xa8>
C:/Users/Admin/Desktop/test1/telink_b91m_driver_src/chip/B91/drivers/lib/src/pm.c:211
     986:	85ca                	c.mv	a1,s2
     988:	08100513          	li	a0,129
     98c:	dd5ff0ef          	jal	ra,760 <analog_write_reg8>
C:/Users/Admin/Desktop/test1/telink_b91m_driver_src/chip/B91/drivers/lib/src/pm.c:192
     990:	0024d65b          	beqc	s1,2,99c <pm_wait_bbpll_done+0x7c>
     994:	0485                	c.addi	s1,1
     996:	0ff4f493          	andi	s1,s1,255
     99a:	b77d                	c.j	948 <pm_wait_bbpll_done+0x28>
C:/Users/Admin/Desktop/test1/telink_b91m_driver_src/chip/B91/drivers/lib/src/pm.c:215
     99c:	40f2                	c.lwsp	ra,28(sp)
     99e:	4462                	c.lwsp	s0,24(sp)
     9a0:	44d2                	c.lwsp	s1,20(sp)
     9a2:	4942                	c.lwsp	s2,16(sp)
     9a4:	6105                	c.addi16sp	sp,32
     9a6:	8082                	c.jr	ra
     9a8:	4462                	c.lwsp	s0,24(sp)
     9aa:	40f2                	c.lwsp	ra,28(sp)
     9ac:	44d2                	c.lwsp	s1,20(sp)
C:/Users/Admin/Desktop/test1/telink_b91m_driver_src/chip/B91/drivers/lib/src/pm.c:199
     9ae:	85ca                	c.mv	a1,s2
C:/Users/Admin/Desktop/test1/telink_b91m_driver_src/chip/B91/drivers/lib/src/pm.c:215
     9b0:	4942                	c.lwsp	s2,16(sp)
C:/Users/Admin/Desktop/test1/telink_b91m_driver_src/chip/B91/drivers/lib/src/pm.c:199
     9b2:	08100513          	li	a0,129
C:/Users/Admin/Desktop/test1/telink_b91m_driver_src/chip/B91/drivers/lib/src/pm.c:215
     9b6:	6105                	c.addi16sp	sp,32
C:/Users/Admin/Desktop/test1/telink_b91m_driver_src/chip/B91/drivers/lib/src/pm.c:199
     9b8:	da9ff06f          	j	760 <analog_write_reg8>
C:/Users/Admin/Desktop/test1/telink_b91m_driver_src/chip/B91/drivers/lib/src/pm.c:205
     9bc:	04600593          	li	a1,70
     9c0:	4505                	c.li	a0,1
     9c2:	3b79                	c.jal	760 <analog_write_reg8>
     9c4:	fd1ff06f          	j	994 <pm_wait_bbpll_done+0x74>
C:/Users/Admin/Desktop/test1/telink_b91m_driver_src/chip/B91/drivers/lib/src/pm.c:208
     9c8:	04300593          	li	a1,67
     9cc:	4505                	c.li	a0,1
     9ce:	3b49                	c.jal	760 <analog_write_reg8>
     9d0:	fc5ff06f          	j	994 <pm_wait_bbpll_done+0x74>

000009d4 <pm_sleep_start>:
pm_sleep_start():
C:/Users/Admin/Desktop/test1/telink_b91m_driver_src/chip/B91/drivers/lib/src/pm.c:255
     9d4:	1101                	c.addi	sp,-32
C:/Users/Admin/Desktop/test1/telink_b91m_driver_src/chip/B91/drivers/lib/src/pm.c:257
     9d6:	827fa72b          	lwgp	a4,-2012 # 80024 <g_chip_version>
     9da:	000006b7          	lui	a3,0x0
C:/Users/Admin/Desktop/test1/telink_b91m_driver_src/chip/B91/drivers/lib/src/pm.c:255
     9de:	ce06                	c.swsp	ra,28(sp)
     9e0:	cc22                	c.swsp	s0,24(sp)
C:/Users/Admin/Desktop/test1/telink_b91m_driver_src/chip/B91/drivers/lib/src/pm.c:257
     9e2:	0ff00793          	li	a5,255
     9e6:	19e6c583          	lbu	a1,414(a3) # 19e <g_pm_suspend_power_cfg>
     9ea:	00f71963          	bne	a4,a5,9fc <pm_sleep_start+0x28>
C:/Users/Admin/Desktop/test1/telink_b91m_driver_src/chip/B91/drivers/lib/src/pm.c:258
     9ee:	0fe5f593          	andi	a1,a1,254
     9f2:	07d00513          	li	a0,125
     9f6:	33ad                	c.jal	760 <analog_write_reg8>
     9f8:	00c0006f          	j	a04 <pm_sleep_start+0x30>
C:/Users/Admin/Desktop/test1/telink_b91m_driver_src/chip/B91/drivers/lib/src/pm.c:260
     9fc:	07d00513          	li	a0,125
     a00:	d61ff0ef          	jal	ra,760 <analog_write_reg8>
C:\Users\Admin\Desktop\test1\telink_b91m_driver_src\chip\B91\drivers/mspi.h:46
     a04:	801406b7          	lui	a3,0x80140
     a08:	10268783          	lb	a5,258(a3) # 80140102 <_DATA_LMA_START+0x6013812a>
     a0c:	fe07fe5b          	bbs	a5,0,a08 <pm_sleep_start+0x34>
C:\Users\Admin\Desktop\test1\telink_b91m_driver_src\chip\B91\drivers/mspi.h:95
     a10:	10168703          	lb	a4,257(a3)
C:\Users\Admin\Desktop\test1\telink_b91m_driver_src\chip\B91\drivers/gpio.h:262
     a14:	801407b7          	lui	a5,0x80140
C:\Users\Admin\Desktop\test1\telink_b91m_driver_src\chip\B91\drivers/mspi.h:95
     a18:	0ff77713          	andi	a4,a4,255
     a1c:	01076713          	ori	a4,a4,16
     a20:	10e680a3          	sb	a4,257(a3)
C:\Users\Admin\Desktop\test1\telink_b91m_driver_src\chip\B91\drivers/gpio.h:262
     a24:	32878703          	lb	a4,808(a5) # 80140328 <_DATA_LMA_START+0x60138350>
C:\Users\Admin\Desktop\test1\telink_b91m_driver_src\chip\B91\drivers/mspi.h:150
     a28:	be377e5b          	bbc	a4,3,a24 <pm_sleep_start+0x50>
C:\Users\Admin\Desktop\test1\telink_b91m_driver_src\chip\B91\drivers/mspi.h:78
     a2c:	10178703          	lb	a4,257(a5)
C:\Users\Admin\Desktop\test1\telink_b91m_driver_src\chip\B91\drivers/mspi.h:46
     a30:	80140437          	lui	s0,0x80140
C:\Users\Admin\Desktop\test1\telink_b91m_driver_src\chip\B91\drivers/mspi.h:78
     a34:	0fd77713          	andi	a4,a4,253
     a38:	10e780a3          	sb	a4,257(a5)
C:\Users\Admin\Desktop\test1\telink_b91m_driver_src\chip\B91\drivers/mspi.h:103
     a3c:	10178703          	lb	a4,257(a5)
     a40:	0ef77713          	andi	a4,a4,239
     a44:	10e780a3          	sb	a4,257(a5)
C:\Users\Admin\Desktop\test1\telink_b91m_driver_src\chip\B91\drivers/mspi.h:120
     a48:	fb900713          	li	a4,-71
     a4c:	10e78023          	sb	a4,256(a5)
C:\Users\Admin\Desktop\test1\telink_b91m_driver_src\chip\B91\drivers/mspi.h:46
     a50:	10240783          	lb	a5,258(s0) # 80140102 <_DATA_LMA_START+0x6013812a>
     a54:	fe07fe5b          	bbs	a5,0,a50 <pm_sleep_start+0x7c>
C:\Users\Admin\Desktop\test1\telink_b91m_driver_src\chip\B91\drivers/mspi.h:95
     a58:	10140783          	lb	a5,257(s0)
C:/Users/Admin/Desktop/test1/telink_b91m_driver_src/chip/B91/drivers/lib/src/pm.c:272
     a5c:	452d                	c.li	a0,11
C:\Users\Admin\Desktop\test1\telink_b91m_driver_src\chip\B91\drivers/mspi.h:95
     a5e:	0ff7f793          	andi	a5,a5,255
     a62:	0107e793          	ori	a5,a5,16
     a66:	10f400a3          	sb	a5,257(s0)
C:/Users/Admin/Desktop/test1/telink_b91m_driver_src/chip/B91/drivers/lib/src/pm.c:268
     a6a:	320404a3          	sb	zero,809(s0)
C:/Users/Admin/Desktop/test1/telink_b91m_driver_src/chip/B91/drivers/lib/src/pm.c:272
     a6e:	333d                	c.jal	79c <analog_read_reg8>
     a70:	0fc57593          	andi	a1,a0,252
     a74:	452d                	c.li	a0,11
     a76:	31ed                	c.jal	760 <analog_write_reg8>
C:/Users/Admin/Desktop/test1/telink_b91m_driver_src/chip/B91/drivers/lib/src/pm.c:274
     a78:	08100513          	li	a0,129
     a7c:	d21ff0ef          	jal	ra,79c <analog_read_reg8>
     a80:	f8056593          	ori	a1,a0,-128
     a84:	0ff5f593          	andi	a1,a1,255
     a88:	08100513          	li	a0,129
     a8c:	cd5ff0ef          	jal	ra,760 <analog_write_reg8>
C:/Users/Admin/Desktop/test1/telink_b91m_driver_src/chip/B91/drivers/lib/src/pm.c:281
     a90:	f8000793          	li	a5,-128
     a94:	1ef407a3          	sb	a5,495(s0)
C:/Users/Admin/Desktop/test1/telink_b91m_driver_src/chip/B91/drivers/lib/src/pm.c:287
     a98:	03f00713          	li	a4,63
     a9c:	00012423          	sw	zero,8(sp)
     aa0:	47a2                	c.lwsp	a5,8(sp)
     aa2:	00f76763          	bltu	a4,a5,ab0 <pm_sleep_start+0xdc>
C:/Users/Admin/Desktop/test1/telink_b91m_driver_src/chip/B91/drivers/lib/src/pm.c:288
     aa6:	0001                	c.nop
C:/Users/Admin/Desktop/test1/telink_b91m_driver_src/chip/B91/drivers/lib/src/pm.c:287
     aa8:	47a2                	c.lwsp	a5,8(sp)
     aaa:	0785                	c.addi	a5,1
     aac:	c43e                	c.swsp	a5,8(sp)
     aae:	bfcd                	c.j	aa0 <pm_sleep_start+0xcc>
C:/Users/Admin/Desktop/test1/telink_b91m_driver_src/chip/B91/drivers/lib/src/pm.c:291
     ab0:	08100513          	li	a0,129
     ab4:	ce9ff0ef          	jal	ra,79c <analog_read_reg8>
     ab8:	07f57593          	andi	a1,a0,127
     abc:	08100513          	li	a0,129
     ac0:	ca1ff0ef          	jal	ra,760 <analog_write_reg8>
C:/Users/Admin/Desktop/test1/telink_b91m_driver_src/chip/B91/drivers/lib/src/pm.c:293
     ac4:	00b00513          	li	a0,11
     ac8:	cd5ff0ef          	jal	ra,79c <analog_read_reg8>
     acc:	00356593          	ori	a1,a0,3
     ad0:	0ff5f593          	andi	a1,a1,255
     ad4:	452d                	c.li	a0,11
     ad6:	3169                	c.jal	760 <analog_write_reg8>
C:/Users/Admin/Desktop/test1/telink_b91m_driver_src/chip/B91/drivers/lib/src/pm.c:295
     ad8:	08000593          	li	a1,128
     adc:	07d00513          	li	a0,125
     ae0:	c81ff0ef          	jal	ra,760 <analog_write_reg8>
C:/Users/Admin/Desktop/test1/telink_b91m_driver_src/chip/B91/drivers/lib/src/pm.c:298
     ae4:	12b00713          	li	a4,299
     ae8:	00012623          	sw	zero,12(sp)
     aec:	47b2                	c.lwsp	a5,12(sp)
     aee:	00f76763          	bltu	a4,a5,afc <pm_sleep_start+0x128>
C:/Users/Admin/Desktop/test1/telink_b91m_driver_src/chip/B91/drivers/lib/src/pm.c:299
     af2:	0001                	c.nop
C:/Users/Admin/Desktop/test1/telink_b91m_driver_src/chip/B91/drivers/lib/src/pm.c:298
     af4:	47b2                	c.lwsp	a5,12(sp)
     af6:	0785                	c.addi	a5,1
     af8:	c63e                	c.swsp	a5,12(sp)
     afa:	bfcd                	c.j	aec <pm_sleep_start+0x118>
C:/Users/Admin/Desktop/test1/telink_b91m_driver_src/chip/B91/drivers/lib/src/pm.c:302
     afc:	08800513          	li	a0,136
     b00:	c9dff0ef          	jal	ra,79c <analog_read_reg8>
     b04:	be757c5b          	bbc	a0,7,afc <pm_sleep_start+0x128>
C:/Users/Admin/Desktop/test1/telink_b91m_driver_src/chip/B91/drivers/lib/src/pm.c:303
     b08:	08800513          	li	a0,136
     b0c:	c91ff0ef          	jal	ra,79c <analog_read_reg8>
     b10:	be757c5b          	bbc	a0,7,b08 <pm_sleep_start+0x134>
C:/Users/Admin/Desktop/test1/telink_b91m_driver_src/chip/B91/drivers/lib/src/pm.c:304
     b14:	08800513          	li	a0,136
     b18:	c85ff0ef          	jal	ra,79c <analog_read_reg8>
     b1c:	be757c5b          	bbc	a0,7,b14 <pm_sleep_start+0x140>
C:/Users/Admin/Desktop/test1/telink_b91m_driver_src/chip/B91/drivers/lib/src/pm.c:306
     b20:	e01ff0ef          	jal	ra,920 <pm_wait_bbpll_done>
C:/Users/Admin/Desktop/test1/telink_b91m_driver_src/chip/B91/drivers/lib/src/pm.c:315
     b24:	801407b7          	lui	a5,0x80140
     b28:	03f00713          	li	a4,63
     b2c:	32e784a3          	sb	a4,809(a5) # 80140329 <_DATA_LMA_START+0x60138351>
C:\Users\Admin\Desktop\test1\telink_b91m_driver_src\chip\B91\drivers/mspi.h:103
     b30:	10178683          	lb	a3,257(a5)
C:\Users\Admin\Desktop\test1\telink_b91m_driver_src\chip\B91\drivers/mspi.h:46
     b34:	80140737          	lui	a4,0x80140
C:\Users\Admin\Desktop\test1\telink_b91m_driver_src\chip\B91\drivers/mspi.h:103
     b38:	0ef6f693          	andi	a3,a3,239
     b3c:	10d780a3          	sb	a3,257(a5)
C:\Users\Admin\Desktop\test1\telink_b91m_driver_src\chip\B91\drivers/mspi.h:120
     b40:	fab00693          	li	a3,-85
     b44:	10d78023          	sb	a3,256(a5)
C:\Users\Admin\Desktop\test1\telink_b91m_driver_src\chip\B91\drivers/mspi.h:46
     b48:	10270783          	lb	a5,258(a4) # 80140102 <_DATA_LMA_START+0x6013812a>
     b4c:	fe07fe5b          	bbs	a5,0,b48 <pm_sleep_start+0x174>
C:\Users\Admin\Desktop\test1\telink_b91m_driver_src\chip\B91\drivers/mspi.h:95
     b50:	10170783          	lb	a5,257(a4)
     b54:	0ff7f793          	andi	a5,a5,255
     b58:	0107e793          	ori	a5,a5,16
     b5c:	10f700a3          	sb	a5,257(a4)
C:/Users/Admin/Desktop/test1/telink_b91m_driver_src/chip/B91/drivers/lib/src/pm.c:320
     b60:	40f2                	c.lwsp	ra,28(sp)
     b62:	4462                	c.lwsp	s0,24(sp)
     b64:	6105                	c.addi16sp	sp,32
     b66:	8082                	c.jr	ra

00000b68 <pm_sleep_wakeup_ram.constprop.2>:
pm_sleep_wakeup_ram():
C:/Users/Admin/Desktop/test1/telink_b91m_driver_src/chip/B91/drivers/lib/src/pm.c:431
     b68:	1101                	c.addi	sp,-32
     b6a:	c452                	c.swsp	s4,8(sp)
     b6c:	8a2a                	c.mv	s4,a0
     b6e:	ce06                	c.swsp	ra,28(sp)
     b70:	cc22                	c.swsp	s0,24(sp)
     b72:	ca26                	c.swsp	s1,20(sp)
     b74:	c84a                	c.swsp	s2,16(sp)
     b76:	c64e                	c.swsp	s3,12(sp)
     b78:	c256                	c.swsp	s5,4(sp)
     b7a:	c05a                	c.swsp	s6,0(sp)
core_interrupt_disable():
C:\Users\Admin\Desktop\test1\telink_b91m_driver_src\chip\B91\drivers/core.h:101
     b7c:	300029f3          	csrr	s3,mstatus
     b80:	0089f993          	andi	s3,s3,8
C:\Users\Admin\Desktop\test1\telink_b91m_driver_src\chip\B91\drivers/core.h:102
     b84:	00098463          	beqz	s3,b8c <pm_sleep_wakeup_ram.constprop.2+0x24>
C:\Users\Admin\Desktop\test1\telink_b91m_driver_src\chip\B91\drivers/core.h:104
     b88:	300477f3          	csrrci	a5,mstatus,8
pm_get_32k_rc_calib():
C:/Users/Admin/Desktop/test1/telink_b91m_driver_src/chip/B91/drivers/lib/src/pm.c:400
     b8c:	801407b7          	lui	a5,0x80140
     b90:	2147a683          	lw	a3,532(a5) # 80140214 <_DATA_LMA_START+0x6013823c>
     b94:	def5                	c.beqz	a3,b90 <pm_sleep_wakeup_ram.constprop.2+0x28>
C:/Users/Admin/Desktop/test1/telink_b91m_driver_src/chip/B91/drivers/lib/src/pm.c:403
     b96:	00000437          	lui	s0,0x0
     b9a:	15840693          	addi	a3,s0,344 # 158 <_AES_VMA_END>
C:/Users/Admin/Desktop/test1/telink_b91m_driver_src/chip/B91/drivers/lib/src/pm.c:402
     b9e:	2147a783          	lw	a5,532(a5)
C:/Users/Admin/Desktop/test1/telink_b91m_driver_src/chip/B91/drivers/lib/src/pm.c:405
     ba2:	52d8                	c.lw	a4,36(a3)
C:/Users/Admin/Desktop/test1/telink_b91m_driver_src/chip/B91/drivers/lib/src/pm.c:403
     ba4:	dadc                	c.sw	a5,52(a3)
     ba6:	15840413          	addi	s0,s0,344
C:/Users/Admin/Desktop/test1/telink_b91m_driver_src/chip/B91/drivers/lib/src/pm.c:404
     baa:	0792                	c.slli	a5,0x4
C:/Users/Admin/Desktop/test1/telink_b91m_driver_src/chip/B91/drivers/lib/src/pm.c:405
     bac:	cb11                	c.beqz	a4,bc0 <pm_sleep_wakeup_ram.constprop.2+0x58>
C:/Users/Admin/Desktop/test1/telink_b91m_driver_src/chip/B91/drivers/lib/src/pm.c:411
     bae:	03844603          	lbu	a2,56(s0)
     bb2:	4691                	c.li	a3,4
     bb4:	8f99                	c.sub	a5,a4
     bb6:	8e91                	c.sub	a3,a2
     bb8:	40d7d7b3          	sra	a5,a5,a3
     bbc:	00e787b3          	add	a5,a5,a4
     bc0:	d05c                	c.sw	a5,36(s0)
C:/Users/Admin/Desktop/test1/telink_b91m_driver_src/chip/B91/drivers/lib/src/pm.c:414
     bc2:	5044                	c.lw	s1,36(s0)
     bc4:	4c1c                	c.lw	a5,24(s0)
     bc6:	8491                	c.srai	s1,0x4
     bc8:	02f487b3          	mul	a5,s1,a5
pm_sleep_wakeup_ram():
C:\Users\Admin\Desktop\test1\telink_b91m_driver_src\chip\B91\drivers/stimer.h:168
     bcc:	80140937          	lui	s2,0x80140
     bd0:	20092a83          	lw	s5,512(s2) # 80140200 <_DATA_LMA_START+0x60138228>
C:/Users/Admin/Desktop/test1/telink_b91m_driver_src/chip/B91/drivers/lib/src/pm.c:456
     bd4:	e0000737          	lui	a4,0xe0000
C:/Users/Admin/Desktop/test1/telink_b91m_driver_src/chip/B91/drivers/lib/src/pm.c:454
     bd8:	415a0ab3          	sub	s5,s4,s5
pm_get_32k_rc_calib():
C:/Users/Admin/Desktop/test1/telink_b91m_driver_src/chip/B91/drivers/lib/src/pm.c:414
     bdc:	87c9                	c.srai	a5,0x12
C:/Users/Admin/Desktop/test1/telink_b91m_driver_src/chip/B91/drivers/lib/src/pm.c:415
     bde:	94be                	c.add	s1,a5
pm_sleep_wakeup_ram():
C:/Users/Admin/Desktop/test1/telink_b91m_driver_src/chip/B91/drivers/lib/src/pm.c:441
     be0:	0486                	c.slli	s1,0x1
     be2:	dc44                	c.sw	s1,60(s0)
C:/Users/Admin/Desktop/test1/telink_b91m_driver_src/chip/B91/drivers/lib/src/pm.c:456
     be4:	01577e63          	bgeu	a4,s5,c00 <pm_sleep_wakeup_ram.constprop.2+0x98>
core_restore_interrupt():
C:\Users\Admin\Desktop\test1\telink_b91m_driver_src\chip\B91\drivers/core.h:117
     be8:	00098463          	beqz	s3,bf0 <pm_sleep_wakeup_ram.constprop.2+0x88>
C:\Users\Admin\Desktop\test1\telink_b91m_driver_src\chip\B91\drivers/core.h:119
     bec:	3009a9f3          	csrrs	s3,mstatus,s3
pm_sleep_wakeup_ram():
C:/Users/Admin/Desktop/test1/telink_b91m_driver_src/chip/B91/drivers/lib/src/pm.c:458
     bf0:	06400513          	li	a0,100
     bf4:	ba9ff0ef          	jal	ra,79c <analog_read_reg8>
     bf8:	01f57513          	andi	a0,a0,31
     bfc:	2640006f          	j	e60 <pm_sleep_wakeup_ram.constprop.2+0x2f8>
C:/Users/Admin/Desktop/test1/telink_b91m_driver_src/chip/B91/drivers/lib/src/pm.c:460
     c00:	04e41783          	lh	a5,78(s0)
     c04:	1137a7db          	bfoz	a5,a5,4,19
     c08:	02fafc63          	bgeu	s5,a5,c40 <pm_sleep_wakeup_ram.constprop.2+0xd8>
C:/Users/Admin/Desktop/test1/telink_b91m_driver_src/chip/B91/drivers/lib/src/pm.c:462
     c0c:	45fd                	c.li	a1,31
     c0e:	06400513          	li	a0,100
C:\Users\Admin\Desktop\test1\telink_b91m_driver_src\chip\B91\drivers/stimer.h:168
     c12:	801404b7          	lui	s1,0x80140
     c16:	20092403          	lw	s0,512(s2)
C:/Users/Admin/Desktop/test1/telink_b91m_driver_src/chip/B91/drivers/lib/src/pm.c:462
     c1a:	3699                	c.jal	760 <analog_write_reg8>
C:/Users/Admin/Desktop/test1/telink_b91m_driver_src/chip/B91/drivers/lib/src/pm.c:465
     c1c:	06400513          	li	a0,100
     c20:	b7dff0ef          	jal	ra,79c <analog_read_reg8>
C:\Users\Admin\Desktop\test1\telink_b91m_driver_src\chip\B91\drivers/stimer.h:168
     c24:	2004a783          	lw	a5,512(s1) # 80140200 <_DATA_LMA_START+0x60138228>
C:/Users/Admin/Desktop/test1/telink_b91m_driver_src/chip/B91/drivers/lib/src/pm.c:465
     c28:	897d                	c.andi	a0,31
C:/Users/Admin/Desktop/test1/telink_b91m_driver_src/chip/B91/drivers/lib/src/pm.c:466
     c2a:	8f81                	c.sub	a5,s0
     c2c:	0157f463          	bgeu	a5,s5,c34 <pm_sleep_wakeup_ram.constprop.2+0xcc>
     c30:	fe0506e3          	beqz	a0,c1c <pm_sleep_wakeup_ram.constprop.2+0xb4>
core_restore_interrupt():
C:\Users\Admin\Desktop\test1\telink_b91m_driver_src\chip\B91\drivers/core.h:117
     c34:	22098663          	beqz	s3,e60 <pm_sleep_wakeup_ram.constprop.2+0x2f8>
C:\Users\Admin\Desktop\test1\telink_b91m_driver_src\chip\B91\drivers/core.h:119
     c38:	3009a9f3          	csrrs	s3,mstatus,s3
     c3c:	2240006f          	j	e60 <pm_sleep_wakeup_ram.constprop.2+0x2f8>
pm_sleep_wakeup_ram():
C:/Users/Admin/Desktop/test1/telink_b91m_driver_src/chip/B91/drivers/lib/src/pm.c:481
     c40:	1e890a83          	lb	s5,488(s2)
C:/Users/Admin/Desktop/test1/telink_b91m_driver_src/chip/B91/drivers/lib/src/pm.c:482
     c44:	08faf793          	andi	a5,s5,143
     c48:	1ef90423          	sb	a5,488(s2)
C:/Users/Admin/Desktop/test1/telink_b91m_driver_src/chip/B91/drivers/lib/src/pm.c:483
     c4c:	1d890b03          	lb	s6,472(s2)
C:/Users/Admin/Desktop/test1/telink_b91m_driver_src/chip/B91/drivers/lib/src/pm.c:484
     c50:	0f8b7793          	andi	a5,s6,248
     c54:	1cf90c23          	sb	a5,472(s2)
C:/Users/Admin/Desktop/test1/telink_b91m_driver_src/chip/B91/drivers/lib/src/pm.c:492
     c58:	20890783          	lb	a5,520(s2)
     c5c:	0fe7f793          	andi	a5,a5,254
     c60:	20f90423          	sb	a5,520(s2)
C:/Users/Admin/Desktop/test1/telink_b91m_driver_src/chip/B91/drivers/lib/src/pm.c:493
     c64:	00100793          	li	a5,1
     c68:	20f90c23          	sb	a5,536(s2)
C:/Users/Admin/Desktop/test1/telink_b91m_driver_src/chip/B91/drivers/lib/src/pm.c:494
     c6c:	20a90783          	lb	a5,522(s2)
     c70:	0f77f793          	andi	a5,a5,247
     c74:	20f90523          	sb	a5,522(s2)
C:/Users/Admin/Desktop/test1/telink_b91m_driver_src/chip/B91/drivers/lib/src/pm.c:495
     c78:	815ff0ef          	jal	ra,48c <clock_get_32k_tick>
C:\Users\Admin\Desktop\test1\telink_b91m_driver_src\chip\B91\drivers/stimer.h:168
     c7c:	20092703          	lw	a4,512(s2)
C:/Users/Admin/Desktop/test1/telink_b91m_driver_src/chip/B91/drivers/lib/src/pm.c:497
     c80:	20b90783          	lb	a5,523(s2)
pm_update_32k_rc_sleep_tick():
C:/Users/Admin/Desktop/test1/telink_b91m_driver_src/chip/B91/drivers/lib/src/pm.c:362
     c84:	5454                	c.lw	a3,44(s0)
pm_sleep_wakeup_ram():
C:/Users/Admin/Desktop/test1/telink_b91m_driver_src/chip/B91/drivers/lib/src/pm.c:497
     c86:	0ff7f793          	andi	a5,a5,255
     c8a:	0027e793          	ori	a5,a5,2
C:/Users/Admin/Desktop/test1/telink_b91m_driver_src/chip/B91/drivers/lib/src/pm.c:495
     c8e:	c828                	c.sw	a0,80(s0)
C:/Users/Admin/Desktop/test1/telink_b91m_driver_src/chip/B91/drivers/lib/src/pm.c:496
     c90:	c458                	c.sw	a4,12(s0)
pm_update_32k_rc_sleep_tick():
C:/Users/Admin/Desktop/test1/telink_b91m_driver_src/chip/B91/drivers/lib/src/pm.c:363
     c92:	03844603          	lbu	a2,56(s0)
C:/Users/Admin/Desktop/test1/telink_b91m_driver_src/chip/B91/drivers/lib/src/pm.c:362
     c96:	40d506b3          	sub	a3,a0,a3
pm_sleep_wakeup_ram():
C:/Users/Admin/Desktop/test1/telink_b91m_driver_src/chip/B91/drivers/lib/src/pm.c:497
     c9a:	20f905a3          	sb	a5,523(s2)
pm_update_32k_rc_sleep_tick():
C:/Users/Admin/Desktop/test1/telink_b91m_driver_src/chip/B91/drivers/lib/src/pm.c:362
     c9e:	d814                	c.sw	a3,48(s0)
C:/Users/Admin/Desktop/test1/telink_b91m_driver_src/chip/B91/drivers/lib/src/pm.c:363
     ca0:	e215                	c.bnez	a2,cc4 <pm_sleep_wakeup_ram.constprop.2+0x15c>
     ca2:	481c                	c.lw	a5,16(s0)
     ca4:	c385                	c.beqz	a5,cc4 <pm_sleep_wakeup_ram.constprop.2+0x15c>
     ca6:	05444783          	lbu	a5,84(s0)
     caa:	ef89                	c.bnez	a5,cc4 <pm_sleep_wakeup_ram.constprop.2+0x15c>
     cac:	01442783          	lw	a5,20(s0)
     cb0:	000276b7          	lui	a3,0x27
     cb4:	40f507b3          	sub	a5,a0,a5
     cb8:	6c07a7db          	bfoz	a5,a5,27,0
     cbc:	10068693          	addi	a3,a3,256 # 27100 <BIN_SIZE+0x1f0f2>
     cc0:	00f6f863          	bgeu	a3,a5,cd0 <pm_sleep_wakeup_ram.constprop.2+0x168>
C:/Users/Admin/Desktop/test1/telink_b91m_driver_src/chip/B91/drivers/lib/src/pm.c:367
     cc4:	00176713          	ori	a4,a4,1
C:/Users/Admin/Desktop/test1/telink_b91m_driver_src/chip/B91/drivers/lib/src/pm.c:365
     cc8:	02040c23          	sb	zero,56(s0)
C:/Users/Admin/Desktop/test1/telink_b91m_driver_src/chip/B91/drivers/lib/src/pm.c:366
     ccc:	c848                	c.sw	a0,20(s0)
C:/Users/Admin/Desktop/test1/telink_b91m_driver_src/chip/B91/drivers/lib/src/pm.c:367
     cce:	c818                	c.sw	a4,16(s0)
pm_sleep_wakeup_ram():
C:/Users/Admin/Desktop/test1/telink_b91m_driver_src/chip/B91/drivers/lib/src/pm.c:513
     cd0:	02000593          	li	a1,32
     cd4:	04b00513          	li	a0,75
     cd8:	a89ff0ef          	jal	ra,760 <analog_write_reg8>
C:/Users/Admin/Desktop/test1/telink_b91m_driver_src/chip/B91/drivers/lib/src/pm.c:514
     cdc:	45fd                	c.li	a1,31
     cde:	06400513          	li	a0,100
     ce2:	3cbd                	c.jal	760 <analog_write_reg8>
C:/Users/Admin/Desktop/test1/telink_b91m_driver_src/chip/B91/drivers/lib/src/pm.c:516
     ce4:	03000593          	li	a1,48
     ce8:	07e00513          	li	a0,126
     cec:	a75ff0ef          	jal	ra,760 <analog_write_reg8>
C:/Users/Admin/Desktop/test1/telink_b91m_driver_src/chip/B91/drivers/lib/src/pm.c:561
     cf0:	0f900593          	li	a1,249
     cf4:	04d00513          	li	a0,77
     cf8:	a69ff0ef          	jal	ra,760 <analog_write_reg8>
C:/Users/Admin/Desktop/test1/telink_b91m_driver_src/chip/B91/drivers/lib/src/pm.c:563
     cfc:	4585                	c.li	a1,1
     cfe:	07f00513          	li	a0,127
     d02:	3cb9                	c.jal	760 <analog_write_reg8>
C:/Users/Admin/Desktop/test1/telink_b91m_driver_src/chip/B91/drivers/lib/src/pm.c:565
     d04:	04c41783          	lh	a5,76(s0)
C:/Users/Admin/Desktop/test1/telink_b91m_driver_src/chip/B91/drivers/lib/src/pm.c:598
     d08:	0ee00593          	li	a1,238
C:/Users/Admin/Desktop/test1/telink_b91m_driver_src/chip/B91/drivers/lib/src/pm.c:594
     d0c:	1137a7db          	bfoz	a5,a5,4,19
C:/Users/Admin/Desktop/test1/telink_b91m_driver_src/chip/B91/drivers/lib/src/pm.c:598
     d10:	04c00513          	li	a0,76
C:/Users/Admin/Desktop/test1/telink_b91m_driver_src/chip/B91/drivers/lib/src/pm.c:594
     d14:	40fa0933          	sub	s2,s4,a5
C:/Users/Admin/Desktop/test1/telink_b91m_driver_src/chip/B91/drivers/lib/src/pm.c:598
     d18:	a49ff0ef          	jal	ra,760 <analog_write_reg8>
C:/Users/Admin/Desktop/test1/telink_b91m_driver_src/chip/B91/drivers/lib/src/pm.c:620
     d1c:	05841583          	lh	a1,88(s0)
     d20:	04000513          	li	a0,64
     d24:	0ff5f593          	andi	a1,a1,255
     d28:	a39ff0ef          	jal	ra,760 <analog_write_reg8>
C:/Users/Admin/Desktop/test1/telink_b91m_driver_src/chip/B91/drivers/lib/src/pm.c:639
     d2c:	481c                	c.lw	a5,16(s0)
     d2e:	07ff0737          	lui	a4,0x7ff0
     d32:	40f907b3          	sub	a5,s2,a5
     d36:	00f77763          	bgeu	a4,a5,d44 <pm_sleep_wakeup_ram.constprop.2+0x1dc>
C:/Users/Admin/Desktop/test1/telink_b91m_driver_src/chip/B91/drivers/lib/src/pm.c:640
     d3a:	4705                	c.li	a4,1
     d3c:	00e40423          	sb	a4,8(s0)
     d40:	0080006f          	j	d48 <pm_sleep_wakeup_ram.constprop.2+0x1e0>
C:/Users/Admin/Desktop/test1/telink_b91m_driver_src/chip/B91/drivers/lib/src/pm.c:643
     d44:	00040423          	sb	zero,8(s0)
C:/Users/Admin/Desktop/test1/telink_b91m_driver_src/chip/B91/drivers/lib/src/pm.c:647
     d48:	00844683          	lbu	a3,8(s0)
     d4c:	4848                	c.lw	a0,20(s0)
     d4e:	5c58                	c.lw	a4,60(s0)
     d50:	c691                	c.beqz	a3,d5c <pm_sleep_wakeup_ram.constprop.2+0x1f4>
C:/Users/Admin/Desktop/test1/telink_b91m_driver_src/chip/B91/drivers/lib/src/pm.c:648
     d52:	02e7d7b3          	divu	a5,a5,a4
     d56:	0796                	c.slli	a5,0x5
     d58:	953e                	c.add	a0,a5
     d5a:	a039                	c.j	d68 <pm_sleep_wakeup_ram.constprop.2+0x200>
C:/Users/Admin/Desktop/test1/telink_b91m_driver_src/chip/B91/drivers/lib/src/pm.c:453
     d5c:	8085                	c.srli	s1,0x1
C:/Users/Admin/Desktop/test1/telink_b91m_driver_src/chip/B91/drivers/lib/src/pm.c:651
     d5e:	0796                	c.slli	a5,0x5
     d60:	97a6                	c.add	a5,s1
     d62:	02e7d7b3          	divu	a5,a5,a4
     d66:	953e                	c.add	a0,a5
C:/Users/Admin/Desktop/test1/telink_b91m_driver_src/chip/B91/drivers/lib/src/pm.c:656
     d68:	d64ff0ef          	jal	ra,2cc <clock_set_32k_tick>
pm_get_wakeup_src():
C:\Users\Admin\Desktop\test1\telink_b91m_driver_src\chip\B91\drivers/lib/include/pm.h:224
     d6c:	06400513          	li	a0,100
     d70:	a2dff0ef          	jal	ra,79c <analog_read_reg8>
pm_sleep_wakeup_ram():
C:/Users/Admin/Desktop/test1/telink_b91m_driver_src/chip/B91/drivers/lib/src/pm.c:673
     d74:	01f57513          	andi	a0,a0,31
     d78:	e511                	c.bnez	a0,d84 <pm_sleep_wakeup_ram.constprop.2+0x21c>
C:/Users/Admin/Desktop/test1/telink_b91m_driver_src/chip/B91/drivers/lib/src/pm.c:681
     d7a:	39a9                	c.jal	9d4 <pm_sleep_start>
C:/Users/Admin/Desktop/test1/telink_b91m_driver_src/chip/B91/drivers/lib/src/pm.c:683
     d7c:	4585                	c.li	a1,1
     d7e:	07f00513          	li	a0,127
     d82:	3af9                	c.jal	760 <analog_write_reg8>
C:/Users/Admin/Desktop/test1/telink_b91m_driver_src/chip/B91/drivers/lib/src/pm.c:692
     d84:	80140737          	lui	a4,0x80140
     d88:	02000793          	li	a5,32
     d8c:	1ef707a3          	sb	a5,495(a4) # 801401ef <_DATA_LMA_START+0x60138217>
C:/Users/Admin/Desktop/test1/telink_b91m_driver_src/chip/B91/drivers/lib/src/pm.c:695
     d90:	00200793          	li	a5,2
     d94:	20f70c23          	sb	a5,536(a4)
C:/Users/Admin/Desktop/test1/telink_b91m_driver_src/chip/B91/drivers/lib/src/pm.c:696
     d98:	20a70783          	lb	a5,522(a4)
     d9c:	0ff7f793          	andi	a5,a5,255
     da0:	00c7e793          	ori	a5,a5,12
     da4:	20f70523          	sb	a5,522(a4)
C:/Users/Admin/Desktop/test1/telink_b91m_driver_src/chip/B91/drivers/lib/src/pm.c:697
     da8:	ee4ff0ef          	jal	ra,48c <clock_get_32k_tick>
C:/Users/Admin/Desktop/test1/telink_b91m_driver_src/chip/B91/drivers/lib/src/pm.c:698
     dac:	00844783          	lbu	a5,8(s0)
     db0:	cf81                	c.beqz	a5,dc8 <pm_sleep_wakeup_ram.constprop.2+0x260>
C:/Users/Admin/Desktop/test1/telink_b91m_driver_src/chip/B91/drivers/lib/src/pm.c:699
     db2:	485c                	c.lw	a5,20(s0)
     db4:	5c54                	c.lw	a3,60(s0)
     db6:	40f507b3          	sub	a5,a0,a5
     dba:	4818                	c.lw	a4,16(s0)
     dbc:	0785                	c.addi	a5,1
     dbe:	8395                	c.srli	a5,0x5
     dc0:	c4d7977f          	maddr32	a4,a5,a3
     dc4:	c458                	c.sw	a4,12(s0)
     dc6:	a829                	c.j	de0 <pm_sleep_wakeup_ram.constprop.2+0x278>
C:/Users/Admin/Desktop/test1/telink_b91m_driver_src/chip/B91/drivers/lib/src/pm.c:701
     dc8:	485c                	c.lw	a5,20(s0)
     dca:	5c58                	c.lw	a4,60(s0)
     dcc:	40f507b3          	sub	a5,a0,a5
     dd0:	0785                	c.addi	a5,1
     dd2:	02e787b3          	mul	a5,a5,a4
     dd6:	4818                	c.lw	a4,16(s0)
     dd8:	8395                	c.srli	a5,0x5
     dda:	97ba                	c.add	a5,a4
     ddc:	00f42623          	sw	a5,12(s0)
C:/Users/Admin/Desktop/test1/telink_b91m_driver_src/chip/B91/drivers/lib/src/pm.c:704
     de0:	4858                	c.lw	a4,20(s0)
C:/Users/Admin/Desktop/test1/telink_b91m_driver_src/chip/B91/drivers/lib/src/pm.c:705
     de2:	4454                	c.lw	a3,12(s0)
C:/Users/Admin/Desktop/test1/telink_b91m_driver_src/chip/B91/drivers/lib/src/pm.c:704
     de4:	40e50733          	sub	a4,a0,a4
     de8:	0705                	c.addi	a4,1
C:/Users/Admin/Desktop/test1/telink_b91m_driver_src/chip/B91/drivers/lib/src/pm.c:703
     dea:	0505                	c.addi	a0,1
C:/Users/Admin/Desktop/test1/telink_b91m_driver_src/chip/B91/drivers/lib/src/pm.c:704
     dec:	d418                	c.sw	a4,40(s0)
C:/Users/Admin/Desktop/test1/telink_b91m_driver_src/chip/B91/drivers/lib/src/pm.c:705
     dee:	0685                	c.addi	a3,1
C:/Users/Admin/Desktop/test1/telink_b91m_driver_src/chip/B91/drivers/lib/src/pm.c:703
     df0:	02a42623          	sw	a0,44(s0)
C:/Users/Admin/Desktop/test1/telink_b91m_driver_src/chip/B91/drivers/lib/src/pm.c:705
     df4:	80140737          	lui	a4,0x80140
C:/Users/Admin/Desktop/test1/telink_b91m_driver_src/chip/B91/drivers/lib/src/pm.c:717
     df8:	801407b7          	lui	a5,0x80140
C:/Users/Admin/Desktop/test1/telink_b91m_driver_src/chip/B91/drivers/lib/src/pm.c:705
     dfc:	20d72023          	sw	a3,512(a4) # 80140200 <_DATA_LMA_START+0x60138228>
C:/Users/Admin/Desktop/test1/telink_b91m_driver_src/chip/B91/drivers/lib/src/pm.c:717
     e00:	20b78703          	lb	a4,523(a5) # 8014020b <_DATA_LMA_START+0x60138233>
     e04:	be777e5b          	bbc	a4,7,e00 <pm_sleep_wakeup_ram.constprop.2+0x298>
C:/Users/Admin/Desktop/test1/telink_b91m_driver_src/chip/B91/drivers/lib/src/pm.c:718
     e08:	20078c23          	sb	zero,536(a5)
C:/Users/Admin/Desktop/test1/telink_b91m_driver_src/chip/B91/drivers/lib/src/pm.c:719
     e0c:	20878703          	lb	a4,520(a5)
pm_get_wakeup_src():
C:\Users\Admin\Desktop\test1\telink_b91m_driver_src\chip\B91\drivers/lib/include/pm.h:224
     e10:	06400513          	li	a0,100
pm_sleep_wakeup_ram():
C:/Users/Admin/Desktop/test1/telink_b91m_driver_src/chip/B91/drivers/lib/src/pm.c:719
     e14:	0ff77713          	andi	a4,a4,255
     e18:	00176713          	ori	a4,a4,1
     e1c:	20e78423          	sb	a4,520(a5)
C:/Users/Admin/Desktop/test1/telink_b91m_driver_src/chip/B91/drivers/lib/src/pm.c:746
     e20:	1d678c23          	sb	s6,472(a5)
C:/Users/Admin/Desktop/test1/telink_b91m_driver_src/chip/B91/drivers/lib/src/pm.c:747
     e24:	1f578423          	sb	s5,488(a5)
pm_get_wakeup_src():
C:\Users\Admin\Desktop\test1\telink_b91m_driver_src\chip\B91\drivers/lib/include/pm.h:224
     e28:	975ff0ef          	jal	ra,79c <analog_read_reg8>
     e2c:	00a00733          	add	a4,zero,a0
pm_sleep_wakeup_ram():
C:/Users/Admin/Desktop/test1/telink_b91m_driver_src/chip/B91/drivers/lib/src/pm.c:756
     e30:	00157c5b          	bbc	a0,1,e48 <pm_sleep_wakeup_ram.constprop.2+0x2e0>
C:\Users\Admin\Desktop\test1\telink_b91m_driver_src\chip\B91\drivers/stimer.h:168
     e34:	80140637          	lui	a2,0x80140
C:/Users/Admin/Desktop/test1/telink_b91m_driver_src/chip/B91/drivers/lib/src/pm.c:759
     e38:	400006b7          	lui	a3,0x40000
C:\Users\Admin\Desktop\test1\telink_b91m_driver_src\chip\B91\drivers/stimer.h:168
     e3c:	20062783          	lw	a5,512(a2) # 80140200 <_DATA_LMA_START+0x60138228>
C:/Users/Admin/Desktop/test1/telink_b91m_driver_src/chip/B91/drivers/lib/src/pm.c:759
     e40:	414787b3          	sub	a5,a5,s4
     e44:	fef6ece3          	bltu	a3,a5,e3c <pm_sleep_wakeup_ram.constprop.2+0x2d4>
core_restore_interrupt():
C:\Users\Admin\Desktop\test1\telink_b91m_driver_src\chip\B91\drivers/core.h:117
     e48:	00098463          	beqz	s3,e50 <pm_sleep_wakeup_ram.constprop.2+0x2e8>
C:\Users\Admin\Desktop\test1\telink_b91m_driver_src\chip\B91\drivers/core.h:119
     e4c:	3009a9f3          	csrrs	s3,mstatus,s3
pm_sleep_wakeup_ram():
C:/Users/Admin/Desktop/test1/telink_b91m_driver_src/chip/B91/drivers/lib/src/pm.c:772
     e50:	08000513          	li	a0,128
     e54:	00070663          	beqz	a4,e60 <pm_sleep_wakeup_ram.constprop.2+0x2f8>
     e58:	400007b7          	lui	a5,0x40000
     e5c:	00f76533          	or	a0,a4,a5
C:/Users/Admin/Desktop/test1/telink_b91m_driver_src/chip/B91/drivers/lib/src/pm.c:774
     e60:	40f2                	c.lwsp	ra,28(sp)
     e62:	4462                	c.lwsp	s0,24(sp)
     e64:	44d2                	c.lwsp	s1,20(sp)
     e66:	4942                	c.lwsp	s2,16(sp)
     e68:	49b2                	c.lwsp	s3,12(sp)
     e6a:	4a22                	c.lwsp	s4,8(sp)
     e6c:	4a92                	c.lwsp	s5,4(sp)
     e6e:	4b02                	c.lwsp	s6,0(sp)
     e70:	6105                	c.addi16sp	sp,32
     e72:	8082                	c.jr	ra

00000e74 <entry_irq63>:
entry_irq63():
E:/promotion/gitlab/telink_b91m_driver_sdk/telink_b91m_driver_sdk/demo/vendor/common/B91/plic_isr.c:731
 * @brief eoc interrupt handler.
 * @return none
 */
_attribute_ram_code_sec_noinline_ void  entry_irq63(void) __attribute__ ((interrupt ("machine") , aligned(4)));
void  entry_irq63(void)
{
     e74:	1141                	c.addi	sp,-16
     e76:	c03e                	c.swsp	a5,0(sp)
plic_isr():
C:/Users/Admin/Desktop/test1/telink_b91m_driver_src/chip/B91/drivers/lib/src/plic.c:97
     e78:	000007b7          	lui	a5,0x0
     e7c:	15878793          	addi	a5,a5,344 # 158 <_AES_VMA_END>
entry_irq63():
E:/promotion/gitlab/telink_b91m_driver_sdk/telink_b91m_driver_sdk/demo/vendor/common/B91/plic_isr.c:731
     e80:	c632                	c.swsp	a2,12(sp)
     e82:	c436                	c.swsp	a3,8(sp)
     e84:	c23a                	c.swsp	a4,4(sp)
plic_isr():
C:/Users/Admin/Desktop/test1/telink_b91m_driver_src/chip/B91/drivers/lib/src/plic.c:97
     e86:	04078783          	lb	a5,64(a5)
     e8a:	0ff7f793          	andi	a5,a5,255
     e8e:	ef89                	c.bnez	a5,ea8 <entry_irq63+0x34>
plic_interrupt_complete():
C:\Users\Admin\Desktop\test1\telink_b91m_driver_src\chip\B91\drivers/lib/include/plic.h:281
     e90:	e42007b7          	lui	a5,0xe4200
     e94:	03f00713          	li	a4,63
     e98:	c3d8                	c.sw	a4,4(a5)
entry_irq63():
E:/promotion/gitlab/telink_b91m_driver_sdk/telink_b91m_driver_sdk/demo/vendor/common/B91/plic_isr.c:733
	plic_isr(eoc_irq_handler,IRQ63_EOC);
}
     e9a:	4632                	c.lwsp	a2,12(sp)
     e9c:	46a2                	c.lwsp	a3,8(sp)
     e9e:	4712                	c.lwsp	a4,4(sp)
     ea0:	4782                	c.lwsp	a5,0(sp)
     ea2:	0141                	c.addi	sp,16
     ea4:	30200073          	mret
plic_isr():
C:/Users/Admin/Desktop/test1/telink_b91m_driver_src/chip/B91/drivers/lib/src/plic.c:99
     ea8:	34102773          	csrr	a4,mepc
     eac:	300026f3          	csrr	a3,mstatus
     eb0:	7c4027f3          	csrr	a5,mxstatus
     eb4:	30046673          	csrrsi	a2,mstatus,8
C:/Users/Admin/Desktop/test1/telink_b91m_driver_src/chip/B91/drivers/lib/src/plic.c:101
     eb8:	30047673          	csrrci	a2,mstatus,8
     ebc:	30069073          	csrw	mstatus,a3
     ec0:	34171073          	csrw	mepc,a4
     ec4:	7c479073          	csrw	mxstatus,a5
plic_interrupt_complete():
C:\Users\Admin\Desktop\test1\telink_b91m_driver_src\chip\B91\drivers/lib/include/plic.h:281
     ec8:	e42007b7          	lui	a5,0xe4200
     ecc:	03f00713          	li	a4,63
     ed0:	c3d8                	c.sw	a4,4(a5)
plic_isr():
C:/Users/Admin/Desktop/test1/telink_b91m_driver_src/chip/B91/drivers/lib/src/plic.c:103
     ed2:	0ff0000f          	fence
entry_irq63():
E:/promotion/gitlab/telink_b91m_driver_sdk/telink_b91m_driver_sdk/demo/vendor/common/B91/plic_isr.c:733
     ed6:	4632                	c.lwsp	a2,12(sp)
     ed8:	46a2                	c.lwsp	a3,8(sp)
     eda:	4712                	c.lwsp	a4,4(sp)
     edc:	4782                	c.lwsp	a5,0(sp)
     ede:	0141                	c.addi	sp,16
     ee0:	30200073          	mret

00000ee4 <entry_irq62>:
entry_irq62():
E:/promotion/gitlab/telink_b91m_driver_sdk/telink_b91m_driver_sdk/demo/vendor/common/B91/plic_isr.c:722
{
     ee4:	1141                	c.addi	sp,-16
     ee6:	c03e                	c.swsp	a5,0(sp)
plic_isr():
C:/Users/Admin/Desktop/test1/telink_b91m_driver_src/chip/B91/drivers/lib/src/plic.c:97
     ee8:	000007b7          	lui	a5,0x0
     eec:	15878793          	addi	a5,a5,344 # 158 <_AES_VMA_END>
entry_irq62():
E:/promotion/gitlab/telink_b91m_driver_sdk/telink_b91m_driver_sdk/demo/vendor/common/B91/plic_isr.c:722
     ef0:	c632                	c.swsp	a2,12(sp)
     ef2:	c436                	c.swsp	a3,8(sp)
     ef4:	c23a                	c.swsp	a4,4(sp)
plic_isr():
C:/Users/Admin/Desktop/test1/telink_b91m_driver_src/chip/B91/drivers/lib/src/plic.c:97
     ef6:	04078783          	lb	a5,64(a5)
     efa:	0ff7f793          	andi	a5,a5,255
     efe:	ef89                	c.bnez	a5,f18 <entry_irq62+0x34>
plic_interrupt_complete():
C:\Users\Admin\Desktop\test1\telink_b91m_driver_src\chip\B91\drivers/lib/include/plic.h:281
     f00:	e42007b7          	lui	a5,0xe4200
     f04:	03e00713          	li	a4,62
     f08:	c3d8                	c.sw	a4,4(a5)
entry_irq62():
E:/promotion/gitlab/telink_b91m_driver_sdk/telink_b91m_driver_sdk/demo/vendor/common/B91/plic_isr.c:724
}
     f0a:	4632                	c.lwsp	a2,12(sp)
     f0c:	46a2                	c.lwsp	a3,8(sp)
     f0e:	4712                	c.lwsp	a4,4(sp)
     f10:	4782                	c.lwsp	a5,0(sp)
     f12:	0141                	c.addi	sp,16
     f14:	30200073          	mret
plic_isr():
C:/Users/Admin/Desktop/test1/telink_b91m_driver_src/chip/B91/drivers/lib/src/plic.c:99
     f18:	34102773          	csrr	a4,mepc
     f1c:	300026f3          	csrr	a3,mstatus
     f20:	7c4027f3          	csrr	a5,mxstatus
     f24:	30046673          	csrrsi	a2,mstatus,8
C:/Users/Admin/Desktop/test1/telink_b91m_driver_src/chip/B91/drivers/lib/src/plic.c:101
     f28:	30047673          	csrrci	a2,mstatus,8
     f2c:	30069073          	csrw	mstatus,a3
     f30:	34171073          	csrw	mepc,a4
     f34:	7c479073          	csrw	mxstatus,a5
plic_interrupt_complete():
C:\Users\Admin\Desktop\test1\telink_b91m_driver_src\chip\B91\drivers/lib/include/plic.h:281
     f38:	e42007b7          	lui	a5,0xe4200
     f3c:	03e00713          	li	a4,62
     f40:	c3d8                	c.sw	a4,4(a5)
plic_isr():
C:/Users/Admin/Desktop/test1/telink_b91m_driver_src/chip/B91/drivers/lib/src/plic.c:103
     f42:	0ff0000f          	fence
entry_irq62():
E:/promotion/gitlab/telink_b91m_driver_sdk/telink_b91m_driver_sdk/demo/vendor/common/B91/plic_isr.c:724
     f46:	4632                	c.lwsp	a2,12(sp)
     f48:	46a2                	c.lwsp	a3,8(sp)
     f4a:	4712                	c.lwsp	a4,4(sp)
     f4c:	4782                	c.lwsp	a5,0(sp)
     f4e:	0141                	c.addi	sp,16
     f50:	30200073          	mret

00000f54 <entry_irq61>:
entry_irq61():
E:/promotion/gitlab/telink_b91m_driver_sdk/telink_b91m_driver_sdk/demo/vendor/common/B91/plic_isr.c:713
{
     f54:	1141                	c.addi	sp,-16
     f56:	c03e                	c.swsp	a5,0(sp)
plic_isr():
C:/Users/Admin/Desktop/test1/telink_b91m_driver_src/chip/B91/drivers/lib/src/plic.c:97
     f58:	000007b7          	lui	a5,0x0
     f5c:	15878793          	addi	a5,a5,344 # 158 <_AES_VMA_END>
entry_irq61():
E:/promotion/gitlab/telink_b91m_driver_sdk/telink_b91m_driver_sdk/demo/vendor/common/B91/plic_isr.c:713
     f60:	c632                	c.swsp	a2,12(sp)
     f62:	c436                	c.swsp	a3,8(sp)
     f64:	c23a                	c.swsp	a4,4(sp)
plic_isr():
C:/Users/Admin/Desktop/test1/telink_b91m_driver_src/chip/B91/drivers/lib/src/plic.c:97
     f66:	04078783          	lb	a5,64(a5)
     f6a:	0ff7f793          	andi	a5,a5,255
     f6e:	ef89                	c.bnez	a5,f88 <entry_irq61+0x34>
plic_interrupt_complete():
C:\Users\Admin\Desktop\test1\telink_b91m_driver_src\chip\B91\drivers/lib/include/plic.h:281
     f70:	e42007b7          	lui	a5,0xe4200
     f74:	03d00713          	li	a4,61
     f78:	c3d8                	c.sw	a4,4(a5)
entry_irq61():
E:/promotion/gitlab/telink_b91m_driver_sdk/telink_b91m_driver_sdk/demo/vendor/common/B91/plic_isr.c:715
}
     f7a:	4632                	c.lwsp	a2,12(sp)
     f7c:	46a2                	c.lwsp	a3,8(sp)
     f7e:	4712                	c.lwsp	a4,4(sp)
     f80:	4782                	c.lwsp	a5,0(sp)
     f82:	0141                	c.addi	sp,16
     f84:	30200073          	mret
plic_isr():
C:/Users/Admin/Desktop/test1/telink_b91m_driver_src/chip/B91/drivers/lib/src/plic.c:99
     f88:	34102773          	csrr	a4,mepc
     f8c:	300026f3          	csrr	a3,mstatus
     f90:	7c4027f3          	csrr	a5,mxstatus
     f94:	30046673          	csrrsi	a2,mstatus,8
C:/Users/Admin/Desktop/test1/telink_b91m_driver_src/chip/B91/drivers/lib/src/plic.c:101
     f98:	30047673          	csrrci	a2,mstatus,8
     f9c:	30069073          	csrw	mstatus,a3
     fa0:	34171073          	csrw	mepc,a4
     fa4:	7c479073          	csrw	mxstatus,a5
plic_interrupt_complete():
C:\Users\Admin\Desktop\test1\telink_b91m_driver_src\chip\B91\drivers/lib/include/plic.h:281
     fa8:	e42007b7          	lui	a5,0xe4200
     fac:	03d00713          	li	a4,61
     fb0:	c3d8                	c.sw	a4,4(a5)
plic_isr():
C:/Users/Admin/Desktop/test1/telink_b91m_driver_src/chip/B91/drivers/lib/src/plic.c:103
     fb2:	0ff0000f          	fence
entry_irq61():
E:/promotion/gitlab/telink_b91m_driver_sdk/telink_b91m_driver_sdk/demo/vendor/common/B91/plic_isr.c:715
     fb6:	4632                	c.lwsp	a2,12(sp)
     fb8:	46a2                	c.lwsp	a3,8(sp)
     fba:	4712                	c.lwsp	a4,4(sp)
     fbc:	4782                	c.lwsp	a5,0(sp)
     fbe:	0141                	c.addi	sp,16
     fc0:	30200073          	mret

00000fc4 <entry_irq60>:
entry_irq60():
E:/promotion/gitlab/telink_b91m_driver_sdk/telink_b91m_driver_sdk/demo/vendor/common/B91/plic_isr.c:704
{
     fc4:	1141                	c.addi	sp,-16
     fc6:	c03e                	c.swsp	a5,0(sp)
plic_isr():
C:/Users/Admin/Desktop/test1/telink_b91m_driver_src/chip/B91/drivers/lib/src/plic.c:97
     fc8:	000007b7          	lui	a5,0x0
     fcc:	15878793          	addi	a5,a5,344 # 158 <_AES_VMA_END>
entry_irq60():
E:/promotion/gitlab/telink_b91m_driver_sdk/telink_b91m_driver_sdk/demo/vendor/common/B91/plic_isr.c:704
     fd0:	c632                	c.swsp	a2,12(sp)
     fd2:	c436                	c.swsp	a3,8(sp)
     fd4:	c23a                	c.swsp	a4,4(sp)
plic_isr():
C:/Users/Admin/Desktop/test1/telink_b91m_driver_src/chip/B91/drivers/lib/src/plic.c:97
     fd6:	04078783          	lb	a5,64(a5)
     fda:	0ff7f793          	andi	a5,a5,255
     fde:	ef89                	c.bnez	a5,ff8 <entry_irq60+0x34>
plic_interrupt_complete():
C:\Users\Admin\Desktop\test1\telink_b91m_driver_src\chip\B91\drivers/lib/include/plic.h:281
     fe0:	e42007b7          	lui	a5,0xe4200
     fe4:	03c00713          	li	a4,60
     fe8:	c3d8                	c.sw	a4,4(a5)
entry_irq60():
E:/promotion/gitlab/telink_b91m_driver_sdk/telink_b91m_driver_sdk/demo/vendor/common/B91/plic_isr.c:706
}
     fea:	4632                	c.lwsp	a2,12(sp)
     fec:	46a2                	c.lwsp	a3,8(sp)
     fee:	4712                	c.lwsp	a4,4(sp)
     ff0:	4782                	c.lwsp	a5,0(sp)
     ff2:	0141                	c.addi	sp,16
     ff4:	30200073          	mret
plic_isr():
C:/Users/Admin/Desktop/test1/telink_b91m_driver_src/chip/B91/drivers/lib/src/plic.c:99
     ff8:	34102773          	csrr	a4,mepc
     ffc:	300026f3          	csrr	a3,mstatus
    1000:	7c4027f3          	csrr	a5,mxstatus
    1004:	30046673          	csrrsi	a2,mstatus,8
C:/Users/Admin/Desktop/test1/telink_b91m_driver_src/chip/B91/drivers/lib/src/plic.c:101
    1008:	30047673          	csrrci	a2,mstatus,8
    100c:	30069073          	csrw	mstatus,a3
    1010:	34171073          	csrw	mepc,a4
    1014:	7c479073          	csrw	mxstatus,a5
plic_interrupt_complete():
C:\Users\Admin\Desktop\test1\telink_b91m_driver_src\chip\B91\drivers/lib/include/plic.h:281
    1018:	e42007b7          	lui	a5,0xe4200
    101c:	03c00713          	li	a4,60
    1020:	c3d8                	c.sw	a4,4(a5)
plic_isr():
C:/Users/Admin/Desktop/test1/telink_b91m_driver_src/chip/B91/drivers/lib/src/plic.c:103
    1022:	0ff0000f          	fence
entry_irq60():
E:/promotion/gitlab/telink_b91m_driver_sdk/telink_b91m_driver_sdk/demo/vendor/common/B91/plic_isr.c:706
    1026:	4632                	c.lwsp	a2,12(sp)
    1028:	46a2                	c.lwsp	a3,8(sp)
    102a:	4712                	c.lwsp	a4,4(sp)
    102c:	4782                	c.lwsp	a5,0(sp)
    102e:	0141                	c.addi	sp,16
    1030:	30200073          	mret

00001034 <entry_irq59>:
entry_irq59():
E:/promotion/gitlab/telink_b91m_driver_sdk/telink_b91m_driver_sdk/demo/vendor/common/B91/plic_isr.c:695
{
    1034:	1141                	c.addi	sp,-16
    1036:	c03e                	c.swsp	a5,0(sp)
plic_isr():
C:/Users/Admin/Desktop/test1/telink_b91m_driver_src/chip/B91/drivers/lib/src/plic.c:97
    1038:	000007b7          	lui	a5,0x0
    103c:	15878793          	addi	a5,a5,344 # 158 <_AES_VMA_END>
entry_irq59():
E:/promotion/gitlab/telink_b91m_driver_sdk/telink_b91m_driver_sdk/demo/vendor/common/B91/plic_isr.c:695
    1040:	c632                	c.swsp	a2,12(sp)
    1042:	c436                	c.swsp	a3,8(sp)
    1044:	c23a                	c.swsp	a4,4(sp)
plic_isr():
C:/Users/Admin/Desktop/test1/telink_b91m_driver_src/chip/B91/drivers/lib/src/plic.c:97
    1046:	04078783          	lb	a5,64(a5)
    104a:	0ff7f793          	andi	a5,a5,255
    104e:	ef89                	c.bnez	a5,1068 <entry_irq59+0x34>
plic_interrupt_complete():
C:\Users\Admin\Desktop\test1\telink_b91m_driver_src\chip\B91\drivers/lib/include/plic.h:281
    1050:	e42007b7          	lui	a5,0xe4200
    1054:	03b00713          	li	a4,59
    1058:	c3d8                	c.sw	a4,4(a5)
entry_irq59():
E:/promotion/gitlab/telink_b91m_driver_sdk/telink_b91m_driver_sdk/demo/vendor/common/B91/plic_isr.c:697
}
    105a:	4632                	c.lwsp	a2,12(sp)
    105c:	46a2                	c.lwsp	a3,8(sp)
    105e:	4712                	c.lwsp	a4,4(sp)
    1060:	4782                	c.lwsp	a5,0(sp)
    1062:	0141                	c.addi	sp,16
    1064:	30200073          	mret
plic_isr():
C:/Users/Admin/Desktop/test1/telink_b91m_driver_src/chip/B91/drivers/lib/src/plic.c:99
    1068:	34102773          	csrr	a4,mepc
    106c:	300026f3          	csrr	a3,mstatus
    1070:	7c4027f3          	csrr	a5,mxstatus
    1074:	30046673          	csrrsi	a2,mstatus,8
C:/Users/Admin/Desktop/test1/telink_b91m_driver_src/chip/B91/drivers/lib/src/plic.c:101
    1078:	30047673          	csrrci	a2,mstatus,8
    107c:	30069073          	csrw	mstatus,a3
    1080:	34171073          	csrw	mepc,a4
    1084:	7c479073          	csrw	mxstatus,a5
plic_interrupt_complete():
C:\Users\Admin\Desktop\test1\telink_b91m_driver_src\chip\B91\drivers/lib/include/plic.h:281
    1088:	e42007b7          	lui	a5,0xe4200
    108c:	03b00713          	li	a4,59
    1090:	c3d8                	c.sw	a4,4(a5)
plic_isr():
C:/Users/Admin/Desktop/test1/telink_b91m_driver_src/chip/B91/drivers/lib/src/plic.c:103
    1092:	0ff0000f          	fence
entry_irq59():
E:/promotion/gitlab/telink_b91m_driver_sdk/telink_b91m_driver_sdk/demo/vendor/common/B91/plic_isr.c:697
    1096:	4632                	c.lwsp	a2,12(sp)
    1098:	46a2                	c.lwsp	a3,8(sp)
    109a:	4712                	c.lwsp	a4,4(sp)
    109c:	4782                	c.lwsp	a5,0(sp)
    109e:	0141                	c.addi	sp,16
    10a0:	30200073          	mret

000010a4 <entry_irq58>:
entry_irq58():
E:/promotion/gitlab/telink_b91m_driver_sdk/telink_b91m_driver_sdk/demo/vendor/common/B91/plic_isr.c:686
{
    10a4:	1141                	c.addi	sp,-16
    10a6:	c03e                	c.swsp	a5,0(sp)
plic_isr():
C:/Users/Admin/Desktop/test1/telink_b91m_driver_src/chip/B91/drivers/lib/src/plic.c:97
    10a8:	000007b7          	lui	a5,0x0
    10ac:	15878793          	addi	a5,a5,344 # 158 <_AES_VMA_END>
entry_irq58():
E:/promotion/gitlab/telink_b91m_driver_sdk/telink_b91m_driver_sdk/demo/vendor/common/B91/plic_isr.c:686
    10b0:	c632                	c.swsp	a2,12(sp)
    10b2:	c436                	c.swsp	a3,8(sp)
    10b4:	c23a                	c.swsp	a4,4(sp)
plic_isr():
C:/Users/Admin/Desktop/test1/telink_b91m_driver_src/chip/B91/drivers/lib/src/plic.c:97
    10b6:	04078783          	lb	a5,64(a5)
    10ba:	0ff7f793          	andi	a5,a5,255
    10be:	ef89                	c.bnez	a5,10d8 <entry_irq58+0x34>
plic_interrupt_complete():
C:\Users\Admin\Desktop\test1\telink_b91m_driver_src\chip\B91\drivers/lib/include/plic.h:281
    10c0:	e42007b7          	lui	a5,0xe4200
    10c4:	03a00713          	li	a4,58
    10c8:	c3d8                	c.sw	a4,4(a5)
entry_irq58():
E:/promotion/gitlab/telink_b91m_driver_sdk/telink_b91m_driver_sdk/demo/vendor/common/B91/plic_isr.c:688
}
    10ca:	4632                	c.lwsp	a2,12(sp)
    10cc:	46a2                	c.lwsp	a3,8(sp)
    10ce:	4712                	c.lwsp	a4,4(sp)
    10d0:	4782                	c.lwsp	a5,0(sp)
    10d2:	0141                	c.addi	sp,16
    10d4:	30200073          	mret
plic_isr():
C:/Users/Admin/Desktop/test1/telink_b91m_driver_src/chip/B91/drivers/lib/src/plic.c:99
    10d8:	34102773          	csrr	a4,mepc
    10dc:	300026f3          	csrr	a3,mstatus
    10e0:	7c4027f3          	csrr	a5,mxstatus
    10e4:	30046673          	csrrsi	a2,mstatus,8
C:/Users/Admin/Desktop/test1/telink_b91m_driver_src/chip/B91/drivers/lib/src/plic.c:101
    10e8:	30047673          	csrrci	a2,mstatus,8
    10ec:	30069073          	csrw	mstatus,a3
    10f0:	34171073          	csrw	mepc,a4
    10f4:	7c479073          	csrw	mxstatus,a5
plic_interrupt_complete():
C:\Users\Admin\Desktop\test1\telink_b91m_driver_src\chip\B91\drivers/lib/include/plic.h:281
    10f8:	e42007b7          	lui	a5,0xe4200
    10fc:	03a00713          	li	a4,58
    1100:	c3d8                	c.sw	a4,4(a5)
plic_isr():
C:/Users/Admin/Desktop/test1/telink_b91m_driver_src/chip/B91/drivers/lib/src/plic.c:103
    1102:	0ff0000f          	fence
entry_irq58():
E:/promotion/gitlab/telink_b91m_driver_sdk/telink_b91m_driver_sdk/demo/vendor/common/B91/plic_isr.c:688
    1106:	4632                	c.lwsp	a2,12(sp)
    1108:	46a2                	c.lwsp	a3,8(sp)
    110a:	4712                	c.lwsp	a4,4(sp)
    110c:	4782                	c.lwsp	a5,0(sp)
    110e:	0141                	c.addi	sp,16
    1110:	30200073          	mret

00001114 <entry_irq57>:
entry_irq57():
E:/promotion/gitlab/telink_b91m_driver_sdk/telink_b91m_driver_sdk/demo/vendor/common/B91/plic_isr.c:677
{
    1114:	1141                	c.addi	sp,-16
    1116:	c03e                	c.swsp	a5,0(sp)
plic_isr():
C:/Users/Admin/Desktop/test1/telink_b91m_driver_src/chip/B91/drivers/lib/src/plic.c:97
    1118:	000007b7          	lui	a5,0x0
    111c:	15878793          	addi	a5,a5,344 # 158 <_AES_VMA_END>
entry_irq57():
E:/promotion/gitlab/telink_b91m_driver_sdk/telink_b91m_driver_sdk/demo/vendor/common/B91/plic_isr.c:677
    1120:	c632                	c.swsp	a2,12(sp)
    1122:	c436                	c.swsp	a3,8(sp)
    1124:	c23a                	c.swsp	a4,4(sp)
plic_isr():
C:/Users/Admin/Desktop/test1/telink_b91m_driver_src/chip/B91/drivers/lib/src/plic.c:97
    1126:	04078783          	lb	a5,64(a5)
    112a:	0ff7f793          	andi	a5,a5,255
    112e:	ef89                	c.bnez	a5,1148 <entry_irq57+0x34>
plic_interrupt_complete():
C:\Users\Admin\Desktop\test1\telink_b91m_driver_src\chip\B91\drivers/lib/include/plic.h:281
    1130:	e42007b7          	lui	a5,0xe4200
    1134:	03900713          	li	a4,57
    1138:	c3d8                	c.sw	a4,4(a5)
entry_irq57():
E:/promotion/gitlab/telink_b91m_driver_sdk/telink_b91m_driver_sdk/demo/vendor/common/B91/plic_isr.c:679
}
    113a:	4632                	c.lwsp	a2,12(sp)
    113c:	46a2                	c.lwsp	a3,8(sp)
    113e:	4712                	c.lwsp	a4,4(sp)
    1140:	4782                	c.lwsp	a5,0(sp)
    1142:	0141                	c.addi	sp,16
    1144:	30200073          	mret
plic_isr():
C:/Users/Admin/Desktop/test1/telink_b91m_driver_src/chip/B91/drivers/lib/src/plic.c:99
    1148:	34102773          	csrr	a4,mepc
    114c:	300026f3          	csrr	a3,mstatus
    1150:	7c4027f3          	csrr	a5,mxstatus
    1154:	30046673          	csrrsi	a2,mstatus,8
C:/Users/Admin/Desktop/test1/telink_b91m_driver_src/chip/B91/drivers/lib/src/plic.c:101
    1158:	30047673          	csrrci	a2,mstatus,8
    115c:	30069073          	csrw	mstatus,a3
    1160:	34171073          	csrw	mepc,a4
    1164:	7c479073          	csrw	mxstatus,a5
plic_interrupt_complete():
C:\Users\Admin\Desktop\test1\telink_b91m_driver_src\chip\B91\drivers/lib/include/plic.h:281
    1168:	e42007b7          	lui	a5,0xe4200
    116c:	03900713          	li	a4,57
    1170:	c3d8                	c.sw	a4,4(a5)
plic_isr():
C:/Users/Admin/Desktop/test1/telink_b91m_driver_src/chip/B91/drivers/lib/src/plic.c:103
    1172:	0ff0000f          	fence
entry_irq57():
E:/promotion/gitlab/telink_b91m_driver_sdk/telink_b91m_driver_sdk/demo/vendor/common/B91/plic_isr.c:679
    1176:	4632                	c.lwsp	a2,12(sp)
    1178:	46a2                	c.lwsp	a3,8(sp)
    117a:	4712                	c.lwsp	a4,4(sp)
    117c:	4782                	c.lwsp	a5,0(sp)
    117e:	0141                	c.addi	sp,16
    1180:	30200073          	mret

00001184 <entry_irq56>:
entry_irq56():
E:/promotion/gitlab/telink_b91m_driver_sdk/telink_b91m_driver_sdk/demo/vendor/common/B91/plic_isr.c:668
{
    1184:	1141                	c.addi	sp,-16
    1186:	c03e                	c.swsp	a5,0(sp)
plic_isr():
C:/Users/Admin/Desktop/test1/telink_b91m_driver_src/chip/B91/drivers/lib/src/plic.c:97
    1188:	000007b7          	lui	a5,0x0
    118c:	15878793          	addi	a5,a5,344 # 158 <_AES_VMA_END>
entry_irq56():
E:/promotion/gitlab/telink_b91m_driver_sdk/telink_b91m_driver_sdk/demo/vendor/common/B91/plic_isr.c:668
    1190:	c632                	c.swsp	a2,12(sp)
    1192:	c436                	c.swsp	a3,8(sp)
    1194:	c23a                	c.swsp	a4,4(sp)
plic_isr():
C:/Users/Admin/Desktop/test1/telink_b91m_driver_src/chip/B91/drivers/lib/src/plic.c:97
    1196:	04078783          	lb	a5,64(a5)
    119a:	0ff7f793          	andi	a5,a5,255
    119e:	ef89                	c.bnez	a5,11b8 <entry_irq56+0x34>
plic_interrupt_complete():
C:\Users\Admin\Desktop\test1\telink_b91m_driver_src\chip\B91\drivers/lib/include/plic.h:281
    11a0:	e42007b7          	lui	a5,0xe4200
    11a4:	03800713          	li	a4,56
    11a8:	c3d8                	c.sw	a4,4(a5)
entry_irq56():
E:/promotion/gitlab/telink_b91m_driver_sdk/telink_b91m_driver_sdk/demo/vendor/common/B91/plic_isr.c:670
}
    11aa:	4632                	c.lwsp	a2,12(sp)
    11ac:	46a2                	c.lwsp	a3,8(sp)
    11ae:	4712                	c.lwsp	a4,4(sp)
    11b0:	4782                	c.lwsp	a5,0(sp)
    11b2:	0141                	c.addi	sp,16
    11b4:	30200073          	mret
plic_isr():
C:/Users/Admin/Desktop/test1/telink_b91m_driver_src/chip/B91/drivers/lib/src/plic.c:99
    11b8:	34102773          	csrr	a4,mepc
    11bc:	300026f3          	csrr	a3,mstatus
    11c0:	7c4027f3          	csrr	a5,mxstatus
    11c4:	30046673          	csrrsi	a2,mstatus,8
C:/Users/Admin/Desktop/test1/telink_b91m_driver_src/chip/B91/drivers/lib/src/plic.c:101
    11c8:	30047673          	csrrci	a2,mstatus,8
    11cc:	30069073          	csrw	mstatus,a3
    11d0:	34171073          	csrw	mepc,a4
    11d4:	7c479073          	csrw	mxstatus,a5
plic_interrupt_complete():
C:\Users\Admin\Desktop\test1\telink_b91m_driver_src\chip\B91\drivers/lib/include/plic.h:281
    11d8:	e42007b7          	lui	a5,0xe4200
    11dc:	03800713          	li	a4,56
    11e0:	c3d8                	c.sw	a4,4(a5)
plic_isr():
C:/Users/Admin/Desktop/test1/telink_b91m_driver_src/chip/B91/drivers/lib/src/plic.c:103
    11e2:	0ff0000f          	fence
entry_irq56():
E:/promotion/gitlab/telink_b91m_driver_sdk/telink_b91m_driver_sdk/demo/vendor/common/B91/plic_isr.c:670
    11e6:	4632                	c.lwsp	a2,12(sp)
    11e8:	46a2                	c.lwsp	a3,8(sp)
    11ea:	4712                	c.lwsp	a4,4(sp)
    11ec:	4782                	c.lwsp	a5,0(sp)
    11ee:	0141                	c.addi	sp,16
    11f0:	30200073          	mret

000011f4 <entry_irq55>:
entry_irq55():
E:/promotion/gitlab/telink_b91m_driver_sdk/telink_b91m_driver_sdk/demo/vendor/common/B91/plic_isr.c:659
{
    11f4:	1141                	c.addi	sp,-16
    11f6:	c03e                	c.swsp	a5,0(sp)
plic_isr():
C:/Users/Admin/Desktop/test1/telink_b91m_driver_src/chip/B91/drivers/lib/src/plic.c:97
    11f8:	000007b7          	lui	a5,0x0
    11fc:	15878793          	addi	a5,a5,344 # 158 <_AES_VMA_END>
entry_irq55():
E:/promotion/gitlab/telink_b91m_driver_sdk/telink_b91m_driver_sdk/demo/vendor/common/B91/plic_isr.c:659
    1200:	c632                	c.swsp	a2,12(sp)
    1202:	c436                	c.swsp	a3,8(sp)
    1204:	c23a                	c.swsp	a4,4(sp)
plic_isr():
C:/Users/Admin/Desktop/test1/telink_b91m_driver_src/chip/B91/drivers/lib/src/plic.c:97
    1206:	04078783          	lb	a5,64(a5)
    120a:	0ff7f793          	andi	a5,a5,255
    120e:	ef89                	c.bnez	a5,1228 <entry_irq55+0x34>
plic_interrupt_complete():
C:\Users\Admin\Desktop\test1\telink_b91m_driver_src\chip\B91\drivers/lib/include/plic.h:281
    1210:	e42007b7          	lui	a5,0xe4200
    1214:	03700713          	li	a4,55
    1218:	c3d8                	c.sw	a4,4(a5)
entry_irq55():
E:/promotion/gitlab/telink_b91m_driver_sdk/telink_b91m_driver_sdk/demo/vendor/common/B91/plic_isr.c:661
}
    121a:	4632                	c.lwsp	a2,12(sp)
    121c:	46a2                	c.lwsp	a3,8(sp)
    121e:	4712                	c.lwsp	a4,4(sp)
    1220:	4782                	c.lwsp	a5,0(sp)
    1222:	0141                	c.addi	sp,16
    1224:	30200073          	mret
plic_isr():
C:/Users/Admin/Desktop/test1/telink_b91m_driver_src/chip/B91/drivers/lib/src/plic.c:99
    1228:	34102773          	csrr	a4,mepc
    122c:	300026f3          	csrr	a3,mstatus
    1230:	7c4027f3          	csrr	a5,mxstatus
    1234:	30046673          	csrrsi	a2,mstatus,8
C:/Users/Admin/Desktop/test1/telink_b91m_driver_src/chip/B91/drivers/lib/src/plic.c:101
    1238:	30047673          	csrrci	a2,mstatus,8
    123c:	30069073          	csrw	mstatus,a3
    1240:	34171073          	csrw	mepc,a4
    1244:	7c479073          	csrw	mxstatus,a5
plic_interrupt_complete():
C:\Users\Admin\Desktop\test1\telink_b91m_driver_src\chip\B91\drivers/lib/include/plic.h:281
    1248:	e42007b7          	lui	a5,0xe4200
    124c:	03700713          	li	a4,55
    1250:	c3d8                	c.sw	a4,4(a5)
plic_isr():
C:/Users/Admin/Desktop/test1/telink_b91m_driver_src/chip/B91/drivers/lib/src/plic.c:103
    1252:	0ff0000f          	fence
entry_irq55():
E:/promotion/gitlab/telink_b91m_driver_sdk/telink_b91m_driver_sdk/demo/vendor/common/B91/plic_isr.c:661
    1256:	4632                	c.lwsp	a2,12(sp)
    1258:	46a2                	c.lwsp	a3,8(sp)
    125a:	4712                	c.lwsp	a4,4(sp)
    125c:	4782                	c.lwsp	a5,0(sp)
    125e:	0141                	c.addi	sp,16
    1260:	30200073          	mret

00001264 <entry_irq54>:
entry_irq54():
E:/promotion/gitlab/telink_b91m_driver_sdk/telink_b91m_driver_sdk/demo/vendor/common/B91/plic_isr.c:650
{
    1264:	1141                	c.addi	sp,-16
    1266:	c03e                	c.swsp	a5,0(sp)
plic_isr():
C:/Users/Admin/Desktop/test1/telink_b91m_driver_src/chip/B91/drivers/lib/src/plic.c:97
    1268:	000007b7          	lui	a5,0x0
    126c:	15878793          	addi	a5,a5,344 # 158 <_AES_VMA_END>
entry_irq54():
E:/promotion/gitlab/telink_b91m_driver_sdk/telink_b91m_driver_sdk/demo/vendor/common/B91/plic_isr.c:650
    1270:	c632                	c.swsp	a2,12(sp)
    1272:	c436                	c.swsp	a3,8(sp)
    1274:	c23a                	c.swsp	a4,4(sp)
plic_isr():
C:/Users/Admin/Desktop/test1/telink_b91m_driver_src/chip/B91/drivers/lib/src/plic.c:97
    1276:	04078783          	lb	a5,64(a5)
    127a:	0ff7f793          	andi	a5,a5,255
    127e:	ef89                	c.bnez	a5,1298 <entry_irq54+0x34>
plic_interrupt_complete():
C:\Users\Admin\Desktop\test1\telink_b91m_driver_src\chip\B91\drivers/lib/include/plic.h:281
    1280:	e42007b7          	lui	a5,0xe4200
    1284:	03600713          	li	a4,54
    1288:	c3d8                	c.sw	a4,4(a5)
entry_irq54():
E:/promotion/gitlab/telink_b91m_driver_sdk/telink_b91m_driver_sdk/demo/vendor/common/B91/plic_isr.c:652
}
    128a:	4632                	c.lwsp	a2,12(sp)
    128c:	46a2                	c.lwsp	a3,8(sp)
    128e:	4712                	c.lwsp	a4,4(sp)
    1290:	4782                	c.lwsp	a5,0(sp)
    1292:	0141                	c.addi	sp,16
    1294:	30200073          	mret
plic_isr():
C:/Users/Admin/Desktop/test1/telink_b91m_driver_src/chip/B91/drivers/lib/src/plic.c:99
    1298:	34102773          	csrr	a4,mepc
    129c:	300026f3          	csrr	a3,mstatus
    12a0:	7c4027f3          	csrr	a5,mxstatus
    12a4:	30046673          	csrrsi	a2,mstatus,8
C:/Users/Admin/Desktop/test1/telink_b91m_driver_src/chip/B91/drivers/lib/src/plic.c:101
    12a8:	30047673          	csrrci	a2,mstatus,8
    12ac:	30069073          	csrw	mstatus,a3
    12b0:	34171073          	csrw	mepc,a4
    12b4:	7c479073          	csrw	mxstatus,a5
plic_interrupt_complete():
C:\Users\Admin\Desktop\test1\telink_b91m_driver_src\chip\B91\drivers/lib/include/plic.h:281
    12b8:	e42007b7          	lui	a5,0xe4200
    12bc:	03600713          	li	a4,54
    12c0:	c3d8                	c.sw	a4,4(a5)
plic_isr():
C:/Users/Admin/Desktop/test1/telink_b91m_driver_src/chip/B91/drivers/lib/src/plic.c:103
    12c2:	0ff0000f          	fence
entry_irq54():
E:/promotion/gitlab/telink_b91m_driver_sdk/telink_b91m_driver_sdk/demo/vendor/common/B91/plic_isr.c:652
    12c6:	4632                	c.lwsp	a2,12(sp)
    12c8:	46a2                	c.lwsp	a3,8(sp)
    12ca:	4712                	c.lwsp	a4,4(sp)
    12cc:	4782                	c.lwsp	a5,0(sp)
    12ce:	0141                	c.addi	sp,16
    12d0:	30200073          	mret

000012d4 <entry_irq53>:
entry_irq53():
E:/promotion/gitlab/telink_b91m_driver_sdk/telink_b91m_driver_sdk/demo/vendor/common/B91/plic_isr.c:641
{
    12d4:	1141                	c.addi	sp,-16
    12d6:	c03e                	c.swsp	a5,0(sp)
plic_isr():
C:/Users/Admin/Desktop/test1/telink_b91m_driver_src/chip/B91/drivers/lib/src/plic.c:97
    12d8:	000007b7          	lui	a5,0x0
    12dc:	15878793          	addi	a5,a5,344 # 158 <_AES_VMA_END>
entry_irq53():
E:/promotion/gitlab/telink_b91m_driver_sdk/telink_b91m_driver_sdk/demo/vendor/common/B91/plic_isr.c:641
    12e0:	c632                	c.swsp	a2,12(sp)
    12e2:	c436                	c.swsp	a3,8(sp)
    12e4:	c23a                	c.swsp	a4,4(sp)
plic_isr():
C:/Users/Admin/Desktop/test1/telink_b91m_driver_src/chip/B91/drivers/lib/src/plic.c:97
    12e6:	04078783          	lb	a5,64(a5)
    12ea:	0ff7f793          	andi	a5,a5,255
    12ee:	ef89                	c.bnez	a5,1308 <entry_irq53+0x34>
plic_interrupt_complete():
C:\Users\Admin\Desktop\test1\telink_b91m_driver_src\chip\B91\drivers/lib/include/plic.h:281
    12f0:	e42007b7          	lui	a5,0xe4200
    12f4:	03500713          	li	a4,53
    12f8:	c3d8                	c.sw	a4,4(a5)
entry_irq53():
E:/promotion/gitlab/telink_b91m_driver_sdk/telink_b91m_driver_sdk/demo/vendor/common/B91/plic_isr.c:643
}
    12fa:	4632                	c.lwsp	a2,12(sp)
    12fc:	46a2                	c.lwsp	a3,8(sp)
    12fe:	4712                	c.lwsp	a4,4(sp)
    1300:	4782                	c.lwsp	a5,0(sp)
    1302:	0141                	c.addi	sp,16
    1304:	30200073          	mret
plic_isr():
C:/Users/Admin/Desktop/test1/telink_b91m_driver_src/chip/B91/drivers/lib/src/plic.c:99
    1308:	34102773          	csrr	a4,mepc
    130c:	300026f3          	csrr	a3,mstatus
    1310:	7c4027f3          	csrr	a5,mxstatus
    1314:	30046673          	csrrsi	a2,mstatus,8
C:/Users/Admin/Desktop/test1/telink_b91m_driver_src/chip/B91/drivers/lib/src/plic.c:101
    1318:	30047673          	csrrci	a2,mstatus,8
    131c:	30069073          	csrw	mstatus,a3
    1320:	34171073          	csrw	mepc,a4
    1324:	7c479073          	csrw	mxstatus,a5
plic_interrupt_complete():
C:\Users\Admin\Desktop\test1\telink_b91m_driver_src\chip\B91\drivers/lib/include/plic.h:281
    1328:	e42007b7          	lui	a5,0xe4200
    132c:	03500713          	li	a4,53
    1330:	c3d8                	c.sw	a4,4(a5)
plic_isr():
C:/Users/Admin/Desktop/test1/telink_b91m_driver_src/chip/B91/drivers/lib/src/plic.c:103
    1332:	0ff0000f          	fence
entry_irq53():
E:/promotion/gitlab/telink_b91m_driver_sdk/telink_b91m_driver_sdk/demo/vendor/common/B91/plic_isr.c:643
    1336:	4632                	c.lwsp	a2,12(sp)
    1338:	46a2                	c.lwsp	a3,8(sp)
    133a:	4712                	c.lwsp	a4,4(sp)
    133c:	4782                	c.lwsp	a5,0(sp)
    133e:	0141                	c.addi	sp,16
    1340:	30200073          	mret

00001344 <entry_irq52>:
entry_irq52():
E:/promotion/gitlab/telink_b91m_driver_sdk/telink_b91m_driver_sdk/demo/vendor/common/B91/plic_isr.c:632
{
    1344:	1141                	c.addi	sp,-16
    1346:	c03e                	c.swsp	a5,0(sp)
plic_isr():
C:/Users/Admin/Desktop/test1/telink_b91m_driver_src/chip/B91/drivers/lib/src/plic.c:97
    1348:	000007b7          	lui	a5,0x0
    134c:	15878793          	addi	a5,a5,344 # 158 <_AES_VMA_END>
entry_irq52():
E:/promotion/gitlab/telink_b91m_driver_sdk/telink_b91m_driver_sdk/demo/vendor/common/B91/plic_isr.c:632
    1350:	c632                	c.swsp	a2,12(sp)
    1352:	c436                	c.swsp	a3,8(sp)
    1354:	c23a                	c.swsp	a4,4(sp)
plic_isr():
C:/Users/Admin/Desktop/test1/telink_b91m_driver_src/chip/B91/drivers/lib/src/plic.c:97
    1356:	04078783          	lb	a5,64(a5)
    135a:	0ff7f793          	andi	a5,a5,255
    135e:	ef89                	c.bnez	a5,1378 <entry_irq52+0x34>
plic_interrupt_complete():
C:\Users\Admin\Desktop\test1\telink_b91m_driver_src\chip\B91\drivers/lib/include/plic.h:281
    1360:	e42007b7          	lui	a5,0xe4200
    1364:	03400713          	li	a4,52
    1368:	c3d8                	c.sw	a4,4(a5)
entry_irq52():
E:/promotion/gitlab/telink_b91m_driver_sdk/telink_b91m_driver_sdk/demo/vendor/common/B91/plic_isr.c:634
}
    136a:	4632                	c.lwsp	a2,12(sp)
    136c:	46a2                	c.lwsp	a3,8(sp)
    136e:	4712                	c.lwsp	a4,4(sp)
    1370:	4782                	c.lwsp	a5,0(sp)
    1372:	0141                	c.addi	sp,16
    1374:	30200073          	mret
plic_isr():
C:/Users/Admin/Desktop/test1/telink_b91m_driver_src/chip/B91/drivers/lib/src/plic.c:99
    1378:	34102773          	csrr	a4,mepc
    137c:	300026f3          	csrr	a3,mstatus
    1380:	7c4027f3          	csrr	a5,mxstatus
    1384:	30046673          	csrrsi	a2,mstatus,8
C:/Users/Admin/Desktop/test1/telink_b91m_driver_src/chip/B91/drivers/lib/src/plic.c:101
    1388:	30047673          	csrrci	a2,mstatus,8
    138c:	30069073          	csrw	mstatus,a3
    1390:	34171073          	csrw	mepc,a4
    1394:	7c479073          	csrw	mxstatus,a5
plic_interrupt_complete():
C:\Users\Admin\Desktop\test1\telink_b91m_driver_src\chip\B91\drivers/lib/include/plic.h:281
    1398:	e42007b7          	lui	a5,0xe4200
    139c:	03400713          	li	a4,52
    13a0:	c3d8                	c.sw	a4,4(a5)
plic_isr():
C:/Users/Admin/Desktop/test1/telink_b91m_driver_src/chip/B91/drivers/lib/src/plic.c:103
    13a2:	0ff0000f          	fence
entry_irq52():
E:/promotion/gitlab/telink_b91m_driver_sdk/telink_b91m_driver_sdk/demo/vendor/common/B91/plic_isr.c:634
    13a6:	4632                	c.lwsp	a2,12(sp)
    13a8:	46a2                	c.lwsp	a3,8(sp)
    13aa:	4712                	c.lwsp	a4,4(sp)
    13ac:	4782                	c.lwsp	a5,0(sp)
    13ae:	0141                	c.addi	sp,16
    13b0:	30200073          	mret

000013b4 <entry_irq51>:
entry_irq51():
E:/promotion/gitlab/telink_b91m_driver_sdk/telink_b91m_driver_sdk/demo/vendor/common/B91/plic_isr.c:623
{
    13b4:	1141                	c.addi	sp,-16
    13b6:	c03e                	c.swsp	a5,0(sp)
plic_isr():
C:/Users/Admin/Desktop/test1/telink_b91m_driver_src/chip/B91/drivers/lib/src/plic.c:97
    13b8:	000007b7          	lui	a5,0x0
    13bc:	15878793          	addi	a5,a5,344 # 158 <_AES_VMA_END>
entry_irq51():
E:/promotion/gitlab/telink_b91m_driver_sdk/telink_b91m_driver_sdk/demo/vendor/common/B91/plic_isr.c:623
    13c0:	c632                	c.swsp	a2,12(sp)
    13c2:	c436                	c.swsp	a3,8(sp)
    13c4:	c23a                	c.swsp	a4,4(sp)
plic_isr():
C:/Users/Admin/Desktop/test1/telink_b91m_driver_src/chip/B91/drivers/lib/src/plic.c:97
    13c6:	04078783          	lb	a5,64(a5)
    13ca:	0ff7f793          	andi	a5,a5,255
    13ce:	ef89                	c.bnez	a5,13e8 <entry_irq51+0x34>
plic_interrupt_complete():
C:\Users\Admin\Desktop\test1\telink_b91m_driver_src\chip\B91\drivers/lib/include/plic.h:281
    13d0:	e42007b7          	lui	a5,0xe4200
    13d4:	03300713          	li	a4,51
    13d8:	c3d8                	c.sw	a4,4(a5)
entry_irq51():
E:/promotion/gitlab/telink_b91m_driver_sdk/telink_b91m_driver_sdk/demo/vendor/common/B91/plic_isr.c:625
}
    13da:	4632                	c.lwsp	a2,12(sp)
    13dc:	46a2                	c.lwsp	a3,8(sp)
    13de:	4712                	c.lwsp	a4,4(sp)
    13e0:	4782                	c.lwsp	a5,0(sp)
    13e2:	0141                	c.addi	sp,16
    13e4:	30200073          	mret
plic_isr():
C:/Users/Admin/Desktop/test1/telink_b91m_driver_src/chip/B91/drivers/lib/src/plic.c:99
    13e8:	34102773          	csrr	a4,mepc
    13ec:	300026f3          	csrr	a3,mstatus
    13f0:	7c4027f3          	csrr	a5,mxstatus
    13f4:	30046673          	csrrsi	a2,mstatus,8
C:/Users/Admin/Desktop/test1/telink_b91m_driver_src/chip/B91/drivers/lib/src/plic.c:101
    13f8:	30047673          	csrrci	a2,mstatus,8
    13fc:	30069073          	csrw	mstatus,a3
    1400:	34171073          	csrw	mepc,a4
    1404:	7c479073          	csrw	mxstatus,a5
plic_interrupt_complete():
C:\Users\Admin\Desktop\test1\telink_b91m_driver_src\chip\B91\drivers/lib/include/plic.h:281
    1408:	e42007b7          	lui	a5,0xe4200
    140c:	03300713          	li	a4,51
    1410:	c3d8                	c.sw	a4,4(a5)
plic_isr():
C:/Users/Admin/Desktop/test1/telink_b91m_driver_src/chip/B91/drivers/lib/src/plic.c:103
    1412:	0ff0000f          	fence
entry_irq51():
E:/promotion/gitlab/telink_b91m_driver_sdk/telink_b91m_driver_sdk/demo/vendor/common/B91/plic_isr.c:625
    1416:	4632                	c.lwsp	a2,12(sp)
    1418:	46a2                	c.lwsp	a3,8(sp)
    141a:	4712                	c.lwsp	a4,4(sp)
    141c:	4782                	c.lwsp	a5,0(sp)
    141e:	0141                	c.addi	sp,16
    1420:	30200073          	mret

00001424 <entry_irq50>:
entry_irq50():
E:/promotion/gitlab/telink_b91m_driver_sdk/telink_b91m_driver_sdk/demo/vendor/common/B91/plic_isr.c:614
{
    1424:	1141                	c.addi	sp,-16
    1426:	c03e                	c.swsp	a5,0(sp)
plic_isr():
C:/Users/Admin/Desktop/test1/telink_b91m_driver_src/chip/B91/drivers/lib/src/plic.c:97
    1428:	000007b7          	lui	a5,0x0
    142c:	15878793          	addi	a5,a5,344 # 158 <_AES_VMA_END>
entry_irq50():
E:/promotion/gitlab/telink_b91m_driver_sdk/telink_b91m_driver_sdk/demo/vendor/common/B91/plic_isr.c:614
    1430:	c632                	c.swsp	a2,12(sp)
    1432:	c436                	c.swsp	a3,8(sp)
    1434:	c23a                	c.swsp	a4,4(sp)
plic_isr():
C:/Users/Admin/Desktop/test1/telink_b91m_driver_src/chip/B91/drivers/lib/src/plic.c:97
    1436:	04078783          	lb	a5,64(a5)
    143a:	0ff7f793          	andi	a5,a5,255
    143e:	ef89                	c.bnez	a5,1458 <entry_irq50+0x34>
plic_interrupt_complete():
C:\Users\Admin\Desktop\test1\telink_b91m_driver_src\chip\B91\drivers/lib/include/plic.h:281
    1440:	e42007b7          	lui	a5,0xe4200
    1444:	03200713          	li	a4,50
    1448:	c3d8                	c.sw	a4,4(a5)
entry_irq50():
E:/promotion/gitlab/telink_b91m_driver_sdk/telink_b91m_driver_sdk/demo/vendor/common/B91/plic_isr.c:616
}
    144a:	4632                	c.lwsp	a2,12(sp)
    144c:	46a2                	c.lwsp	a3,8(sp)
    144e:	4712                	c.lwsp	a4,4(sp)
    1450:	4782                	c.lwsp	a5,0(sp)
    1452:	0141                	c.addi	sp,16
    1454:	30200073          	mret
plic_isr():
C:/Users/Admin/Desktop/test1/telink_b91m_driver_src/chip/B91/drivers/lib/src/plic.c:99
    1458:	34102773          	csrr	a4,mepc
    145c:	300026f3          	csrr	a3,mstatus
    1460:	7c4027f3          	csrr	a5,mxstatus
    1464:	30046673          	csrrsi	a2,mstatus,8
C:/Users/Admin/Desktop/test1/telink_b91m_driver_src/chip/B91/drivers/lib/src/plic.c:101
    1468:	30047673          	csrrci	a2,mstatus,8
    146c:	30069073          	csrw	mstatus,a3
    1470:	34171073          	csrw	mepc,a4
    1474:	7c479073          	csrw	mxstatus,a5
plic_interrupt_complete():
C:\Users\Admin\Desktop\test1\telink_b91m_driver_src\chip\B91\drivers/lib/include/plic.h:281
    1478:	e42007b7          	lui	a5,0xe4200
    147c:	03200713          	li	a4,50
    1480:	c3d8                	c.sw	a4,4(a5)
plic_isr():
C:/Users/Admin/Desktop/test1/telink_b91m_driver_src/chip/B91/drivers/lib/src/plic.c:103
    1482:	0ff0000f          	fence
entry_irq50():
E:/promotion/gitlab/telink_b91m_driver_sdk/telink_b91m_driver_sdk/demo/vendor/common/B91/plic_isr.c:616
    1486:	4632                	c.lwsp	a2,12(sp)
    1488:	46a2                	c.lwsp	a3,8(sp)
    148a:	4712                	c.lwsp	a4,4(sp)
    148c:	4782                	c.lwsp	a5,0(sp)
    148e:	0141                	c.addi	sp,16
    1490:	30200073          	mret

00001494 <entry_irq49>:
entry_irq49():
E:/promotion/gitlab/telink_b91m_driver_sdk/telink_b91m_driver_sdk/demo/vendor/common/B91/plic_isr.c:607
}
    1494:	30200073          	mret

00001498 <entry_irq48>:
entry_irq48():
E:/promotion/gitlab/telink_b91m_driver_sdk/telink_b91m_driver_sdk/demo/vendor/common/B91/plic_isr.c:601
}
    1498:	30200073          	mret

0000149c <entry_irq47>:
entry_irq47():
E:/promotion/gitlab/telink_b91m_driver_sdk/telink_b91m_driver_sdk/demo/vendor/common/B91/plic_isr.c:595
}
    149c:	30200073          	mret

000014a0 <entry_irq46>:
entry_irq46():
E:/promotion/gitlab/telink_b91m_driver_sdk/telink_b91m_driver_sdk/demo/vendor/common/B91/plic_isr.c:586
{
    14a0:	1141                	c.addi	sp,-16
    14a2:	c03e                	c.swsp	a5,0(sp)
plic_isr():
C:/Users/Admin/Desktop/test1/telink_b91m_driver_src/chip/B91/drivers/lib/src/plic.c:97
    14a4:	000007b7          	lui	a5,0x0
    14a8:	15878793          	addi	a5,a5,344 # 158 <_AES_VMA_END>
entry_irq46():
E:/promotion/gitlab/telink_b91m_driver_sdk/telink_b91m_driver_sdk/demo/vendor/common/B91/plic_isr.c:586
    14ac:	c632                	c.swsp	a2,12(sp)
    14ae:	c436                	c.swsp	a3,8(sp)
    14b0:	c23a                	c.swsp	a4,4(sp)
plic_isr():
C:/Users/Admin/Desktop/test1/telink_b91m_driver_src/chip/B91/drivers/lib/src/plic.c:97
    14b2:	04078783          	lb	a5,64(a5)
    14b6:	0ff7f793          	andi	a5,a5,255
    14ba:	ef89                	c.bnez	a5,14d4 <entry_irq46+0x34>
plic_interrupt_complete():
C:\Users\Admin\Desktop\test1\telink_b91m_driver_src\chip\B91\drivers/lib/include/plic.h:281
    14bc:	e42007b7          	lui	a5,0xe4200
    14c0:	02e00713          	li	a4,46
    14c4:	c3d8                	c.sw	a4,4(a5)
entry_irq46():
E:/promotion/gitlab/telink_b91m_driver_sdk/telink_b91m_driver_sdk/demo/vendor/common/B91/plic_isr.c:588
}
    14c6:	4632                	c.lwsp	a2,12(sp)
    14c8:	46a2                	c.lwsp	a3,8(sp)
    14ca:	4712                	c.lwsp	a4,4(sp)
    14cc:	4782                	c.lwsp	a5,0(sp)
    14ce:	0141                	c.addi	sp,16
    14d0:	30200073          	mret
plic_isr():
C:/Users/Admin/Desktop/test1/telink_b91m_driver_src/chip/B91/drivers/lib/src/plic.c:99
    14d4:	34102773          	csrr	a4,mepc
    14d8:	300026f3          	csrr	a3,mstatus
    14dc:	7c4027f3          	csrr	a5,mxstatus
    14e0:	30046673          	csrrsi	a2,mstatus,8
C:/Users/Admin/Desktop/test1/telink_b91m_driver_src/chip/B91/drivers/lib/src/plic.c:101
    14e4:	30047673          	csrrci	a2,mstatus,8
    14e8:	30069073          	csrw	mstatus,a3
    14ec:	34171073          	csrw	mepc,a4
    14f0:	7c479073          	csrw	mxstatus,a5
plic_interrupt_complete():
C:\Users\Admin\Desktop\test1\telink_b91m_driver_src\chip\B91\drivers/lib/include/plic.h:281
    14f4:	e42007b7          	lui	a5,0xe4200
    14f8:	02e00713          	li	a4,46
    14fc:	c3d8                	c.sw	a4,4(a5)
plic_isr():
C:/Users/Admin/Desktop/test1/telink_b91m_driver_src/chip/B91/drivers/lib/src/plic.c:103
    14fe:	0ff0000f          	fence
entry_irq46():
E:/promotion/gitlab/telink_b91m_driver_sdk/telink_b91m_driver_sdk/demo/vendor/common/B91/plic_isr.c:588
    1502:	4632                	c.lwsp	a2,12(sp)
    1504:	46a2                	c.lwsp	a3,8(sp)
    1506:	4712                	c.lwsp	a4,4(sp)
    1508:	4782                	c.lwsp	a5,0(sp)
    150a:	0141                	c.addi	sp,16
    150c:	30200073          	mret

00001510 <entry_irq45>:
entry_irq45():
E:/promotion/gitlab/telink_b91m_driver_sdk/telink_b91m_driver_sdk/demo/vendor/common/B91/plic_isr.c:579
}
    1510:	30200073          	mret

00001514 <entry_irq44>:
entry_irq44():
E:/promotion/gitlab/telink_b91m_driver_sdk/telink_b91m_driver_sdk/demo/vendor/common/B91/plic_isr.c:572
{
    1514:	1141                	c.addi	sp,-16
    1516:	c03e                	c.swsp	a5,0(sp)
plic_isr():
C:/Users/Admin/Desktop/test1/telink_b91m_driver_src/chip/B91/drivers/lib/src/plic.c:97
    1518:	000007b7          	lui	a5,0x0
    151c:	15878793          	addi	a5,a5,344 # 158 <_AES_VMA_END>
entry_irq44():
E:/promotion/gitlab/telink_b91m_driver_sdk/telink_b91m_driver_sdk/demo/vendor/common/B91/plic_isr.c:572
    1520:	c632                	c.swsp	a2,12(sp)
    1522:	c436                	c.swsp	a3,8(sp)
    1524:	c23a                	c.swsp	a4,4(sp)
plic_isr():
C:/Users/Admin/Desktop/test1/telink_b91m_driver_src/chip/B91/drivers/lib/src/plic.c:97
    1526:	04078783          	lb	a5,64(a5)
    152a:	0ff7f793          	andi	a5,a5,255
    152e:	ef89                	c.bnez	a5,1548 <entry_irq44+0x34>
plic_interrupt_complete():
C:\Users\Admin\Desktop\test1\telink_b91m_driver_src\chip\B91\drivers/lib/include/plic.h:281
    1530:	e42007b7          	lui	a5,0xe4200
    1534:	02c00713          	li	a4,44
    1538:	c3d8                	c.sw	a4,4(a5)
entry_irq44():
E:/promotion/gitlab/telink_b91m_driver_sdk/telink_b91m_driver_sdk/demo/vendor/common/B91/plic_isr.c:574
}
    153a:	4632                	c.lwsp	a2,12(sp)
    153c:	46a2                	c.lwsp	a3,8(sp)
    153e:	4712                	c.lwsp	a4,4(sp)
    1540:	4782                	c.lwsp	a5,0(sp)
    1542:	0141                	c.addi	sp,16
    1544:	30200073          	mret
plic_isr():
C:/Users/Admin/Desktop/test1/telink_b91m_driver_src/chip/B91/drivers/lib/src/plic.c:99
    1548:	34102773          	csrr	a4,mepc
    154c:	300026f3          	csrr	a3,mstatus
    1550:	7c4027f3          	csrr	a5,mxstatus
    1554:	30046673          	csrrsi	a2,mstatus,8
C:/Users/Admin/Desktop/test1/telink_b91m_driver_src/chip/B91/drivers/lib/src/plic.c:101
    1558:	30047673          	csrrci	a2,mstatus,8
    155c:	30069073          	csrw	mstatus,a3
    1560:	34171073          	csrw	mepc,a4
    1564:	7c479073          	csrw	mxstatus,a5
plic_interrupt_complete():
C:\Users\Admin\Desktop\test1\telink_b91m_driver_src\chip\B91\drivers/lib/include/plic.h:281
    1568:	e42007b7          	lui	a5,0xe4200
    156c:	02c00713          	li	a4,44
    1570:	c3d8                	c.sw	a4,4(a5)
plic_isr():
C:/Users/Admin/Desktop/test1/telink_b91m_driver_src/chip/B91/drivers/lib/src/plic.c:103
    1572:	0ff0000f          	fence
entry_irq44():
E:/promotion/gitlab/telink_b91m_driver_sdk/telink_b91m_driver_sdk/demo/vendor/common/B91/plic_isr.c:574
    1576:	4632                	c.lwsp	a2,12(sp)
    1578:	46a2                	c.lwsp	a3,8(sp)
    157a:	4712                	c.lwsp	a4,4(sp)
    157c:	4782                	c.lwsp	a5,0(sp)
    157e:	0141                	c.addi	sp,16
    1580:	30200073          	mret

00001584 <entry_irq43>:
entry_irq43():
E:/promotion/gitlab/telink_b91m_driver_sdk/telink_b91m_driver_sdk/demo/vendor/common/B91/plic_isr.c:562
{
    1584:	1141                	c.addi	sp,-16
    1586:	c03e                	c.swsp	a5,0(sp)
plic_isr():
C:/Users/Admin/Desktop/test1/telink_b91m_driver_src/chip/B91/drivers/lib/src/plic.c:97
    1588:	000007b7          	lui	a5,0x0
    158c:	15878793          	addi	a5,a5,344 # 158 <_AES_VMA_END>
entry_irq43():
E:/promotion/gitlab/telink_b91m_driver_sdk/telink_b91m_driver_sdk/demo/vendor/common/B91/plic_isr.c:562
    1590:	c632                	c.swsp	a2,12(sp)
    1592:	c436                	c.swsp	a3,8(sp)
    1594:	c23a                	c.swsp	a4,4(sp)
plic_isr():
C:/Users/Admin/Desktop/test1/telink_b91m_driver_src/chip/B91/drivers/lib/src/plic.c:97
    1596:	04078783          	lb	a5,64(a5)
    159a:	0ff7f793          	andi	a5,a5,255
    159e:	ef89                	c.bnez	a5,15b8 <entry_irq43+0x34>
plic_interrupt_complete():
C:\Users\Admin\Desktop\test1\telink_b91m_driver_src\chip\B91\drivers/lib/include/plic.h:281
    15a0:	e42007b7          	lui	a5,0xe4200
    15a4:	02b00713          	li	a4,43
    15a8:	c3d8                	c.sw	a4,4(a5)
entry_irq43():
E:/promotion/gitlab/telink_b91m_driver_sdk/telink_b91m_driver_sdk/demo/vendor/common/B91/plic_isr.c:564
}
    15aa:	4632                	c.lwsp	a2,12(sp)
    15ac:	46a2                	c.lwsp	a3,8(sp)
    15ae:	4712                	c.lwsp	a4,4(sp)
    15b0:	4782                	c.lwsp	a5,0(sp)
    15b2:	0141                	c.addi	sp,16
    15b4:	30200073          	mret
plic_isr():
C:/Users/Admin/Desktop/test1/telink_b91m_driver_src/chip/B91/drivers/lib/src/plic.c:99
    15b8:	34102773          	csrr	a4,mepc
    15bc:	300026f3          	csrr	a3,mstatus
    15c0:	7c4027f3          	csrr	a5,mxstatus
    15c4:	30046673          	csrrsi	a2,mstatus,8
C:/Users/Admin/Desktop/test1/telink_b91m_driver_src/chip/B91/drivers/lib/src/plic.c:101
    15c8:	30047673          	csrrci	a2,mstatus,8
    15cc:	30069073          	csrw	mstatus,a3
    15d0:	34171073          	csrw	mepc,a4
    15d4:	7c479073          	csrw	mxstatus,a5
plic_interrupt_complete():
C:\Users\Admin\Desktop\test1\telink_b91m_driver_src\chip\B91\drivers/lib/include/plic.h:281
    15d8:	e42007b7          	lui	a5,0xe4200
    15dc:	02b00713          	li	a4,43
    15e0:	c3d8                	c.sw	a4,4(a5)
plic_isr():
C:/Users/Admin/Desktop/test1/telink_b91m_driver_src/chip/B91/drivers/lib/src/plic.c:103
    15e2:	0ff0000f          	fence
entry_irq43():
E:/promotion/gitlab/telink_b91m_driver_sdk/telink_b91m_driver_sdk/demo/vendor/common/B91/plic_isr.c:564
    15e6:	4632                	c.lwsp	a2,12(sp)
    15e8:	46a2                	c.lwsp	a3,8(sp)
    15ea:	4712                	c.lwsp	a4,4(sp)
    15ec:	4782                	c.lwsp	a5,0(sp)
    15ee:	0141                	c.addi	sp,16
    15f0:	30200073          	mret

000015f4 <entry_irq42>:
entry_irq42():
E:/promotion/gitlab/telink_b91m_driver_sdk/telink_b91m_driver_sdk/demo/vendor/common/B91/plic_isr.c:553
{
    15f4:	1141                	c.addi	sp,-16
    15f6:	c03e                	c.swsp	a5,0(sp)
plic_isr():
C:/Users/Admin/Desktop/test1/telink_b91m_driver_src/chip/B91/drivers/lib/src/plic.c:97
    15f8:	000007b7          	lui	a5,0x0
    15fc:	15878793          	addi	a5,a5,344 # 158 <_AES_VMA_END>
entry_irq42():
E:/promotion/gitlab/telink_b91m_driver_sdk/telink_b91m_driver_sdk/demo/vendor/common/B91/plic_isr.c:553
    1600:	c632                	c.swsp	a2,12(sp)
    1602:	c436                	c.swsp	a3,8(sp)
    1604:	c23a                	c.swsp	a4,4(sp)
plic_isr():
C:/Users/Admin/Desktop/test1/telink_b91m_driver_src/chip/B91/drivers/lib/src/plic.c:97
    1606:	04078783          	lb	a5,64(a5)
    160a:	0ff7f793          	andi	a5,a5,255
    160e:	ef89                	c.bnez	a5,1628 <entry_irq42+0x34>
plic_interrupt_complete():
C:\Users\Admin\Desktop\test1\telink_b91m_driver_src\chip\B91\drivers/lib/include/plic.h:281
    1610:	e42007b7          	lui	a5,0xe4200
    1614:	02a00713          	li	a4,42
    1618:	c3d8                	c.sw	a4,4(a5)
entry_irq42():
E:/promotion/gitlab/telink_b91m_driver_sdk/telink_b91m_driver_sdk/demo/vendor/common/B91/plic_isr.c:555
}
    161a:	4632                	c.lwsp	a2,12(sp)
    161c:	46a2                	c.lwsp	a3,8(sp)
    161e:	4712                	c.lwsp	a4,4(sp)
    1620:	4782                	c.lwsp	a5,0(sp)
    1622:	0141                	c.addi	sp,16
    1624:	30200073          	mret
plic_isr():
C:/Users/Admin/Desktop/test1/telink_b91m_driver_src/chip/B91/drivers/lib/src/plic.c:99
    1628:	34102773          	csrr	a4,mepc
    162c:	300026f3          	csrr	a3,mstatus
    1630:	7c4027f3          	csrr	a5,mxstatus
    1634:	30046673          	csrrsi	a2,mstatus,8
C:/Users/Admin/Desktop/test1/telink_b91m_driver_src/chip/B91/drivers/lib/src/plic.c:101
    1638:	30047673          	csrrci	a2,mstatus,8
    163c:	30069073          	csrw	mstatus,a3
    1640:	34171073          	csrw	mepc,a4
    1644:	7c479073          	csrw	mxstatus,a5
plic_interrupt_complete():
C:\Users\Admin\Desktop\test1\telink_b91m_driver_src\chip\B91\drivers/lib/include/plic.h:281
    1648:	e42007b7          	lui	a5,0xe4200
    164c:	02a00713          	li	a4,42
    1650:	c3d8                	c.sw	a4,4(a5)
plic_isr():
C:/Users/Admin/Desktop/test1/telink_b91m_driver_src/chip/B91/drivers/lib/src/plic.c:103
    1652:	0ff0000f          	fence
entry_irq42():
E:/promotion/gitlab/telink_b91m_driver_sdk/telink_b91m_driver_sdk/demo/vendor/common/B91/plic_isr.c:555
    1656:	4632                	c.lwsp	a2,12(sp)
    1658:	46a2                	c.lwsp	a3,8(sp)
    165a:	4712                	c.lwsp	a4,4(sp)
    165c:	4782                	c.lwsp	a5,0(sp)
    165e:	0141                	c.addi	sp,16
    1660:	30200073          	mret

00001664 <entry_irq41>:
entry_irq41():
E:/promotion/gitlab/telink_b91m_driver_sdk/telink_b91m_driver_sdk/demo/vendor/common/B91/plic_isr.c:546
}
    1664:	30200073          	mret

00001668 <entry_irq40>:
entry_irq40():
E:/promotion/gitlab/telink_b91m_driver_sdk/telink_b91m_driver_sdk/demo/vendor/common/B91/plic_isr.c:541
}
    1668:	30200073          	mret

0000166c <entry_irq39>:
entry_irq39():
E:/promotion/gitlab/telink_b91m_driver_sdk/telink_b91m_driver_sdk/demo/vendor/common/B91/plic_isr.c:536
}
    166c:	30200073          	mret

00001670 <entry_irq38>:
entry_irq38():
E:/promotion/gitlab/telink_b91m_driver_sdk/telink_b91m_driver_sdk/demo/vendor/common/B91/plic_isr.c:531
}
    1670:	30200073          	mret

00001674 <entry_irq37>:
entry_irq37():
E:/promotion/gitlab/telink_b91m_driver_sdk/telink_b91m_driver_sdk/demo/vendor/common/B91/plic_isr.c:522
{
    1674:	1141                	c.addi	sp,-16
    1676:	c03e                	c.swsp	a5,0(sp)
plic_isr():
C:/Users/Admin/Desktop/test1/telink_b91m_driver_src/chip/B91/drivers/lib/src/plic.c:97
    1678:	000007b7          	lui	a5,0x0
    167c:	15878793          	addi	a5,a5,344 # 158 <_AES_VMA_END>
entry_irq37():
E:/promotion/gitlab/telink_b91m_driver_sdk/telink_b91m_driver_sdk/demo/vendor/common/B91/plic_isr.c:522
    1680:	c632                	c.swsp	a2,12(sp)
    1682:	c436                	c.swsp	a3,8(sp)
    1684:	c23a                	c.swsp	a4,4(sp)
plic_isr():
C:/Users/Admin/Desktop/test1/telink_b91m_driver_src/chip/B91/drivers/lib/src/plic.c:97
    1686:	04078783          	lb	a5,64(a5)
    168a:	0ff7f793          	andi	a5,a5,255
    168e:	ef89                	c.bnez	a5,16a8 <entry_irq37+0x34>
plic_interrupt_complete():
C:\Users\Admin\Desktop\test1\telink_b91m_driver_src\chip\B91\drivers/lib/include/plic.h:281
    1690:	e42007b7          	lui	a5,0xe4200
    1694:	02500713          	li	a4,37
    1698:	c3d8                	c.sw	a4,4(a5)
entry_irq37():
E:/promotion/gitlab/telink_b91m_driver_sdk/telink_b91m_driver_sdk/demo/vendor/common/B91/plic_isr.c:524
}
    169a:	4632                	c.lwsp	a2,12(sp)
    169c:	46a2                	c.lwsp	a3,8(sp)
    169e:	4712                	c.lwsp	a4,4(sp)
    16a0:	4782                	c.lwsp	a5,0(sp)
    16a2:	0141                	c.addi	sp,16
    16a4:	30200073          	mret
plic_isr():
C:/Users/Admin/Desktop/test1/telink_b91m_driver_src/chip/B91/drivers/lib/src/plic.c:99
    16a8:	34102773          	csrr	a4,mepc
    16ac:	300026f3          	csrr	a3,mstatus
    16b0:	7c4027f3          	csrr	a5,mxstatus
    16b4:	30046673          	csrrsi	a2,mstatus,8
C:/Users/Admin/Desktop/test1/telink_b91m_driver_src/chip/B91/drivers/lib/src/plic.c:101
    16b8:	30047673          	csrrci	a2,mstatus,8
    16bc:	30069073          	csrw	mstatus,a3
    16c0:	34171073          	csrw	mepc,a4
    16c4:	7c479073          	csrw	mxstatus,a5
plic_interrupt_complete():
C:\Users\Admin\Desktop\test1\telink_b91m_driver_src\chip\B91\drivers/lib/include/plic.h:281
    16c8:	e42007b7          	lui	a5,0xe4200
    16cc:	02500713          	li	a4,37
    16d0:	c3d8                	c.sw	a4,4(a5)
plic_isr():
C:/Users/Admin/Desktop/test1/telink_b91m_driver_src/chip/B91/drivers/lib/src/plic.c:103
    16d2:	0ff0000f          	fence
entry_irq37():
E:/promotion/gitlab/telink_b91m_driver_sdk/telink_b91m_driver_sdk/demo/vendor/common/B91/plic_isr.c:524
    16d6:	4632                	c.lwsp	a2,12(sp)
    16d8:	46a2                	c.lwsp	a3,8(sp)
    16da:	4712                	c.lwsp	a4,4(sp)
    16dc:	4782                	c.lwsp	a5,0(sp)
    16de:	0141                	c.addi	sp,16
    16e0:	30200073          	mret

000016e4 <entry_irq36>:
entry_irq36():
E:/promotion/gitlab/telink_b91m_driver_sdk/telink_b91m_driver_sdk/demo/vendor/common/B91/plic_isr.c:513
{
    16e4:	1141                	c.addi	sp,-16
    16e6:	c03e                	c.swsp	a5,0(sp)
plic_isr():
C:/Users/Admin/Desktop/test1/telink_b91m_driver_src/chip/B91/drivers/lib/src/plic.c:97
    16e8:	000007b7          	lui	a5,0x0
    16ec:	15878793          	addi	a5,a5,344 # 158 <_AES_VMA_END>
entry_irq36():
E:/promotion/gitlab/telink_b91m_driver_sdk/telink_b91m_driver_sdk/demo/vendor/common/B91/plic_isr.c:513
    16f0:	c632                	c.swsp	a2,12(sp)
    16f2:	c436                	c.swsp	a3,8(sp)
    16f4:	c23a                	c.swsp	a4,4(sp)
plic_isr():
C:/Users/Admin/Desktop/test1/telink_b91m_driver_src/chip/B91/drivers/lib/src/plic.c:97
    16f6:	04078783          	lb	a5,64(a5)
    16fa:	0ff7f793          	andi	a5,a5,255
    16fe:	ef89                	c.bnez	a5,1718 <entry_irq36+0x34>
plic_interrupt_complete():
C:\Users\Admin\Desktop\test1\telink_b91m_driver_src\chip\B91\drivers/lib/include/plic.h:281
    1700:	e42007b7          	lui	a5,0xe4200
    1704:	02400713          	li	a4,36
    1708:	c3d8                	c.sw	a4,4(a5)
entry_irq36():
E:/promotion/gitlab/telink_b91m_driver_sdk/telink_b91m_driver_sdk/demo/vendor/common/B91/plic_isr.c:515
}
    170a:	4632                	c.lwsp	a2,12(sp)
    170c:	46a2                	c.lwsp	a3,8(sp)
    170e:	4712                	c.lwsp	a4,4(sp)
    1710:	4782                	c.lwsp	a5,0(sp)
    1712:	0141                	c.addi	sp,16
    1714:	30200073          	mret
plic_isr():
C:/Users/Admin/Desktop/test1/telink_b91m_driver_src/chip/B91/drivers/lib/src/plic.c:99
    1718:	34102773          	csrr	a4,mepc
    171c:	300026f3          	csrr	a3,mstatus
    1720:	7c4027f3          	csrr	a5,mxstatus
    1724:	30046673          	csrrsi	a2,mstatus,8
C:/Users/Admin/Desktop/test1/telink_b91m_driver_src/chip/B91/drivers/lib/src/plic.c:101
    1728:	30047673          	csrrci	a2,mstatus,8
    172c:	30069073          	csrw	mstatus,a3
    1730:	34171073          	csrw	mepc,a4
    1734:	7c479073          	csrw	mxstatus,a5
plic_interrupt_complete():
C:\Users\Admin\Desktop\test1\telink_b91m_driver_src\chip\B91\drivers/lib/include/plic.h:281
    1738:	e42007b7          	lui	a5,0xe4200
    173c:	02400713          	li	a4,36
    1740:	c3d8                	c.sw	a4,4(a5)
plic_isr():
C:/Users/Admin/Desktop/test1/telink_b91m_driver_src/chip/B91/drivers/lib/src/plic.c:103
    1742:	0ff0000f          	fence
entry_irq36():
E:/promotion/gitlab/telink_b91m_driver_sdk/telink_b91m_driver_sdk/demo/vendor/common/B91/plic_isr.c:515
    1746:	4632                	c.lwsp	a2,12(sp)
    1748:	46a2                	c.lwsp	a3,8(sp)
    174a:	4712                	c.lwsp	a4,4(sp)
    174c:	4782                	c.lwsp	a5,0(sp)
    174e:	0141                	c.addi	sp,16
    1750:	30200073          	mret

00001754 <entry_irq35>:
entry_irq35():
E:/promotion/gitlab/telink_b91m_driver_sdk/telink_b91m_driver_sdk/demo/vendor/common/B91/plic_isr.c:504
{
    1754:	1141                	c.addi	sp,-16
    1756:	c03e                	c.swsp	a5,0(sp)
plic_isr():
C:/Users/Admin/Desktop/test1/telink_b91m_driver_src/chip/B91/drivers/lib/src/plic.c:97
    1758:	000007b7          	lui	a5,0x0
    175c:	15878793          	addi	a5,a5,344 # 158 <_AES_VMA_END>
entry_irq35():
E:/promotion/gitlab/telink_b91m_driver_sdk/telink_b91m_driver_sdk/demo/vendor/common/B91/plic_isr.c:504
    1760:	c632                	c.swsp	a2,12(sp)
    1762:	c436                	c.swsp	a3,8(sp)
    1764:	c23a                	c.swsp	a4,4(sp)
plic_isr():
C:/Users/Admin/Desktop/test1/telink_b91m_driver_src/chip/B91/drivers/lib/src/plic.c:97
    1766:	04078783          	lb	a5,64(a5)
    176a:	0ff7f793          	andi	a5,a5,255
    176e:	ef89                	c.bnez	a5,1788 <entry_irq35+0x34>
plic_interrupt_complete():
C:\Users\Admin\Desktop\test1\telink_b91m_driver_src\chip\B91\drivers/lib/include/plic.h:281
    1770:	e42007b7          	lui	a5,0xe4200
    1774:	02300713          	li	a4,35
    1778:	c3d8                	c.sw	a4,4(a5)
entry_irq35():
E:/promotion/gitlab/telink_b91m_driver_sdk/telink_b91m_driver_sdk/demo/vendor/common/B91/plic_isr.c:506
}
    177a:	4632                	c.lwsp	a2,12(sp)
    177c:	46a2                	c.lwsp	a3,8(sp)
    177e:	4712                	c.lwsp	a4,4(sp)
    1780:	4782                	c.lwsp	a5,0(sp)
    1782:	0141                	c.addi	sp,16
    1784:	30200073          	mret
plic_isr():
C:/Users/Admin/Desktop/test1/telink_b91m_driver_src/chip/B91/drivers/lib/src/plic.c:99
    1788:	34102773          	csrr	a4,mepc
    178c:	300026f3          	csrr	a3,mstatus
    1790:	7c4027f3          	csrr	a5,mxstatus
    1794:	30046673          	csrrsi	a2,mstatus,8
C:/Users/Admin/Desktop/test1/telink_b91m_driver_src/chip/B91/drivers/lib/src/plic.c:101
    1798:	30047673          	csrrci	a2,mstatus,8
    179c:	30069073          	csrw	mstatus,a3
    17a0:	34171073          	csrw	mepc,a4
    17a4:	7c479073          	csrw	mxstatus,a5
plic_interrupt_complete():
C:\Users\Admin\Desktop\test1\telink_b91m_driver_src\chip\B91\drivers/lib/include/plic.h:281
    17a8:	e42007b7          	lui	a5,0xe4200
    17ac:	02300713          	li	a4,35
    17b0:	c3d8                	c.sw	a4,4(a5)
plic_isr():
C:/Users/Admin/Desktop/test1/telink_b91m_driver_src/chip/B91/drivers/lib/src/plic.c:103
    17b2:	0ff0000f          	fence
entry_irq35():
E:/promotion/gitlab/telink_b91m_driver_sdk/telink_b91m_driver_sdk/demo/vendor/common/B91/plic_isr.c:506
    17b6:	4632                	c.lwsp	a2,12(sp)
    17b8:	46a2                	c.lwsp	a3,8(sp)
    17ba:	4712                	c.lwsp	a4,4(sp)
    17bc:	4782                	c.lwsp	a5,0(sp)
    17be:	0141                	c.addi	sp,16
    17c0:	30200073          	mret

000017c4 <entry_irq34>:
entry_irq34():
E:/promotion/gitlab/telink_b91m_driver_sdk/telink_b91m_driver_sdk/demo/vendor/common/B91/plic_isr.c:495
{
    17c4:	1141                	c.addi	sp,-16
    17c6:	c03e                	c.swsp	a5,0(sp)
plic_isr():
C:/Users/Admin/Desktop/test1/telink_b91m_driver_src/chip/B91/drivers/lib/src/plic.c:97
    17c8:	000007b7          	lui	a5,0x0
    17cc:	15878793          	addi	a5,a5,344 # 158 <_AES_VMA_END>
entry_irq34():
E:/promotion/gitlab/telink_b91m_driver_sdk/telink_b91m_driver_sdk/demo/vendor/common/B91/plic_isr.c:495
    17d0:	c632                	c.swsp	a2,12(sp)
    17d2:	c436                	c.swsp	a3,8(sp)
    17d4:	c23a                	c.swsp	a4,4(sp)
plic_isr():
C:/Users/Admin/Desktop/test1/telink_b91m_driver_src/chip/B91/drivers/lib/src/plic.c:97
    17d6:	04078783          	lb	a5,64(a5)
    17da:	0ff7f793          	andi	a5,a5,255
    17de:	ef89                	c.bnez	a5,17f8 <entry_irq34+0x34>
plic_interrupt_complete():
C:\Users\Admin\Desktop\test1\telink_b91m_driver_src\chip\B91\drivers/lib/include/plic.h:281
    17e0:	e42007b7          	lui	a5,0xe4200
    17e4:	02200713          	li	a4,34
    17e8:	c3d8                	c.sw	a4,4(a5)
entry_irq34():
E:/promotion/gitlab/telink_b91m_driver_sdk/telink_b91m_driver_sdk/demo/vendor/common/B91/plic_isr.c:497
}
    17ea:	4632                	c.lwsp	a2,12(sp)
    17ec:	46a2                	c.lwsp	a3,8(sp)
    17ee:	4712                	c.lwsp	a4,4(sp)
    17f0:	4782                	c.lwsp	a5,0(sp)
    17f2:	0141                	c.addi	sp,16
    17f4:	30200073          	mret
plic_isr():
C:/Users/Admin/Desktop/test1/telink_b91m_driver_src/chip/B91/drivers/lib/src/plic.c:99
    17f8:	34102773          	csrr	a4,mepc
    17fc:	300026f3          	csrr	a3,mstatus
    1800:	7c4027f3          	csrr	a5,mxstatus
    1804:	30046673          	csrrsi	a2,mstatus,8
C:/Users/Admin/Desktop/test1/telink_b91m_driver_src/chip/B91/drivers/lib/src/plic.c:101
    1808:	30047673          	csrrci	a2,mstatus,8
    180c:	30069073          	csrw	mstatus,a3
    1810:	34171073          	csrw	mepc,a4
    1814:	7c479073          	csrw	mxstatus,a5
plic_interrupt_complete():
C:\Users\Admin\Desktop\test1\telink_b91m_driver_src\chip\B91\drivers/lib/include/plic.h:281
    1818:	e42007b7          	lui	a5,0xe4200
    181c:	02200713          	li	a4,34
    1820:	c3d8                	c.sw	a4,4(a5)
plic_isr():
C:/Users/Admin/Desktop/test1/telink_b91m_driver_src/chip/B91/drivers/lib/src/plic.c:103
    1822:	0ff0000f          	fence
entry_irq34():
E:/promotion/gitlab/telink_b91m_driver_sdk/telink_b91m_driver_sdk/demo/vendor/common/B91/plic_isr.c:497
    1826:	4632                	c.lwsp	a2,12(sp)
    1828:	46a2                	c.lwsp	a3,8(sp)
    182a:	4712                	c.lwsp	a4,4(sp)
    182c:	4782                	c.lwsp	a5,0(sp)
    182e:	0141                	c.addi	sp,16
    1830:	30200073          	mret

00001834 <entry_irq33>:
entry_irq33():
E:/promotion/gitlab/telink_b91m_driver_sdk/telink_b91m_driver_sdk/demo/vendor/common/B91/plic_isr.c:486
{
    1834:	1141                	c.addi	sp,-16
    1836:	c03e                	c.swsp	a5,0(sp)
plic_isr():
C:/Users/Admin/Desktop/test1/telink_b91m_driver_src/chip/B91/drivers/lib/src/plic.c:97
    1838:	000007b7          	lui	a5,0x0
    183c:	15878793          	addi	a5,a5,344 # 158 <_AES_VMA_END>
entry_irq33():
E:/promotion/gitlab/telink_b91m_driver_sdk/telink_b91m_driver_sdk/demo/vendor/common/B91/plic_isr.c:486
    1840:	c632                	c.swsp	a2,12(sp)
    1842:	c436                	c.swsp	a3,8(sp)
    1844:	c23a                	c.swsp	a4,4(sp)
plic_isr():
C:/Users/Admin/Desktop/test1/telink_b91m_driver_src/chip/B91/drivers/lib/src/plic.c:97
    1846:	04078783          	lb	a5,64(a5)
    184a:	0ff7f793          	andi	a5,a5,255
    184e:	ef89                	c.bnez	a5,1868 <entry_irq33+0x34>
plic_interrupt_complete():
C:\Users\Admin\Desktop\test1\telink_b91m_driver_src\chip\B91\drivers/lib/include/plic.h:281
    1850:	e42007b7          	lui	a5,0xe4200
    1854:	02100713          	li	a4,33
    1858:	c3d8                	c.sw	a4,4(a5)
entry_irq33():
E:/promotion/gitlab/telink_b91m_driver_sdk/telink_b91m_driver_sdk/demo/vendor/common/B91/plic_isr.c:488
}
    185a:	4632                	c.lwsp	a2,12(sp)
    185c:	46a2                	c.lwsp	a3,8(sp)
    185e:	4712                	c.lwsp	a4,4(sp)
    1860:	4782                	c.lwsp	a5,0(sp)
    1862:	0141                	c.addi	sp,16
    1864:	30200073          	mret
plic_isr():
C:/Users/Admin/Desktop/test1/telink_b91m_driver_src/chip/B91/drivers/lib/src/plic.c:99
    1868:	34102773          	csrr	a4,mepc
    186c:	300026f3          	csrr	a3,mstatus
    1870:	7c4027f3          	csrr	a5,mxstatus
    1874:	30046673          	csrrsi	a2,mstatus,8
C:/Users/Admin/Desktop/test1/telink_b91m_driver_src/chip/B91/drivers/lib/src/plic.c:101
    1878:	30047673          	csrrci	a2,mstatus,8
    187c:	30069073          	csrw	mstatus,a3
    1880:	34171073          	csrw	mepc,a4
    1884:	7c479073          	csrw	mxstatus,a5
plic_interrupt_complete():
C:\Users\Admin\Desktop\test1\telink_b91m_driver_src\chip\B91\drivers/lib/include/plic.h:281
    1888:	e42007b7          	lui	a5,0xe4200
    188c:	02100713          	li	a4,33
    1890:	c3d8                	c.sw	a4,4(a5)
plic_isr():
C:/Users/Admin/Desktop/test1/telink_b91m_driver_src/chip/B91/drivers/lib/src/plic.c:103
    1892:	0ff0000f          	fence
entry_irq33():
E:/promotion/gitlab/telink_b91m_driver_sdk/telink_b91m_driver_sdk/demo/vendor/common/B91/plic_isr.c:488
    1896:	4632                	c.lwsp	a2,12(sp)
    1898:	46a2                	c.lwsp	a3,8(sp)
    189a:	4712                	c.lwsp	a4,4(sp)
    189c:	4782                	c.lwsp	a5,0(sp)
    189e:	0141                	c.addi	sp,16
    18a0:	30200073          	mret

000018a4 <entry_irq32>:
entry_irq32():
E:/promotion/gitlab/telink_b91m_driver_sdk/telink_b91m_driver_sdk/demo/vendor/common/B91/plic_isr.c:476
{
    18a4:	1141                	c.addi	sp,-16
    18a6:	c03e                	c.swsp	a5,0(sp)
plic_isr():
C:/Users/Admin/Desktop/test1/telink_b91m_driver_src/chip/B91/drivers/lib/src/plic.c:97
    18a8:	000007b7          	lui	a5,0x0
    18ac:	15878793          	addi	a5,a5,344 # 158 <_AES_VMA_END>
entry_irq32():
E:/promotion/gitlab/telink_b91m_driver_sdk/telink_b91m_driver_sdk/demo/vendor/common/B91/plic_isr.c:476
    18b0:	c632                	c.swsp	a2,12(sp)
    18b2:	c436                	c.swsp	a3,8(sp)
    18b4:	c23a                	c.swsp	a4,4(sp)
plic_isr():
C:/Users/Admin/Desktop/test1/telink_b91m_driver_src/chip/B91/drivers/lib/src/plic.c:97
    18b6:	04078783          	lb	a5,64(a5)
    18ba:	0ff7f793          	andi	a5,a5,255
    18be:	ef89                	c.bnez	a5,18d8 <entry_irq32+0x34>
plic_interrupt_complete():
C:\Users\Admin\Desktop\test1\telink_b91m_driver_src\chip\B91\drivers/lib/include/plic.h:281
    18c0:	e42007b7          	lui	a5,0xe4200
    18c4:	02000713          	li	a4,32
    18c8:	c3d8                	c.sw	a4,4(a5)
entry_irq32():
E:/promotion/gitlab/telink_b91m_driver_sdk/telink_b91m_driver_sdk/demo/vendor/common/B91/plic_isr.c:478
}
    18ca:	4632                	c.lwsp	a2,12(sp)
    18cc:	46a2                	c.lwsp	a3,8(sp)
    18ce:	4712                	c.lwsp	a4,4(sp)
    18d0:	4782                	c.lwsp	a5,0(sp)
    18d2:	0141                	c.addi	sp,16
    18d4:	30200073          	mret
plic_isr():
C:/Users/Admin/Desktop/test1/telink_b91m_driver_src/chip/B91/drivers/lib/src/plic.c:99
    18d8:	34102773          	csrr	a4,mepc
    18dc:	300026f3          	csrr	a3,mstatus
    18e0:	7c4027f3          	csrr	a5,mxstatus
    18e4:	30046673          	csrrsi	a2,mstatus,8
C:/Users/Admin/Desktop/test1/telink_b91m_driver_src/chip/B91/drivers/lib/src/plic.c:101
    18e8:	30047673          	csrrci	a2,mstatus,8
    18ec:	30069073          	csrw	mstatus,a3
    18f0:	34171073          	csrw	mepc,a4
    18f4:	7c479073          	csrw	mxstatus,a5
plic_interrupt_complete():
C:\Users\Admin\Desktop\test1\telink_b91m_driver_src\chip\B91\drivers/lib/include/plic.h:281
    18f8:	e42007b7          	lui	a5,0xe4200
    18fc:	02000713          	li	a4,32
    1900:	c3d8                	c.sw	a4,4(a5)
plic_isr():
C:/Users/Admin/Desktop/test1/telink_b91m_driver_src/chip/B91/drivers/lib/src/plic.c:103
    1902:	0ff0000f          	fence
entry_irq32():
E:/promotion/gitlab/telink_b91m_driver_sdk/telink_b91m_driver_sdk/demo/vendor/common/B91/plic_isr.c:478
    1906:	4632                	c.lwsp	a2,12(sp)
    1908:	46a2                	c.lwsp	a3,8(sp)
    190a:	4712                	c.lwsp	a4,4(sp)
    190c:	4782                	c.lwsp	a5,0(sp)
    190e:	0141                	c.addi	sp,16
    1910:	30200073          	mret

00001914 <entry_irq31>:
entry_irq31():
E:/promotion/gitlab/telink_b91m_driver_sdk/telink_b91m_driver_sdk/demo/vendor/common/B91/plic_isr.c:467
{
    1914:	1141                	c.addi	sp,-16
    1916:	c03e                	c.swsp	a5,0(sp)
plic_isr():
C:/Users/Admin/Desktop/test1/telink_b91m_driver_src/chip/B91/drivers/lib/src/plic.c:97
    1918:	000007b7          	lui	a5,0x0
    191c:	15878793          	addi	a5,a5,344 # 158 <_AES_VMA_END>
entry_irq31():
E:/promotion/gitlab/telink_b91m_driver_sdk/telink_b91m_driver_sdk/demo/vendor/common/B91/plic_isr.c:467
    1920:	c632                	c.swsp	a2,12(sp)
    1922:	c436                	c.swsp	a3,8(sp)
    1924:	c23a                	c.swsp	a4,4(sp)
plic_isr():
C:/Users/Admin/Desktop/test1/telink_b91m_driver_src/chip/B91/drivers/lib/src/plic.c:97
    1926:	04078783          	lb	a5,64(a5)
    192a:	0ff7f793          	andi	a5,a5,255
    192e:	ef89                	c.bnez	a5,1948 <entry_irq31+0x34>
plic_interrupt_complete():
C:\Users\Admin\Desktop\test1\telink_b91m_driver_src\chip\B91\drivers/lib/include/plic.h:281
    1930:	e42007b7          	lui	a5,0xe4200
    1934:	477d                	c.li	a4,31
    1936:	c3d8                	c.sw	a4,4(a5)
entry_irq31():
E:/promotion/gitlab/telink_b91m_driver_sdk/telink_b91m_driver_sdk/demo/vendor/common/B91/plic_isr.c:469
}
    1938:	4632                	c.lwsp	a2,12(sp)
    193a:	46a2                	c.lwsp	a3,8(sp)
    193c:	4712                	c.lwsp	a4,4(sp)
    193e:	4782                	c.lwsp	a5,0(sp)
    1940:	01010113          	addi	sp,sp,16
    1944:	30200073          	mret
plic_isr():
C:/Users/Admin/Desktop/test1/telink_b91m_driver_src/chip/B91/drivers/lib/src/plic.c:99
    1948:	34102773          	csrr	a4,mepc
    194c:	300026f3          	csrr	a3,mstatus
    1950:	7c4027f3          	csrr	a5,mxstatus
    1954:	30046673          	csrrsi	a2,mstatus,8
C:/Users/Admin/Desktop/test1/telink_b91m_driver_src/chip/B91/drivers/lib/src/plic.c:101
    1958:	30047673          	csrrci	a2,mstatus,8
    195c:	30069073          	csrw	mstatus,a3
    1960:	34171073          	csrw	mepc,a4
    1964:	7c479073          	csrw	mxstatus,a5
plic_interrupt_complete():
C:\Users\Admin\Desktop\test1\telink_b91m_driver_src\chip\B91\drivers/lib/include/plic.h:281
    1968:	e42007b7          	lui	a5,0xe4200
    196c:	477d                	c.li	a4,31
    196e:	c3d8                	c.sw	a4,4(a5)
plic_isr():
C:/Users/Admin/Desktop/test1/telink_b91m_driver_src/chip/B91/drivers/lib/src/plic.c:103
    1970:	0ff0000f          	fence
entry_irq31():
E:/promotion/gitlab/telink_b91m_driver_sdk/telink_b91m_driver_sdk/demo/vendor/common/B91/plic_isr.c:469
    1974:	4632                	c.lwsp	a2,12(sp)
    1976:	46a2                	c.lwsp	a3,8(sp)
    1978:	4712                	c.lwsp	a4,4(sp)
    197a:	4782                	c.lwsp	a5,0(sp)
    197c:	01010113          	addi	sp,sp,16
    1980:	30200073          	mret

00001984 <entry_irq30>:
entry_irq30():
E:/promotion/gitlab/telink_b91m_driver_sdk/telink_b91m_driver_sdk/demo/vendor/common/B91/plic_isr.c:458
{
    1984:	1141                	c.addi	sp,-16
    1986:	c03e                	c.swsp	a5,0(sp)
plic_isr():
C:/Users/Admin/Desktop/test1/telink_b91m_driver_src/chip/B91/drivers/lib/src/plic.c:97
    1988:	000007b7          	lui	a5,0x0
    198c:	15878793          	addi	a5,a5,344 # 158 <_AES_VMA_END>
entry_irq30():
E:/promotion/gitlab/telink_b91m_driver_sdk/telink_b91m_driver_sdk/demo/vendor/common/B91/plic_isr.c:458
    1990:	c632                	c.swsp	a2,12(sp)
    1992:	c436                	c.swsp	a3,8(sp)
    1994:	c23a                	c.swsp	a4,4(sp)
plic_isr():
C:/Users/Admin/Desktop/test1/telink_b91m_driver_src/chip/B91/drivers/lib/src/plic.c:97
    1996:	04078783          	lb	a5,64(a5)
    199a:	0ff7f793          	andi	a5,a5,255
    199e:	ef89                	c.bnez	a5,19b8 <entry_irq30+0x34>
plic_interrupt_complete():
C:\Users\Admin\Desktop\test1\telink_b91m_driver_src\chip\B91\drivers/lib/include/plic.h:281
    19a0:	e42007b7          	lui	a5,0xe4200
    19a4:	4779                	c.li	a4,30
    19a6:	c3d8                	c.sw	a4,4(a5)
entry_irq30():
E:/promotion/gitlab/telink_b91m_driver_sdk/telink_b91m_driver_sdk/demo/vendor/common/B91/plic_isr.c:460
}
    19a8:	4632                	c.lwsp	a2,12(sp)
    19aa:	46a2                	c.lwsp	a3,8(sp)
    19ac:	4712                	c.lwsp	a4,4(sp)
    19ae:	4782                	c.lwsp	a5,0(sp)
    19b0:	01010113          	addi	sp,sp,16
    19b4:	30200073          	mret
plic_isr():
C:/Users/Admin/Desktop/test1/telink_b91m_driver_src/chip/B91/drivers/lib/src/plic.c:99
    19b8:	34102773          	csrr	a4,mepc
    19bc:	300026f3          	csrr	a3,mstatus
    19c0:	7c4027f3          	csrr	a5,mxstatus
    19c4:	30046673          	csrrsi	a2,mstatus,8
C:/Users/Admin/Desktop/test1/telink_b91m_driver_src/chip/B91/drivers/lib/src/plic.c:101
    19c8:	30047673          	csrrci	a2,mstatus,8
    19cc:	30069073          	csrw	mstatus,a3
    19d0:	34171073          	csrw	mepc,a4
    19d4:	7c479073          	csrw	mxstatus,a5
plic_interrupt_complete():
C:\Users\Admin\Desktop\test1\telink_b91m_driver_src\chip\B91\drivers/lib/include/plic.h:281
    19d8:	e42007b7          	lui	a5,0xe4200
    19dc:	4779                	c.li	a4,30
    19de:	c3d8                	c.sw	a4,4(a5)
plic_isr():
C:/Users/Admin/Desktop/test1/telink_b91m_driver_src/chip/B91/drivers/lib/src/plic.c:103
    19e0:	0ff0000f          	fence
entry_irq30():
E:/promotion/gitlab/telink_b91m_driver_sdk/telink_b91m_driver_sdk/demo/vendor/common/B91/plic_isr.c:460
    19e4:	4632                	c.lwsp	a2,12(sp)
    19e6:	46a2                	c.lwsp	a3,8(sp)
    19e8:	4712                	c.lwsp	a4,4(sp)
    19ea:	4782                	c.lwsp	a5,0(sp)
    19ec:	01010113          	addi	sp,sp,16
    19f0:	30200073          	mret

000019f4 <entry_irq29>:
entry_irq29():
E:/promotion/gitlab/telink_b91m_driver_sdk/telink_b91m_driver_sdk/demo/vendor/common/B91/plic_isr.c:449
{
    19f4:	1141                	c.addi	sp,-16
    19f6:	c03e                	c.swsp	a5,0(sp)
plic_isr():
C:/Users/Admin/Desktop/test1/telink_b91m_driver_src/chip/B91/drivers/lib/src/plic.c:97
    19f8:	000007b7          	lui	a5,0x0
    19fc:	15878793          	addi	a5,a5,344 # 158 <_AES_VMA_END>
entry_irq29():
E:/promotion/gitlab/telink_b91m_driver_sdk/telink_b91m_driver_sdk/demo/vendor/common/B91/plic_isr.c:449
    1a00:	c632                	c.swsp	a2,12(sp)
    1a02:	c436                	c.swsp	a3,8(sp)
    1a04:	c23a                	c.swsp	a4,4(sp)
plic_isr():
C:/Users/Admin/Desktop/test1/telink_b91m_driver_src/chip/B91/drivers/lib/src/plic.c:97
    1a06:	04078783          	lb	a5,64(a5)
    1a0a:	0ff7f793          	andi	a5,a5,255
    1a0e:	ef89                	c.bnez	a5,1a28 <entry_irq29+0x34>
plic_interrupt_complete():
C:\Users\Admin\Desktop\test1\telink_b91m_driver_src\chip\B91\drivers/lib/include/plic.h:281
    1a10:	e42007b7          	lui	a5,0xe4200
    1a14:	4775                	c.li	a4,29
    1a16:	c3d8                	c.sw	a4,4(a5)
entry_irq29():
E:/promotion/gitlab/telink_b91m_driver_sdk/telink_b91m_driver_sdk/demo/vendor/common/B91/plic_isr.c:451
}
    1a18:	4632                	c.lwsp	a2,12(sp)
    1a1a:	46a2                	c.lwsp	a3,8(sp)
    1a1c:	4712                	c.lwsp	a4,4(sp)
    1a1e:	4782                	c.lwsp	a5,0(sp)
    1a20:	01010113          	addi	sp,sp,16
    1a24:	30200073          	mret
plic_isr():
C:/Users/Admin/Desktop/test1/telink_b91m_driver_src/chip/B91/drivers/lib/src/plic.c:99
    1a28:	34102773          	csrr	a4,mepc
    1a2c:	300026f3          	csrr	a3,mstatus
    1a30:	7c4027f3          	csrr	a5,mxstatus
    1a34:	30046673          	csrrsi	a2,mstatus,8
C:/Users/Admin/Desktop/test1/telink_b91m_driver_src/chip/B91/drivers/lib/src/plic.c:101
    1a38:	30047673          	csrrci	a2,mstatus,8
    1a3c:	30069073          	csrw	mstatus,a3
    1a40:	34171073          	csrw	mepc,a4
    1a44:	7c479073          	csrw	mxstatus,a5
plic_interrupt_complete():
C:\Users\Admin\Desktop\test1\telink_b91m_driver_src\chip\B91\drivers/lib/include/plic.h:281
    1a48:	e42007b7          	lui	a5,0xe4200
    1a4c:	4775                	c.li	a4,29
    1a4e:	c3d8                	c.sw	a4,4(a5)
plic_isr():
C:/Users/Admin/Desktop/test1/telink_b91m_driver_src/chip/B91/drivers/lib/src/plic.c:103
    1a50:	0ff0000f          	fence
entry_irq29():
E:/promotion/gitlab/telink_b91m_driver_sdk/telink_b91m_driver_sdk/demo/vendor/common/B91/plic_isr.c:451
    1a54:	4632                	c.lwsp	a2,12(sp)
    1a56:	46a2                	c.lwsp	a3,8(sp)
    1a58:	4712                	c.lwsp	a4,4(sp)
    1a5a:	4782                	c.lwsp	a5,0(sp)
    1a5c:	01010113          	addi	sp,sp,16
    1a60:	30200073          	mret

00001a64 <entry_irq28>:
entry_irq28():
E:/promotion/gitlab/telink_b91m_driver_sdk/telink_b91m_driver_sdk/demo/vendor/common/B91/plic_isr.c:438
{
    1a64:	1141                	c.addi	sp,-16
    1a66:	c03e                	c.swsp	a5,0(sp)
plic_isr():
C:/Users/Admin/Desktop/test1/telink_b91m_driver_src/chip/B91/drivers/lib/src/plic.c:97
    1a68:	000007b7          	lui	a5,0x0
    1a6c:	15878793          	addi	a5,a5,344 # 158 <_AES_VMA_END>
entry_irq28():
E:/promotion/gitlab/telink_b91m_driver_sdk/telink_b91m_driver_sdk/demo/vendor/common/B91/plic_isr.c:438
    1a70:	c632                	c.swsp	a2,12(sp)
    1a72:	c436                	c.swsp	a3,8(sp)
    1a74:	c23a                	c.swsp	a4,4(sp)
plic_isr():
C:/Users/Admin/Desktop/test1/telink_b91m_driver_src/chip/B91/drivers/lib/src/plic.c:97
    1a76:	04078783          	lb	a5,64(a5)
    1a7a:	0ff7f793          	andi	a5,a5,255
    1a7e:	ef89                	c.bnez	a5,1a98 <entry_irq28+0x34>
plic_interrupt_complete():
C:\Users\Admin\Desktop\test1\telink_b91m_driver_src\chip\B91\drivers/lib/include/plic.h:281
    1a80:	e42007b7          	lui	a5,0xe4200
    1a84:	4771                	c.li	a4,28
    1a86:	c3d8                	c.sw	a4,4(a5)
entry_irq28():
E:/promotion/gitlab/telink_b91m_driver_sdk/telink_b91m_driver_sdk/demo/vendor/common/B91/plic_isr.c:440
}
    1a88:	4632                	c.lwsp	a2,12(sp)
    1a8a:	46a2                	c.lwsp	a3,8(sp)
    1a8c:	4712                	c.lwsp	a4,4(sp)
    1a8e:	4782                	c.lwsp	a5,0(sp)
    1a90:	01010113          	addi	sp,sp,16
    1a94:	30200073          	mret
plic_isr():
C:/Users/Admin/Desktop/test1/telink_b91m_driver_src/chip/B91/drivers/lib/src/plic.c:99
    1a98:	34102773          	csrr	a4,mepc
    1a9c:	300026f3          	csrr	a3,mstatus
    1aa0:	7c4027f3          	csrr	a5,mxstatus
    1aa4:	30046673          	csrrsi	a2,mstatus,8
C:/Users/Admin/Desktop/test1/telink_b91m_driver_src/chip/B91/drivers/lib/src/plic.c:101
    1aa8:	30047673          	csrrci	a2,mstatus,8
    1aac:	30069073          	csrw	mstatus,a3
    1ab0:	34171073          	csrw	mepc,a4
    1ab4:	7c479073          	csrw	mxstatus,a5
plic_interrupt_complete():
C:\Users\Admin\Desktop\test1\telink_b91m_driver_src\chip\B91\drivers/lib/include/plic.h:281
    1ab8:	e42007b7          	lui	a5,0xe4200
    1abc:	4771                	c.li	a4,28
    1abe:	c3d8                	c.sw	a4,4(a5)
plic_isr():
C:/Users/Admin/Desktop/test1/telink_b91m_driver_src/chip/B91/drivers/lib/src/plic.c:103
    1ac0:	0ff0000f          	fence
entry_irq28():
E:/promotion/gitlab/telink_b91m_driver_sdk/telink_b91m_driver_sdk/demo/vendor/common/B91/plic_isr.c:440
    1ac4:	4632                	c.lwsp	a2,12(sp)
    1ac6:	46a2                	c.lwsp	a3,8(sp)
    1ac8:	4712                	c.lwsp	a4,4(sp)
    1aca:	4782                	c.lwsp	a5,0(sp)
    1acc:	01010113          	addi	sp,sp,16
    1ad0:	30200073          	mret

00001ad4 <entry_irq27>:
entry_irq27():
E:/promotion/gitlab/telink_b91m_driver_sdk/telink_b91m_driver_sdk/demo/vendor/common/B91/plic_isr.c:428
{
    1ad4:	1141                	c.addi	sp,-16
    1ad6:	c03e                	c.swsp	a5,0(sp)
plic_isr():
C:/Users/Admin/Desktop/test1/telink_b91m_driver_src/chip/B91/drivers/lib/src/plic.c:97
    1ad8:	000007b7          	lui	a5,0x0
    1adc:	15878793          	addi	a5,a5,344 # 158 <_AES_VMA_END>
entry_irq27():
E:/promotion/gitlab/telink_b91m_driver_sdk/telink_b91m_driver_sdk/demo/vendor/common/B91/plic_isr.c:428
    1ae0:	c632                	c.swsp	a2,12(sp)
    1ae2:	c436                	c.swsp	a3,8(sp)
    1ae4:	c23a                	c.swsp	a4,4(sp)
plic_isr():
C:/Users/Admin/Desktop/test1/telink_b91m_driver_src/chip/B91/drivers/lib/src/plic.c:97
    1ae6:	04078783          	lb	a5,64(a5)
    1aea:	0ff7f793          	andi	a5,a5,255
    1aee:	ef89                	c.bnez	a5,1b08 <entry_irq27+0x34>
plic_interrupt_complete():
C:\Users\Admin\Desktop\test1\telink_b91m_driver_src\chip\B91\drivers/lib/include/plic.h:281
    1af0:	e42007b7          	lui	a5,0xe4200
    1af4:	476d                	c.li	a4,27
    1af6:	c3d8                	c.sw	a4,4(a5)
entry_irq27():
E:/promotion/gitlab/telink_b91m_driver_sdk/telink_b91m_driver_sdk/demo/vendor/common/B91/plic_isr.c:430
}
    1af8:	4632                	c.lwsp	a2,12(sp)
    1afa:	46a2                	c.lwsp	a3,8(sp)
    1afc:	4712                	c.lwsp	a4,4(sp)
    1afe:	4782                	c.lwsp	a5,0(sp)
    1b00:	01010113          	addi	sp,sp,16
    1b04:	30200073          	mret
plic_isr():
C:/Users/Admin/Desktop/test1/telink_b91m_driver_src/chip/B91/drivers/lib/src/plic.c:99
    1b08:	34102773          	csrr	a4,mepc
    1b0c:	300026f3          	csrr	a3,mstatus
    1b10:	7c4027f3          	csrr	a5,mxstatus
    1b14:	30046673          	csrrsi	a2,mstatus,8
C:/Users/Admin/Desktop/test1/telink_b91m_driver_src/chip/B91/drivers/lib/src/plic.c:101
    1b18:	30047673          	csrrci	a2,mstatus,8
    1b1c:	30069073          	csrw	mstatus,a3
    1b20:	34171073          	csrw	mepc,a4
    1b24:	7c479073          	csrw	mxstatus,a5
plic_interrupt_complete():
C:\Users\Admin\Desktop\test1\telink_b91m_driver_src\chip\B91\drivers/lib/include/plic.h:281
    1b28:	e42007b7          	lui	a5,0xe4200
    1b2c:	476d                	c.li	a4,27
    1b2e:	c3d8                	c.sw	a4,4(a5)
plic_isr():
C:/Users/Admin/Desktop/test1/telink_b91m_driver_src/chip/B91/drivers/lib/src/plic.c:103
    1b30:	0ff0000f          	fence
entry_irq27():
E:/promotion/gitlab/telink_b91m_driver_sdk/telink_b91m_driver_sdk/demo/vendor/common/B91/plic_isr.c:430
    1b34:	4632                	c.lwsp	a2,12(sp)
    1b36:	46a2                	c.lwsp	a3,8(sp)
    1b38:	4712                	c.lwsp	a4,4(sp)
    1b3a:	4782                	c.lwsp	a5,0(sp)
    1b3c:	01010113          	addi	sp,sp,16
    1b40:	30200073          	mret

00001b44 <entry_irq26>:
entry_irq26():
E:/promotion/gitlab/telink_b91m_driver_sdk/telink_b91m_driver_sdk/demo/vendor/common/B91/plic_isr.c:417
{
    1b44:	1141                	c.addi	sp,-16
    1b46:	c03e                	c.swsp	a5,0(sp)
plic_isr():
C:/Users/Admin/Desktop/test1/telink_b91m_driver_src/chip/B91/drivers/lib/src/plic.c:97
    1b48:	000007b7          	lui	a5,0x0
    1b4c:	15878793          	addi	a5,a5,344 # 158 <_AES_VMA_END>
entry_irq26():
E:/promotion/gitlab/telink_b91m_driver_sdk/telink_b91m_driver_sdk/demo/vendor/common/B91/plic_isr.c:417
    1b50:	c632                	c.swsp	a2,12(sp)
    1b52:	c436                	c.swsp	a3,8(sp)
    1b54:	c23a                	c.swsp	a4,4(sp)
plic_isr():
C:/Users/Admin/Desktop/test1/telink_b91m_driver_src/chip/B91/drivers/lib/src/plic.c:97
    1b56:	04078783          	lb	a5,64(a5)
    1b5a:	0ff7f793          	andi	a5,a5,255
    1b5e:	ef89                	c.bnez	a5,1b78 <entry_irq26+0x34>
plic_interrupt_complete():
C:\Users\Admin\Desktop\test1\telink_b91m_driver_src\chip\B91\drivers/lib/include/plic.h:281
    1b60:	e42007b7          	lui	a5,0xe4200
    1b64:	4769                	c.li	a4,26
    1b66:	c3d8                	c.sw	a4,4(a5)
entry_irq26():
E:/promotion/gitlab/telink_b91m_driver_sdk/telink_b91m_driver_sdk/demo/vendor/common/B91/plic_isr.c:419
}
    1b68:	4632                	c.lwsp	a2,12(sp)
    1b6a:	46a2                	c.lwsp	a3,8(sp)
    1b6c:	4712                	c.lwsp	a4,4(sp)
    1b6e:	4782                	c.lwsp	a5,0(sp)
    1b70:	01010113          	addi	sp,sp,16
    1b74:	30200073          	mret
plic_isr():
C:/Users/Admin/Desktop/test1/telink_b91m_driver_src/chip/B91/drivers/lib/src/plic.c:99
    1b78:	34102773          	csrr	a4,mepc
    1b7c:	300026f3          	csrr	a3,mstatus
    1b80:	7c4027f3          	csrr	a5,mxstatus
    1b84:	30046673          	csrrsi	a2,mstatus,8
C:/Users/Admin/Desktop/test1/telink_b91m_driver_src/chip/B91/drivers/lib/src/plic.c:101
    1b88:	30047673          	csrrci	a2,mstatus,8
    1b8c:	30069073          	csrw	mstatus,a3
    1b90:	34171073          	csrw	mepc,a4
    1b94:	7c479073          	csrw	mxstatus,a5
plic_interrupt_complete():
C:\Users\Admin\Desktop\test1\telink_b91m_driver_src\chip\B91\drivers/lib/include/plic.h:281
    1b98:	e42007b7          	lui	a5,0xe4200
    1b9c:	4769                	c.li	a4,26
    1b9e:	c3d8                	c.sw	a4,4(a5)
plic_isr():
C:/Users/Admin/Desktop/test1/telink_b91m_driver_src/chip/B91/drivers/lib/src/plic.c:103
    1ba0:	0ff0000f          	fence
entry_irq26():
E:/promotion/gitlab/telink_b91m_driver_sdk/telink_b91m_driver_sdk/demo/vendor/common/B91/plic_isr.c:419
    1ba4:	4632                	c.lwsp	a2,12(sp)
    1ba6:	46a2                	c.lwsp	a3,8(sp)
    1ba8:	4712                	c.lwsp	a4,4(sp)
    1baa:	4782                	c.lwsp	a5,0(sp)
    1bac:	01010113          	addi	sp,sp,16
    1bb0:	30200073          	mret

00001bb4 <entry_irq25>:
entry_irq25():
E:/promotion/gitlab/telink_b91m_driver_sdk/telink_b91m_driver_sdk/demo/vendor/common/B91/plic_isr.c:407
{
    1bb4:	1141                	c.addi	sp,-16
    1bb6:	c03e                	c.swsp	a5,0(sp)
plic_isr():
C:/Users/Admin/Desktop/test1/telink_b91m_driver_src/chip/B91/drivers/lib/src/plic.c:97
    1bb8:	000007b7          	lui	a5,0x0
    1bbc:	15878793          	addi	a5,a5,344 # 158 <_AES_VMA_END>
entry_irq25():
E:/promotion/gitlab/telink_b91m_driver_sdk/telink_b91m_driver_sdk/demo/vendor/common/B91/plic_isr.c:407
    1bc0:	c632                	c.swsp	a2,12(sp)
    1bc2:	c436                	c.swsp	a3,8(sp)
    1bc4:	c23a                	c.swsp	a4,4(sp)
plic_isr():
C:/Users/Admin/Desktop/test1/telink_b91m_driver_src/chip/B91/drivers/lib/src/plic.c:97
    1bc6:	04078783          	lb	a5,64(a5)
    1bca:	0ff7f793          	andi	a5,a5,255
    1bce:	ef89                	c.bnez	a5,1be8 <entry_irq25+0x34>
plic_interrupt_complete():
C:\Users\Admin\Desktop\test1\telink_b91m_driver_src\chip\B91\drivers/lib/include/plic.h:281
    1bd0:	e42007b7          	lui	a5,0xe4200
    1bd4:	4765                	c.li	a4,25
    1bd6:	c3d8                	c.sw	a4,4(a5)
entry_irq25():
E:/promotion/gitlab/telink_b91m_driver_sdk/telink_b91m_driver_sdk/demo/vendor/common/B91/plic_isr.c:409
}
    1bd8:	4632                	c.lwsp	a2,12(sp)
    1bda:	46a2                	c.lwsp	a3,8(sp)
    1bdc:	4712                	c.lwsp	a4,4(sp)
    1bde:	4782                	c.lwsp	a5,0(sp)
    1be0:	01010113          	addi	sp,sp,16
    1be4:	30200073          	mret
plic_isr():
C:/Users/Admin/Desktop/test1/telink_b91m_driver_src/chip/B91/drivers/lib/src/plic.c:99
    1be8:	34102773          	csrr	a4,mepc
    1bec:	300026f3          	csrr	a3,mstatus
    1bf0:	7c4027f3          	csrr	a5,mxstatus
    1bf4:	30046673          	csrrsi	a2,mstatus,8
C:/Users/Admin/Desktop/test1/telink_b91m_driver_src/chip/B91/drivers/lib/src/plic.c:101
    1bf8:	30047673          	csrrci	a2,mstatus,8
    1bfc:	30069073          	csrw	mstatus,a3
    1c00:	34171073          	csrw	mepc,a4
    1c04:	7c479073          	csrw	mxstatus,a5
plic_interrupt_complete():
C:\Users\Admin\Desktop\test1\telink_b91m_driver_src\chip\B91\drivers/lib/include/plic.h:281
    1c08:	e42007b7          	lui	a5,0xe4200
    1c0c:	4765                	c.li	a4,25
    1c0e:	c3d8                	c.sw	a4,4(a5)
plic_isr():
C:/Users/Admin/Desktop/test1/telink_b91m_driver_src/chip/B91/drivers/lib/src/plic.c:103
    1c10:	0ff0000f          	fence
entry_irq25():
E:/promotion/gitlab/telink_b91m_driver_sdk/telink_b91m_driver_sdk/demo/vendor/common/B91/plic_isr.c:409
    1c14:	4632                	c.lwsp	a2,12(sp)
    1c16:	46a2                	c.lwsp	a3,8(sp)
    1c18:	4712                	c.lwsp	a4,4(sp)
    1c1a:	4782                	c.lwsp	a5,0(sp)
    1c1c:	01010113          	addi	sp,sp,16
    1c20:	30200073          	mret

00001c24 <entry_irq24>:
entry_irq24():
E:/promotion/gitlab/telink_b91m_driver_sdk/telink_b91m_driver_sdk/demo/vendor/common/B91/plic_isr.c:397
{
    1c24:	1141                	c.addi	sp,-16
    1c26:	c03e                	c.swsp	a5,0(sp)
plic_isr():
C:/Users/Admin/Desktop/test1/telink_b91m_driver_src/chip/B91/drivers/lib/src/plic.c:97
    1c28:	000007b7          	lui	a5,0x0
    1c2c:	15878793          	addi	a5,a5,344 # 158 <_AES_VMA_END>
entry_irq24():
E:/promotion/gitlab/telink_b91m_driver_sdk/telink_b91m_driver_sdk/demo/vendor/common/B91/plic_isr.c:397
    1c30:	c632                	c.swsp	a2,12(sp)
    1c32:	c436                	c.swsp	a3,8(sp)
    1c34:	c23a                	c.swsp	a4,4(sp)
plic_isr():
C:/Users/Admin/Desktop/test1/telink_b91m_driver_src/chip/B91/drivers/lib/src/plic.c:97
    1c36:	04078783          	lb	a5,64(a5)
    1c3a:	0ff7f793          	andi	a5,a5,255
    1c3e:	ef89                	c.bnez	a5,1c58 <entry_irq24+0x34>
plic_interrupt_complete():
C:\Users\Admin\Desktop\test1\telink_b91m_driver_src\chip\B91\drivers/lib/include/plic.h:281
    1c40:	e42007b7          	lui	a5,0xe4200
    1c44:	4761                	c.li	a4,24
    1c46:	c3d8                	c.sw	a4,4(a5)
entry_irq24():
E:/promotion/gitlab/telink_b91m_driver_sdk/telink_b91m_driver_sdk/demo/vendor/common/B91/plic_isr.c:399
}
    1c48:	4632                	c.lwsp	a2,12(sp)
    1c4a:	46a2                	c.lwsp	a3,8(sp)
    1c4c:	4712                	c.lwsp	a4,4(sp)
    1c4e:	4782                	c.lwsp	a5,0(sp)
    1c50:	01010113          	addi	sp,sp,16
    1c54:	30200073          	mret
plic_isr():
C:/Users/Admin/Desktop/test1/telink_b91m_driver_src/chip/B91/drivers/lib/src/plic.c:99
    1c58:	34102773          	csrr	a4,mepc
    1c5c:	300026f3          	csrr	a3,mstatus
    1c60:	7c4027f3          	csrr	a5,mxstatus
    1c64:	30046673          	csrrsi	a2,mstatus,8
C:/Users/Admin/Desktop/test1/telink_b91m_driver_src/chip/B91/drivers/lib/src/plic.c:101
    1c68:	30047673          	csrrci	a2,mstatus,8
    1c6c:	30069073          	csrw	mstatus,a3
    1c70:	34171073          	csrw	mepc,a4
    1c74:	7c479073          	csrw	mxstatus,a5
plic_interrupt_complete():
C:\Users\Admin\Desktop\test1\telink_b91m_driver_src\chip\B91\drivers/lib/include/plic.h:281
    1c78:	e42007b7          	lui	a5,0xe4200
    1c7c:	4761                	c.li	a4,24
    1c7e:	c3d8                	c.sw	a4,4(a5)
plic_isr():
C:/Users/Admin/Desktop/test1/telink_b91m_driver_src/chip/B91/drivers/lib/src/plic.c:103
    1c80:	0ff0000f          	fence
entry_irq24():
E:/promotion/gitlab/telink_b91m_driver_sdk/telink_b91m_driver_sdk/demo/vendor/common/B91/plic_isr.c:399
    1c84:	4632                	c.lwsp	a2,12(sp)
    1c86:	46a2                	c.lwsp	a3,8(sp)
    1c88:	4712                	c.lwsp	a4,4(sp)
    1c8a:	4782                	c.lwsp	a5,0(sp)
    1c8c:	01010113          	addi	sp,sp,16
    1c90:	30200073          	mret

00001c94 <entry_irq23>:
entry_irq23():
E:/promotion/gitlab/telink_b91m_driver_sdk/telink_b91m_driver_sdk/demo/vendor/common/B91/plic_isr.c:386
{
    1c94:	1141                	c.addi	sp,-16
    1c96:	c03e                	c.swsp	a5,0(sp)
plic_isr():
C:/Users/Admin/Desktop/test1/telink_b91m_driver_src/chip/B91/drivers/lib/src/plic.c:97
    1c98:	000007b7          	lui	a5,0x0
    1c9c:	15878793          	addi	a5,a5,344 # 158 <_AES_VMA_END>
entry_irq23():
E:/promotion/gitlab/telink_b91m_driver_sdk/telink_b91m_driver_sdk/demo/vendor/common/B91/plic_isr.c:386
    1ca0:	c632                	c.swsp	a2,12(sp)
    1ca2:	c436                	c.swsp	a3,8(sp)
    1ca4:	c23a                	c.swsp	a4,4(sp)
plic_isr():
C:/Users/Admin/Desktop/test1/telink_b91m_driver_src/chip/B91/drivers/lib/src/plic.c:97
    1ca6:	04078783          	lb	a5,64(a5)
    1caa:	0ff7f793          	andi	a5,a5,255
    1cae:	ef89                	c.bnez	a5,1cc8 <entry_irq23+0x34>
plic_interrupt_complete():
C:\Users\Admin\Desktop\test1\telink_b91m_driver_src\chip\B91\drivers/lib/include/plic.h:281
    1cb0:	e42007b7          	lui	a5,0xe4200
    1cb4:	475d                	c.li	a4,23
    1cb6:	c3d8                	c.sw	a4,4(a5)
entry_irq23():
E:/promotion/gitlab/telink_b91m_driver_sdk/telink_b91m_driver_sdk/demo/vendor/common/B91/plic_isr.c:389
}
    1cb8:	4632                	c.lwsp	a2,12(sp)
    1cba:	46a2                	c.lwsp	a3,8(sp)
    1cbc:	4712                	c.lwsp	a4,4(sp)
    1cbe:	4782                	c.lwsp	a5,0(sp)
    1cc0:	01010113          	addi	sp,sp,16
    1cc4:	30200073          	mret
plic_isr():
C:/Users/Admin/Desktop/test1/telink_b91m_driver_src/chip/B91/drivers/lib/src/plic.c:99
    1cc8:	34102773          	csrr	a4,mepc
    1ccc:	300026f3          	csrr	a3,mstatus
    1cd0:	7c4027f3          	csrr	a5,mxstatus
    1cd4:	30046673          	csrrsi	a2,mstatus,8
C:/Users/Admin/Desktop/test1/telink_b91m_driver_src/chip/B91/drivers/lib/src/plic.c:101
    1cd8:	30047673          	csrrci	a2,mstatus,8
    1cdc:	30069073          	csrw	mstatus,a3
    1ce0:	34171073          	csrw	mepc,a4
    1ce4:	7c479073          	csrw	mxstatus,a5
plic_interrupt_complete():
C:\Users\Admin\Desktop\test1\telink_b91m_driver_src\chip\B91\drivers/lib/include/plic.h:281
    1ce8:	e42007b7          	lui	a5,0xe4200
    1cec:	475d                	c.li	a4,23
    1cee:	c3d8                	c.sw	a4,4(a5)
plic_isr():
C:/Users/Admin/Desktop/test1/telink_b91m_driver_src/chip/B91/drivers/lib/src/plic.c:103
    1cf0:	0ff0000f          	fence
entry_irq23():
E:/promotion/gitlab/telink_b91m_driver_sdk/telink_b91m_driver_sdk/demo/vendor/common/B91/plic_isr.c:389
    1cf4:	4632                	c.lwsp	a2,12(sp)
    1cf6:	46a2                	c.lwsp	a3,8(sp)
    1cf8:	4712                	c.lwsp	a4,4(sp)
    1cfa:	4782                	c.lwsp	a5,0(sp)
    1cfc:	01010113          	addi	sp,sp,16
    1d00:	30200073          	mret

00001d04 <entry_irq22>:
entry_irq22():
E:/promotion/gitlab/telink_b91m_driver_sdk/telink_b91m_driver_sdk/demo/vendor/common/B91/plic_isr.c:375
{
    1d04:	1141                	c.addi	sp,-16
    1d06:	c03e                	c.swsp	a5,0(sp)
plic_isr():
C:/Users/Admin/Desktop/test1/telink_b91m_driver_src/chip/B91/drivers/lib/src/plic.c:97
    1d08:	000007b7          	lui	a5,0x0
    1d0c:	15878793          	addi	a5,a5,344 # 158 <_AES_VMA_END>
entry_irq22():
E:/promotion/gitlab/telink_b91m_driver_sdk/telink_b91m_driver_sdk/demo/vendor/common/B91/plic_isr.c:375
    1d10:	c632                	c.swsp	a2,12(sp)
    1d12:	c436                	c.swsp	a3,8(sp)
    1d14:	c23a                	c.swsp	a4,4(sp)
plic_isr():
C:/Users/Admin/Desktop/test1/telink_b91m_driver_src/chip/B91/drivers/lib/src/plic.c:97
    1d16:	04078783          	lb	a5,64(a5)
    1d1a:	0ff7f793          	andi	a5,a5,255
    1d1e:	ef89                	c.bnez	a5,1d38 <entry_irq22+0x34>
plic_interrupt_complete():
C:\Users\Admin\Desktop\test1\telink_b91m_driver_src\chip\B91\drivers/lib/include/plic.h:281
    1d20:	e42007b7          	lui	a5,0xe4200
    1d24:	4759                	c.li	a4,22
    1d26:	c3d8                	c.sw	a4,4(a5)
entry_irq22():
E:/promotion/gitlab/telink_b91m_driver_sdk/telink_b91m_driver_sdk/demo/vendor/common/B91/plic_isr.c:377
}
    1d28:	4632                	c.lwsp	a2,12(sp)
    1d2a:	46a2                	c.lwsp	a3,8(sp)
    1d2c:	4712                	c.lwsp	a4,4(sp)
    1d2e:	4782                	c.lwsp	a5,0(sp)
    1d30:	01010113          	addi	sp,sp,16
    1d34:	30200073          	mret
plic_isr():
C:/Users/Admin/Desktop/test1/telink_b91m_driver_src/chip/B91/drivers/lib/src/plic.c:99
    1d38:	34102773          	csrr	a4,mepc
    1d3c:	300026f3          	csrr	a3,mstatus
    1d40:	7c4027f3          	csrr	a5,mxstatus
    1d44:	30046673          	csrrsi	a2,mstatus,8
C:/Users/Admin/Desktop/test1/telink_b91m_driver_src/chip/B91/drivers/lib/src/plic.c:101
    1d48:	30047673          	csrrci	a2,mstatus,8
    1d4c:	30069073          	csrw	mstatus,a3
    1d50:	34171073          	csrw	mepc,a4
    1d54:	7c479073          	csrw	mxstatus,a5
plic_interrupt_complete():
C:\Users\Admin\Desktop\test1\telink_b91m_driver_src\chip\B91\drivers/lib/include/plic.h:281
    1d58:	e42007b7          	lui	a5,0xe4200
    1d5c:	4759                	c.li	a4,22
    1d5e:	c3d8                	c.sw	a4,4(a5)
plic_isr():
C:/Users/Admin/Desktop/test1/telink_b91m_driver_src/chip/B91/drivers/lib/src/plic.c:103
    1d60:	0ff0000f          	fence
entry_irq22():
E:/promotion/gitlab/telink_b91m_driver_sdk/telink_b91m_driver_sdk/demo/vendor/common/B91/plic_isr.c:377
    1d64:	4632                	c.lwsp	a2,12(sp)
    1d66:	46a2                	c.lwsp	a3,8(sp)
    1d68:	4712                	c.lwsp	a4,4(sp)
    1d6a:	4782                	c.lwsp	a5,0(sp)
    1d6c:	01010113          	addi	sp,sp,16
    1d70:	30200073          	mret

00001d74 <entry_irq21>:
entry_irq21():
E:/promotion/gitlab/telink_b91m_driver_sdk/telink_b91m_driver_sdk/demo/vendor/common/B91/plic_isr.c:364
{
    1d74:	1141                	c.addi	sp,-16
    1d76:	c03e                	c.swsp	a5,0(sp)
plic_isr():
C:/Users/Admin/Desktop/test1/telink_b91m_driver_src/chip/B91/drivers/lib/src/plic.c:97
    1d78:	000007b7          	lui	a5,0x0
    1d7c:	15878793          	addi	a5,a5,344 # 158 <_AES_VMA_END>
entry_irq21():
E:/promotion/gitlab/telink_b91m_driver_sdk/telink_b91m_driver_sdk/demo/vendor/common/B91/plic_isr.c:364
    1d80:	c632                	c.swsp	a2,12(sp)
    1d82:	c436                	c.swsp	a3,8(sp)
    1d84:	c23a                	c.swsp	a4,4(sp)
plic_isr():
C:/Users/Admin/Desktop/test1/telink_b91m_driver_src/chip/B91/drivers/lib/src/plic.c:97
    1d86:	04078783          	lb	a5,64(a5)
    1d8a:	0ff7f793          	andi	a5,a5,255
    1d8e:	ef89                	c.bnez	a5,1da8 <entry_irq21+0x34>
plic_interrupt_complete():
C:\Users\Admin\Desktop\test1\telink_b91m_driver_src\chip\B91\drivers/lib/include/plic.h:281
    1d90:	e42007b7          	lui	a5,0xe4200
    1d94:	4755                	c.li	a4,21
    1d96:	c3d8                	c.sw	a4,4(a5)
entry_irq21():
E:/promotion/gitlab/telink_b91m_driver_sdk/telink_b91m_driver_sdk/demo/vendor/common/B91/plic_isr.c:366
}
    1d98:	4632                	c.lwsp	a2,12(sp)
    1d9a:	46a2                	c.lwsp	a3,8(sp)
    1d9c:	4712                	c.lwsp	a4,4(sp)
    1d9e:	4782                	c.lwsp	a5,0(sp)
    1da0:	01010113          	addi	sp,sp,16
    1da4:	30200073          	mret
plic_isr():
C:/Users/Admin/Desktop/test1/telink_b91m_driver_src/chip/B91/drivers/lib/src/plic.c:99
    1da8:	34102773          	csrr	a4,mepc
    1dac:	300026f3          	csrr	a3,mstatus
    1db0:	7c4027f3          	csrr	a5,mxstatus
    1db4:	30046673          	csrrsi	a2,mstatus,8
C:/Users/Admin/Desktop/test1/telink_b91m_driver_src/chip/B91/drivers/lib/src/plic.c:101
    1db8:	30047673          	csrrci	a2,mstatus,8
    1dbc:	30069073          	csrw	mstatus,a3
    1dc0:	34171073          	csrw	mepc,a4
    1dc4:	7c479073          	csrw	mxstatus,a5
plic_interrupt_complete():
C:\Users\Admin\Desktop\test1\telink_b91m_driver_src\chip\B91\drivers/lib/include/plic.h:281
    1dc8:	e42007b7          	lui	a5,0xe4200
    1dcc:	4755                	c.li	a4,21
    1dce:	c3d8                	c.sw	a4,4(a5)
plic_isr():
C:/Users/Admin/Desktop/test1/telink_b91m_driver_src/chip/B91/drivers/lib/src/plic.c:103
    1dd0:	0ff0000f          	fence
entry_irq21():
E:/promotion/gitlab/telink_b91m_driver_sdk/telink_b91m_driver_sdk/demo/vendor/common/B91/plic_isr.c:366
    1dd4:	4632                	c.lwsp	a2,12(sp)
    1dd6:	46a2                	c.lwsp	a3,8(sp)
    1dd8:	4712                	c.lwsp	a4,4(sp)
    1dda:	4782                	c.lwsp	a5,0(sp)
    1ddc:	01010113          	addi	sp,sp,16
    1de0:	30200073          	mret

00001de4 <entry_irq20>:
entry_irq20():
E:/promotion/gitlab/telink_b91m_driver_sdk/telink_b91m_driver_sdk/demo/vendor/common/B91/plic_isr.c:354
{
    1de4:	1141                	c.addi	sp,-16
    1de6:	c03e                	c.swsp	a5,0(sp)
plic_isr():
C:/Users/Admin/Desktop/test1/telink_b91m_driver_src/chip/B91/drivers/lib/src/plic.c:97
    1de8:	000007b7          	lui	a5,0x0
    1dec:	15878793          	addi	a5,a5,344 # 158 <_AES_VMA_END>
entry_irq20():
E:/promotion/gitlab/telink_b91m_driver_sdk/telink_b91m_driver_sdk/demo/vendor/common/B91/plic_isr.c:354
    1df0:	c632                	c.swsp	a2,12(sp)
    1df2:	c436                	c.swsp	a3,8(sp)
    1df4:	c23a                	c.swsp	a4,4(sp)
plic_isr():
C:/Users/Admin/Desktop/test1/telink_b91m_driver_src/chip/B91/drivers/lib/src/plic.c:97
    1df6:	04078783          	lb	a5,64(a5)
    1dfa:	0ff7f793          	andi	a5,a5,255
    1dfe:	ef89                	c.bnez	a5,1e18 <entry_irq20+0x34>
plic_interrupt_complete():
C:\Users\Admin\Desktop\test1\telink_b91m_driver_src\chip\B91\drivers/lib/include/plic.h:281
    1e00:	e42007b7          	lui	a5,0xe4200
    1e04:	4751                	c.li	a4,20
    1e06:	c3d8                	c.sw	a4,4(a5)
entry_irq20():
E:/promotion/gitlab/telink_b91m_driver_sdk/telink_b91m_driver_sdk/demo/vendor/common/B91/plic_isr.c:356
}
    1e08:	4632                	c.lwsp	a2,12(sp)
    1e0a:	46a2                	c.lwsp	a3,8(sp)
    1e0c:	4712                	c.lwsp	a4,4(sp)
    1e0e:	4782                	c.lwsp	a5,0(sp)
    1e10:	01010113          	addi	sp,sp,16
    1e14:	30200073          	mret
plic_isr():
C:/Users/Admin/Desktop/test1/telink_b91m_driver_src/chip/B91/drivers/lib/src/plic.c:99
    1e18:	34102773          	csrr	a4,mepc
    1e1c:	300026f3          	csrr	a3,mstatus
    1e20:	7c4027f3          	csrr	a5,mxstatus
    1e24:	30046673          	csrrsi	a2,mstatus,8
C:/Users/Admin/Desktop/test1/telink_b91m_driver_src/chip/B91/drivers/lib/src/plic.c:101
    1e28:	30047673          	csrrci	a2,mstatus,8
    1e2c:	30069073          	csrw	mstatus,a3
    1e30:	34171073          	csrw	mepc,a4
    1e34:	7c479073          	csrw	mxstatus,a5
plic_interrupt_complete():
C:\Users\Admin\Desktop\test1\telink_b91m_driver_src\chip\B91\drivers/lib/include/plic.h:281
    1e38:	e42007b7          	lui	a5,0xe4200
    1e3c:	4751                	c.li	a4,20
    1e3e:	c3d8                	c.sw	a4,4(a5)
plic_isr():
C:/Users/Admin/Desktop/test1/telink_b91m_driver_src/chip/B91/drivers/lib/src/plic.c:103
    1e40:	0ff0000f          	fence
entry_irq20():
E:/promotion/gitlab/telink_b91m_driver_sdk/telink_b91m_driver_sdk/demo/vendor/common/B91/plic_isr.c:356
    1e44:	4632                	c.lwsp	a2,12(sp)
    1e46:	46a2                	c.lwsp	a3,8(sp)
    1e48:	4712                	c.lwsp	a4,4(sp)
    1e4a:	4782                	c.lwsp	a5,0(sp)
    1e4c:	01010113          	addi	sp,sp,16
    1e50:	30200073          	mret

00001e54 <entry_irq19>:
entry_irq19():
E:/promotion/gitlab/telink_b91m_driver_sdk/telink_b91m_driver_sdk/demo/vendor/common/B91/plic_isr.c:343
{
    1e54:	7135                	c.addi16sp	sp,-160
    1e56:	d8be                	c.swsp	a5,112(sp)
plic_isr():
C:/Users/Admin/Desktop/test1/telink_b91m_driver_src/chip/B91/drivers/lib/src/plic.c:97
    1e58:	000007b7          	lui	a5,0x0
entry_irq19():
E:/promotion/gitlab/telink_b91m_driver_sdk/telink_b91m_driver_sdk/demo/vendor/common/B91/plic_isr.c:343
    1e5c:	cf06                	c.swsp	ra,156(sp)
    1e5e:	cd16                	c.swsp	t0,152(sp)
    1e60:	cb1a                	c.swsp	t1,148(sp)
    1e62:	c91e                	c.swsp	t2,144(sp)
    1e64:	c722                	c.swsp	s0,140(sp)
    1e66:	c526                	c.swsp	s1,136(sp)
    1e68:	c32a                	c.swsp	a0,132(sp)
    1e6a:	c12e                	c.swsp	a1,128(sp)
    1e6c:	deb2                	c.swsp	a2,124(sp)
    1e6e:	dcb6                	c.swsp	a3,120(sp)
    1e70:	daba                	c.swsp	a4,116(sp)
    1e72:	d6c2                	c.swsp	a6,108(sp)
    1e74:	d4c6                	c.swsp	a7,104(sp)
    1e76:	d2ca                	c.swsp	s2,100(sp)
    1e78:	d0f2                	c.swsp	t3,96(sp)
    1e7a:	cef6                	c.swsp	t4,92(sp)
    1e7c:	ccfa                	c.swsp	t5,88(sp)
    1e7e:	cafe                	c.swsp	t6,84(sp)
    1e80:	e682                	c.fswsp	ft0,76(sp)
    1e82:	e486                	c.fswsp	ft1,72(sp)
    1e84:	e28a                	c.fswsp	ft2,68(sp)
    1e86:	e08e                	c.fswsp	ft3,64(sp)
    1e88:	fe12                	c.fswsp	ft4,60(sp)
    1e8a:	fc16                	c.fswsp	ft5,56(sp)
    1e8c:	fa1a                	c.fswsp	ft6,52(sp)
    1e8e:	f81e                	c.fswsp	ft7,48(sp)
    1e90:	f62a                	c.fswsp	fa0,44(sp)
    1e92:	f42e                	c.fswsp	fa1,40(sp)
    1e94:	f232                	c.fswsp	fa2,36(sp)
    1e96:	f036                	c.fswsp	fa3,32(sp)
    1e98:	ee3a                	c.fswsp	fa4,28(sp)
plic_isr():
C:/Users/Admin/Desktop/test1/telink_b91m_driver_src/chip/B91/drivers/lib/src/plic.c:97
    1e9a:	15878793          	addi	a5,a5,344 # 158 <_AES_VMA_END>
entry_irq19():
E:/promotion/gitlab/telink_b91m_driver_sdk/telink_b91m_driver_sdk/demo/vendor/common/B91/plic_isr.c:343
    1e9e:	ec3e                	c.fswsp	fa5,24(sp)
    1ea0:	ea42                	c.fswsp	fa6,20(sp)
    1ea2:	e846                	c.fswsp	fa7,16(sp)
    1ea4:	e672                	c.fswsp	ft8,12(sp)
    1ea6:	e476                	c.fswsp	ft9,8(sp)
    1ea8:	e27a                	c.fswsp	ft10,4(sp)
    1eaa:	e07e                	c.fswsp	ft11,0(sp)
plic_isr():
C:/Users/Admin/Desktop/test1/telink_b91m_driver_src/chip/B91/drivers/lib/src/plic.c:97
    1eac:	04078783          	lb	a5,64(a5)
    1eb0:	0ff7f793          	andi	a5,a5,255
    1eb4:	06079263          	bnez	a5,1f18 <entry_irq19+0xc4>
C:/Users/Admin/Desktop/test1/telink_b91m_driver_src/chip/B91/drivers/lib/src/plic.c:107
    1eb8:	cd8fe0ef          	jal	ra,390 <uart0_irq_handler>
plic_interrupt_complete():
C:\Users\Admin\Desktop\test1\telink_b91m_driver_src\chip\B91\drivers/lib/include/plic.h:281
    1ebc:	e42007b7          	lui	a5,0xe4200
    1ec0:	474d                	c.li	a4,19
    1ec2:	c3d8                	c.sw	a4,4(a5)
entry_irq19():
E:/promotion/gitlab/telink_b91m_driver_sdk/telink_b91m_driver_sdk/demo/vendor/common/B91/plic_isr.c:345
}
    1ec4:	443a                	c.lwsp	s0,140(sp)
    1ec6:	40fa                	c.lwsp	ra,156(sp)
    1ec8:	42ea                	c.lwsp	t0,152(sp)
    1eca:	435a                	c.lwsp	t1,148(sp)
    1ecc:	43ca                	c.lwsp	t2,144(sp)
    1ece:	44aa                	c.lwsp	s1,136(sp)
    1ed0:	451a                	c.lwsp	a0,132(sp)
    1ed2:	458a                	c.lwsp	a1,128(sp)
    1ed4:	5676                	c.lwsp	a2,124(sp)
    1ed6:	56e6                	c.lwsp	a3,120(sp)
    1ed8:	5756                	c.lwsp	a4,116(sp)
    1eda:	57c6                	c.lwsp	a5,112(sp)
    1edc:	5836                	c.lwsp	a6,108(sp)
    1ede:	58a6                	c.lwsp	a7,104(sp)
    1ee0:	5916                	c.lwsp	s2,100(sp)
    1ee2:	5e06                	c.lwsp	t3,96(sp)
    1ee4:	4ef6                	c.lwsp	t4,92(sp)
    1ee6:	4f66                	c.lwsp	t5,88(sp)
    1ee8:	4fd6                	c.lwsp	t6,84(sp)
    1eea:	6036                	c.flwsp	ft0,76(sp)
    1eec:	60a6                	c.flwsp	ft1,72(sp)
    1eee:	6116                	c.flwsp	ft2,68(sp)
    1ef0:	6186                	c.flwsp	ft3,64(sp)
    1ef2:	7272                	c.flwsp	ft4,60(sp)
    1ef4:	72e2                	c.flwsp	ft5,56(sp)
    1ef6:	7352                	c.flwsp	ft6,52(sp)
    1ef8:	73c2                	c.flwsp	ft7,48(sp)
    1efa:	7532                	c.flwsp	fa0,44(sp)
    1efc:	75a2                	c.flwsp	fa1,40(sp)
    1efe:	7612                	c.flwsp	fa2,36(sp)
    1f00:	7682                	c.flwsp	fa3,32(sp)
    1f02:	6772                	c.flwsp	fa4,28(sp)
    1f04:	67e2                	c.flwsp	fa5,24(sp)
    1f06:	6852                	c.flwsp	fa6,20(sp)
    1f08:	68c2                	c.flwsp	fa7,16(sp)
    1f0a:	6e32                	c.flwsp	ft8,12(sp)
    1f0c:	6ea2                	c.flwsp	ft9,8(sp)
    1f0e:	6f12                	c.flwsp	ft10,4(sp)
    1f10:	6f82                	c.flwsp	ft11,0(sp)
    1f12:	610d                	c.addi16sp	sp,160
    1f14:	30200073          	mret
plic_isr():
C:/Users/Admin/Desktop/test1/telink_b91m_driver_src/chip/B91/drivers/lib/src/plic.c:99
    1f18:	341024f3          	csrr	s1,mepc
    1f1c:	30002973          	csrr	s2,mstatus
    1f20:	7c402473          	csrr	s0,mxstatus
    1f24:	300467f3          	csrrsi	a5,mstatus,8
C:/Users/Admin/Desktop/test1/telink_b91m_driver_src/chip/B91/drivers/lib/src/plic.c:100
    1f28:	c68fe0ef          	jal	ra,390 <uart0_irq_handler>
C:/Users/Admin/Desktop/test1/telink_b91m_driver_src/chip/B91/drivers/lib/src/plic.c:101
    1f2c:	300477f3          	csrrci	a5,mstatus,8
    1f30:	30091073          	csrw	mstatus,s2
    1f34:	34149073          	csrw	mepc,s1
    1f38:	7c441073          	csrw	mxstatus,s0
plic_interrupt_complete():
C:\Users\Admin\Desktop\test1\telink_b91m_driver_src\chip\B91\drivers/lib/include/plic.h:281
    1f3c:	e42007b7          	lui	a5,0xe4200
    1f40:	474d                	c.li	a4,19
    1f42:	c3d8                	c.sw	a4,4(a5)
plic_isr():
C:/Users/Admin/Desktop/test1/telink_b91m_driver_src/chip/B91/drivers/lib/src/plic.c:103
    1f44:	0ff0000f          	fence
    1f48:	f7dff06f          	j	1ec4 <entry_irq19+0x70>

00001f4c <entry_irq18>:
entry_irq18():
E:/promotion/gitlab/telink_b91m_driver_sdk/telink_b91m_driver_sdk/demo/vendor/common/B91/plic_isr.c:331
{
    1f4c:	1141                	c.addi	sp,-16
    1f4e:	c03e                	c.swsp	a5,0(sp)
plic_isr():
C:/Users/Admin/Desktop/test1/telink_b91m_driver_src/chip/B91/drivers/lib/src/plic.c:97
    1f50:	000007b7          	lui	a5,0x0
    1f54:	15878793          	addi	a5,a5,344 # 158 <_AES_VMA_END>
entry_irq18():
E:/promotion/gitlab/telink_b91m_driver_sdk/telink_b91m_driver_sdk/demo/vendor/common/B91/plic_isr.c:331
    1f58:	c632                	c.swsp	a2,12(sp)
    1f5a:	c436                	c.swsp	a3,8(sp)
    1f5c:	c23a                	c.swsp	a4,4(sp)
plic_isr():
C:/Users/Admin/Desktop/test1/telink_b91m_driver_src/chip/B91/drivers/lib/src/plic.c:97
    1f5e:	04078783          	lb	a5,64(a5)
    1f62:	0ff7f793          	andi	a5,a5,255
    1f66:	ef89                	c.bnez	a5,1f80 <entry_irq18+0x34>
plic_interrupt_complete():
C:\Users\Admin\Desktop\test1\telink_b91m_driver_src\chip\B91\drivers/lib/include/plic.h:281
    1f68:	e42007b7          	lui	a5,0xe4200
    1f6c:	4749                	c.li	a4,18
    1f6e:	c3d8                	c.sw	a4,4(a5)
entry_irq18():
E:/promotion/gitlab/telink_b91m_driver_sdk/telink_b91m_driver_sdk/demo/vendor/common/B91/plic_isr.c:333
}
    1f70:	4632                	c.lwsp	a2,12(sp)
    1f72:	46a2                	c.lwsp	a3,8(sp)
    1f74:	4712                	c.lwsp	a4,4(sp)
    1f76:	4782                	c.lwsp	a5,0(sp)
    1f78:	01010113          	addi	sp,sp,16
    1f7c:	30200073          	mret
plic_isr():
C:/Users/Admin/Desktop/test1/telink_b91m_driver_src/chip/B91/drivers/lib/src/plic.c:99
    1f80:	34102773          	csrr	a4,mepc
    1f84:	300026f3          	csrr	a3,mstatus
    1f88:	7c4027f3          	csrr	a5,mxstatus
    1f8c:	30046673          	csrrsi	a2,mstatus,8
C:/Users/Admin/Desktop/test1/telink_b91m_driver_src/chip/B91/drivers/lib/src/plic.c:101
    1f90:	30047673          	csrrci	a2,mstatus,8
    1f94:	30069073          	csrw	mstatus,a3
    1f98:	34171073          	csrw	mepc,a4
    1f9c:	7c479073          	csrw	mxstatus,a5
plic_interrupt_complete():
C:\Users\Admin\Desktop\test1\telink_b91m_driver_src\chip\B91\drivers/lib/include/plic.h:281
    1fa0:	e42007b7          	lui	a5,0xe4200
    1fa4:	4749                	c.li	a4,18
    1fa6:	c3d8                	c.sw	a4,4(a5)
plic_isr():
C:/Users/Admin/Desktop/test1/telink_b91m_driver_src/chip/B91/drivers/lib/src/plic.c:103
    1fa8:	0ff0000f          	fence
entry_irq18():
E:/promotion/gitlab/telink_b91m_driver_sdk/telink_b91m_driver_sdk/demo/vendor/common/B91/plic_isr.c:333
    1fac:	4632                	c.lwsp	a2,12(sp)
    1fae:	46a2                	c.lwsp	a3,8(sp)
    1fb0:	4712                	c.lwsp	a4,4(sp)
    1fb2:	4782                	c.lwsp	a5,0(sp)
    1fb4:	01010113          	addi	sp,sp,16
    1fb8:	30200073          	mret

00001fbc <entry_irq17>:
entry_irq17():
E:/promotion/gitlab/telink_b91m_driver_sdk/telink_b91m_driver_sdk/demo/vendor/common/B91/plic_isr.c:319
{
    1fbc:	1141                	c.addi	sp,-16
    1fbe:	c03e                	c.swsp	a5,0(sp)
plic_isr():
C:/Users/Admin/Desktop/test1/telink_b91m_driver_src/chip/B91/drivers/lib/src/plic.c:97
    1fc0:	000007b7          	lui	a5,0x0
    1fc4:	15878793          	addi	a5,a5,344 # 158 <_AES_VMA_END>
entry_irq17():
E:/promotion/gitlab/telink_b91m_driver_sdk/telink_b91m_driver_sdk/demo/vendor/common/B91/plic_isr.c:319
    1fc8:	c632                	c.swsp	a2,12(sp)
    1fca:	c436                	c.swsp	a3,8(sp)
    1fcc:	c23a                	c.swsp	a4,4(sp)
plic_isr():
C:/Users/Admin/Desktop/test1/telink_b91m_driver_src/chip/B91/drivers/lib/src/plic.c:97
    1fce:	04078783          	lb	a5,64(a5)
    1fd2:	0ff7f793          	andi	a5,a5,255
    1fd6:	ef89                	c.bnez	a5,1ff0 <entry_irq17+0x34>
plic_interrupt_complete():
C:\Users\Admin\Desktop\test1\telink_b91m_driver_src\chip\B91\drivers/lib/include/plic.h:281
    1fd8:	e42007b7          	lui	a5,0xe4200
    1fdc:	4745                	c.li	a4,17
    1fde:	c3d8                	c.sw	a4,4(a5)
entry_irq17():
E:/promotion/gitlab/telink_b91m_driver_sdk/telink_b91m_driver_sdk/demo/vendor/common/B91/plic_isr.c:321
}
    1fe0:	4632                	c.lwsp	a2,12(sp)
    1fe2:	46a2                	c.lwsp	a3,8(sp)
    1fe4:	4712                	c.lwsp	a4,4(sp)
    1fe6:	4782                	c.lwsp	a5,0(sp)
    1fe8:	01010113          	addi	sp,sp,16
    1fec:	30200073          	mret
plic_isr():
C:/Users/Admin/Desktop/test1/telink_b91m_driver_src/chip/B91/drivers/lib/src/plic.c:99
    1ff0:	34102773          	csrr	a4,mepc
    1ff4:	300026f3          	csrr	a3,mstatus
    1ff8:	7c4027f3          	csrr	a5,mxstatus
    1ffc:	30046673          	csrrsi	a2,mstatus,8
C:/Users/Admin/Desktop/test1/telink_b91m_driver_src/chip/B91/drivers/lib/src/plic.c:101
    2000:	30047673          	csrrci	a2,mstatus,8
    2004:	30069073          	csrw	mstatus,a3
    2008:	34171073          	csrw	mepc,a4
    200c:	7c479073          	csrw	mxstatus,a5
plic_interrupt_complete():
C:\Users\Admin\Desktop\test1\telink_b91m_driver_src\chip\B91\drivers/lib/include/plic.h:281
    2010:	e42007b7          	lui	a5,0xe4200
    2014:	4745                	c.li	a4,17
    2016:	c3d8                	c.sw	a4,4(a5)
plic_isr():
C:/Users/Admin/Desktop/test1/telink_b91m_driver_src/chip/B91/drivers/lib/src/plic.c:103
    2018:	0ff0000f          	fence
entry_irq17():
E:/promotion/gitlab/telink_b91m_driver_sdk/telink_b91m_driver_sdk/demo/vendor/common/B91/plic_isr.c:321
    201c:	4632                	c.lwsp	a2,12(sp)
    201e:	46a2                	c.lwsp	a3,8(sp)
    2020:	4712                	c.lwsp	a4,4(sp)
    2022:	4782                	c.lwsp	a5,0(sp)
    2024:	01010113          	addi	sp,sp,16
    2028:	30200073          	mret

0000202c <entry_irq16>:
entry_irq16():
E:/promotion/gitlab/telink_b91m_driver_sdk/telink_b91m_driver_sdk/demo/vendor/common/B91/plic_isr.c:309
{
    202c:	7135                	c.addi16sp	sp,-160
    202e:	d8be                	c.swsp	a5,112(sp)
plic_isr():
C:/Users/Admin/Desktop/test1/telink_b91m_driver_src/chip/B91/drivers/lib/src/plic.c:97
    2030:	000007b7          	lui	a5,0x0
entry_irq16():
E:/promotion/gitlab/telink_b91m_driver_sdk/telink_b91m_driver_sdk/demo/vendor/common/B91/plic_isr.c:309
    2034:	cf06                	c.swsp	ra,156(sp)
    2036:	cd16                	c.swsp	t0,152(sp)
    2038:	cb1a                	c.swsp	t1,148(sp)
    203a:	c91e                	c.swsp	t2,144(sp)
    203c:	c722                	c.swsp	s0,140(sp)
    203e:	c526                	c.swsp	s1,136(sp)
    2040:	c32a                	c.swsp	a0,132(sp)
    2042:	c12e                	c.swsp	a1,128(sp)
    2044:	deb2                	c.swsp	a2,124(sp)
    2046:	dcb6                	c.swsp	a3,120(sp)
    2048:	daba                	c.swsp	a4,116(sp)
    204a:	d6c2                	c.swsp	a6,108(sp)
    204c:	d4c6                	c.swsp	a7,104(sp)
    204e:	d2ca                	c.swsp	s2,100(sp)
    2050:	d0f2                	c.swsp	t3,96(sp)
    2052:	cef6                	c.swsp	t4,92(sp)
    2054:	ccfa                	c.swsp	t5,88(sp)
    2056:	cafe                	c.swsp	t6,84(sp)
    2058:	e682                	c.fswsp	ft0,76(sp)
    205a:	e486                	c.fswsp	ft1,72(sp)
    205c:	e28a                	c.fswsp	ft2,68(sp)
    205e:	e08e                	c.fswsp	ft3,64(sp)
    2060:	fe12                	c.fswsp	ft4,60(sp)
    2062:	fc16                	c.fswsp	ft5,56(sp)
    2064:	fa1a                	c.fswsp	ft6,52(sp)
    2066:	f81e                	c.fswsp	ft7,48(sp)
    2068:	f62a                	c.fswsp	fa0,44(sp)
    206a:	f42e                	c.fswsp	fa1,40(sp)
    206c:	f232                	c.fswsp	fa2,36(sp)
    206e:	f036                	c.fswsp	fa3,32(sp)
    2070:	ee3a                	c.fswsp	fa4,28(sp)
plic_isr():
C:/Users/Admin/Desktop/test1/telink_b91m_driver_src/chip/B91/drivers/lib/src/plic.c:97
    2072:	15878793          	addi	a5,a5,344 # 158 <_AES_VMA_END>
entry_irq16():
E:/promotion/gitlab/telink_b91m_driver_sdk/telink_b91m_driver_sdk/demo/vendor/common/B91/plic_isr.c:309
    2076:	ec3e                	c.fswsp	fa5,24(sp)
    2078:	ea42                	c.fswsp	fa6,20(sp)
    207a:	e846                	c.fswsp	fa7,16(sp)
    207c:	e672                	c.fswsp	ft8,12(sp)
    207e:	e476                	c.fswsp	ft9,8(sp)
    2080:	e27a                	c.fswsp	ft10,4(sp)
    2082:	e07e                	c.fswsp	ft11,0(sp)
plic_isr():
C:/Users/Admin/Desktop/test1/telink_b91m_driver_src/chip/B91/drivers/lib/src/plic.c:97
    2084:	04078783          	lb	a5,64(a5)
    2088:	0ff7f793          	andi	a5,a5,255
    208c:	06079263          	bnez	a5,20f0 <entry_irq16+0xc4>
C:/Users/Admin/Desktop/test1/telink_b91m_driver_src/chip/B91/drivers/lib/src/plic.c:107
    2090:	a9cfe0ef          	jal	ra,32c <pwm_irq_handler>
plic_interrupt_complete():
C:\Users\Admin\Desktop\test1\telink_b91m_driver_src\chip\B91\drivers/lib/include/plic.h:281
    2094:	e42007b7          	lui	a5,0xe4200
    2098:	4741                	c.li	a4,16
    209a:	c3d8                	c.sw	a4,4(a5)
entry_irq16():
E:/promotion/gitlab/telink_b91m_driver_sdk/telink_b91m_driver_sdk/demo/vendor/common/B91/plic_isr.c:311
}
    209c:	443a                	c.lwsp	s0,140(sp)
    209e:	40fa                	c.lwsp	ra,156(sp)
    20a0:	42ea                	c.lwsp	t0,152(sp)
    20a2:	435a                	c.lwsp	t1,148(sp)
    20a4:	43ca                	c.lwsp	t2,144(sp)
    20a6:	44aa                	c.lwsp	s1,136(sp)
    20a8:	451a                	c.lwsp	a0,132(sp)
    20aa:	458a                	c.lwsp	a1,128(sp)
    20ac:	5676                	c.lwsp	a2,124(sp)
    20ae:	56e6                	c.lwsp	a3,120(sp)
    20b0:	5756                	c.lwsp	a4,116(sp)
    20b2:	57c6                	c.lwsp	a5,112(sp)
    20b4:	5836                	c.lwsp	a6,108(sp)
    20b6:	58a6                	c.lwsp	a7,104(sp)
    20b8:	5916                	c.lwsp	s2,100(sp)
    20ba:	5e06                	c.lwsp	t3,96(sp)
    20bc:	4ef6                	c.lwsp	t4,92(sp)
    20be:	4f66                	c.lwsp	t5,88(sp)
    20c0:	4fd6                	c.lwsp	t6,84(sp)
    20c2:	6036                	c.flwsp	ft0,76(sp)
    20c4:	60a6                	c.flwsp	ft1,72(sp)
    20c6:	6116                	c.flwsp	ft2,68(sp)
    20c8:	6186                	c.flwsp	ft3,64(sp)
    20ca:	7272                	c.flwsp	ft4,60(sp)
    20cc:	72e2                	c.flwsp	ft5,56(sp)
    20ce:	7352                	c.flwsp	ft6,52(sp)
    20d0:	73c2                	c.flwsp	ft7,48(sp)
    20d2:	7532                	c.flwsp	fa0,44(sp)
    20d4:	75a2                	c.flwsp	fa1,40(sp)
    20d6:	7612                	c.flwsp	fa2,36(sp)
    20d8:	7682                	c.flwsp	fa3,32(sp)
    20da:	6772                	c.flwsp	fa4,28(sp)
    20dc:	67e2                	c.flwsp	fa5,24(sp)
    20de:	6852                	c.flwsp	fa6,20(sp)
    20e0:	68c2                	c.flwsp	fa7,16(sp)
    20e2:	6e32                	c.flwsp	ft8,12(sp)
    20e4:	6ea2                	c.flwsp	ft9,8(sp)
    20e6:	6f12                	c.flwsp	ft10,4(sp)
    20e8:	6f82                	c.flwsp	ft11,0(sp)
    20ea:	610d                	c.addi16sp	sp,160
    20ec:	30200073          	mret
plic_isr():
C:/Users/Admin/Desktop/test1/telink_b91m_driver_src/chip/B91/drivers/lib/src/plic.c:99
    20f0:	341024f3          	csrr	s1,mepc
    20f4:	30002973          	csrr	s2,mstatus
    20f8:	7c402473          	csrr	s0,mxstatus
    20fc:	300467f3          	csrrsi	a5,mstatus,8
C:/Users/Admin/Desktop/test1/telink_b91m_driver_src/chip/B91/drivers/lib/src/plic.c:100
    2100:	a2cfe0ef          	jal	ra,32c <pwm_irq_handler>
C:/Users/Admin/Desktop/test1/telink_b91m_driver_src/chip/B91/drivers/lib/src/plic.c:101
    2104:	300477f3          	csrrci	a5,mstatus,8
    2108:	30091073          	csrw	mstatus,s2
    210c:	34149073          	csrw	mepc,s1
    2110:	7c441073          	csrw	mxstatus,s0
plic_interrupt_complete():
C:\Users\Admin\Desktop\test1\telink_b91m_driver_src\chip\B91\drivers/lib/include/plic.h:281
    2114:	e42007b7          	lui	a5,0xe4200
    2118:	4741                	c.li	a4,16
    211a:	c3d8                	c.sw	a4,4(a5)
plic_isr():
C:/Users/Admin/Desktop/test1/telink_b91m_driver_src/chip/B91/drivers/lib/src/plic.c:103
    211c:	0ff0000f          	fence
    2120:	f7dff06f          	j	209c <entry_irq16+0x70>

00002124 <entry_irq15>:
entry_irq15():
E:/promotion/gitlab/telink_b91m_driver_sdk/telink_b91m_driver_sdk/demo/vendor/common/B91/plic_isr.c:297
{
    2124:	1141                	c.addi	sp,-16
    2126:	c03e                	c.swsp	a5,0(sp)
plic_isr():
C:/Users/Admin/Desktop/test1/telink_b91m_driver_src/chip/B91/drivers/lib/src/plic.c:97
    2128:	000007b7          	lui	a5,0x0
    212c:	15878793          	addi	a5,a5,344 # 158 <_AES_VMA_END>
entry_irq15():
E:/promotion/gitlab/telink_b91m_driver_sdk/telink_b91m_driver_sdk/demo/vendor/common/B91/plic_isr.c:297
    2130:	c632                	c.swsp	a2,12(sp)
    2132:	c436                	c.swsp	a3,8(sp)
    2134:	c23a                	c.swsp	a4,4(sp)
plic_isr():
C:/Users/Admin/Desktop/test1/telink_b91m_driver_src/chip/B91/drivers/lib/src/plic.c:97
    2136:	04078783          	lb	a5,64(a5)
    213a:	0ff7f793          	andi	a5,a5,255
    213e:	ef89                	c.bnez	a5,2158 <entry_irq15+0x34>
plic_interrupt_complete():
C:\Users\Admin\Desktop\test1\telink_b91m_driver_src\chip\B91\drivers/lib/include/plic.h:281
    2140:	e42007b7          	lui	a5,0xe4200
    2144:	473d                	c.li	a4,15
    2146:	c3d8                	c.sw	a4,4(a5)
entry_irq15():
E:/promotion/gitlab/telink_b91m_driver_sdk/telink_b91m_driver_sdk/demo/vendor/common/B91/plic_isr.c:299
}
    2148:	4632                	c.lwsp	a2,12(sp)
    214a:	46a2                	c.lwsp	a3,8(sp)
    214c:	4712                	c.lwsp	a4,4(sp)
    214e:	4782                	c.lwsp	a5,0(sp)
    2150:	01010113          	addi	sp,sp,16
    2154:	30200073          	mret
plic_isr():
C:/Users/Admin/Desktop/test1/telink_b91m_driver_src/chip/B91/drivers/lib/src/plic.c:99
    2158:	34102773          	csrr	a4,mepc
    215c:	300026f3          	csrr	a3,mstatus
    2160:	7c4027f3          	csrr	a5,mxstatus
    2164:	30046673          	csrrsi	a2,mstatus,8
C:/Users/Admin/Desktop/test1/telink_b91m_driver_src/chip/B91/drivers/lib/src/plic.c:101
    2168:	30047673          	csrrci	a2,mstatus,8
    216c:	30069073          	csrw	mstatus,a3
    2170:	34171073          	csrw	mepc,a4
    2174:	7c479073          	csrw	mxstatus,a5
plic_interrupt_complete():
C:\Users\Admin\Desktop\test1\telink_b91m_driver_src\chip\B91\drivers/lib/include/plic.h:281
    2178:	e42007b7          	lui	a5,0xe4200
    217c:	473d                	c.li	a4,15
    217e:	c3d8                	c.sw	a4,4(a5)
plic_isr():
C:/Users/Admin/Desktop/test1/telink_b91m_driver_src/chip/B91/drivers/lib/src/plic.c:103
    2180:	0ff0000f          	fence
entry_irq15():
E:/promotion/gitlab/telink_b91m_driver_sdk/telink_b91m_driver_sdk/demo/vendor/common/B91/plic_isr.c:299
    2184:	4632                	c.lwsp	a2,12(sp)
    2186:	46a2                	c.lwsp	a3,8(sp)
    2188:	4712                	c.lwsp	a4,4(sp)
    218a:	4782                	c.lwsp	a5,0(sp)
    218c:	01010113          	addi	sp,sp,16
    2190:	30200073          	mret

00002194 <entry_irq14>:
entry_irq14():
E:/promotion/gitlab/telink_b91m_driver_sdk/telink_b91m_driver_sdk/demo/vendor/common/B91/plic_isr.c:287
{
    2194:	1141                	c.addi	sp,-16
    2196:	c03e                	c.swsp	a5,0(sp)
plic_isr():
C:/Users/Admin/Desktop/test1/telink_b91m_driver_src/chip/B91/drivers/lib/src/plic.c:97
    2198:	000007b7          	lui	a5,0x0
    219c:	15878793          	addi	a5,a5,344 # 158 <_AES_VMA_END>
entry_irq14():
E:/promotion/gitlab/telink_b91m_driver_sdk/telink_b91m_driver_sdk/demo/vendor/common/B91/plic_isr.c:287
    21a0:	c632                	c.swsp	a2,12(sp)
    21a2:	c436                	c.swsp	a3,8(sp)
    21a4:	c23a                	c.swsp	a4,4(sp)
plic_isr():
C:/Users/Admin/Desktop/test1/telink_b91m_driver_src/chip/B91/drivers/lib/src/plic.c:97
    21a6:	04078783          	lb	a5,64(a5)
    21aa:	0ff7f793          	andi	a5,a5,255
    21ae:	ef89                	c.bnez	a5,21c8 <entry_irq14+0x34>
plic_interrupt_complete():
C:\Users\Admin\Desktop\test1\telink_b91m_driver_src\chip\B91\drivers/lib/include/plic.h:281
    21b0:	e42007b7          	lui	a5,0xe4200
    21b4:	4739                	c.li	a4,14
    21b6:	c3d8                	c.sw	a4,4(a5)
entry_irq14():
E:/promotion/gitlab/telink_b91m_driver_sdk/telink_b91m_driver_sdk/demo/vendor/common/B91/plic_isr.c:289
}
    21b8:	4632                	c.lwsp	a2,12(sp)
    21ba:	46a2                	c.lwsp	a3,8(sp)
    21bc:	4712                	c.lwsp	a4,4(sp)
    21be:	4782                	c.lwsp	a5,0(sp)
    21c0:	01010113          	addi	sp,sp,16
    21c4:	30200073          	mret
plic_isr():
C:/Users/Admin/Desktop/test1/telink_b91m_driver_src/chip/B91/drivers/lib/src/plic.c:99
    21c8:	34102773          	csrr	a4,mepc
    21cc:	300026f3          	csrr	a3,mstatus
    21d0:	7c4027f3          	csrr	a5,mxstatus
    21d4:	30046673          	csrrsi	a2,mstatus,8
C:/Users/Admin/Desktop/test1/telink_b91m_driver_src/chip/B91/drivers/lib/src/plic.c:101
    21d8:	30047673          	csrrci	a2,mstatus,8
    21dc:	30069073          	csrw	mstatus,a3
    21e0:	34171073          	csrw	mepc,a4
    21e4:	7c479073          	csrw	mxstatus,a5
plic_interrupt_complete():
C:\Users\Admin\Desktop\test1\telink_b91m_driver_src\chip\B91\drivers/lib/include/plic.h:281
    21e8:	e42007b7          	lui	a5,0xe4200
    21ec:	4739                	c.li	a4,14
    21ee:	c3d8                	c.sw	a4,4(a5)
plic_isr():
C:/Users/Admin/Desktop/test1/telink_b91m_driver_src/chip/B91/drivers/lib/src/plic.c:103
    21f0:	0ff0000f          	fence
entry_irq14():
E:/promotion/gitlab/telink_b91m_driver_sdk/telink_b91m_driver_sdk/demo/vendor/common/B91/plic_isr.c:289
    21f4:	4632                	c.lwsp	a2,12(sp)
    21f6:	46a2                	c.lwsp	a3,8(sp)
    21f8:	4712                	c.lwsp	a4,4(sp)
    21fa:	4782                	c.lwsp	a5,0(sp)
    21fc:	01010113          	addi	sp,sp,16
    2200:	30200073          	mret

00002204 <entry_irq13>:
entry_irq13():
E:/promotion/gitlab/telink_b91m_driver_sdk/telink_b91m_driver_sdk/demo/vendor/common/B91/plic_isr.c:276
{
    2204:	1141                	c.addi	sp,-16
    2206:	c03e                	c.swsp	a5,0(sp)
plic_isr():
C:/Users/Admin/Desktop/test1/telink_b91m_driver_src/chip/B91/drivers/lib/src/plic.c:97
    2208:	000007b7          	lui	a5,0x0
    220c:	15878793          	addi	a5,a5,344 # 158 <_AES_VMA_END>
entry_irq13():
E:/promotion/gitlab/telink_b91m_driver_sdk/telink_b91m_driver_sdk/demo/vendor/common/B91/plic_isr.c:276
    2210:	c632                	c.swsp	a2,12(sp)
    2212:	c436                	c.swsp	a3,8(sp)
    2214:	c23a                	c.swsp	a4,4(sp)
plic_isr():
C:/Users/Admin/Desktop/test1/telink_b91m_driver_src/chip/B91/drivers/lib/src/plic.c:97
    2216:	04078783          	lb	a5,64(a5)
    221a:	0ff7f793          	andi	a5,a5,255
    221e:	ef89                	c.bnez	a5,2238 <entry_irq13+0x34>
plic_interrupt_complete():
C:\Users\Admin\Desktop\test1\telink_b91m_driver_src\chip\B91\drivers/lib/include/plic.h:281
    2220:	e42007b7          	lui	a5,0xe4200
    2224:	4735                	c.li	a4,13
    2226:	c3d8                	c.sw	a4,4(a5)
entry_irq13():
E:/promotion/gitlab/telink_b91m_driver_sdk/telink_b91m_driver_sdk/demo/vendor/common/B91/plic_isr.c:278
}
    2228:	4632                	c.lwsp	a2,12(sp)
    222a:	46a2                	c.lwsp	a3,8(sp)
    222c:	4712                	c.lwsp	a4,4(sp)
    222e:	4782                	c.lwsp	a5,0(sp)
    2230:	01010113          	addi	sp,sp,16
    2234:	30200073          	mret
plic_isr():
C:/Users/Admin/Desktop/test1/telink_b91m_driver_src/chip/B91/drivers/lib/src/plic.c:99
    2238:	34102773          	csrr	a4,mepc
    223c:	300026f3          	csrr	a3,mstatus
    2240:	7c4027f3          	csrr	a5,mxstatus
    2244:	30046673          	csrrsi	a2,mstatus,8
C:/Users/Admin/Desktop/test1/telink_b91m_driver_src/chip/B91/drivers/lib/src/plic.c:101
    2248:	30047673          	csrrci	a2,mstatus,8
    224c:	30069073          	csrw	mstatus,a3
    2250:	34171073          	csrw	mepc,a4
    2254:	7c479073          	csrw	mxstatus,a5
plic_interrupt_complete():
C:\Users\Admin\Desktop\test1\telink_b91m_driver_src\chip\B91\drivers/lib/include/plic.h:281
    2258:	e42007b7          	lui	a5,0xe4200
    225c:	4735                	c.li	a4,13
    225e:	c3d8                	c.sw	a4,4(a5)
plic_isr():
C:/Users/Admin/Desktop/test1/telink_b91m_driver_src/chip/B91/drivers/lib/src/plic.c:103
    2260:	0ff0000f          	fence
entry_irq13():
E:/promotion/gitlab/telink_b91m_driver_sdk/telink_b91m_driver_sdk/demo/vendor/common/B91/plic_isr.c:278
    2264:	4632                	c.lwsp	a2,12(sp)
    2266:	46a2                	c.lwsp	a3,8(sp)
    2268:	4712                	c.lwsp	a4,4(sp)
    226a:	4782                	c.lwsp	a5,0(sp)
    226c:	01010113          	addi	sp,sp,16
    2270:	30200073          	mret

00002274 <entry_irq12>:
entry_irq12():
E:/promotion/gitlab/telink_b91m_driver_sdk/telink_b91m_driver_sdk/demo/vendor/common/B91/plic_isr.c:266
{
    2274:	1141                	c.addi	sp,-16
    2276:	c03e                	c.swsp	a5,0(sp)
plic_isr():
C:/Users/Admin/Desktop/test1/telink_b91m_driver_src/chip/B91/drivers/lib/src/plic.c:97
    2278:	000007b7          	lui	a5,0x0
    227c:	15878793          	addi	a5,a5,344 # 158 <_AES_VMA_END>
entry_irq12():
E:/promotion/gitlab/telink_b91m_driver_sdk/telink_b91m_driver_sdk/demo/vendor/common/B91/plic_isr.c:266
    2280:	c632                	c.swsp	a2,12(sp)
    2282:	c436                	c.swsp	a3,8(sp)
    2284:	c23a                	c.swsp	a4,4(sp)
plic_isr():
C:/Users/Admin/Desktop/test1/telink_b91m_driver_src/chip/B91/drivers/lib/src/plic.c:97
    2286:	04078783          	lb	a5,64(a5)
    228a:	0ff7f793          	andi	a5,a5,255
    228e:	ef89                	c.bnez	a5,22a8 <entry_irq12+0x34>
plic_interrupt_complete():
C:\Users\Admin\Desktop\test1\telink_b91m_driver_src\chip\B91\drivers/lib/include/plic.h:281
    2290:	e42007b7          	lui	a5,0xe4200
    2294:	4731                	c.li	a4,12
    2296:	c3d8                	c.sw	a4,4(a5)
entry_irq12():
E:/promotion/gitlab/telink_b91m_driver_sdk/telink_b91m_driver_sdk/demo/vendor/common/B91/plic_isr.c:268
}
    2298:	4632                	c.lwsp	a2,12(sp)
    229a:	46a2                	c.lwsp	a3,8(sp)
    229c:	4712                	c.lwsp	a4,4(sp)
    229e:	4782                	c.lwsp	a5,0(sp)
    22a0:	01010113          	addi	sp,sp,16
    22a4:	30200073          	mret
plic_isr():
C:/Users/Admin/Desktop/test1/telink_b91m_driver_src/chip/B91/drivers/lib/src/plic.c:99
    22a8:	34102773          	csrr	a4,mepc
    22ac:	300026f3          	csrr	a3,mstatus
    22b0:	7c4027f3          	csrr	a5,mxstatus
    22b4:	30046673          	csrrsi	a2,mstatus,8
C:/Users/Admin/Desktop/test1/telink_b91m_driver_src/chip/B91/drivers/lib/src/plic.c:101
    22b8:	30047673          	csrrci	a2,mstatus,8
    22bc:	30069073          	csrw	mstatus,a3
    22c0:	34171073          	csrw	mepc,a4
    22c4:	7c479073          	csrw	mxstatus,a5
plic_interrupt_complete():
C:\Users\Admin\Desktop\test1\telink_b91m_driver_src\chip\B91\drivers/lib/include/plic.h:281
    22c8:	e42007b7          	lui	a5,0xe4200
    22cc:	4731                	c.li	a4,12
    22ce:	c3d8                	c.sw	a4,4(a5)
plic_isr():
C:/Users/Admin/Desktop/test1/telink_b91m_driver_src/chip/B91/drivers/lib/src/plic.c:103
    22d0:	0ff0000f          	fence
entry_irq12():
E:/promotion/gitlab/telink_b91m_driver_sdk/telink_b91m_driver_sdk/demo/vendor/common/B91/plic_isr.c:268
    22d4:	4632                	c.lwsp	a2,12(sp)
    22d6:	46a2                	c.lwsp	a3,8(sp)
    22d8:	4712                	c.lwsp	a4,4(sp)
    22da:	4782                	c.lwsp	a5,0(sp)
    22dc:	01010113          	addi	sp,sp,16
    22e0:	30200073          	mret

000022e4 <entry_irq11>:
entry_irq11():
E:/promotion/gitlab/telink_b91m_driver_sdk/telink_b91m_driver_sdk/demo/vendor/common/B91/plic_isr.c:256
{
    22e4:	1141                	c.addi	sp,-16
    22e6:	c03e                	c.swsp	a5,0(sp)
plic_isr():
C:/Users/Admin/Desktop/test1/telink_b91m_driver_src/chip/B91/drivers/lib/src/plic.c:97
    22e8:	000007b7          	lui	a5,0x0
    22ec:	15878793          	addi	a5,a5,344 # 158 <_AES_VMA_END>
entry_irq11():
E:/promotion/gitlab/telink_b91m_driver_sdk/telink_b91m_driver_sdk/demo/vendor/common/B91/plic_isr.c:256
    22f0:	c632                	c.swsp	a2,12(sp)
    22f2:	c436                	c.swsp	a3,8(sp)
    22f4:	c23a                	c.swsp	a4,4(sp)
plic_isr():
C:/Users/Admin/Desktop/test1/telink_b91m_driver_src/chip/B91/drivers/lib/src/plic.c:97
    22f6:	04078783          	lb	a5,64(a5)
    22fa:	0ff7f793          	andi	a5,a5,255
    22fe:	ef89                	c.bnez	a5,2318 <entry_irq11+0x34>
plic_interrupt_complete():
C:\Users\Admin\Desktop\test1\telink_b91m_driver_src\chip\B91\drivers/lib/include/plic.h:281
    2300:	e42007b7          	lui	a5,0xe4200
    2304:	472d                	c.li	a4,11
    2306:	c3d8                	c.sw	a4,4(a5)
entry_irq11():
E:/promotion/gitlab/telink_b91m_driver_sdk/telink_b91m_driver_sdk/demo/vendor/common/B91/plic_isr.c:258
}
    2308:	4632                	c.lwsp	a2,12(sp)
    230a:	46a2                	c.lwsp	a3,8(sp)
    230c:	4712                	c.lwsp	a4,4(sp)
    230e:	4782                	c.lwsp	a5,0(sp)
    2310:	01010113          	addi	sp,sp,16
    2314:	30200073          	mret
plic_isr():
C:/Users/Admin/Desktop/test1/telink_b91m_driver_src/chip/B91/drivers/lib/src/plic.c:99
    2318:	34102773          	csrr	a4,mepc
    231c:	300026f3          	csrr	a3,mstatus
    2320:	7c4027f3          	csrr	a5,mxstatus
    2324:	30046673          	csrrsi	a2,mstatus,8
C:/Users/Admin/Desktop/test1/telink_b91m_driver_src/chip/B91/drivers/lib/src/plic.c:101
    2328:	30047673          	csrrci	a2,mstatus,8
    232c:	30069073          	csrw	mstatus,a3
    2330:	34171073          	csrw	mepc,a4
    2334:	7c479073          	csrw	mxstatus,a5
plic_interrupt_complete():
C:\Users\Admin\Desktop\test1\telink_b91m_driver_src\chip\B91\drivers/lib/include/plic.h:281
    2338:	e42007b7          	lui	a5,0xe4200
    233c:	472d                	c.li	a4,11
    233e:	c3d8                	c.sw	a4,4(a5)
plic_isr():
C:/Users/Admin/Desktop/test1/telink_b91m_driver_src/chip/B91/drivers/lib/src/plic.c:103
    2340:	0ff0000f          	fence
entry_irq11():
E:/promotion/gitlab/telink_b91m_driver_sdk/telink_b91m_driver_sdk/demo/vendor/common/B91/plic_isr.c:258
    2344:	4632                	c.lwsp	a2,12(sp)
    2346:	46a2                	c.lwsp	a3,8(sp)
    2348:	4712                	c.lwsp	a4,4(sp)
    234a:	4782                	c.lwsp	a5,0(sp)
    234c:	01010113          	addi	sp,sp,16
    2350:	30200073          	mret

00002354 <entry_irq10>:
entry_irq10():
E:/promotion/gitlab/telink_b91m_driver_sdk/telink_b91m_driver_sdk/demo/vendor/common/B91/plic_isr.c:246
{
    2354:	1141                	c.addi	sp,-16
    2356:	c03e                	c.swsp	a5,0(sp)
plic_isr():
C:/Users/Admin/Desktop/test1/telink_b91m_driver_src/chip/B91/drivers/lib/src/plic.c:97
    2358:	000007b7          	lui	a5,0x0
    235c:	15878793          	addi	a5,a5,344 # 158 <_AES_VMA_END>
entry_irq10():
E:/promotion/gitlab/telink_b91m_driver_sdk/telink_b91m_driver_sdk/demo/vendor/common/B91/plic_isr.c:246
    2360:	c632                	c.swsp	a2,12(sp)
    2362:	c436                	c.swsp	a3,8(sp)
    2364:	c23a                	c.swsp	a4,4(sp)
plic_isr():
C:/Users/Admin/Desktop/test1/telink_b91m_driver_src/chip/B91/drivers/lib/src/plic.c:97
    2366:	04078783          	lb	a5,64(a5)
    236a:	0ff7f793          	andi	a5,a5,255
    236e:	ef89                	c.bnez	a5,2388 <entry_irq10+0x34>
plic_interrupt_complete():
C:\Users\Admin\Desktop\test1\telink_b91m_driver_src\chip\B91\drivers/lib/include/plic.h:281
    2370:	e42007b7          	lui	a5,0xe4200
    2374:	4729                	c.li	a4,10
    2376:	c3d8                	c.sw	a4,4(a5)
entry_irq10():
E:/promotion/gitlab/telink_b91m_driver_sdk/telink_b91m_driver_sdk/demo/vendor/common/B91/plic_isr.c:248
}
    2378:	4632                	c.lwsp	a2,12(sp)
    237a:	46a2                	c.lwsp	a3,8(sp)
    237c:	4712                	c.lwsp	a4,4(sp)
    237e:	4782                	c.lwsp	a5,0(sp)
    2380:	01010113          	addi	sp,sp,16
    2384:	30200073          	mret
plic_isr():
C:/Users/Admin/Desktop/test1/telink_b91m_driver_src/chip/B91/drivers/lib/src/plic.c:99
    2388:	34102773          	csrr	a4,mepc
    238c:	300026f3          	csrr	a3,mstatus
    2390:	7c4027f3          	csrr	a5,mxstatus
    2394:	30046673          	csrrsi	a2,mstatus,8
C:/Users/Admin/Desktop/test1/telink_b91m_driver_src/chip/B91/drivers/lib/src/plic.c:101
    2398:	30047673          	csrrci	a2,mstatus,8
    239c:	30069073          	csrw	mstatus,a3
    23a0:	34171073          	csrw	mepc,a4
    23a4:	7c479073          	csrw	mxstatus,a5
plic_interrupt_complete():
C:\Users\Admin\Desktop\test1\telink_b91m_driver_src\chip\B91\drivers/lib/include/plic.h:281
    23a8:	e42007b7          	lui	a5,0xe4200
    23ac:	4729                	c.li	a4,10
    23ae:	c3d8                	c.sw	a4,4(a5)
plic_isr():
C:/Users/Admin/Desktop/test1/telink_b91m_driver_src/chip/B91/drivers/lib/src/plic.c:103
    23b0:	0ff0000f          	fence
entry_irq10():
E:/promotion/gitlab/telink_b91m_driver_sdk/telink_b91m_driver_sdk/demo/vendor/common/B91/plic_isr.c:248
    23b4:	4632                	c.lwsp	a2,12(sp)
    23b6:	46a2                	c.lwsp	a3,8(sp)
    23b8:	4712                	c.lwsp	a4,4(sp)
    23ba:	4782                	c.lwsp	a5,0(sp)
    23bc:	01010113          	addi	sp,sp,16
    23c0:	30200073          	mret

000023c4 <entry_irq9>:
entry_irq9():
E:/promotion/gitlab/telink_b91m_driver_sdk/telink_b91m_driver_sdk/demo/vendor/common/B91/plic_isr.c:235
{
    23c4:	1141                	c.addi	sp,-16
    23c6:	c03e                	c.swsp	a5,0(sp)
plic_isr():
C:/Users/Admin/Desktop/test1/telink_b91m_driver_src/chip/B91/drivers/lib/src/plic.c:97
    23c8:	000007b7          	lui	a5,0x0
    23cc:	15878793          	addi	a5,a5,344 # 158 <_AES_VMA_END>
entry_irq9():
E:/promotion/gitlab/telink_b91m_driver_sdk/telink_b91m_driver_sdk/demo/vendor/common/B91/plic_isr.c:235
    23d0:	c632                	c.swsp	a2,12(sp)
    23d2:	c436                	c.swsp	a3,8(sp)
    23d4:	c23a                	c.swsp	a4,4(sp)
plic_isr():
C:/Users/Admin/Desktop/test1/telink_b91m_driver_src/chip/B91/drivers/lib/src/plic.c:97
    23d6:	04078783          	lb	a5,64(a5)
    23da:	0ff7f793          	andi	a5,a5,255
    23de:	ef89                	c.bnez	a5,23f8 <entry_irq9+0x34>
plic_interrupt_complete():
C:\Users\Admin\Desktop\test1\telink_b91m_driver_src\chip\B91\drivers/lib/include/plic.h:281
    23e0:	e42007b7          	lui	a5,0xe4200
    23e4:	4725                	c.li	a4,9
    23e6:	c3d8                	c.sw	a4,4(a5)
entry_irq9():
E:/promotion/gitlab/telink_b91m_driver_sdk/telink_b91m_driver_sdk/demo/vendor/common/B91/plic_isr.c:237
}
    23e8:	4632                	c.lwsp	a2,12(sp)
    23ea:	46a2                	c.lwsp	a3,8(sp)
    23ec:	4712                	c.lwsp	a4,4(sp)
    23ee:	4782                	c.lwsp	a5,0(sp)
    23f0:	01010113          	addi	sp,sp,16
    23f4:	30200073          	mret
plic_isr():
C:/Users/Admin/Desktop/test1/telink_b91m_driver_src/chip/B91/drivers/lib/src/plic.c:99
    23f8:	34102773          	csrr	a4,mepc
    23fc:	300026f3          	csrr	a3,mstatus
    2400:	7c4027f3          	csrr	a5,mxstatus
    2404:	30046673          	csrrsi	a2,mstatus,8
C:/Users/Admin/Desktop/test1/telink_b91m_driver_src/chip/B91/drivers/lib/src/plic.c:101
    2408:	30047673          	csrrci	a2,mstatus,8
    240c:	30069073          	csrw	mstatus,a3
    2410:	34171073          	csrw	mepc,a4
    2414:	7c479073          	csrw	mxstatus,a5
plic_interrupt_complete():
C:\Users\Admin\Desktop\test1\telink_b91m_driver_src\chip\B91\drivers/lib/include/plic.h:281
    2418:	e42007b7          	lui	a5,0xe4200
    241c:	4725                	c.li	a4,9
    241e:	c3d8                	c.sw	a4,4(a5)
plic_isr():
C:/Users/Admin/Desktop/test1/telink_b91m_driver_src/chip/B91/drivers/lib/src/plic.c:103
    2420:	0ff0000f          	fence
entry_irq9():
E:/promotion/gitlab/telink_b91m_driver_sdk/telink_b91m_driver_sdk/demo/vendor/common/B91/plic_isr.c:237
    2424:	4632                	c.lwsp	a2,12(sp)
    2426:	46a2                	c.lwsp	a3,8(sp)
    2428:	4712                	c.lwsp	a4,4(sp)
    242a:	4782                	c.lwsp	a5,0(sp)
    242c:	01010113          	addi	sp,sp,16
    2430:	30200073          	mret

00002434 <entry_irq8>:
entry_irq8():
E:/promotion/gitlab/telink_b91m_driver_sdk/telink_b91m_driver_sdk/demo/vendor/common/B91/plic_isr.c:225
{
    2434:	1141                	c.addi	sp,-16
    2436:	c03e                	c.swsp	a5,0(sp)
plic_isr():
C:/Users/Admin/Desktop/test1/telink_b91m_driver_src/chip/B91/drivers/lib/src/plic.c:97
    2438:	000007b7          	lui	a5,0x0
    243c:	15878793          	addi	a5,a5,344 # 158 <_AES_VMA_END>
entry_irq8():
E:/promotion/gitlab/telink_b91m_driver_sdk/telink_b91m_driver_sdk/demo/vendor/common/B91/plic_isr.c:225
    2440:	c632                	c.swsp	a2,12(sp)
    2442:	c436                	c.swsp	a3,8(sp)
    2444:	c23a                	c.swsp	a4,4(sp)
plic_isr():
C:/Users/Admin/Desktop/test1/telink_b91m_driver_src/chip/B91/drivers/lib/src/plic.c:97
    2446:	04078783          	lb	a5,64(a5)
    244a:	0ff7f793          	andi	a5,a5,255
    244e:	ef89                	c.bnez	a5,2468 <entry_irq8+0x34>
plic_interrupt_complete():
C:\Users\Admin\Desktop\test1\telink_b91m_driver_src\chip\B91\drivers/lib/include/plic.h:281
    2450:	e42007b7          	lui	a5,0xe4200
    2454:	4721                	c.li	a4,8
    2456:	c3d8                	c.sw	a4,4(a5)
entry_irq8():
E:/promotion/gitlab/telink_b91m_driver_sdk/telink_b91m_driver_sdk/demo/vendor/common/B91/plic_isr.c:227
}
    2458:	4632                	c.lwsp	a2,12(sp)
    245a:	46a2                	c.lwsp	a3,8(sp)
    245c:	4712                	c.lwsp	a4,4(sp)
    245e:	4782                	c.lwsp	a5,0(sp)
    2460:	01010113          	addi	sp,sp,16
    2464:	30200073          	mret
plic_isr():
C:/Users/Admin/Desktop/test1/telink_b91m_driver_src/chip/B91/drivers/lib/src/plic.c:99
    2468:	34102773          	csrr	a4,mepc
    246c:	300026f3          	csrr	a3,mstatus
    2470:	7c4027f3          	csrr	a5,mxstatus
    2474:	30046673          	csrrsi	a2,mstatus,8
C:/Users/Admin/Desktop/test1/telink_b91m_driver_src/chip/B91/drivers/lib/src/plic.c:101
    2478:	30047673          	csrrci	a2,mstatus,8
    247c:	30069073          	csrw	mstatus,a3
    2480:	34171073          	csrw	mepc,a4
    2484:	7c479073          	csrw	mxstatus,a5
plic_interrupt_complete():
C:\Users\Admin\Desktop\test1\telink_b91m_driver_src\chip\B91\drivers/lib/include/plic.h:281
    2488:	e42007b7          	lui	a5,0xe4200
    248c:	4721                	c.li	a4,8
    248e:	c3d8                	c.sw	a4,4(a5)
plic_isr():
C:/Users/Admin/Desktop/test1/telink_b91m_driver_src/chip/B91/drivers/lib/src/plic.c:103
    2490:	0ff0000f          	fence
entry_irq8():
E:/promotion/gitlab/telink_b91m_driver_sdk/telink_b91m_driver_sdk/demo/vendor/common/B91/plic_isr.c:227
    2494:	4632                	c.lwsp	a2,12(sp)
    2496:	46a2                	c.lwsp	a3,8(sp)
    2498:	4712                	c.lwsp	a4,4(sp)
    249a:	4782                	c.lwsp	a5,0(sp)
    249c:	01010113          	addi	sp,sp,16
    24a0:	30200073          	mret

000024a4 <entry_irq7>:
entry_irq7():
E:/promotion/gitlab/telink_b91m_driver_sdk/telink_b91m_driver_sdk/demo/vendor/common/B91/plic_isr.c:215
{
    24a4:	1141                	c.addi	sp,-16
    24a6:	c03e                	c.swsp	a5,0(sp)
plic_isr():
C:/Users/Admin/Desktop/test1/telink_b91m_driver_src/chip/B91/drivers/lib/src/plic.c:97
    24a8:	000007b7          	lui	a5,0x0
    24ac:	15878793          	addi	a5,a5,344 # 158 <_AES_VMA_END>
entry_irq7():
E:/promotion/gitlab/telink_b91m_driver_sdk/telink_b91m_driver_sdk/demo/vendor/common/B91/plic_isr.c:215
    24b0:	c632                	c.swsp	a2,12(sp)
    24b2:	c436                	c.swsp	a3,8(sp)
    24b4:	c23a                	c.swsp	a4,4(sp)
plic_isr():
C:/Users/Admin/Desktop/test1/telink_b91m_driver_src/chip/B91/drivers/lib/src/plic.c:97
    24b6:	04078783          	lb	a5,64(a5)
    24ba:	0ff7f793          	andi	a5,a5,255
    24be:	ef89                	c.bnez	a5,24d8 <entry_irq7+0x34>
plic_interrupt_complete():
C:\Users\Admin\Desktop\test1\telink_b91m_driver_src\chip\B91\drivers/lib/include/plic.h:281
    24c0:	e42007b7          	lui	a5,0xe4200
    24c4:	471d                	c.li	a4,7
    24c6:	c3d8                	c.sw	a4,4(a5)
entry_irq7():
E:/promotion/gitlab/telink_b91m_driver_sdk/telink_b91m_driver_sdk/demo/vendor/common/B91/plic_isr.c:217
}
    24c8:	4632                	c.lwsp	a2,12(sp)
    24ca:	46a2                	c.lwsp	a3,8(sp)
    24cc:	4712                	c.lwsp	a4,4(sp)
    24ce:	4782                	c.lwsp	a5,0(sp)
    24d0:	01010113          	addi	sp,sp,16
    24d4:	30200073          	mret
plic_isr():
C:/Users/Admin/Desktop/test1/telink_b91m_driver_src/chip/B91/drivers/lib/src/plic.c:99
    24d8:	34102773          	csrr	a4,mepc
    24dc:	300026f3          	csrr	a3,mstatus
    24e0:	7c4027f3          	csrr	a5,mxstatus
    24e4:	30046673          	csrrsi	a2,mstatus,8
C:/Users/Admin/Desktop/test1/telink_b91m_driver_src/chip/B91/drivers/lib/src/plic.c:101
    24e8:	30047673          	csrrci	a2,mstatus,8
    24ec:	30069073          	csrw	mstatus,a3
    24f0:	34171073          	csrw	mepc,a4
    24f4:	7c479073          	csrw	mxstatus,a5
plic_interrupt_complete():
C:\Users\Admin\Desktop\test1\telink_b91m_driver_src\chip\B91\drivers/lib/include/plic.h:281
    24f8:	e42007b7          	lui	a5,0xe4200
    24fc:	471d                	c.li	a4,7
    24fe:	c3d8                	c.sw	a4,4(a5)
plic_isr():
C:/Users/Admin/Desktop/test1/telink_b91m_driver_src/chip/B91/drivers/lib/src/plic.c:103
    2500:	0ff0000f          	fence
entry_irq7():
E:/promotion/gitlab/telink_b91m_driver_sdk/telink_b91m_driver_sdk/demo/vendor/common/B91/plic_isr.c:217
    2504:	4632                	c.lwsp	a2,12(sp)
    2506:	46a2                	c.lwsp	a3,8(sp)
    2508:	4712                	c.lwsp	a4,4(sp)
    250a:	4782                	c.lwsp	a5,0(sp)
    250c:	01010113          	addi	sp,sp,16
    2510:	30200073          	mret

00002514 <entry_irq6>:
entry_irq6():
E:/promotion/gitlab/telink_b91m_driver_sdk/telink_b91m_driver_sdk/demo/vendor/common/B91/plic_isr.c:204
{
    2514:	1141                	c.addi	sp,-16
    2516:	c03e                	c.swsp	a5,0(sp)
plic_isr():
C:/Users/Admin/Desktop/test1/telink_b91m_driver_src/chip/B91/drivers/lib/src/plic.c:97
    2518:	000007b7          	lui	a5,0x0
    251c:	15878793          	addi	a5,a5,344 # 158 <_AES_VMA_END>
entry_irq6():
E:/promotion/gitlab/telink_b91m_driver_sdk/telink_b91m_driver_sdk/demo/vendor/common/B91/plic_isr.c:204
    2520:	c632                	c.swsp	a2,12(sp)
    2522:	c436                	c.swsp	a3,8(sp)
    2524:	c23a                	c.swsp	a4,4(sp)
plic_isr():
C:/Users/Admin/Desktop/test1/telink_b91m_driver_src/chip/B91/drivers/lib/src/plic.c:97
    2526:	04078783          	lb	a5,64(a5)
    252a:	0ff7f793          	andi	a5,a5,255
    252e:	ef89                	c.bnez	a5,2548 <entry_irq6+0x34>
plic_interrupt_complete():
C:\Users\Admin\Desktop\test1\telink_b91m_driver_src\chip\B91\drivers/lib/include/plic.h:281
    2530:	e42007b7          	lui	a5,0xe4200
    2534:	4719                	c.li	a4,6
    2536:	c3d8                	c.sw	a4,4(a5)
entry_irq6():
E:/promotion/gitlab/telink_b91m_driver_sdk/telink_b91m_driver_sdk/demo/vendor/common/B91/plic_isr.c:206
}
    2538:	4632                	c.lwsp	a2,12(sp)
    253a:	46a2                	c.lwsp	a3,8(sp)
    253c:	4712                	c.lwsp	a4,4(sp)
    253e:	4782                	c.lwsp	a5,0(sp)
    2540:	01010113          	addi	sp,sp,16
    2544:	30200073          	mret
plic_isr():
C:/Users/Admin/Desktop/test1/telink_b91m_driver_src/chip/B91/drivers/lib/src/plic.c:99
    2548:	34102773          	csrr	a4,mepc
    254c:	300026f3          	csrr	a3,mstatus
    2550:	7c4027f3          	csrr	a5,mxstatus
    2554:	30046673          	csrrsi	a2,mstatus,8
C:/Users/Admin/Desktop/test1/telink_b91m_driver_src/chip/B91/drivers/lib/src/plic.c:101
    2558:	30047673          	csrrci	a2,mstatus,8
    255c:	30069073          	csrw	mstatus,a3
    2560:	34171073          	csrw	mepc,a4
    2564:	7c479073          	csrw	mxstatus,a5
plic_interrupt_complete():
C:\Users\Admin\Desktop\test1\telink_b91m_driver_src\chip\B91\drivers/lib/include/plic.h:281
    2568:	e42007b7          	lui	a5,0xe4200
    256c:	4719                	c.li	a4,6
    256e:	c3d8                	c.sw	a4,4(a5)
plic_isr():
C:/Users/Admin/Desktop/test1/telink_b91m_driver_src/chip/B91/drivers/lib/src/plic.c:103
    2570:	0ff0000f          	fence
entry_irq6():
E:/promotion/gitlab/telink_b91m_driver_sdk/telink_b91m_driver_sdk/demo/vendor/common/B91/plic_isr.c:206
    2574:	4632                	c.lwsp	a2,12(sp)
    2576:	46a2                	c.lwsp	a3,8(sp)
    2578:	4712                	c.lwsp	a4,4(sp)
    257a:	4782                	c.lwsp	a5,0(sp)
    257c:	01010113          	addi	sp,sp,16
    2580:	30200073          	mret

00002584 <entry_irq5>:
entry_irq5():
E:/promotion/gitlab/telink_b91m_driver_sdk/telink_b91m_driver_sdk/demo/vendor/common/B91/plic_isr.c:194
{
    2584:	1141                	c.addi	sp,-16
    2586:	c03e                	c.swsp	a5,0(sp)
plic_isr():
C:/Users/Admin/Desktop/test1/telink_b91m_driver_src/chip/B91/drivers/lib/src/plic.c:97
    2588:	000007b7          	lui	a5,0x0
    258c:	15878793          	addi	a5,a5,344 # 158 <_AES_VMA_END>
entry_irq5():
E:/promotion/gitlab/telink_b91m_driver_sdk/telink_b91m_driver_sdk/demo/vendor/common/B91/plic_isr.c:194
    2590:	c632                	c.swsp	a2,12(sp)
    2592:	c436                	c.swsp	a3,8(sp)
    2594:	c23a                	c.swsp	a4,4(sp)
plic_isr():
C:/Users/Admin/Desktop/test1/telink_b91m_driver_src/chip/B91/drivers/lib/src/plic.c:97
    2596:	04078783          	lb	a5,64(a5)
    259a:	0ff7f793          	andi	a5,a5,255
    259e:	ef89                	c.bnez	a5,25b8 <entry_irq5+0x34>
plic_interrupt_complete():
C:\Users\Admin\Desktop\test1\telink_b91m_driver_src\chip\B91\drivers/lib/include/plic.h:281
    25a0:	e42007b7          	lui	a5,0xe4200
    25a4:	4715                	c.li	a4,5
    25a6:	c3d8                	c.sw	a4,4(a5)
entry_irq5():
E:/promotion/gitlab/telink_b91m_driver_sdk/telink_b91m_driver_sdk/demo/vendor/common/B91/plic_isr.c:196
}
    25a8:	4632                	c.lwsp	a2,12(sp)
    25aa:	46a2                	c.lwsp	a3,8(sp)
    25ac:	4712                	c.lwsp	a4,4(sp)
    25ae:	4782                	c.lwsp	a5,0(sp)
    25b0:	01010113          	addi	sp,sp,16
    25b4:	30200073          	mret
plic_isr():
C:/Users/Admin/Desktop/test1/telink_b91m_driver_src/chip/B91/drivers/lib/src/plic.c:99
    25b8:	34102773          	csrr	a4,mepc
    25bc:	300026f3          	csrr	a3,mstatus
    25c0:	7c4027f3          	csrr	a5,mxstatus
    25c4:	30046673          	csrrsi	a2,mstatus,8
C:/Users/Admin/Desktop/test1/telink_b91m_driver_src/chip/B91/drivers/lib/src/plic.c:101
    25c8:	30047673          	csrrci	a2,mstatus,8
    25cc:	30069073          	csrw	mstatus,a3
    25d0:	34171073          	csrw	mepc,a4
    25d4:	7c479073          	csrw	mxstatus,a5
plic_interrupt_complete():
C:\Users\Admin\Desktop\test1\telink_b91m_driver_src\chip\B91\drivers/lib/include/plic.h:281
    25d8:	e42007b7          	lui	a5,0xe4200
    25dc:	4715                	c.li	a4,5
    25de:	c3d8                	c.sw	a4,4(a5)
plic_isr():
C:/Users/Admin/Desktop/test1/telink_b91m_driver_src/chip/B91/drivers/lib/src/plic.c:103
    25e0:	0ff0000f          	fence
entry_irq5():
E:/promotion/gitlab/telink_b91m_driver_sdk/telink_b91m_driver_sdk/demo/vendor/common/B91/plic_isr.c:196
    25e4:	4632                	c.lwsp	a2,12(sp)
    25e6:	46a2                	c.lwsp	a3,8(sp)
    25e8:	4712                	c.lwsp	a4,4(sp)
    25ea:	4782                	c.lwsp	a5,0(sp)
    25ec:	01010113          	addi	sp,sp,16
    25f0:	30200073          	mret

000025f4 <entry_irq4>:
entry_irq4():
E:/promotion/gitlab/telink_b91m_driver_sdk/telink_b91m_driver_sdk/demo/vendor/common/B91/plic_isr.c:183
{
    25f4:	1141                	c.addi	sp,-16
    25f6:	c03e                	c.swsp	a5,0(sp)
plic_isr():
C:/Users/Admin/Desktop/test1/telink_b91m_driver_src/chip/B91/drivers/lib/src/plic.c:97
    25f8:	000007b7          	lui	a5,0x0
    25fc:	15878793          	addi	a5,a5,344 # 158 <_AES_VMA_END>
entry_irq4():
E:/promotion/gitlab/telink_b91m_driver_sdk/telink_b91m_driver_sdk/demo/vendor/common/B91/plic_isr.c:183
    2600:	c632                	c.swsp	a2,12(sp)
    2602:	c436                	c.swsp	a3,8(sp)
    2604:	c23a                	c.swsp	a4,4(sp)
plic_isr():
C:/Users/Admin/Desktop/test1/telink_b91m_driver_src/chip/B91/drivers/lib/src/plic.c:97
    2606:	04078783          	lb	a5,64(a5)
    260a:	0ff7f793          	andi	a5,a5,255
    260e:	ef89                	c.bnez	a5,2628 <entry_irq4+0x34>
plic_interrupt_complete():
C:\Users\Admin\Desktop\test1\telink_b91m_driver_src\chip\B91\drivers/lib/include/plic.h:281
    2610:	e42007b7          	lui	a5,0xe4200
    2614:	4711                	c.li	a4,4
    2616:	c3d8                	c.sw	a4,4(a5)
entry_irq4():
E:/promotion/gitlab/telink_b91m_driver_sdk/telink_b91m_driver_sdk/demo/vendor/common/B91/plic_isr.c:185
}
    2618:	4632                	c.lwsp	a2,12(sp)
    261a:	46a2                	c.lwsp	a3,8(sp)
    261c:	4712                	c.lwsp	a4,4(sp)
    261e:	4782                	c.lwsp	a5,0(sp)
    2620:	01010113          	addi	sp,sp,16
    2624:	30200073          	mret
plic_isr():
C:/Users/Admin/Desktop/test1/telink_b91m_driver_src/chip/B91/drivers/lib/src/plic.c:99
    2628:	34102773          	csrr	a4,mepc
    262c:	300026f3          	csrr	a3,mstatus
    2630:	7c4027f3          	csrr	a5,mxstatus
    2634:	30046673          	csrrsi	a2,mstatus,8
C:/Users/Admin/Desktop/test1/telink_b91m_driver_src/chip/B91/drivers/lib/src/plic.c:101
    2638:	30047673          	csrrci	a2,mstatus,8
    263c:	30069073          	csrw	mstatus,a3
    2640:	34171073          	csrw	mepc,a4
    2644:	7c479073          	csrw	mxstatus,a5
plic_interrupt_complete():
C:\Users\Admin\Desktop\test1\telink_b91m_driver_src\chip\B91\drivers/lib/include/plic.h:281
    2648:	e42007b7          	lui	a5,0xe4200
    264c:	4711                	c.li	a4,4
    264e:	c3d8                	c.sw	a4,4(a5)
plic_isr():
C:/Users/Admin/Desktop/test1/telink_b91m_driver_src/chip/B91/drivers/lib/src/plic.c:103
    2650:	0ff0000f          	fence
entry_irq4():
E:/promotion/gitlab/telink_b91m_driver_sdk/telink_b91m_driver_sdk/demo/vendor/common/B91/plic_isr.c:185
    2654:	4632                	c.lwsp	a2,12(sp)
    2656:	46a2                	c.lwsp	a3,8(sp)
    2658:	4712                	c.lwsp	a4,4(sp)
    265a:	4782                	c.lwsp	a5,0(sp)
    265c:	01010113          	addi	sp,sp,16
    2660:	30200073          	mret

00002664 <entry_irq3>:
entry_irq3():
E:/promotion/gitlab/telink_b91m_driver_sdk/telink_b91m_driver_sdk/demo/vendor/common/B91/plic_isr.c:173
{
    2664:	1141                	c.addi	sp,-16
    2666:	c03e                	c.swsp	a5,0(sp)
plic_isr():
C:/Users/Admin/Desktop/test1/telink_b91m_driver_src/chip/B91/drivers/lib/src/plic.c:97
    2668:	000007b7          	lui	a5,0x0
    266c:	15878793          	addi	a5,a5,344 # 158 <_AES_VMA_END>
entry_irq3():
E:/promotion/gitlab/telink_b91m_driver_sdk/telink_b91m_driver_sdk/demo/vendor/common/B91/plic_isr.c:173
    2670:	c632                	c.swsp	a2,12(sp)
    2672:	c436                	c.swsp	a3,8(sp)
    2674:	c23a                	c.swsp	a4,4(sp)
plic_isr():
C:/Users/Admin/Desktop/test1/telink_b91m_driver_src/chip/B91/drivers/lib/src/plic.c:97
    2676:	04078783          	lb	a5,64(a5)
    267a:	0ff7f793          	andi	a5,a5,255
    267e:	ef89                	c.bnez	a5,2698 <entry_irq3+0x34>
plic_interrupt_complete():
C:\Users\Admin\Desktop\test1\telink_b91m_driver_src\chip\B91\drivers/lib/include/plic.h:281
    2680:	e42007b7          	lui	a5,0xe4200
    2684:	470d                	c.li	a4,3
    2686:	c3d8                	c.sw	a4,4(a5)
entry_irq3():
E:/promotion/gitlab/telink_b91m_driver_sdk/telink_b91m_driver_sdk/demo/vendor/common/B91/plic_isr.c:175
}
    2688:	4632                	c.lwsp	a2,12(sp)
    268a:	46a2                	c.lwsp	a3,8(sp)
    268c:	4712                	c.lwsp	a4,4(sp)
    268e:	4782                	c.lwsp	a5,0(sp)
    2690:	01010113          	addi	sp,sp,16
    2694:	30200073          	mret
plic_isr():
C:/Users/Admin/Desktop/test1/telink_b91m_driver_src/chip/B91/drivers/lib/src/plic.c:99
    2698:	34102773          	csrr	a4,mepc
    269c:	300026f3          	csrr	a3,mstatus
    26a0:	7c4027f3          	csrr	a5,mxstatus
    26a4:	30046673          	csrrsi	a2,mstatus,8
C:/Users/Admin/Desktop/test1/telink_b91m_driver_src/chip/B91/drivers/lib/src/plic.c:101
    26a8:	30047673          	csrrci	a2,mstatus,8
    26ac:	30069073          	csrw	mstatus,a3
    26b0:	34171073          	csrw	mepc,a4
    26b4:	7c479073          	csrw	mxstatus,a5
plic_interrupt_complete():
C:\Users\Admin\Desktop\test1\telink_b91m_driver_src\chip\B91\drivers/lib/include/plic.h:281
    26b8:	e42007b7          	lui	a5,0xe4200
    26bc:	470d                	c.li	a4,3
    26be:	c3d8                	c.sw	a4,4(a5)
plic_isr():
C:/Users/Admin/Desktop/test1/telink_b91m_driver_src/chip/B91/drivers/lib/src/plic.c:103
    26c0:	0ff0000f          	fence
entry_irq3():
E:/promotion/gitlab/telink_b91m_driver_sdk/telink_b91m_driver_sdk/demo/vendor/common/B91/plic_isr.c:175
    26c4:	4632                	c.lwsp	a2,12(sp)
    26c6:	46a2                	c.lwsp	a3,8(sp)
    26c8:	4712                	c.lwsp	a4,4(sp)
    26ca:	4782                	c.lwsp	a5,0(sp)
    26cc:	01010113          	addi	sp,sp,16
    26d0:	30200073          	mret

000026d4 <entry_irq2>:
entry_irq2():
E:/promotion/gitlab/telink_b91m_driver_sdk/telink_b91m_driver_sdk/demo/vendor/common/B91/plic_isr.c:162
{
    26d4:	1141                	c.addi	sp,-16
    26d6:	c03e                	c.swsp	a5,0(sp)
plic_isr():
C:/Users/Admin/Desktop/test1/telink_b91m_driver_src/chip/B91/drivers/lib/src/plic.c:97
    26d8:	000007b7          	lui	a5,0x0
    26dc:	15878793          	addi	a5,a5,344 # 158 <_AES_VMA_END>
entry_irq2():
E:/promotion/gitlab/telink_b91m_driver_sdk/telink_b91m_driver_sdk/demo/vendor/common/B91/plic_isr.c:162
    26e0:	c632                	c.swsp	a2,12(sp)
    26e2:	c436                	c.swsp	a3,8(sp)
    26e4:	c23a                	c.swsp	a4,4(sp)
plic_isr():
C:/Users/Admin/Desktop/test1/telink_b91m_driver_src/chip/B91/drivers/lib/src/plic.c:97
    26e6:	04078783          	lb	a5,64(a5)
    26ea:	0ff7f793          	andi	a5,a5,255
    26ee:	ef89                	c.bnez	a5,2708 <entry_irq2+0x34>
plic_interrupt_complete():
C:\Users\Admin\Desktop\test1\telink_b91m_driver_src\chip\B91\drivers/lib/include/plic.h:281
    26f0:	e42007b7          	lui	a5,0xe4200
    26f4:	4709                	c.li	a4,2
    26f6:	c3d8                	c.sw	a4,4(a5)
entry_irq2():
E:/promotion/gitlab/telink_b91m_driver_sdk/telink_b91m_driver_sdk/demo/vendor/common/B91/plic_isr.c:164
}
    26f8:	4632                	c.lwsp	a2,12(sp)
    26fa:	46a2                	c.lwsp	a3,8(sp)
    26fc:	4712                	c.lwsp	a4,4(sp)
    26fe:	4782                	c.lwsp	a5,0(sp)
    2700:	01010113          	addi	sp,sp,16
    2704:	30200073          	mret
plic_isr():
C:/Users/Admin/Desktop/test1/telink_b91m_driver_src/chip/B91/drivers/lib/src/plic.c:99
    2708:	34102773          	csrr	a4,mepc
    270c:	300026f3          	csrr	a3,mstatus
    2710:	7c4027f3          	csrr	a5,mxstatus
    2714:	30046673          	csrrsi	a2,mstatus,8
C:/Users/Admin/Desktop/test1/telink_b91m_driver_src/chip/B91/drivers/lib/src/plic.c:101
    2718:	30047673          	csrrci	a2,mstatus,8
    271c:	30069073          	csrw	mstatus,a3
    2720:	34171073          	csrw	mepc,a4
    2724:	7c479073          	csrw	mxstatus,a5
plic_interrupt_complete():
C:\Users\Admin\Desktop\test1\telink_b91m_driver_src\chip\B91\drivers/lib/include/plic.h:281
    2728:	e42007b7          	lui	a5,0xe4200
    272c:	4709                	c.li	a4,2
    272e:	c3d8                	c.sw	a4,4(a5)
plic_isr():
C:/Users/Admin/Desktop/test1/telink_b91m_driver_src/chip/B91/drivers/lib/src/plic.c:103
    2730:	0ff0000f          	fence
entry_irq2():
E:/promotion/gitlab/telink_b91m_driver_sdk/telink_b91m_driver_sdk/demo/vendor/common/B91/plic_isr.c:164
    2734:	4632                	c.lwsp	a2,12(sp)
    2736:	46a2                	c.lwsp	a3,8(sp)
    2738:	4712                	c.lwsp	a4,4(sp)
    273a:	4782                	c.lwsp	a5,0(sp)
    273c:	01010113          	addi	sp,sp,16
    2740:	30200073          	mret

00002744 <entry_irq1>:
entry_irq1():
E:/promotion/gitlab/telink_b91m_driver_sdk/telink_b91m_driver_sdk/demo/vendor/common/B91/plic_isr.c:152
{
    2744:	1141                	c.addi	sp,-16
    2746:	c03e                	c.swsp	a5,0(sp)
plic_isr():
C:/Users/Admin/Desktop/test1/telink_b91m_driver_src/chip/B91/drivers/lib/src/plic.c:97
    2748:	000007b7          	lui	a5,0x0
    274c:	15878793          	addi	a5,a5,344 # 158 <_AES_VMA_END>
entry_irq1():
E:/promotion/gitlab/telink_b91m_driver_sdk/telink_b91m_driver_sdk/demo/vendor/common/B91/plic_isr.c:152
    2750:	c632                	c.swsp	a2,12(sp)
    2752:	c436                	c.swsp	a3,8(sp)
    2754:	c23a                	c.swsp	a4,4(sp)
plic_isr():
C:/Users/Admin/Desktop/test1/telink_b91m_driver_src/chip/B91/drivers/lib/src/plic.c:97
    2756:	04078783          	lb	a5,64(a5)
    275a:	0ff7f793          	andi	a5,a5,255
    275e:	ef89                	c.bnez	a5,2778 <entry_irq1+0x34>
plic_interrupt_complete():
C:\Users\Admin\Desktop\test1\telink_b91m_driver_src\chip\B91\drivers/lib/include/plic.h:281
    2760:	e42007b7          	lui	a5,0xe4200
    2764:	4705                	c.li	a4,1
    2766:	c3d8                	c.sw	a4,4(a5)
entry_irq1():
E:/promotion/gitlab/telink_b91m_driver_sdk/telink_b91m_driver_sdk/demo/vendor/common/B91/plic_isr.c:154
}
    2768:	4632                	c.lwsp	a2,12(sp)
    276a:	46a2                	c.lwsp	a3,8(sp)
    276c:	4712                	c.lwsp	a4,4(sp)
    276e:	4782                	c.lwsp	a5,0(sp)
    2770:	01010113          	addi	sp,sp,16
    2774:	30200073          	mret
plic_isr():
C:/Users/Admin/Desktop/test1/telink_b91m_driver_src/chip/B91/drivers/lib/src/plic.c:99
    2778:	34102773          	csrr	a4,mepc
    277c:	300026f3          	csrr	a3,mstatus
    2780:	7c4027f3          	csrr	a5,mxstatus
    2784:	30046673          	csrrsi	a2,mstatus,8
C:/Users/Admin/Desktop/test1/telink_b91m_driver_src/chip/B91/drivers/lib/src/plic.c:101
    2788:	30047673          	csrrci	a2,mstatus,8
    278c:	30069073          	csrw	mstatus,a3
    2790:	34171073          	csrw	mepc,a4
    2794:	7c479073          	csrw	mxstatus,a5
plic_interrupt_complete():
C:\Users\Admin\Desktop\test1\telink_b91m_driver_src\chip\B91\drivers/lib/include/plic.h:281
    2798:	e42007b7          	lui	a5,0xe4200
    279c:	4705                	c.li	a4,1
    279e:	c3d8                	c.sw	a4,4(a5)
plic_isr():
C:/Users/Admin/Desktop/test1/telink_b91m_driver_src/chip/B91/drivers/lib/src/plic.c:103
    27a0:	0ff0000f          	fence
entry_irq1():
E:/promotion/gitlab/telink_b91m_driver_sdk/telink_b91m_driver_sdk/demo/vendor/common/B91/plic_isr.c:154
    27a4:	4632                	c.lwsp	a2,12(sp)
    27a6:	46a2                	c.lwsp	a3,8(sp)
    27a8:	4712                	c.lwsp	a4,4(sp)
    27aa:	4782                	c.lwsp	a5,0(sp)
    27ac:	01010113          	addi	sp,sp,16
    27b0:	30200073          	mret

000027b4 <trap_entry>:
trap_entry():
E:/promotion/gitlab/telink_b91m_driver_sdk/telink_b91m_driver_sdk/demo/vendor/common/B91/plic_isr.c:74
 {
    27b4:	1101                	c.addi	sp,-32
    27b6:	ce36                	c.swsp	a3,28(sp)
    27b8:	cc3a                	c.swsp	a4,24(sp)
    27ba:	ca3e                	c.swsp	a5,20(sp)
core_get_mcause():
E:/promotion/gitlab/telink_b91m_driver_sdk/telink_b91m_driver_sdk/chip/B91/drivers/core.h:217
   This register is updated when a trap, reset, NMI or vector interrupt occurs
 * @return     none
 */
static inline unsigned int core_get_mcause(void)
{
	return read_csr(NDS_MCAUSE);
    27bc:	34202773          	csrr	a4,mcause
except_handler():
E:/promotion/gitlab/telink_b91m_driver_sdk/telink_b91m_driver_sdk/demo/vendor/common/B91/plic_isr.c:56
	mcause = core_get_mcause();
    27c0:	84efc5ab          	swgp	a4,-1976 # 80048 <mcause>
core_get_mepc():
E:/promotion/gitlab/telink_b91m_driver_sdk/telink_b91m_driver_sdk/chip/B91/drivers/core.h:228
 * to the value of the instruction pc currently encountered with the exception
 * @return     none
 */
static inline unsigned int core_get_mepc(void)
{
	return read_csr(NDS_MEPC);
    27c4:	341026f3          	csrr	a3,mepc
except_handler():
E:/promotion/gitlab/telink_b91m_driver_sdk/telink_b91m_driver_sdk/demo/vendor/common/B91/plic_isr.c:60
 		for(volatile unsigned int i = 0; i < 0xffff; i++)
    27c8:	6741                	c.lui	a4,0x10
    27ca:	1779                	c.addi	a4,-2
E:/promotion/gitlab/telink_b91m_driver_sdk/telink_b91m_driver_sdk/demo/vendor/common/B91/plic_isr.c:57
	mepc   = core_get_mepc();
    27cc:	84dfc7ab          	swgp	a3,-1972 # 8004c <mepc>
E:/promotion/gitlab/telink_b91m_driver_sdk/telink_b91m_driver_sdk/demo/vendor/common/B91/plic_isr.c:60
 		for(volatile unsigned int i = 0; i < 0xffff; i++)
    27d0:	c602                	c.swsp	zero,12(sp)
    27d2:	47b2                	c.lwsp	a5,12(sp)
    27d4:	fef76ee3          	bltu	a4,a5,27d0 <trap_entry+0x1c>
E:/promotion/gitlab/telink_b91m_driver_sdk/telink_b91m_driver_sdk/demo/vendor/common/B91/plic_isr.c:62
 			__asm__("nop");
    27d8:	0001                	c.nop
E:/promotion/gitlab/telink_b91m_driver_sdk/telink_b91m_driver_sdk/demo/vendor/common/B91/plic_isr.c:60
 		for(volatile unsigned int i = 0; i < 0xffff; i++)
    27da:	47b2                	c.lwsp	a5,12(sp)
    27dc:	0785                	c.addi	a5,1
    27de:	c63e                	c.swsp	a5,12(sp)
    27e0:	47b2                	c.lwsp	a5,12(sp)
    27e2:	fef77be3          	bgeu	a4,a5,27d8 <trap_entry+0x24>
    27e6:	b7ed                	c.j	27d0 <trap_entry+0x1c>
trap_entry():
    27e8:	0001                	c.nop
	...

00002800 <__vectors>:
__vectors():
    2800:	27b4                	c.fld	fa3,72(a5)
    2802:	0000                	unimp
    2804:	2744                	c.fld	fs1,136(a4)
    2806:	0000                	unimp
    2808:	26d4                	c.fld	fa3,136(a3)
    280a:	0000                	unimp
    280c:	2664                	c.fld	fs1,200(a2)
    280e:	0000                	unimp
    2810:	25f4                	c.fld	fa3,200(a1)
    2812:	0000                	unimp
    2814:	2584                	c.fld	fs1,8(a1)
    2816:	0000                	unimp
    2818:	2514                	c.fld	fa3,8(a0)
    281a:	0000                	unimp
    281c:	24a4                	c.fld	fs1,72(s1)
    281e:	0000                	unimp
    2820:	2434                	c.fld	fa3,72(s0)
    2822:	0000                	unimp
    2824:	23c4                	c.fld	fs1,128(a5)
    2826:	0000                	unimp
    2828:	2354                	c.fld	fa3,128(a4)
    282a:	0000                	unimp
    282c:	22e4                	c.fld	fs1,192(a3)
    282e:	0000                	unimp
    2830:	2274                	c.fld	fa3,192(a2)
    2832:	0000                	unimp
    2834:	2204                	c.fld	fs1,0(a2)
    2836:	0000                	unimp
    2838:	2194                	c.fld	fa3,0(a1)
    283a:	0000                	unimp
    283c:	2124                	c.fld	fs1,64(a0)
    283e:	0000                	unimp
    2840:	202c                	c.fld	fa1,64(s0)
    2842:	0000                	unimp
    2844:	1fbc                	c.addi4spn	a5,sp,1016
    2846:	0000                	unimp
    2848:	1f4c                	c.addi4spn	a1,sp,948
    284a:	0000                	unimp
    284c:	1e54                	c.addi4spn	a3,sp,820
    284e:	0000                	unimp
    2850:	1de4                	c.addi4spn	s1,sp,764
    2852:	0000                	unimp
    2854:	1d74                	c.addi4spn	a3,sp,700
    2856:	0000                	unimp
    2858:	1d04                	c.addi4spn	s1,sp,688
    285a:	0000                	unimp
    285c:	1c94                	c.addi4spn	a3,sp,624
    285e:	0000                	unimp
    2860:	1c24                	c.addi4spn	s1,sp,568
    2862:	0000                	unimp
    2864:	1bb4                	c.addi4spn	a3,sp,504
    2866:	0000                	unimp
    2868:	1b44                	c.addi4spn	s1,sp,436
    286a:	0000                	unimp
    286c:	1ad4                	c.addi4spn	a3,sp,372
    286e:	0000                	unimp
    2870:	1a64                	c.addi4spn	s1,sp,316
    2872:	0000                	unimp
    2874:	19f4                	c.addi4spn	a3,sp,252
    2876:	0000                	unimp
    2878:	1984                	c.addi4spn	s1,sp,240
    287a:	0000                	unimp
    287c:	1914                	c.addi4spn	a3,sp,176
    287e:	0000                	unimp
    2880:	18a4                	c.addi4spn	s1,sp,120
    2882:	0000                	unimp
    2884:	1834                	c.addi4spn	a3,sp,56
    2886:	0000                	unimp
    2888:	17c4                	c.addi4spn	s1,sp,996
    288a:	0000                	unimp
    288c:	1754                	c.addi4spn	a3,sp,932
    288e:	0000                	unimp
    2890:	16e4                	c.addi4spn	s1,sp,876
    2892:	0000                	unimp
    2894:	1674                	c.addi4spn	a3,sp,812
    2896:	0000                	unimp
    2898:	1670                	c.addi4spn	a2,sp,812
    289a:	0000                	unimp
    289c:	166c                	c.addi4spn	a1,sp,812
    289e:	0000                	unimp
    28a0:	1668                	c.addi4spn	a0,sp,812
    28a2:	0000                	unimp
    28a4:	1664                	c.addi4spn	s1,sp,812
    28a6:	0000                	unimp
    28a8:	15f4                	c.addi4spn	a3,sp,748
    28aa:	0000                	unimp
    28ac:	1584                	c.addi4spn	s1,sp,736
    28ae:	0000                	unimp
    28b0:	1514                	c.addi4spn	a3,sp,672
    28b2:	0000                	unimp
    28b4:	1510                	c.addi4spn	a2,sp,672
    28b6:	0000                	unimp
    28b8:	14a0                	c.addi4spn	s0,sp,616
    28ba:	0000                	unimp
    28bc:	149c                	c.addi4spn	a5,sp,608
    28be:	0000                	unimp
    28c0:	1498                	c.addi4spn	a4,sp,608
    28c2:	0000                	unimp
    28c4:	1494                	c.addi4spn	a3,sp,608
    28c6:	0000                	unimp
    28c8:	1424                	c.addi4spn	s1,sp,552
    28ca:	0000                	unimp
    28cc:	13b4                	c.addi4spn	a3,sp,488
    28ce:	0000                	unimp
    28d0:	1344                	c.addi4spn	s1,sp,420
    28d2:	0000                	unimp
    28d4:	12d4                	c.addi4spn	a3,sp,356
    28d6:	0000                	unimp
    28d8:	1264                	c.addi4spn	s1,sp,300
    28da:	0000                	unimp
    28dc:	11f4                	c.addi4spn	a3,sp,236
    28de:	0000                	unimp
    28e0:	1184                	c.addi4spn	s1,sp,224
    28e2:	0000                	unimp
    28e4:	1114                	c.addi4spn	a3,sp,160
    28e6:	0000                	unimp
    28e8:	10a4                	c.addi4spn	s1,sp,104
    28ea:	0000                	unimp
    28ec:	1034                	c.addi4spn	a3,sp,40
    28ee:	0000                	unimp
    28f0:	0fc4                	c.addi4spn	s1,sp,980
    28f2:	0000                	unimp
    28f4:	0f54                	c.addi4spn	a3,sp,916
    28f6:	0000                	unimp
    28f8:	0ee4                	c.addi4spn	s1,sp,860
    28fa:	0000                	unimp
    28fc:	0e74                	c.addi4spn	a3,sp,796
    28fe:	0000                	unimp
    2900:	0001                	c.nop

Disassembly of section .text:

20002a60 <flash_read_uid.constprop.42>:
flash_read_uid():
E:/promotion/gitlab/telink_b91m_driver_sdk/telink_b91m_driver_sdk/chip/B91/drivers/flash.c:588
 *
 *              Risk description: When the chip power supply voltage is relatively low, due to the unstable power supply,
 *              there may be a risk of error in the operation of the flash (especially for the write and erase operations.
 *              If an abnormality occurs, the firmware and user data may be rewritten, resulting in the final Product failure)
 */
_attribute_text_sec_ void flash_read_uid(unsigned char idcmd, unsigned char *buf)
20002a60:	1141                	c.addi	sp,-16
20002a62:	c606                	c.swsp	ra,12(sp)
20002a64:	872a                	c.mv	a4,a0
E:/promotion/gitlab/telink_b91m_driver_sdk/telink_b91m_driver_sdk/chip/B91/drivers/flash.c:590
{
	__asm__("csrci 	mmisc_ctl,8");	//disable BTB
20002a66:	7d047073          	csrci	mmisc_ctl,8
E:/promotion/gitlab/telink_b91m_driver_sdk/telink_b91m_driver_sdk/chip/B91/drivers/flash.c:593
	if(idcmd == FLASH_READ_UID_CMD_GD_PUYA_ZB_TH)	//< GD/PUYA/ZB/TH
	{
		flash_mspi_read_ram(idcmd, 0, 0, 4, buf, 16);
20002a6a:	47c1                	c.li	a5,16
20002a6c:	4691                	c.li	a3,4
20002a6e:	4601                	c.li	a2,0
20002a70:	00000593          	li	a1,0
20002a74:	04b00513          	li	a0,75
20002a78:	dfffe097          	auipc	ra,0xdfffe
20002a7c:	b68080e7          	jalr	-1176(ra) # 5e0 <flash_mspi_read_ram>
E:/promotion/gitlab/telink_b91m_driver_sdk/telink_b91m_driver_sdk/chip/B91/drivers/flash.c:595
	}
	__asm__("csrsi 	mmisc_ctl,8");	//enable BTB
20002a80:	7d046073          	csrsi	mmisc_ctl,8
E:/promotion/gitlab/telink_b91m_driver_sdk/telink_b91m_driver_sdk/chip/B91/drivers/flash.c:596
}
20002a84:	40b2                	c.lwsp	ra,12(sp)
20002a86:	0141                	c.addi	sp,16
20002a88:	00008067          	ret

20002a8c <flash_read_mid>:
flash_read_mid():
E:/promotion/gitlab/telink_b91m_driver_sdk/telink_b91m_driver_sdk/chip/B91/drivers/flash.c:564
{
20002a8c:	1101                	c.addi	sp,-32
20002a8e:	ce06                	c.swsp	ra,28(sp)
E:/promotion/gitlab/telink_b91m_driver_sdk/telink_b91m_driver_sdk/chip/B91/drivers/flash.c:565
	unsigned int flash_mid = 0;
20002a90:	c602                	c.swsp	zero,12(sp)
E:/promotion/gitlab/telink_b91m_driver_sdk/telink_b91m_driver_sdk/chip/B91/drivers/flash.c:566
	__asm__("csrci 	mmisc_ctl,8");	//disable BTB
20002a92:	7d047073          	csrci	mmisc_ctl,8
E:/promotion/gitlab/telink_b91m_driver_sdk/telink_b91m_driver_sdk/chip/B91/drivers/flash.c:567
	flash_mspi_read_ram(FLASH_GET_JEDEC_ID, 0, 0, 0, (unsigned char*)(&flash_mid), 3);
20002a96:	478d                	c.li	a5,3
20002a98:	0078                	c.addi4spn	a4,sp,12
20002a9a:	4681                	c.li	a3,0
20002a9c:	4601                	c.li	a2,0
20002a9e:	4581                	c.li	a1,0
20002aa0:	09f00513          	li	a0,159
20002aa4:	dfffe097          	auipc	ra,0xdfffe
20002aa8:	b3c080e7          	jalr	-1220(ra) # 5e0 <flash_mspi_read_ram>
E:/promotion/gitlab/telink_b91m_driver_sdk/telink_b91m_driver_sdk/chip/B91/drivers/flash.c:568
	__asm__("csrsi 	mmisc_ctl,8");	//enable BTB
20002aac:	7d046073          	csrsi	mmisc_ctl,8
E:/promotion/gitlab/telink_b91m_driver_sdk/telink_b91m_driver_sdk/chip/B91/drivers/flash.c:570
}
20002ab0:	40f2                	c.lwsp	ra,28(sp)
20002ab2:	4532                	c.lwsp	a0,12(sp)
20002ab4:	6105                	c.addi16sp	sp,32
20002ab6:	8082                	c.jr	ra

20002ab8 <flash_read_mid_uid_with_check>:
flash_read_mid_uid_with_check():
E:/promotion/gitlab/telink_b91m_driver_sdk/telink_b91m_driver_sdk/chip/B91/drivers/flash.c:688
 *              there may be a risk of error in the operation of the flash (especially for the write and erase operations.
 *              If an abnormality occurs, the firmware and user data may be rewritten, resulting in the final Product failure)
 */
_attribute_text_sec_ int flash_read_mid_uid_with_check(unsigned int *flash_mid, unsigned char *flash_uid)
{
	unsigned char no_uid[16]={0x51,0x01,0x51,0x01,0x51,0x01,0x51,0x01,0x51,0x01,0x51,0x01,0x51,0x01,0x51,0x01};
20002ab8:	200077b7          	lui	a5,0x20007
20002abc:	7b078793          	addi	a5,a5,1968 # 200077b0 <__riscv_restore_0+0x30>
20002ac0:	4798                	c.lw	a4,8(a5)
20002ac2:	4390                	c.lw	a2,0(a5)
20002ac4:	43d4                	c.lw	a3,4(a5)
20002ac6:	47dc                	c.lw	a5,12(a5)
E:/promotion/gitlab/telink_b91m_driver_sdk/telink_b91m_driver_sdk/chip/B91/drivers/flash.c:687
{
20002ac8:	1101                	c.addi	sp,-32
20002aca:	cc22                	c.swsp	s0,24(sp)
20002acc:	ca26                	c.swsp	s1,20(sp)
E:/promotion/gitlab/telink_b91m_driver_sdk/telink_b91m_driver_sdk/chip/B91/drivers/flash.c:688
	unsigned char no_uid[16]={0x51,0x01,0x51,0x01,0x51,0x01,0x51,0x01,0x51,0x01,0x51,0x01,0x51,0x01,0x51,0x01};
20002ace:	c43a                	c.swsp	a4,8(sp)
E:/promotion/gitlab/telink_b91m_driver_sdk/telink_b91m_driver_sdk/chip/B91/drivers/flash.c:687
{
20002ad0:	84aa                	c.mv	s1,a0
E:/promotion/gitlab/telink_b91m_driver_sdk/telink_b91m_driver_sdk/chip/B91/drivers/flash.c:688
	unsigned char no_uid[16]={0x51,0x01,0x51,0x01,0x51,0x01,0x51,0x01,0x51,0x01,0x51,0x01,0x51,0x01,0x51,0x01};
20002ad2:	c63e                	c.swsp	a5,12(sp)
E:/promotion/gitlab/telink_b91m_driver_sdk/telink_b91m_driver_sdk/chip/B91/drivers/flash.c:687
{
20002ad4:	ce06                	c.swsp	ra,28(sp)
20002ad6:	842e                	c.mv	s0,a1
E:/promotion/gitlab/telink_b91m_driver_sdk/telink_b91m_driver_sdk/chip/B91/drivers/flash.c:688
	unsigned char no_uid[16]={0x51,0x01,0x51,0x01,0x51,0x01,0x51,0x01,0x51,0x01,0x51,0x01,0x51,0x01,0x51,0x01};
20002ad8:	c032                	c.swsp	a2,0(sp)
20002ada:	c236                	c.swsp	a3,4(sp)
E:/promotion/gitlab/telink_b91m_driver_sdk/telink_b91m_driver_sdk/chip/B91/drivers/flash.c:690
	unsigned int i,f_cnt=0;
	*flash_mid = flash_read_mid();
20002adc:	fb1ff0ef          	jal	ra,20002a8c <flash_read_mid>
E:/promotion/gitlab/telink_b91m_driver_sdk/telink_b91m_driver_sdk/chip/B91/drivers/flash.c:693

	for(i=0; i<FLASH_CNT; i++){
		if(flash_support_mid[i] == *flash_mid){
20002ae0:	77c1                	c.lui	a5,0xffff0
20002ae2:	17fd                	c.addi	a5,-1
20002ae4:	00146737          	lui	a4,0x146
E:/promotion/gitlab/telink_b91m_driver_sdk/telink_b91m_driver_sdk/chip/B91/drivers/flash.c:690
	*flash_mid = flash_read_mid();
20002ae8:	c088                	c.sw	a0,0(s1)
E:/promotion/gitlab/telink_b91m_driver_sdk/telink_b91m_driver_sdk/chip/B91/drivers/flash.c:693
		if(flash_support_mid[i] == *flash_mid){
20002aea:	8fe9                	c.and	a5,a0
20002aec:	08570713          	addi	a4,a4,133 # 146085 <FLASH_SIZE+0x46085>
20002af0:	02e78063          	beq	a5,a4,20002b10 <flash_read_mid_uid_with_check+0x58>
20002af4:	001667b7          	lui	a5,0x166
20002af8:	08578793          	addi	a5,a5,133 # 166085 <FLASH_SIZE+0x66085>
E:/promotion/gitlab/telink_b91m_driver_sdk/telink_b91m_driver_sdk/chip/B91/drivers/flash.c:699
			flash_read_uid(FLASH_READ_UID_CMD_GD_PUYA_ZB_TH, (unsigned char *)flash_uid);
			break;
		}
	}
	if(i == FLASH_CNT){
		return 0;
20002afc:	4681                	c.li	a3,0
E:/promotion/gitlab/telink_b91m_driver_sdk/telink_b91m_driver_sdk/chip/B91/drivers/flash.c:693
		if(flash_support_mid[i] == *flash_mid){
20002afe:	00f50963          	beq	a0,a5,20002b10 <flash_read_mid_uid_with_check+0x58>
E:/promotion/gitlab/telink_b91m_driver_sdk/telink_b91m_driver_sdk/chip/B91/drivers/flash.c:713
	if(f_cnt == 16){	//no uid flash
		return 0;
	}else{
		return 1;
	}
}
20002b02:	40f2                	c.lwsp	ra,28(sp)
20002b04:	4462                	c.lwsp	s0,24(sp)
20002b06:	44d2                	c.lwsp	s1,20(sp)
20002b08:	8536                	c.mv	a0,a3
20002b0a:	6105                	c.addi16sp	sp,32
20002b0c:	00008067          	ret
E:/promotion/gitlab/telink_b91m_driver_sdk/telink_b91m_driver_sdk/chip/B91/drivers/flash.c:694
			flash_read_uid(FLASH_READ_UID_CMD_GD_PUYA_ZB_TH, (unsigned char *)flash_uid);
20002b10:	8522                	c.mv	a0,s0
20002b12:	37b9                	c.jal	20002a60 <flash_read_uid.constprop.42>
20002b14:	85a2                	c.mv	a1,s0
20002b16:	870a                	c.mv	a4,sp
20002b18:	0808                	c.addi4spn	a0,sp,16
20002b1a:	4681                	c.li	a3,0
E:/promotion/gitlab/telink_b91m_driver_sdk/telink_b91m_driver_sdk/chip/B91/drivers/flash.c:703
		if(flash_uid[i] == no_uid[i]){
20002b1c:	0005c783          	lbu	a5,0(a1)
20002b20:	00074603          	lbu	a2,0(a4)
20002b24:	0705                	c.addi	a4,1
E:/promotion/gitlab/telink_b91m_driver_sdk/telink_b91m_driver_sdk/chip/B91/drivers/flash.c:704
			f_cnt++;
20002b26:	8f91                	c.sub	a5,a2
20002b28:	0017b793          	seqz	a5,a5
20002b2c:	96be                	c.add	a3,a5
20002b2e:	0585                	c.addi	a1,1
E:/promotion/gitlab/telink_b91m_driver_sdk/telink_b91m_driver_sdk/chip/B91/drivers/flash.c:702
	for(i=0; i<16; i++){
20002b30:	fee516e3          	bne	a0,a4,20002b1c <flash_read_mid_uid_with_check+0x64>
E:/promotion/gitlab/telink_b91m_driver_sdk/telink_b91m_driver_sdk/chip/B91/drivers/flash.c:713
}
20002b34:	40f2                	c.lwsp	ra,28(sp)
20002b36:	4462                	c.lwsp	s0,24(sp)
E:/promotion/gitlab/telink_b91m_driver_sdk/telink_b91m_driver_sdk/chip/B91/drivers/flash.c:708
	if(f_cnt == 16){	//no uid flash
20002b38:	16c1                	c.addi	a3,-16
20002b3a:	00d036b3          	snez	a3,a3
E:/promotion/gitlab/telink_b91m_driver_sdk/telink_b91m_driver_sdk/chip/B91/drivers/flash.c:713
}
20002b3e:	44d2                	c.lwsp	s1,20(sp)
20002b40:	8536                	c.mv	a0,a3
20002b42:	6105                	c.addi16sp	sp,32
20002b44:	00008067          	ret

20002b48 <flash_dread>:
flash_dread():
E:/promotion/gitlab/telink_b91m_driver_sdk/telink_b91m_driver_sdk/chip/B91/drivers/flash.c:305
{
20002b48:	1141                	c.addi	sp,-16
20002b4a:	c606                	c.swsp	ra,12(sp)
20002b4c:	87ae                	c.mv	a5,a1
20002b4e:	8732                	c.mv	a4,a2
E:/promotion/gitlab/telink_b91m_driver_sdk/telink_b91m_driver_sdk/chip/B91/drivers/flash.c:306
	__asm__("csrci 	mmisc_ctl,8");	//disable BTB
20002b50:	7d047073          	csrci	mmisc_ctl,8
E:/promotion/gitlab/telink_b91m_driver_sdk/telink_b91m_driver_sdk/chip/B91/drivers/flash.c:307
	flash_mspi_read_ram(FLASH_DREAD_CMD, addr, 1, 1, buf, len);
20002b54:	4685                	c.li	a3,1
20002b56:	85aa                	c.mv	a1,a0
20002b58:	00100613          	li	a2,1
20002b5c:	03b00513          	li	a0,59
20002b60:	dfffe097          	auipc	ra,0xdfffe
20002b64:	a80080e7          	jalr	-1408(ra) # 5e0 <flash_mspi_read_ram>
E:/promotion/gitlab/telink_b91m_driver_sdk/telink_b91m_driver_sdk/chip/B91/drivers/flash.c:308
	__asm__("csrsi 	mmisc_ctl,8");	//enable BTB
20002b68:	7d046073          	csrsi	mmisc_ctl,8
E:/promotion/gitlab/telink_b91m_driver_sdk/telink_b91m_driver_sdk/chip/B91/drivers/flash.c:309
}
20002b6c:	40b2                	c.lwsp	ra,12(sp)
20002b6e:	0141                	c.addi	sp,16
20002b70:	00008067          	ret

20002b74 <clock_init.constprop.4>:
clock_init():
E:/promotion/gitlab/telink_b91m_driver_sdk/telink_b91m_driver_sdk/chip/B91/drivers/clock.c:367

_attribute_text_sec_
void clock_init(sys_pll_clk_e pll,
20002b74:	1141                	c.addi	sp,-16
20002b76:	c606                	c.swsp	ra,12(sp)
E:/promotion/gitlab/telink_b91m_driver_sdk/telink_b91m_driver_sdk/chip/B91/drivers/clock.c:374
				sys_pll_div_to_cclk_e cclk_div,
				sys_cclk_div_to_hclk_e hclk_div,
				sys_hclk_div_to_pclk_e pclk_div,
				sys_pll_div_to_mspi_clk_e mspi_clk_div)
{
	__asm__("csrci 	mmisc_ctl,8");	//disable BTB
20002b78:	7d047073          	csrci	mmisc_ctl,8
E:/promotion/gitlab/telink_b91m_driver_sdk/telink_b91m_driver_sdk/chip/B91/drivers/clock.c:375
	clock_init_ram(pll, src, cclk_div, hclk_div, pclk_div, mspi_clk_div);
20002b7c:	dfffe097          	auipc	ra,0xdfffe
20002b80:	c64080e7          	jalr	-924(ra) # 7e0 <clock_init_ram.constprop.5>
E:/promotion/gitlab/telink_b91m_driver_sdk/telink_b91m_driver_sdk/chip/B91/drivers/clock.c:376
	__asm__("csrsi 	mmisc_ctl,8");	//enable BTB
20002b84:	7d046073          	csrsi	mmisc_ctl,8
E:/promotion/gitlab/telink_b91m_driver_sdk/telink_b91m_driver_sdk/chip/B91/drivers/clock.c:377
}
20002b88:	40b2                	c.lwsp	ra,12(sp)
20002b8a:	0141                	c.addi	sp,16
20002b8c:	00008067          	ret

20002b90 <pm_sleep_wakeup.constprop.1>:
pm_sleep_wakeup():
C:/Users/Admin/Desktop/test1/telink_b91m_driver_src/chip/B91/drivers/lib/src/pm.c:788
20002b90:	1141                	c.addi	sp,-16
20002b92:	c606                	c.swsp	ra,12(sp)
C:/Users/Admin/Desktop/test1/telink_b91m_driver_src/chip/B91/drivers/lib/src/pm.c:791
20002b94:	7d047073          	csrci	mmisc_ctl,8
C:/Users/Admin/Desktop/test1/telink_b91m_driver_src/chip/B91/drivers/lib/src/pm.c:792
20002b98:	dfffe097          	auipc	ra,0xdfffe
20002b9c:	fd0080e7          	jalr	-48(ra) # b68 <pm_sleep_wakeup_ram.constprop.2>
C:/Users/Admin/Desktop/test1/telink_b91m_driver_src/chip/B91/drivers/lib/src/pm.c:793
20002ba0:	7d046073          	csrsi	mmisc_ctl,8
C:/Users/Admin/Desktop/test1/telink_b91m_driver_src/chip/B91/drivers/lib/src/pm.c:795
20002ba4:	40b2                	c.lwsp	ra,12(sp)
20002ba6:	0141                	c.addi	sp,16
20002ba8:	8082                	c.jr	ra
pm_sleep_wakeup.constprop.1():
20002baa:	0001                	c.nop

20002bac <user_calib_adc_vref.constprop.44>:
user_calib_adc_vref():
E:/promotion/gitlab/telink_b91m_driver_sdk/telink_b91m_driver_sdk/demo/vendor/common/B91/calibration/calibration.c:32
 * @brief      This function is used to calibrate ADC 1.2V vref.
 * @param[in]  velfrom - the calibration value from flash or otp.
 * @param[in]  addr - the calibration value address of flash or otp.
 * @return 	   1 - the calibration value update, 0 - the calibration value is not update.
 */
unsigned char user_calib_adc_vref(user_calib_from_e velfrom, unsigned int addr)
20002bac:	1101                	c.addi	sp,-32
20002bae:	ce06                	c.swsp	ra,28(sp)
20002bb0:	cc22                	c.swsp	s0,24(sp)
E:/promotion/gitlab/telink_b91m_driver_sdk/telink_b91m_driver_sdk/demo/vendor/common/B91/calibration/calibration.c:45
	deviation of two-point calibrate  in flash:-11~7mv.
	deviation of two-point calibrate  in efuse:-9~24mv.
	deviation of one-point calibrate  in flash:-20~20mv.
	The above statistical results are obtained by testing only 19 9213A chips.
********************************************************************************************/
	unsigned char adc_vref_calib_value[7] = {0};
20002bb2:	c402                	c.swsp	zero,8(sp)
20002bb4:	00011623          	sh	zero,12(sp)
20002bb8:	00010723          	sb	zero,14(sp)
E:/promotion/gitlab/telink_b91m_driver_sdk/telink_b91m_driver_sdk/demo/vendor/common/B91/calibration/calibration.c:48
	unsigned short gpio_calib_value = 0;
	signed char gpio_calib_value_offset = 0;
	if(addr == 0)
20002bbc:	cd45                	c.beqz	a0,20002c74 <user_calib_adc_vref.constprop.44+0xc8>
E:/promotion/gitlab/telink_b91m_driver_sdk/telink_b91m_driver_sdk/demo/vendor/common/B91/calibration/calibration.c:65
	}
	else
	{
		if(velfrom == USER_CALIB_FROM_FLASH)
		{
			flash_read_page(addr, 7, adc_vref_calib_value);
20002bbe:	00000437          	lui	s0,0x0
20002bc2:	15840413          	addi	s0,s0,344 # 158 <_AES_VMA_END>
20002bc6:	405c                	c.lw	a5,4(s0)
20002bc8:	0030                	c.addi4spn	a2,sp,8
20002bca:	459d                	c.li	a1,7
20002bcc:	9782                	c.jalr	a5
E:/promotion/gitlab/telink_b91m_driver_sdk/telink_b91m_driver_sdk/demo/vendor/common/B91/calibration/calibration.c:68
		}
		/****** Check the two-point gpio calibration value whether is exist ********/
		if((adc_vref_calib_value[4] != 0xff) && (adc_vref_calib_value[4] <= 0x7f) && (((adc_vref_calib_value[6] << 8) + adc_vref_calib_value[5]) != 0xffff)){
20002bce:	00c14703          	lbu	a4,12(sp)
20002bd2:	1c0737db          	bfos	a5,a4,7,0
20002bd6:	0407c563          	bltz	a5,20002c20 <user_calib_adc_vref.constprop.44+0x74>
20002bda:	00e14783          	lbu	a5,14(sp)
20002bde:	00d14683          	lbu	a3,13(sp)
20002be2:	07a2                	c.slli	a5,0x8
20002be4:	97b6                	c.add	a5,a3
20002be6:	66c1                	c.lui	a3,0x10
20002be8:	16fd                	c.addi	a3,-1
20002bea:	02d78b63          	beq	a5,a3,20002c20 <user_calib_adc_vref.constprop.44+0x74>
E:/promotion/gitlab/telink_b91m_driver_sdk/telink_b91m_driver_sdk/demo/vendor/common/B91/calibration/calibration.c:72
			/****** Method of calculating two-point gpio calibration Flash_gain and Flash_offset value: ********/
			/****** Vref = [(Seven_Byte << 8) + Six_Byte + 1000]mv ********/
			/****** offset = [Five_Byte - 20] mv ********/
			gpio_calib_value = (adc_vref_calib_value[6] << 8) + adc_vref_calib_value[5] + 1000;
20002bee:	3c07a7db          	bfoz	a5,a5,15,0
E:/promotion/gitlab/telink_b91m_driver_sdk/telink_b91m_driver_sdk/demo/vendor/common/B91/calibration/calibration.c:74
			gpio_calib_value_offset = adc_vref_calib_value[4] - 20;
			if ((gpio_calib_value > 1047) && (gpio_calib_value < 1300) && (gpio_calib_value_offset > -20) && (gpio_calib_value_offset < 107))
20002bf2:	fd078693          	addi	a3,a5,-48
20002bf6:	3c06a6db          	bfoz	a3,a3,15,0
20002bfa:	0fb00613          	li	a2,251
20002bfe:	00d66b63          	bltu	a2,a3,20002c14 <user_calib_adc_vref.constprop.44+0x68>
E:/promotion/gitlab/telink_b91m_driver_sdk/telink_b91m_driver_sdk/demo/vendor/common/B91/calibration/calibration.c:73
			gpio_calib_value_offset = adc_vref_calib_value[4] - 20;
20002c02:	1731                	c.addi	a4,-20
20002c04:	1c07375b          	bfos	a4,a4,7,0
E:/promotion/gitlab/telink_b91m_driver_sdk/telink_b91m_driver_sdk/demo/vendor/common/B91/calibration/calibration.c:74
			if ((gpio_calib_value > 1047) && (gpio_calib_value < 1300) && (gpio_calib_value_offset > -20) && (gpio_calib_value_offset < 107))
20002c08:	fec00693          	li	a3,-20
20002c0c:	00d70463          	beq	a4,a3,20002c14 <user_calib_adc_vref.constprop.44+0x68>
20002c10:	44b76adb          	bnec	a4,107,20002c64 <user_calib_adc_vref.constprop.44+0xb8>
E:/promotion/gitlab/telink_b91m_driver_sdk/telink_b91m_driver_sdk/demo/vendor/common/B91/calibration/calibration.c:106
				}
			}
		}
	}

	return 0;
20002c14:	00000513          	li	a0,0
E:/promotion/gitlab/telink_b91m_driver_sdk/telink_b91m_driver_sdk/demo/vendor/common/B91/calibration/calibration.c:107
}
20002c18:	40f2                	c.lwsp	ra,28(sp)
20002c1a:	4462                	c.lwsp	s0,24(sp)
20002c1c:	6105                	c.addi16sp	sp,32
20002c1e:	8082                	c.jr	ra
efuse_get_adc_calib_value():
C:/Users/Admin/Desktop/test1/telink_b91m_driver_src/chip/B91/drivers/lib/src/sys.c:268
20002c20:	80140737          	lui	a4,0x80140
20002c24:	06500793          	li	a5,101
20002c28:	1ef70a23          	sb	a5,500(a4) # 801401f4 <_DATA_LMA_START+0x6013821c>
C:/Users/Admin/Desktop/test1/telink_b91m_driver_src/chip/B91/drivers/lib/src/sys.c:269
20002c2c:	1c872783          	lw	a5,456(a4)
C:/Users/Admin/Desktop/test1/telink_b91m_driver_src/chip/B91/drivers/lib/src/sys.c:270
20002c30:	1e070a23          	sb	zero,500(a4)
C:/Users/Admin/Desktop/test1/telink_b91m_driver_src/chip/B91/drivers/lib/src/sys.c:297
20002c34:	4c47a7db          	bfoz	a5,a5,19,4
20002c38:	3807a75b          	bfoz	a4,a5,14,0
C:/Users/Admin/Desktop/test1/telink_b91m_driver_src/chip/B91/drivers/lib/src/sys.c:298
20002c3c:	cb51                	c.beqz	a4,20002cd0 <user_calib_adc_vref.constprop.44+0x124>
C:/Users/Admin/Desktop/test1/telink_b91m_driver_src/chip/B91/drivers/lib/src/sys.c:302
20002c3e:	1ff7f793          	andi	a5,a5,511
user_calib_adc_vref():
E:/promotion/gitlab/telink_b91m_driver_sdk/telink_b91m_driver_sdk/demo/vendor/common/B91/calibration/calibration.c:85
				if((gpio_calib_value > 1100) && (gpio_calib_value < 1300) && (gpio_calib_value_offset > -20) && (gpio_calib_value_offset < 43))
20002c42:	f9b78693          	addi	a3,a5,-101
20002c46:	3c06a6db          	bfoz	a3,a3,15,0
20002c4a:	0c600613          	li	a2,198
20002c4e:	fcd663e3          	bltu	a2,a3,20002c14 <user_calib_adc_vref.constprop.44+0x68>
efuse_get_adc_calib_value():
C:/Users/Admin/Desktop/test1/telink_b91m_driver_src/chip/B91/drivers/lib/src/sys.c:304
20002c52:	8325                	c.srli	a4,0x9
20002c54:	1731                	c.addi	a4,-20
20002c56:	1c07375b          	bfos	a4,a4,7,0
user_calib_adc_vref():
E:/promotion/gitlab/telink_b91m_driver_sdk/telink_b91m_driver_sdk/demo/vendor/common/B91/calibration/calibration.c:85
20002c5a:	56b1                	c.li	a3,-20
20002c5c:	fad70ce3          	beq	a4,a3,20002c14 <user_calib_adc_vref.constprop.44+0x68>
20002c60:	bab75adb          	beqc	a4,43,20002c14 <user_calib_adc_vref.constprop.44+0x68>
efuse_get_adc_calib_value():
C:/Users/Admin/Desktop/test1/telink_b91m_driver_src/chip/B91/drivers/lib/src/sys.c:302
20002c64:	3e878793          	addi	a5,a5,1000
adc_set_gpio_calib_vref():
E:/promotion/gitlab/telink_b91m_driver_sdk/telink_b91m_driver_sdk/chip/B91/drivers/adc.c:160
 * @param[in] data - GPIO sampling one-point calibration value.
 * @return none
 */
void adc_set_gpio_calib_vref(unsigned short data)
{
	g_adc_gpio_calib_vref = data;
20002c68:	00f41023          	sh	a5,0(s0)
adc_set_gpio_two_point_calib_offset():
E:/promotion/gitlab/telink_b91m_driver_sdk/telink_b91m_driver_sdk/chip/B91/drivers/adc.c:170
 * @param[in] offset - GPIO sampling two-point calibration value offset.
 * @return none
 */
void adc_set_gpio_two_point_calib_offset(signed char offset)
{
	g_adc_gpio_calib_vref_offset = offset;
20002c6c:	00e40123          	sb	a4,2(s0)
user_calib_adc_vref():
E:/promotion/gitlab/telink_b91m_driver_sdk/telink_b91m_driver_sdk/demo/vendor/common/B91/calibration/calibration.c:89
				return 1;
20002c70:	4505                	c.li	a0,1
20002c72:	b75d                	c.j	20002c18 <user_calib_adc_vref.constprop.44+0x6c>
efuse_get_adc_calib_value():
C:/Users/Admin/Desktop/test1/telink_b91m_driver_src/chip/B91/drivers/lib/src/sys.c:268
20002c74:	80140737          	lui	a4,0x80140
20002c78:	06500793          	li	a5,101
20002c7c:	1ef70a23          	sb	a5,500(a4) # 801401f4 <_DATA_LMA_START+0x6013821c>
C:/Users/Admin/Desktop/test1/telink_b91m_driver_src/chip/B91/drivers/lib/src/sys.c:269
20002c80:	1c872783          	lw	a5,456(a4)
C:/Users/Admin/Desktop/test1/telink_b91m_driver_src/chip/B91/drivers/lib/src/sys.c:270
20002c84:	1e070a23          	sb	zero,500(a4)
C:/Users/Admin/Desktop/test1/telink_b91m_driver_src/chip/B91/drivers/lib/src/sys.c:297
20002c88:	4c47a7db          	bfoz	a5,a5,19,4
20002c8c:	3807a75b          	bfoz	a4,a5,14,0
C:/Users/Admin/Desktop/test1/telink_b91m_driver_src/chip/B91/drivers/lib/src/sys.c:298
20002c90:	d351                	c.beqz	a4,20002c14 <user_calib_adc_vref.constprop.44+0x68>
C:/Users/Admin/Desktop/test1/telink_b91m_driver_src/chip/B91/drivers/lib/src/sys.c:302
20002c92:	1ff7f793          	andi	a5,a5,511
user_calib_adc_vref():
E:/promotion/gitlab/telink_b91m_driver_sdk/telink_b91m_driver_sdk/demo/vendor/common/B91/calibration/calibration.c:53
			if((gpio_calib_value > 1100) && (gpio_calib_value < 1300) && (gpio_calib_value_offset > -20) && (gpio_calib_value_offset < 43))
20002c96:	f9b78693          	addi	a3,a5,-101
20002c9a:	3c06a6db          	bfoz	a3,a3,15,0
20002c9e:	0c600613          	li	a2,198
20002ca2:	f6d669e3          	bltu	a2,a3,20002c14 <user_calib_adc_vref.constprop.44+0x68>
efuse_get_adc_calib_value():
C:/Users/Admin/Desktop/test1/telink_b91m_driver_src/chip/B91/drivers/lib/src/sys.c:304
20002ca6:	8325                	c.srli	a4,0x9
20002ca8:	1731                	c.addi	a4,-20
20002caa:	1c07375b          	bfos	a4,a4,7,0
user_calib_adc_vref():
E:/promotion/gitlab/telink_b91m_driver_sdk/telink_b91m_driver_sdk/demo/vendor/common/B91/calibration/calibration.c:53
20002cae:	56b1                	c.li	a3,-20
20002cb0:	f6d702e3          	beq	a4,a3,20002c14 <user_calib_adc_vref.constprop.44+0x68>
20002cb4:	b6b750db          	beqc	a4,43,20002c14 <user_calib_adc_vref.constprop.44+0x68>
adc_set_gpio_calib_vref():
E:/promotion/gitlab/telink_b91m_driver_sdk/telink_b91m_driver_sdk/chip/B91/drivers/adc.c:160
	g_adc_gpio_calib_vref = data;
20002cb8:	000006b7          	lui	a3,0x0
20002cbc:	15868693          	addi	a3,a3,344 # 158 <_AES_VMA_END>
efuse_get_adc_calib_value():
C:/Users/Admin/Desktop/test1/telink_b91m_driver_src/chip/B91/drivers/lib/src/sys.c:302
20002cc0:	3e878793          	addi	a5,a5,1000
adc_set_gpio_calib_vref():
E:/promotion/gitlab/telink_b91m_driver_sdk/telink_b91m_driver_sdk/chip/B91/drivers/adc.c:160
20002cc4:	00f69023          	sh	a5,0(a3)
adc_set_gpio_two_point_calib_offset():
E:/promotion/gitlab/telink_b91m_driver_sdk/telink_b91m_driver_sdk/chip/B91/drivers/adc.c:170
	g_adc_gpio_calib_vref_offset = offset;
20002cc8:	00e68123          	sb	a4,2(a3)
user_calib_adc_vref():
E:/promotion/gitlab/telink_b91m_driver_sdk/telink_b91m_driver_sdk/demo/vendor/common/B91/calibration/calibration.c:57
				return 1;
20002ccc:	4505                	c.li	a0,1
20002cce:	b7a9                	c.j	20002c18 <user_calib_adc_vref.constprop.44+0x6c>
E:/promotion/gitlab/telink_b91m_driver_sdk/telink_b91m_driver_sdk/demo/vendor/common/B91/calibration/calibration.c:95
				gpio_calib_value = 920 + adc_vref_calib_value[0] + adc_vref_calib_value[1];
20002cd0:	00914703          	lbu	a4,9(sp)
20002cd4:	00814783          	lbu	a5,8(sp)
E:/promotion/gitlab/telink_b91m_driver_sdk/telink_b91m_driver_sdk/demo/vendor/common/B91/calibration/calibration.c:97
				if ((gpio_calib_value > 1047) && (gpio_calib_value < 1300))
20002cd8:	0fb00693          	li	a3,251
E:/promotion/gitlab/telink_b91m_driver_sdk/telink_b91m_driver_sdk/demo/vendor/common/B91/calibration/calibration.c:95
				gpio_calib_value = 920 + adc_vref_calib_value[0] + adc_vref_calib_value[1];
20002cdc:	97ba                	c.add	a5,a4
E:/promotion/gitlab/telink_b91m_driver_sdk/telink_b91m_driver_sdk/demo/vendor/common/B91/calibration/calibration.c:97
				if ((gpio_calib_value > 1047) && (gpio_calib_value < 1300))
20002cde:	f8078713          	addi	a4,a5,-128
20002ce2:	3c07275b          	bfoz	a4,a4,15,0
20002ce6:	f2e6e7e3          	bltu	a3,a4,20002c14 <user_calib_adc_vref.constprop.44+0x68>
E:/promotion/gitlab/telink_b91m_driver_sdk/telink_b91m_driver_sdk/demo/vendor/common/B91/calibration/calibration.c:95
				gpio_calib_value = 920 + adc_vref_calib_value[0] + adc_vref_calib_value[1];
20002cea:	39878793          	addi	a5,a5,920
adc_set_gpio_calib_vref():
E:/promotion/gitlab/telink_b91m_driver_sdk/telink_b91m_driver_sdk/chip/B91/drivers/adc.c:160
	g_adc_gpio_calib_vref = data;
20002cee:	00f41023          	sh	a5,0(s0)
user_calib_adc_vref():
E:/promotion/gitlab/telink_b91m_driver_sdk/telink_b91m_driver_sdk/demo/vendor/common/B91/calibration/calibration.c:100
					return 1;
20002cf2:	4505                	c.li	a0,1
20002cf4:	b715                	c.j	20002c18 <user_calib_adc_vref.constprop.44+0x6c>
	...

20002cf8 <i2c_master_read.constprop.36>:
i2c_master_read():
E:/promotion/gitlab/telink_b91m_driver_sdk/telink_b91m_driver_sdk/chip/B91/drivers/i2c.c:254
 * @return     0 : the master receive NACK after sending out the id and then send stop.  1: the master receive the data successfully.
 */
unsigned char  i2c_master_read(unsigned char id, unsigned char *data, unsigned char len)
{
	//set i2c master read.
	BM_SET(reg_i2c_status,FLD_I2C_RX_CLR);//clear index
20002cf8:	80140737          	lui	a4,0x80140
20002cfc:	28d70783          	lb	a5,653(a4) # 8014028d <_DATA_LMA_START+0x601382b5>
E:/promotion/gitlab/telink_b91m_driver_sdk/telink_b91m_driver_sdk/chip/B91/drivers/i2c.c:256
	reg_i2c_sct0  |=  FLD_I2C_RNCK_EN;       //i2c rnck enable.
	reg_i2c_data_buf(0)=(id | FLD_I2C_WRITE_READ_BIT); //BIT(0):R:High  W:Low;
20002d00:	00156513          	ori	a0,a0,1
E:/promotion/gitlab/telink_b91m_driver_sdk/telink_b91m_driver_sdk/chip/B91/drivers/i2c.c:254
	BM_SET(reg_i2c_status,FLD_I2C_RX_CLR);//clear index
20002d04:	0ff7f793          	andi	a5,a5,255
20002d08:	0407e793          	ori	a5,a5,64
20002d0c:	28f706a3          	sb	a5,653(a4)
E:/promotion/gitlab/telink_b91m_driver_sdk/telink_b91m_driver_sdk/chip/B91/drivers/i2c.c:255
	reg_i2c_sct0  |=  FLD_I2C_RNCK_EN;       //i2c rnck enable.
20002d10:	28370683          	lb	a3,643(a4)
i2c_master_busy():
E:/promotion/gitlab/telink_b91m_driver_sdk/telink_b91m_driver_sdk/chip/B91/drivers/i2c.h:115
 * @brief      The function of this API is to determine whether the bus is busy.
 * @return     1:Indicates that the bus is busy. 0:Indicates that the bus is free
 */
static inline _Bool i2c_master_busy(void)
{
    return reg_i2c_mst & FLD_I2C_MST_BUSY;
20002d14:	801407b7          	lui	a5,0x80140
i2c_master_read():
E:/promotion/gitlab/telink_b91m_driver_sdk/telink_b91m_driver_sdk/chip/B91/drivers/i2c.c:255
20002d18:	0ff6f693          	andi	a3,a3,255
20002d1c:	0406e693          	ori	a3,a3,64
20002d20:	28d701a3          	sb	a3,643(a4)
E:/promotion/gitlab/telink_b91m_driver_sdk/telink_b91m_driver_sdk/chip/B91/drivers/i2c.c:256
	reg_i2c_data_buf(0)=(id | FLD_I2C_WRITE_READ_BIT); //BIT(0):R:High  W:Low;
20002d24:	28a70423          	sb	a0,648(a4)
E:/promotion/gitlab/telink_b91m_driver_sdk/telink_b91m_driver_sdk/chip/B91/drivers/i2c.c:257
	reg_i2c_sct1 = (FLD_I2C_LS_ADDR | FLD_I2C_LS_START);
20002d28:	01200693          	li	a3,18
20002d2c:	28d70223          	sb	a3,644(a4)
i2c_master_busy():
E:/promotion/gitlab/telink_b91m_driver_sdk/telink_b91m_driver_sdk/chip/B91/drivers/i2c.h:115
20002d30:	28278703          	lb	a4,642(a5) # 80140282 <_DATA_LMA_START+0x601382aa>
i2c_master_read():
E:/promotion/gitlab/telink_b91m_driver_sdk/telink_b91m_driver_sdk/chip/B91/drivers/i2c.c:258
	while(i2c_master_busy());
20002d34:	fe077e5b          	bbs	a4,0,20002d30 <i2c_master_read.constprop.36+0x38>
E:/promotion/gitlab/telink_b91m_driver_sdk/telink_b91m_driver_sdk/chip/B91/drivers/i2c.c:259
	if(reg_i2c_mst&FLD_I2C_ACK_IN)
20002d38:	28278703          	lb	a4,642(a5)
20002d3c:	00277e5b          	bbc	a4,2,20002d58 <i2c_master_read.constprop.36+0x60>
E:/promotion/gitlab/telink_b91m_driver_sdk/telink_b91m_driver_sdk/chip/B91/drivers/i2c.c:261
	{
		reg_i2c_sct1 = (FLD_I2C_LS_STOP);
20002d40:	02000693          	li	a3,32
i2c_master_busy():
E:/promotion/gitlab/telink_b91m_driver_sdk/telink_b91m_driver_sdk/chip/B91/drivers/i2c.h:115
20002d44:	80140737          	lui	a4,0x80140
i2c_master_read():
E:/promotion/gitlab/telink_b91m_driver_sdk/telink_b91m_driver_sdk/chip/B91/drivers/i2c.c:261
20002d48:	28d78223          	sb	a3,644(a5)
i2c_master_busy():
E:/promotion/gitlab/telink_b91m_driver_sdk/telink_b91m_driver_sdk/chip/B91/drivers/i2c.h:115
20002d4c:	28270503          	lb	a0,642(a4) # 80140282 <_DATA_LMA_START+0x601382aa>
20002d50:	8905                	c.andi	a0,1
i2c_master_read():
E:/promotion/gitlab/telink_b91m_driver_sdk/telink_b91m_driver_sdk/chip/B91/drivers/i2c.c:262
		while(i2c_master_busy());
20002d52:	fd6d                	c.bnez	a0,20002d4c <i2c_master_read.constprop.36+0x54>
20002d54:	00008067          	ret
E:/promotion/gitlab/telink_b91m_driver_sdk/telink_b91m_driver_sdk/chip/B91/drivers/i2c.c:265
		return 0;
	}
	reg_i2c_sct1 = ( FLD_I2C_LS_DATAR | FLD_I2C_LS_ID_R | g_i2c_stop_en);
20002d58:	06800713          	li	a4,104
20002d5c:	28e78223          	sb	a4,644(a5)
E:/promotion/gitlab/telink_b91m_driver_sdk/telink_b91m_driver_sdk/chip/B91/drivers/i2c.c:266
	reg_i2c_len   =  len;
20002d60:	4719                	c.li	a4,6
20002d62:	28e78323          	sb	a4,646(a5)
E:/promotion/gitlab/telink_b91m_driver_sdk/telink_b91m_driver_sdk/chip/B91/drivers/i2c.c:272
	unsigned int cnt = 0;
	while(cnt<len)
	{
		if(i2c_get_rx_buf_cnt()>0)
		{
			data[cnt] = reg_i2c_data_buf(cnt % 4);
20002d66:	001407b7          	lui	a5,0x140
E:/promotion/gitlab/telink_b91m_driver_sdk/telink_b91m_driver_sdk/chip/B91/drivers/i2c.c:267
	unsigned int cnt = 0;
20002d6a:	4681                	c.li	a3,0
i2c_get_rx_buf_cnt():
E:/promotion/gitlab/telink_b91m_driver_sdk/telink_b91m_driver_sdk/chip/B91/drivers/i2c.h:136
 *             when there is read data in the rxfifo, FLD_I2C_RX_BUFCNT is decremented.
 * @return     The actual number of bytes in rxfifo.
 */
static inline unsigned char i2c_get_rx_buf_cnt(void)
{
   return (reg_i2c_buf_cnt & FLD_I2C_RX_BUFCNT);
20002d6c:	80140737          	lui	a4,0x80140
i2c_master_read():
E:/promotion/gitlab/telink_b91m_driver_sdk/telink_b91m_driver_sdk/chip/B91/drivers/i2c.c:272
			data[cnt] = reg_i2c_data_buf(cnt % 4);
20002d70:	28878613          	addi	a2,a5,648 # 140288 <FLASH_SIZE+0x40288>
20002d74:	80000537          	lui	a0,0x80000
i2c_get_rx_buf_cnt():
E:/promotion/gitlab/telink_b91m_driver_sdk/telink_b91m_driver_sdk/chip/B91/drivers/i2c.h:136
20002d78:	28c70783          	lb	a5,652(a4) # 8014028c <_DATA_LMA_START+0x601382b4>
i2c_master_read():
E:/promotion/gitlab/telink_b91m_driver_sdk/telink_b91m_driver_sdk/chip/B91/drivers/i2c.c:270
		if(i2c_get_rx_buf_cnt()>0)
20002d7c:	8bbd                	c.andi	a5,15
20002d7e:	dfed                	c.beqz	a5,20002d78 <i2c_master_read.constprop.36+0x80>
E:/promotion/gitlab/telink_b91m_driver_sdk/telink_b91m_driver_sdk/chip/B91/drivers/i2c.c:272
			data[cnt] = reg_i2c_data_buf(cnt % 4);
20002d80:	0036f793          	andi	a5,a3,3
20002d84:	97b2                	c.add	a5,a2
20002d86:	8fc9                	c.or	a5,a0
20002d88:	00078803          	lb	a6,0(a5)
20002d8c:	00d587b3          	add	a5,a1,a3
20002d90:	01078023          	sb	a6,0(a5)
E:/promotion/gitlab/telink_b91m_driver_sdk/telink_b91m_driver_sdk/chip/B91/drivers/i2c.c:273
			cnt++;
20002d94:	00168693          	addi	a3,a3,1
E:/promotion/gitlab/telink_b91m_driver_sdk/telink_b91m_driver_sdk/chip/B91/drivers/i2c.c:268
	while(cnt<len)
20002d98:	be66e05b          	bnec	a3,6,20002d78 <i2c_master_read.constprop.36+0x80>
i2c_master_busy():
E:/promotion/gitlab/telink_b91m_driver_sdk/telink_b91m_driver_sdk/chip/B91/drivers/i2c.h:115
    return reg_i2c_mst & FLD_I2C_MST_BUSY;
20002d9c:	80140737          	lui	a4,0x80140
20002da0:	28270783          	lb	a5,642(a4) # 80140282 <_DATA_LMA_START+0x601382aa>
i2c_master_read():
E:/promotion/gitlab/telink_b91m_driver_sdk/telink_b91m_driver_sdk/chip/B91/drivers/i2c.c:276
		}
	}
	while(i2c_master_busy());
20002da4:	fe07fe5b          	bbs	a5,0,20002da0 <i2c_master_read.constprop.36+0xa8>
20002da8:	4505                	c.li	a0,1
E:/promotion/gitlab/telink_b91m_driver_sdk/telink_b91m_driver_sdk/chip/B91/drivers/i2c.c:278
	return 1;
}
20002daa:	8082                	c.jr	ra
i2c_master_read.constprop.36():
20002dac:	0001                	c.nop
	...

20002db0 <set_grb.constprop.10>:
set_grb():
E:/promotion/gitlab/telink_b91m_driver_sdk/telink_b91m_driver_sdk/demo/vendor/Mars_B91_Mother_V2.2/device/ws2812b.c:9
void set_grb(unsigned char * grb)
20002db0:	7179                	c.addi16sp	sp,-48
E:/promotion/gitlab/telink_b91m_driver_sdk/telink_b91m_driver_sdk/demo/vendor/Mars_B91_Mother_V2.2/device/ws2812b.c:11
	IRQ_IR_DMA_Buff[0] = pwm_cal_pwm0_ir_fifo_cfg_data(1, 0X80 == (grb[0]&0X80), 1);
20002db2:	801f978b          	addigp	a5,-2048 # 80000 <_DATA_VMA_START>
E:/promotion/gitlab/telink_b91m_driver_sdk/telink_b91m_driver_sdk/demo/vendor/Mars_B91_Mother_V2.2/device/ws2812b.c:9
void set_grb(unsigned char * grb)
20002db6:	d622                	c.swsp	s0,44(sp)
20002db8:	d426                	c.swsp	s1,40(sp)
20002dba:	d24a                	c.swsp	s2,36(sp)
20002dbc:	d04e                	c.swsp	s3,32(sp)
20002dbe:	ce52                	c.swsp	s4,28(sp)
20002dc0:	cc56                	c.swsp	s5,24(sp)
20002dc2:	ca5a                	c.swsp	s6,20(sp)
20002dc4:	c85e                	c.swsp	s7,16(sp)
20002dc6:	c662                	c.swsp	s8,12(sp)
20002dc8:	c466                	c.swsp	s9,8(sp)
20002dca:	c26a                	c.swsp	s10,4(sp)
E:/promotion/gitlab/telink_b91m_driver_sdk/telink_b91m_driver_sdk/demo/vendor/Mars_B91_Mother_V2.2/device/ws2812b.c:11
	IRQ_IR_DMA_Buff[0] = pwm_cal_pwm0_ir_fifo_cfg_data(1, 0X80 == (grb[0]&0X80), 1);
20002dcc:	0007c803          	lbu	a6,0(a5)
E:/promotion/gitlab/telink_b91m_driver_sdk/telink_b91m_driver_sdk/demo/vendor/Mars_B91_Mother_V2.2/device/ws2812b.c:19
	IRQ_IR_DMA_Buff[8] = pwm_cal_pwm0_ir_fifo_cfg_data(1, 0X80 == (grb[1]&0X80), 1);
20002dd0:	0017c503          	lbu	a0,1(a5)
E:/promotion/gitlab/telink_b91m_driver_sdk/telink_b91m_driver_sdk/demo/vendor/Mars_B91_Mother_V2.2/device/ws2812b.c:27
	IRQ_IR_DMA_Buff[16]= pwm_cal_pwm0_ir_fifo_cfg_data(1, 0X80 == (grb[2]&0X80), 1);
20002dd4:	0027c583          	lbu	a1,2(a5)
E:/promotion/gitlab/telink_b91m_driver_sdk/telink_b91m_driver_sdk/demo/vendor/Mars_B91_Mother_V2.2/device/ws2812b.c:11
	IRQ_IR_DMA_Buff[0] = pwm_cal_pwm0_ir_fifo_cfg_data(1, 0X80 == (grb[0]&0X80), 1);
20002dd8:	1c08365b          	bfos	a2,a6,7,0
E:/promotion/gitlab/telink_b91m_driver_sdk/telink_b91m_driver_sdk/demo/vendor/Mars_B91_Mother_V2.2/device/ws2812b.c:19
	IRQ_IR_DMA_Buff[8] = pwm_cal_pwm0_ir_fifo_cfg_data(1, 0X80 == (grb[1]&0X80), 1);
20002ddc:	1c0536db          	bfos	a3,a0,7,0
E:/promotion/gitlab/telink_b91m_driver_sdk/telink_b91m_driver_sdk/demo/vendor/Mars_B91_Mother_V2.2/device/ws2812b.c:27
	IRQ_IR_DMA_Buff[16]= pwm_cal_pwm0_ir_fifo_cfg_data(1, 0X80 == (grb[2]&0X80), 1);
20002de0:	1c05b7db          	bfos	a5,a1,7,0
E:/promotion/gitlab/telink_b91m_driver_sdk/telink_b91m_driver_sdk/demo/vendor/Mars_B91_Mother_V2.2/device/ws2812b.c:11
	IRQ_IR_DMA_Buff[0] = pwm_cal_pwm0_ir_fifo_cfg_data(1, 0X80 == (grb[0]&0X80), 1);
20002de4:	01f65c13          	srli	s8,a2,0x1f
E:/promotion/gitlab/telink_b91m_driver_sdk/telink_b91m_driver_sdk/demo/vendor/Mars_B91_Mother_V2.2/device/ws2812b.c:12
	IRQ_IR_DMA_Buff[1] = pwm_cal_pwm0_ir_fifo_cfg_data(1, 0X40 == (grb[0]&0X40), 1);
20002de8:	18662bdb          	bfoz	s7,a2,6,6
E:/promotion/gitlab/telink_b91m_driver_sdk/telink_b91m_driver_sdk/demo/vendor/Mars_B91_Mother_V2.2/device/ws2812b.c:13
	IRQ_IR_DMA_Buff[2] = pwm_cal_pwm0_ir_fifo_cfg_data(1, 0X20 == (grb[0]&0X20), 1);
20002dec:	14562b5b          	bfoz	s6,a2,5,5
E:/promotion/gitlab/telink_b91m_driver_sdk/telink_b91m_driver_sdk/demo/vendor/Mars_B91_Mother_V2.2/device/ws2812b.c:14
	IRQ_IR_DMA_Buff[3] = pwm_cal_pwm0_ir_fifo_cfg_data(1, 0X10 == (grb[0]&0X10), 1);
20002df0:	10462adb          	bfoz	s5,a2,4,4
E:/promotion/gitlab/telink_b91m_driver_sdk/telink_b91m_driver_sdk/demo/vendor/Mars_B91_Mother_V2.2/device/ws2812b.c:15
	IRQ_IR_DMA_Buff[4] = pwm_cal_pwm0_ir_fifo_cfg_data(1, 0X08 == (grb[0]&0X08), 1);
20002df4:	0c362a5b          	bfoz	s4,a2,3,3
E:/promotion/gitlab/telink_b91m_driver_sdk/telink_b91m_driver_sdk/demo/vendor/Mars_B91_Mother_V2.2/device/ws2812b.c:16
	IRQ_IR_DMA_Buff[5] = pwm_cal_pwm0_ir_fifo_cfg_data(1, 0X04 == (grb[0]&0X04), 1);
20002df8:	082629db          	bfoz	s3,a2,2,2
E:/promotion/gitlab/telink_b91m_driver_sdk/telink_b91m_driver_sdk/demo/vendor/Mars_B91_Mother_V2.2/device/ws2812b.c:19
	IRQ_IR_DMA_Buff[8] = pwm_cal_pwm0_ir_fifo_cfg_data(1, 0X80 == (grb[1]&0X80), 1);
20002dfc:	01f6dc93          	srli	s9,a3,0x1f
E:/promotion/gitlab/telink_b91m_driver_sdk/telink_b91m_driver_sdk/demo/vendor/Mars_B91_Mother_V2.2/device/ws2812b.c:20
	IRQ_IR_DMA_Buff[9] = pwm_cal_pwm0_ir_fifo_cfg_data(1, 0X40 == (grb[1]&0X40), 1);
20002e00:	1866a95b          	bfoz	s2,a3,6,6
E:/promotion/gitlab/telink_b91m_driver_sdk/telink_b91m_driver_sdk/demo/vendor/Mars_B91_Mother_V2.2/device/ws2812b.c:21
	IRQ_IR_DMA_Buff[10]= pwm_cal_pwm0_ir_fifo_cfg_data(1, 0X20 == (grb[1]&0X20), 1);
20002e04:	1456a4db          	bfoz	s1,a3,5,5
E:/promotion/gitlab/telink_b91m_driver_sdk/telink_b91m_driver_sdk/demo/vendor/Mars_B91_Mother_V2.2/device/ws2812b.c:22
	IRQ_IR_DMA_Buff[11]= pwm_cal_pwm0_ir_fifo_cfg_data(1, 0X10 == (grb[1]&0X10), 1);
20002e08:	1046a45b          	bfoz	s0,a3,4,4
E:/promotion/gitlab/telink_b91m_driver_sdk/telink_b91m_driver_sdk/demo/vendor/Mars_B91_Mother_V2.2/device/ws2812b.c:23
	IRQ_IR_DMA_Buff[12]= pwm_cal_pwm0_ir_fifo_cfg_data(1, 0X08 == (grb[1]&0X08), 1);
20002e0c:	0c36a3db          	bfoz	t2,a3,3,3
E:/promotion/gitlab/telink_b91m_driver_sdk/telink_b91m_driver_sdk/demo/vendor/Mars_B91_Mother_V2.2/device/ws2812b.c:24
	IRQ_IR_DMA_Buff[13]= pwm_cal_pwm0_ir_fifo_cfg_data(1, 0X04 == (grb[1]&0X04), 1);
20002e10:	0826a2db          	bfoz	t0,a3,2,2
E:/promotion/gitlab/telink_b91m_driver_sdk/telink_b91m_driver_sdk/demo/vendor/Mars_B91_Mother_V2.2/device/ws2812b.c:27
	IRQ_IR_DMA_Buff[16]= pwm_cal_pwm0_ir_fifo_cfg_data(1, 0X80 == (grb[2]&0X80), 1);
20002e14:	01f7df93          	srli	t6,a5,0x1f
E:/promotion/gitlab/telink_b91m_driver_sdk/telink_b91m_driver_sdk/demo/vendor/Mars_B91_Mother_V2.2/device/ws2812b.c:28
	IRQ_IR_DMA_Buff[17]= pwm_cal_pwm0_ir_fifo_cfg_data(1, 0X40 == (grb[2]&0X40), 1);
20002e18:	1867af5b          	bfoz	t5,a5,6,6
E:/promotion/gitlab/telink_b91m_driver_sdk/telink_b91m_driver_sdk/demo/vendor/Mars_B91_Mother_V2.2/device/ws2812b.c:29
	IRQ_IR_DMA_Buff[18]= pwm_cal_pwm0_ir_fifo_cfg_data(1, 0X20 == (grb[2]&0X20), 1);
20002e1c:	1457aedb          	bfoz	t4,a5,5,5
E:/promotion/gitlab/telink_b91m_driver_sdk/telink_b91m_driver_sdk/demo/vendor/Mars_B91_Mother_V2.2/device/ws2812b.c:30
	IRQ_IR_DMA_Buff[19]= pwm_cal_pwm0_ir_fifo_cfg_data(1, 0X10 == (grb[2]&0X10), 1);
20002e20:	1047ae5b          	bfoz	t3,a5,4,4
E:/promotion/gitlab/telink_b91m_driver_sdk/telink_b91m_driver_sdk/demo/vendor/Mars_B91_Mother_V2.2/device/ws2812b.c:31
	IRQ_IR_DMA_Buff[20]= pwm_cal_pwm0_ir_fifo_cfg_data(1, 0X08 == (grb[2]&0X08), 1);
20002e24:	0c37a35b          	bfoz	t1,a5,3,3
E:/promotion/gitlab/telink_b91m_driver_sdk/telink_b91m_driver_sdk/demo/vendor/Mars_B91_Mother_V2.2/device/ws2812b.c:32
	IRQ_IR_DMA_Buff[21]= pwm_cal_pwm0_ir_fifo_cfg_data(1, 0X04 == (grb[2]&0X04), 1);
20002e28:	0827a8db          	bfoz	a7,a5,2,2
E:/promotion/gitlab/telink_b91m_driver_sdk/telink_b91m_driver_sdk/demo/vendor/Mars_B91_Mother_V2.2/device/ws2812b.c:17
	IRQ_IR_DMA_Buff[6] = pwm_cal_pwm0_ir_fifo_cfg_data(1, 0X02 == (grb[0]&0X02), 1);
20002e2c:	0416265b          	bfoz	a2,a2,1,1
E:/promotion/gitlab/telink_b91m_driver_sdk/telink_b91m_driver_sdk/demo/vendor/Mars_B91_Mother_V2.2/device/ws2812b.c:33
	IRQ_IR_DMA_Buff[22]= pwm_cal_pwm0_ir_fifo_cfg_data(1, 0X02 == (grb[2]&0X02), 1);
20002e30:	0417a7db          	bfoz	a5,a5,1,1
E:/promotion/gitlab/telink_b91m_driver_sdk/telink_b91m_driver_sdk/demo/vendor/Mars_B91_Mother_V2.2/device/ws2812b.c:25
	IRQ_IR_DMA_Buff[14]= pwm_cal_pwm0_ir_fifo_cfg_data(1, 0X02 == (grb[1]&0X02), 1);
20002e34:	0416a6db          	bfoz	a3,a3,1,1
pwm_cal_pwm0_ir_fifo_cfg_data():
E:/promotion/gitlab/telink_b91m_driver_sdk/telink_b91m_driver_sdk/chip/B91/drivers/pwm.h:462
 * @param[in] carrier_en - must 1 or 0.
 * @return	  none.
 */
static inline unsigned short pwm_cal_pwm0_ir_fifo_cfg_data(unsigned short pulse_num, unsigned char shadow_en, unsigned char carrier_en)
{
	return  ( carrier_en<<15 | (shadow_en<<14) | (pulse_num & 0x3fff) );
20002e38:	7761                	c.lui	a4,0xffff8
20002e3a:	0705                	c.addi	a4,1
20002e3c:	00e79d13          	slli	s10,a5,0xe
20002e40:	0c3a                	c.slli	s8,0xe
20002e42:	0bba                	c.slli	s7,0xe
20002e44:	0b3a                	c.slli	s6,0xe
20002e46:	0aba                	c.slli	s5,0xe
20002e48:	0a3a                	c.slli	s4,0xe
20002e4a:	09ba                	c.slli	s3,0xe
20002e4c:	063a                	c.slli	a2,0xe
20002e4e:	00e8285b          	bfoz	a6,a6,0,14
20002e52:	0cba                	c.slli	s9,0xe
20002e54:	093a                	c.slli	s2,0xe
20002e56:	04ba                	c.slli	s1,0xe
20002e58:	043a                	c.slli	s0,0xe
20002e5a:	03ba                	c.slli	t2,0xe
20002e5c:	02ba                	c.slli	t0,0xe
20002e5e:	06ba                	c.slli	a3,0xe
20002e60:	00e5255b          	bfoz	a0,a0,0,14
20002e64:	0fba                	c.slli	t6,0xe
20002e66:	0f3a                	c.slli	t5,0xe
set_grb():
E:/promotion/gitlab/telink_b91m_driver_sdk/telink_b91m_driver_sdk/demo/vendor/Mars_B91_Mother_V2.2/device/ws2812b.c:11
	IRQ_IR_DMA_Buff[0] = pwm_cal_pwm0_ir_fifo_cfg_data(1, 0X80 == (grb[0]&0X80), 1);
20002e68:	869f978b          	addigp	a5,-1944 # 80068 <IRQ_IR_DMA_Buff>
pwm_cal_pwm0_ir_fifo_cfg_data():
E:/promotion/gitlab/telink_b91m_driver_sdk/telink_b91m_driver_sdk/chip/B91/drivers/pwm.h:462
20002e6c:	00ec6c33          	or	s8,s8,a4
20002e70:	00ebebb3          	or	s7,s7,a4
20002e74:	00eb6b33          	or	s6,s6,a4
20002e78:	00eaeab3          	or	s5,s5,a4
20002e7c:	00ea6a33          	or	s4,s4,a4
20002e80:	00e9e9b3          	or	s3,s3,a4
20002e84:	00ececb3          	or	s9,s9,a4
20002e88:	00e96933          	or	s2,s2,a4
20002e8c:	8cd9                	c.or	s1,a4
20002e8e:	8c59                	c.or	s0,a4
20002e90:	8e59                	c.or	a2,a4
20002e92:	00e86833          	or	a6,a6,a4
20002e96:	00e3e3b3          	or	t2,t2,a4
20002e9a:	00e2e2b3          	or	t0,t0,a4
20002e9e:	8ed9                	c.or	a3,a4
20002ea0:	8d59                	c.or	a0,a4
20002ea2:	00efefb3          	or	t6,t6,a4
20002ea6:	00ef6f33          	or	t5,t5,a4
20002eaa:	0eba                	c.slli	t4,0xe
20002eac:	0e3a                	c.slli	t3,0xe
20002eae:	033a                	c.slli	t1,0xe
20002eb0:	08ba                	c.slli	a7,0xe
20002eb2:	00e5a5db          	bfoz	a1,a1,0,14
20002eb6:	00ed6d33          	or	s10,s10,a4
20002eba:	00eeeeb3          	or	t4,t4,a4
20002ebe:	00ee6e33          	or	t3,t3,a4
20002ec2:	00e36333          	or	t1,t1,a4
20002ec6:	00e8e8b3          	or	a7,a7,a4
set_grb():
E:/promotion/gitlab/telink_b91m_driver_sdk/telink_b91m_driver_sdk/demo/vendor/Mars_B91_Mother_V2.2/device/ws2812b.c:11
20002eca:	01879023          	sh	s8,0(a5)
E:/promotion/gitlab/telink_b91m_driver_sdk/telink_b91m_driver_sdk/demo/vendor/Mars_B91_Mother_V2.2/device/ws2812b.c:12
	IRQ_IR_DMA_Buff[1] = pwm_cal_pwm0_ir_fifo_cfg_data(1, 0X40 == (grb[0]&0X40), 1);
20002ece:	01779123          	sh	s7,2(a5)
E:/promotion/gitlab/telink_b91m_driver_sdk/telink_b91m_driver_sdk/demo/vendor/Mars_B91_Mother_V2.2/device/ws2812b.c:13
	IRQ_IR_DMA_Buff[2] = pwm_cal_pwm0_ir_fifo_cfg_data(1, 0X20 == (grb[0]&0X20), 1);
20002ed2:	01679223          	sh	s6,4(a5)
E:/promotion/gitlab/telink_b91m_driver_sdk/telink_b91m_driver_sdk/demo/vendor/Mars_B91_Mother_V2.2/device/ws2812b.c:14
	IRQ_IR_DMA_Buff[3] = pwm_cal_pwm0_ir_fifo_cfg_data(1, 0X10 == (grb[0]&0X10), 1);
20002ed6:	01579323          	sh	s5,6(a5)
E:/promotion/gitlab/telink_b91m_driver_sdk/telink_b91m_driver_sdk/demo/vendor/Mars_B91_Mother_V2.2/device/ws2812b.c:15
	IRQ_IR_DMA_Buff[4] = pwm_cal_pwm0_ir_fifo_cfg_data(1, 0X08 == (grb[0]&0X08), 1);
20002eda:	01479423          	sh	s4,8(a5)
E:/promotion/gitlab/telink_b91m_driver_sdk/telink_b91m_driver_sdk/demo/vendor/Mars_B91_Mother_V2.2/device/ws2812b.c:16
	IRQ_IR_DMA_Buff[5] = pwm_cal_pwm0_ir_fifo_cfg_data(1, 0X04 == (grb[0]&0X04), 1);
20002ede:	01379523          	sh	s3,10(a5)
E:/promotion/gitlab/telink_b91m_driver_sdk/telink_b91m_driver_sdk/demo/vendor/Mars_B91_Mother_V2.2/device/ws2812b.c:19
	IRQ_IR_DMA_Buff[8] = pwm_cal_pwm0_ir_fifo_cfg_data(1, 0X80 == (grb[1]&0X80), 1);
20002ee2:	01979823          	sh	s9,16(a5)
E:/promotion/gitlab/telink_b91m_driver_sdk/telink_b91m_driver_sdk/demo/vendor/Mars_B91_Mother_V2.2/device/ws2812b.c:20
	IRQ_IR_DMA_Buff[9] = pwm_cal_pwm0_ir_fifo_cfg_data(1, 0X40 == (grb[1]&0X40), 1);
20002ee6:	01279923          	sh	s2,18(a5)
E:/promotion/gitlab/telink_b91m_driver_sdk/telink_b91m_driver_sdk/demo/vendor/Mars_B91_Mother_V2.2/device/ws2812b.c:21
	IRQ_IR_DMA_Buff[10]= pwm_cal_pwm0_ir_fifo_cfg_data(1, 0X20 == (grb[1]&0X20), 1);
20002eea:	00979a23          	sh	s1,20(a5)
E:/promotion/gitlab/telink_b91m_driver_sdk/telink_b91m_driver_sdk/demo/vendor/Mars_B91_Mother_V2.2/device/ws2812b.c:22
	IRQ_IR_DMA_Buff[11]= pwm_cal_pwm0_ir_fifo_cfg_data(1, 0X10 == (grb[1]&0X10), 1);
20002eee:	00879b23          	sh	s0,22(a5)
pwm_cal_pwm0_ir_fifo_cfg_data():
E:/promotion/gitlab/telink_b91m_driver_sdk/telink_b91m_driver_sdk/chip/B91/drivers/pwm.h:462
20002ef2:	8f4d                	c.or	a4,a1
set_grb():
E:/promotion/gitlab/telink_b91m_driver_sdk/telink_b91m_driver_sdk/demo/vendor/Mars_B91_Mother_V2.2/device/ws2812b.c:17
	IRQ_IR_DMA_Buff[6] = pwm_cal_pwm0_ir_fifo_cfg_data(1, 0X02 == (grb[0]&0X02), 1);
20002ef4:	00c79623          	sh	a2,12(a5)
E:/promotion/gitlab/telink_b91m_driver_sdk/telink_b91m_driver_sdk/demo/vendor/Mars_B91_Mother_V2.2/device/ws2812b.c:18
	IRQ_IR_DMA_Buff[7] = pwm_cal_pwm0_ir_fifo_cfg_data(1, 0X01 == (grb[0]&0X01), 1);
20002ef8:	01079723          	sh	a6,14(a5)
E:/promotion/gitlab/telink_b91m_driver_sdk/telink_b91m_driver_sdk/demo/vendor/Mars_B91_Mother_V2.2/device/ws2812b.c:23
	IRQ_IR_DMA_Buff[12]= pwm_cal_pwm0_ir_fifo_cfg_data(1, 0X08 == (grb[1]&0X08), 1);
20002efc:	00779c23          	sh	t2,24(a5)
E:/promotion/gitlab/telink_b91m_driver_sdk/telink_b91m_driver_sdk/demo/vendor/Mars_B91_Mother_V2.2/device/ws2812b.c:24
	IRQ_IR_DMA_Buff[13]= pwm_cal_pwm0_ir_fifo_cfg_data(1, 0X04 == (grb[1]&0X04), 1);
20002f00:	00579d23          	sh	t0,26(a5)
E:/promotion/gitlab/telink_b91m_driver_sdk/telink_b91m_driver_sdk/demo/vendor/Mars_B91_Mother_V2.2/device/ws2812b.c:25
	IRQ_IR_DMA_Buff[14]= pwm_cal_pwm0_ir_fifo_cfg_data(1, 0X02 == (grb[1]&0X02), 1);
20002f04:	00d79e23          	sh	a3,28(a5)
E:/promotion/gitlab/telink_b91m_driver_sdk/telink_b91m_driver_sdk/demo/vendor/Mars_B91_Mother_V2.2/device/ws2812b.c:26
	IRQ_IR_DMA_Buff[15]= pwm_cal_pwm0_ir_fifo_cfg_data(1, 0X01 == (grb[1]&0X01), 1);
20002f08:	00a79f23          	sh	a0,30(a5)
E:/promotion/gitlab/telink_b91m_driver_sdk/telink_b91m_driver_sdk/demo/vendor/Mars_B91_Mother_V2.2/device/ws2812b.c:27
	IRQ_IR_DMA_Buff[16]= pwm_cal_pwm0_ir_fifo_cfg_data(1, 0X80 == (grb[2]&0X80), 1);
20002f0c:	03f79023          	sh	t6,32(a5)
E:/promotion/gitlab/telink_b91m_driver_sdk/telink_b91m_driver_sdk/demo/vendor/Mars_B91_Mother_V2.2/device/ws2812b.c:28
	IRQ_IR_DMA_Buff[17]= pwm_cal_pwm0_ir_fifo_cfg_data(1, 0X40 == (grb[2]&0X40), 1);
20002f10:	03e79123          	sh	t5,34(a5)
E:/promotion/gitlab/telink_b91m_driver_sdk/telink_b91m_driver_sdk/demo/vendor/Mars_B91_Mother_V2.2/device/ws2812b.c:29
	IRQ_IR_DMA_Buff[18]= pwm_cal_pwm0_ir_fifo_cfg_data(1, 0X20 == (grb[2]&0X20), 1);
20002f14:	03d79223          	sh	t4,36(a5)
E:/promotion/gitlab/telink_b91m_driver_sdk/telink_b91m_driver_sdk/demo/vendor/Mars_B91_Mother_V2.2/device/ws2812b.c:30
	IRQ_IR_DMA_Buff[19]= pwm_cal_pwm0_ir_fifo_cfg_data(1, 0X10 == (grb[2]&0X10), 1);
20002f18:	03c79323          	sh	t3,38(a5)
E:/promotion/gitlab/telink_b91m_driver_sdk/telink_b91m_driver_sdk/demo/vendor/Mars_B91_Mother_V2.2/device/ws2812b.c:31
	IRQ_IR_DMA_Buff[20]= pwm_cal_pwm0_ir_fifo_cfg_data(1, 0X08 == (grb[2]&0X08), 1);
20002f1c:	02679423          	sh	t1,40(a5)
E:/promotion/gitlab/telink_b91m_driver_sdk/telink_b91m_driver_sdk/demo/vendor/Mars_B91_Mother_V2.2/device/ws2812b.c:32
	IRQ_IR_DMA_Buff[21]= pwm_cal_pwm0_ir_fifo_cfg_data(1, 0X04 == (grb[2]&0X04), 1);
20002f20:	03179523          	sh	a7,42(a5)
E:/promotion/gitlab/telink_b91m_driver_sdk/telink_b91m_driver_sdk/demo/vendor/Mars_B91_Mother_V2.2/device/ws2812b.c:33
	IRQ_IR_DMA_Buff[22]= pwm_cal_pwm0_ir_fifo_cfg_data(1, 0X02 == (grb[2]&0X02), 1);
20002f24:	03a79623          	sh	s10,44(a5)
E:/promotion/gitlab/telink_b91m_driver_sdk/telink_b91m_driver_sdk/demo/vendor/Mars_B91_Mother_V2.2/device/ws2812b.c:34
	IRQ_IR_DMA_Buff[23]= pwm_cal_pwm0_ir_fifo_cfg_data(1, 0X01 == (grb[2]&0X01), 1);
20002f28:	02e79723          	sh	a4,46(a5)
E:/promotion/gitlab/telink_b91m_driver_sdk/telink_b91m_driver_sdk/demo/vendor/Mars_B91_Mother_V2.2/device/ws2812b.c:35
}
20002f2c:	5432                	c.lwsp	s0,44(sp)
20002f2e:	54a2                	c.lwsp	s1,40(sp)
20002f30:	5912                	c.lwsp	s2,36(sp)
20002f32:	5982                	c.lwsp	s3,32(sp)
20002f34:	4a72                	c.lwsp	s4,28(sp)
20002f36:	4ae2                	c.lwsp	s5,24(sp)
20002f38:	4b52                	c.lwsp	s6,20(sp)
20002f3a:	4bc2                	c.lwsp	s7,16(sp)
20002f3c:	4c32                	c.lwsp	s8,12(sp)
20002f3e:	4ca2                	c.lwsp	s9,8(sp)
20002f40:	4d12                	c.lwsp	s10,4(sp)
20002f42:	6145                	c.addi16sp	sp,48
20002f44:	8082                	c.jr	ra
	...

20002f48 <pwm_set_pin.constprop.8>:
pwm_set_pin():
E:/promotion/gitlab/telink_b91m_driver_sdk/telink_b91m_driver_sdk/chip/B91/drivers/pwm.c:65
	}else{																									// Pad Function Mux:2
		 val = 2<<(start_bit);
		 reg_gpio_pad_mul_sel|=BIT(0);
	}

    reg_gpio_func_mux(pin)=(reg_gpio_func_mux(pin)& mask)|val;
20002f48:	80140737          	lui	a4,0x80140
20002f4c:	33370783          	lb	a5,819(a4) # 80140333 <_DATA_LMA_START+0x6013835b>
20002f50:	0fc7f793          	andi	a5,a5,252
20002f54:	0017e793          	ori	a5,a5,1
20002f58:	32f709a3          	sb	a5,819(a4)
gpio_function_dis():
E:/promotion/gitlab/telink_b91m_driver_sdk/telink_b91m_driver_sdk/chip/B91/drivers/gpio.h:206
	BM_CLR(reg_gpio_func(pin), bit);
20002f5c:	30e70783          	lb	a5,782(a4)
20002f60:	0ef7f793          	andi	a5,a5,239
20002f64:	30f70723          	sb	a5,782(a4)
pwm_set_pin():
E:/promotion/gitlab/telink_b91m_driver_sdk/telink_b91m_driver_sdk/chip/B91/drivers/pwm.c:67
    gpio_function_dis(pin);
}
20002f68:	8082                	c.jr	ra
	...

20002f6c <uart_is_prime>:
uart_is_prime():
E:/promotion/gitlab/telink_b91m_driver_sdk/telink_b91m_driver_sdk/chip/B91/drivers/uart.c:716
   * @return    0 or 1
   */
 static unsigned char uart_is_prime(unsigned int n)
 {
 	unsigned int i = 5;
 	if(n <= 3){
20002f6c:	478d                	c.li	a5,3
E:/promotion/gitlab/telink_b91m_driver_sdk/telink_b91m_driver_sdk/chip/B91/drivers/uart.c:714
 {
20002f6e:	872a                	c.mv	a4,a0
E:/promotion/gitlab/telink_b91m_driver_sdk/telink_b91m_driver_sdk/chip/B91/drivers/uart.c:716
 	if(n <= 3){
20002f70:	04a7f663          	bgeu	a5,a0,20002fbc <uart_is_prime+0x50>
E:/promotion/gitlab/telink_b91m_driver_sdk/telink_b91m_driver_sdk/chip/B91/drivers/uart.c:720
 		return 1; //although n is prime, the bwpc must be larger than 2.
 	}
 	else if((n %2 == 0) || (n % 3 == 0)){
 		return 0;
20002f74:	4501                	c.li	a0,0
E:/promotion/gitlab/telink_b91m_driver_sdk/telink_b91m_driver_sdk/chip/B91/drivers/uart.c:719
 	else if((n %2 == 0) || (n % 3 == 0)){
20002f76:	0407775b          	bbc	a4,0,20002fc4 <uart_is_prime+0x58>
20002f7a:	02f777b3          	remu	a5,a4,a5
20002f7e:	c3b9                	c.beqz	a5,20002fc4 <uart_is_prime+0x58>
E:/promotion/gitlab/telink_b91m_driver_sdk/telink_b91m_driver_sdk/chip/B91/drivers/uart.c:723
 	}
 	else{
 		for(i=5;i*i<n;i+=6){
20002f80:	47e5                	c.li	a5,25
20002f82:	02e7fd63          	bgeu	a5,a4,20002fbc <uart_is_prime+0x50>
E:/promotion/gitlab/telink_b91m_driver_sdk/telink_b91m_driver_sdk/chip/B91/drivers/uart.c:724
 			if((n % i == 0)||(n %(i+2))==0){
20002f86:	4795                	c.li	a5,5
20002f88:	02f777b3          	remu	a5,a4,a5
20002f8c:	cf85                	c.beqz	a5,20002fc4 <uart_is_prime+0x58>
20002f8e:	479d                	c.li	a5,7
20002f90:	02f777b3          	remu	a5,a4,a5
20002f94:	cb85                	c.beqz	a5,20002fc4 <uart_is_prime+0x58>
E:/promotion/gitlab/telink_b91m_driver_sdk/telink_b91m_driver_sdk/chip/B91/drivers/uart.c:723
 		for(i=5;i*i<n;i+=6){
20002f96:	4615                	c.li	a2,5
20002f98:	0100006f          	j	20002fa8 <uart_is_prime+0x3c>
E:/promotion/gitlab/telink_b91m_driver_sdk/telink_b91m_driver_sdk/chip/B91/drivers/uart.c:724
 			if((n % i == 0)||(n %(i+2))==0){
20002f9c:	02f777b3          	remu	a5,a4,a5
20002fa0:	c385                	c.beqz	a5,20002fc0 <uart_is_prime+0x54>
20002fa2:	02d776b3          	remu	a3,a4,a3
20002fa6:	ce89                	c.beqz	a3,20002fc0 <uart_is_prime+0x54>
E:/promotion/gitlab/telink_b91m_driver_sdk/telink_b91m_driver_sdk/chip/B91/drivers/uart.c:723
 		for(i=5;i*i<n;i+=6){
20002fa8:	00660793          	addi	a5,a2,6
20002fac:	02f785b3          	mul	a1,a5,a5
E:/promotion/gitlab/telink_b91m_driver_sdk/telink_b91m_driver_sdk/chip/B91/drivers/uart.c:724
 			if((n % i == 0)||(n %(i+2))==0){
20002fb0:	00860693          	addi	a3,a2,8
E:/promotion/gitlab/telink_b91m_driver_sdk/telink_b91m_driver_sdk/chip/B91/drivers/uart.c:723
 		for(i=5;i*i<n;i+=6){
20002fb4:	00f00633          	add	a2,zero,a5
20002fb8:	fee5e2e3          	bltu	a1,a4,20002f9c <uart_is_prime+0x30>
E:/promotion/gitlab/telink_b91m_driver_sdk/telink_b91m_driver_sdk/chip/B91/drivers/uart.c:717
 		return 1; //although n is prime, the bwpc must be larger than 2.
20002fbc:	4505                	c.li	a0,1
20002fbe:	8082                	c.jr	ra
E:/promotion/gitlab/telink_b91m_driver_sdk/telink_b91m_driver_sdk/chip/B91/drivers/uart.c:720
 		return 0;
20002fc0:	00000513          	li	a0,0
E:/promotion/gitlab/telink_b91m_driver_sdk/telink_b91m_driver_sdk/chip/B91/drivers/uart.c:730
 				return 0;
 			}
 		}
 		return 1;
 	}
 }
20002fc4:	8082                	c.jr	ra
	...

20002fc8 <i2c_master_write>:
i2c_master_write():
E:/promotion/gitlab/telink_b91m_driver_sdk/telink_b91m_driver_sdk/chip/B91/drivers/i2c.c:210
	BM_SET(reg_i2c_status,FLD_I2C_TX_CLR);//clear index
20002fc8:	80140737          	lui	a4,0x80140
20002fcc:	28d70783          	lb	a5,653(a4) # 8014028d <_DATA_LMA_START+0x601382b5>
E:/promotion/gitlab/telink_b91m_driver_sdk/telink_b91m_driver_sdk/chip/B91/drivers/i2c.c:213
	reg_i2c_sct1 = (FLD_I2C_LS_ADDR | FLD_I2C_LS_START);
20002fd0:	01200693          	li	a3,18
E:/promotion/gitlab/telink_b91m_driver_sdk/telink_b91m_driver_sdk/chip/B91/drivers/i2c.c:210
	BM_SET(reg_i2c_status,FLD_I2C_TX_CLR);//clear index
20002fd4:	f807e793          	ori	a5,a5,-128
20002fd8:	0ff7f793          	andi	a5,a5,255
20002fdc:	28f706a3          	sb	a5,653(a4)
E:/promotion/gitlab/telink_b91m_driver_sdk/telink_b91m_driver_sdk/chip/B91/drivers/i2c.c:212
	reg_i2c_data_buf(0)=id & (~FLD_I2C_WRITE_READ_BIT); //BIT(0):R:High  W:Low;
20002fe0:	28a70423          	sb	a0,648(a4)
i2c_master_busy():
E:/promotion/gitlab/telink_b91m_driver_sdk/telink_b91m_driver_sdk/chip/B91/drivers/i2c.h:115
20002fe4:	801407b7          	lui	a5,0x80140
i2c_master_write():
E:/promotion/gitlab/telink_b91m_driver_sdk/telink_b91m_driver_sdk/chip/B91/drivers/i2c.c:213
	reg_i2c_sct1 = (FLD_I2C_LS_ADDR | FLD_I2C_LS_START);
20002fe8:	28d70223          	sb	a3,644(a4)
i2c_master_busy():
E:/promotion/gitlab/telink_b91m_driver_sdk/telink_b91m_driver_sdk/chip/B91/drivers/i2c.h:115
20002fec:	28278703          	lb	a4,642(a5) # 80140282 <_DATA_LMA_START+0x601382aa>
i2c_master_write():
E:/promotion/gitlab/telink_b91m_driver_sdk/telink_b91m_driver_sdk/chip/B91/drivers/i2c.c:214
	while(i2c_master_busy());
20002ff0:	fe077e5b          	bbs	a4,0,20002fec <i2c_master_write+0x24>
E:/promotion/gitlab/telink_b91m_driver_sdk/telink_b91m_driver_sdk/chip/B91/drivers/i2c.c:215
	if(reg_i2c_mst&FLD_I2C_ACK_IN)
20002ff4:	28278703          	lb	a4,642(a5)
20002ff8:	00277e5b          	bbc	a4,2,20003014 <i2c_master_write+0x4c>
E:/promotion/gitlab/telink_b91m_driver_sdk/telink_b91m_driver_sdk/chip/B91/drivers/i2c.c:217
		reg_i2c_sct1 = (FLD_I2C_LS_STOP);
20002ffc:	02000693          	li	a3,32
i2c_master_busy():
E:/promotion/gitlab/telink_b91m_driver_sdk/telink_b91m_driver_sdk/chip/B91/drivers/i2c.h:115
20003000:	80140737          	lui	a4,0x80140
i2c_master_write():
E:/promotion/gitlab/telink_b91m_driver_sdk/telink_b91m_driver_sdk/chip/B91/drivers/i2c.c:217
20003004:	28d78223          	sb	a3,644(a5)
i2c_master_busy():
E:/promotion/gitlab/telink_b91m_driver_sdk/telink_b91m_driver_sdk/chip/B91/drivers/i2c.h:115
20003008:	28270503          	lb	a0,642(a4) # 80140282 <_DATA_LMA_START+0x601382aa>
2000300c:	8905                	c.andi	a0,1
i2c_master_write():
E:/promotion/gitlab/telink_b91m_driver_sdk/telink_b91m_driver_sdk/chip/B91/drivers/i2c.c:218
		while(i2c_master_busy());
2000300e:	fd6d                	c.bnez	a0,20003008 <i2c_master_write+0x40>
20003010:	00008067          	ret
E:/promotion/gitlab/telink_b91m_driver_sdk/telink_b91m_driver_sdk/chip/B91/drivers/i2c.c:221
	reg_i2c_len   =  len;
20003014:	28c78323          	sb	a2,646(a5)
E:/promotion/gitlab/telink_b91m_driver_sdk/telink_b91m_driver_sdk/chip/B91/drivers/i2c.c:228
			reg_i2c_data_buf(cnt % 4) = data[cnt];	//write data
20003018:	001407b7          	lui	a5,0x140
E:/promotion/gitlab/telink_b91m_driver_sdk/telink_b91m_driver_sdk/chip/B91/drivers/i2c.c:223
	unsigned int cnt = 0;
2000301c:	4701                	c.li	a4,0
i2c_get_tx_buf_cnt():
E:/promotion/gitlab/telink_b91m_driver_sdk/telink_b91m_driver_sdk/chip/B91/drivers/i2c.h:125
   return (reg_i2c_buf_cnt & FLD_I2C_TX_BUFCNT)>>4;
2000301e:	80140537          	lui	a0,0x80140
i2c_master_write():
E:/promotion/gitlab/telink_b91m_driver_sdk/telink_b91m_driver_sdk/chip/B91/drivers/i2c.c:226
		if(i2c_get_tx_buf_cnt()<8)
20003022:	469d                	c.li	a3,7
E:/promotion/gitlab/telink_b91m_driver_sdk/telink_b91m_driver_sdk/chip/B91/drivers/i2c.c:228
			reg_i2c_data_buf(cnt % 4) = data[cnt];	//write data
20003024:	28878813          	addi	a6,a5,648 # 140288 <FLASH_SIZE+0x40288>
20003028:	800008b7          	lui	a7,0x80000
i2c_get_tx_buf_cnt():
E:/promotion/gitlab/telink_b91m_driver_sdk/telink_b91m_driver_sdk/chip/B91/drivers/i2c.h:125
2000302c:	80140eb7          	lui	t4,0x80140
i2c_master_write():
E:/promotion/gitlab/telink_b91m_driver_sdk/telink_b91m_driver_sdk/chip/B91/drivers/i2c.c:232
				reg_i2c_sct1 = ( FLD_I2C_LS_DATAW|g_i2c_stop_en ); //launch stop cycle
20003030:	02400e13          	li	t3,36
E:/promotion/gitlab/telink_b91m_driver_sdk/telink_b91m_driver_sdk/chip/B91/drivers/i2c.c:224
	while(cnt<len)
20003034:	02c77663          	bgeu	a4,a2,20003060 <i2c_master_write+0x98>
i2c_get_tx_buf_cnt():
E:/promotion/gitlab/telink_b91m_driver_sdk/telink_b91m_driver_sdk/chip/B91/drivers/i2c.h:125
20003038:	28c50783          	lb	a5,652(a0) # 8014028c <_DATA_LMA_START+0x601382b4>
2000303c:	1c47a7db          	bfoz	a5,a5,7,4
i2c_master_write():
E:/promotion/gitlab/telink_b91m_driver_sdk/telink_b91m_driver_sdk/chip/B91/drivers/i2c.c:226
		if(i2c_get_tx_buf_cnt()<8)
20003040:	fef6cae3          	blt	a3,a5,20003034 <i2c_master_write+0x6c>
E:/promotion/gitlab/telink_b91m_driver_sdk/telink_b91m_driver_sdk/chip/B91/drivers/i2c.c:228
			reg_i2c_data_buf(cnt % 4) = data[cnt];	//write data
20003044:	00e58333          	add	t1,a1,a4
20003048:	010707b3          	add	a5,a4,a6
2000304c:	00034303          	lbu	t1,0(t1)
20003050:	0117e7b3          	or	a5,a5,a7
20003054:	00678023          	sb	t1,0(a5)
E:/promotion/gitlab/telink_b91m_driver_sdk/telink_b91m_driver_sdk/chip/B91/drivers/i2c.c:230
			if(cnt==1)
20003058:	cf01                	c.beqz	a4,20003070 <i2c_master_write+0xa8>
2000305a:	4709                	c.li	a4,2
E:/promotion/gitlab/telink_b91m_driver_sdk/telink_b91m_driver_sdk/chip/B91/drivers/i2c.c:224
	while(cnt<len)
2000305c:	fcc76ee3          	bltu	a4,a2,20003038 <i2c_master_write+0x70>
i2c_master_busy():
E:/promotion/gitlab/telink_b91m_driver_sdk/telink_b91m_driver_sdk/chip/B91/drivers/i2c.h:115
    return reg_i2c_mst & FLD_I2C_MST_BUSY;
20003060:	80140737          	lui	a4,0x80140
20003064:	28270783          	lb	a5,642(a4) # 80140282 <_DATA_LMA_START+0x601382aa>
i2c_master_write():
E:/promotion/gitlab/telink_b91m_driver_sdk/telink_b91m_driver_sdk/chip/B91/drivers/i2c.c:237
	while(i2c_master_busy());
20003068:	fe07fe5b          	bbs	a5,0,20003064 <i2c_master_write+0x9c>
2000306c:	4505                	c.li	a0,1
E:/promotion/gitlab/telink_b91m_driver_sdk/telink_b91m_driver_sdk/chip/B91/drivers/i2c.c:239
}
2000306e:	8082                	c.jr	ra
E:/promotion/gitlab/telink_b91m_driver_sdk/telink_b91m_driver_sdk/chip/B91/drivers/i2c.c:232
				reg_i2c_sct1 = ( FLD_I2C_LS_DATAW|g_i2c_stop_en ); //launch stop cycle
20003070:	29ce8223          	sb	t3,644(t4) # 80140284 <_DATA_LMA_START+0x601382ac>
E:/promotion/gitlab/telink_b91m_driver_sdk/telink_b91m_driver_sdk/chip/B91/drivers/i2c.c:229
			cnt++;
20003074:	4705                	c.li	a4,1
20003076:	bf7d                	c.j	20003034 <i2c_master_write+0x6c>
20003078:	0001                	c.nop
	...

2000307c <OLED_Fill.constprop.40>:
OLED_Fill():
E:/promotion/gitlab/telink_b91m_driver_sdk/telink_b91m_driver_sdk/demo/vendor/Mars_B91_Mother_V2.2/device/oled.c:25
	WriteCmd(0xb0+y);
	WriteCmd(((x&0xf0)>>4)|0x10);
	WriteCmd((x&0x0f)|0x01);
}

void OLED_Fill(uint8_t fill_Data)
2000307c:	7179                	c.addi16sp	sp,-48
2000307e:	d226                	c.swsp	s1,36(sp)
20003080:	d04a                	c.swsp	s2,32(sp)
20003082:	ce4e                	c.swsp	s3,28(sp)
20003084:	cc52                	c.swsp	s4,24(sp)
20003086:	0b000913          	li	s2,176
WriteCmd():
E:/promotion/gitlab/telink_b91m_driver_sdk/telink_b91m_driver_sdk/demo/vendor/Mars_B91_Mother_V2.2/device/oled.c:8
	uint8_t write_buff[2] = {0x00,I2C_Command};
2000308a:	6a05                	c.lui	s4,0x1
WriteDat():
E:/promotion/gitlab/telink_b91m_driver_sdk/telink_b91m_driver_sdk/demo/vendor/Mars_B91_Mother_V2.2/device/oled.c:14
	uint8_t write_buff[2] = {0x40,I2C_Data};
2000308c:	04000493          	li	s1,64
OLED_Fill():
E:/promotion/gitlab/telink_b91m_driver_sdk/telink_b91m_driver_sdk/demo/vendor/Mars_B91_Mother_V2.2/device/oled.c:28
{
	uint8_t m,n;
	for(m=0;m<8;m++){
20003090:	0b800993          	li	s3,184
E:/promotion/gitlab/telink_b91m_driver_sdk/telink_b91m_driver_sdk/demo/vendor/Mars_B91_Mother_V2.2/device/oled.c:25
void OLED_Fill(uint8_t fill_Data)
20003094:	d606                	c.swsp	ra,44(sp)
20003096:	d422                	c.swsp	s0,40(sp)
WriteCmd():
E:/promotion/gitlab/telink_b91m_driver_sdk/telink_b91m_driver_sdk/demo/vendor/Mars_B91_Mother_V2.2/device/oled.c:9
	i2c_master_write(OLED_ADDR,write_buff, 2);
20003098:	4609                	c.li	a2,2
2000309a:	006c                	c.addi4spn	a1,sp,12
2000309c:	07800513          	li	a0,120
E:/promotion/gitlab/telink_b91m_driver_sdk/telink_b91m_driver_sdk/demo/vendor/Mars_B91_Mother_V2.2/device/oled.c:8
	uint8_t write_buff[2] = {0x00,I2C_Command};
200030a0:	00010623          	sb	zero,12(sp)
200030a4:	012106a3          	sb	s2,13(sp)
E:/promotion/gitlab/telink_b91m_driver_sdk/telink_b91m_driver_sdk/demo/vendor/Mars_B91_Mother_V2.2/device/oled.c:9
	i2c_master_write(OLED_ADDR,write_buff, 2);
200030a8:	f21ff0ef          	jal	ra,20002fc8 <i2c_master_write>
200030ac:	4609                	c.li	a2,2
200030ae:	006c                	c.addi4spn	a1,sp,12
200030b0:	07800513          	li	a0,120
E:/promotion/gitlab/telink_b91m_driver_sdk/telink_b91m_driver_sdk/demo/vendor/Mars_B91_Mother_V2.2/device/oled.c:8
	uint8_t write_buff[2] = {0x00,I2C_Command};
200030b4:	00011623          	sh	zero,12(sp)
E:/promotion/gitlab/telink_b91m_driver_sdk/telink_b91m_driver_sdk/demo/vendor/Mars_B91_Mother_V2.2/device/oled.c:9
	i2c_master_write(OLED_ADDR,write_buff, 2);
200030b8:	f11ff0ef          	jal	ra,20002fc8 <i2c_master_write>
200030bc:	4609                	c.li	a2,2
200030be:	006c                	c.addi4spn	a1,sp,12
200030c0:	07800513          	li	a0,120
200030c4:	08000413          	li	s0,128
E:/promotion/gitlab/telink_b91m_driver_sdk/telink_b91m_driver_sdk/demo/vendor/Mars_B91_Mother_V2.2/device/oled.c:8
	uint8_t write_buff[2] = {0x00,I2C_Command};
200030c8:	01411623          	sh	s4,12(sp)
E:/promotion/gitlab/telink_b91m_driver_sdk/telink_b91m_driver_sdk/demo/vendor/Mars_B91_Mother_V2.2/device/oled.c:9
	i2c_master_write(OLED_ADDR,write_buff, 2);
200030cc:	efdff0ef          	jal	ra,20002fc8 <i2c_master_write>
200030d0:	147d                	c.addi	s0,-1
WriteDat():
E:/promotion/gitlab/telink_b91m_driver_sdk/telink_b91m_driver_sdk/demo/vendor/Mars_B91_Mother_V2.2/device/oled.c:15
	i2c_master_write(OLED_ADDR,write_buff, 2);
200030d2:	4609                	c.li	a2,2
200030d4:	006c                	c.addi4spn	a1,sp,12
200030d6:	07800513          	li	a0,120
E:/promotion/gitlab/telink_b91m_driver_sdk/telink_b91m_driver_sdk/demo/vendor/Mars_B91_Mother_V2.2/device/oled.c:14
	uint8_t write_buff[2] = {0x40,I2C_Data};
200030da:	00911623          	sh	s1,12(sp)
E:/promotion/gitlab/telink_b91m_driver_sdk/telink_b91m_driver_sdk/demo/vendor/Mars_B91_Mother_V2.2/device/oled.c:15
	i2c_master_write(OLED_ADDR,write_buff, 2);
200030de:	35ed                	c.jal	20002fc8 <i2c_master_write>
OLED_Fill():
E:/promotion/gitlab/telink_b91m_driver_sdk/telink_b91m_driver_sdk/demo/vendor/Mars_B91_Mother_V2.2/device/oled.c:32
		WriteCmd(0xb0+m);
		WriteCmd(0x00);
		WriteCmd(0x10);
		for(n=0;n<128;n++){
200030e0:	f865                	c.bnez	s0,200030d0 <OLED_Fill.constprop.40+0x54>
200030e2:	0905                	c.addi	s2,1
200030e4:	0ff97913          	andi	s2,s2,255
E:/promotion/gitlab/telink_b91m_driver_sdk/telink_b91m_driver_sdk/demo/vendor/Mars_B91_Mother_V2.2/device/oled.c:28
	for(m=0;m<8;m++){
200030e8:	fb3918e3          	bne	s2,s3,20003098 <OLED_Fill.constprop.40+0x1c>
E:/promotion/gitlab/telink_b91m_driver_sdk/telink_b91m_driver_sdk/demo/vendor/Mars_B91_Mother_V2.2/device/oled.c:36
		    WriteDat(fill_Data);
		}
	}
}
200030ec:	50b2                	c.lwsp	ra,44(sp)
200030ee:	5422                	c.lwsp	s0,40(sp)
200030f0:	5492                	c.lwsp	s1,36(sp)
200030f2:	5902                	c.lwsp	s2,32(sp)
200030f4:	49f2                	c.lwsp	s3,28(sp)
200030f6:	4a62                	c.lwsp	s4,24(sp)
200030f8:	6145                	c.addi16sp	sp,48
200030fa:	8082                	c.jr	ra

200030fc <read_btn_left>:
gpio_get_level():
E:/promotion/gitlab/telink_b91m_driver_sdk/telink_b91m_driver_sdk/chip/B91/drivers/gpio.h:262
	return BM_IS_SET(reg_gpio_in(pin), pin & 0xff);
200030fc:	801407b7          	lui	a5,0x80140
20003100:	31878503          	lb	a0,792(a5) # 80140318 <_DATA_LMA_START+0x60138340>
read_btn_left():
E:/promotion/gitlab/telink_b91m_driver_sdk/telink_b91m_driver_sdk/demo/vendor/Mars_B91_Mother_V2.2/device/button.c:150
	}
	return 0;
}
uint8_t read_btn_left(void){
	return gpio_get_level(BUTTON_LFT);
}
20003104:	0415255b          	bfoz	a0,a0,1,1
20003108:	8082                	c.jr	ra
	...

2000310c <read_btn_mid>:
gpio_get_level():
E:/promotion/gitlab/telink_b91m_driver_sdk/telink_b91m_driver_sdk/chip/B91/drivers/gpio.h:262
2000310c:	801407b7          	lui	a5,0x80140
20003110:	31878503          	lb	a0,792(a5) # 80140318 <_DATA_LMA_START+0x60138340>
read_btn_mid():
E:/promotion/gitlab/telink_b91m_driver_sdk/telink_b91m_driver_sdk/demo/vendor/Mars_B91_Mother_V2.2/device/button.c:153
uint8_t read_btn_mid(void){
	return gpio_get_level(BUTTON_MID);
}
20003114:	0825255b          	bfoz	a0,a0,2,2
20003118:	8082                	c.jr	ra
	...

2000311c <read_btn_right>:
gpio_get_level():
E:/promotion/gitlab/telink_b91m_driver_sdk/telink_b91m_driver_sdk/chip/B91/drivers/gpio.h:262
2000311c:	801407b7          	lui	a5,0x80140
20003120:	31878503          	lb	a0,792(a5) # 80140318 <_DATA_LMA_START+0x60138340>
read_btn_right():
E:/promotion/gitlab/telink_b91m_driver_sdk/telink_b91m_driver_sdk/demo/vendor/Mars_B91_Mother_V2.2/device/button.c:156
uint8_t read_btn_right(void){
	return gpio_get_level(BUTTON_RHT);
}
20003124:	0c35255b          	bfoz	a0,a0,3,3
20003128:	8082                	c.jr	ra
	...

2000312c <uart_send_array>:
uart_send_array():
E:/promotion/gitlab/telink_b91m_driver_sdk/telink_b91m_driver_sdk/demo/vendor/Mars_B91_Mother_V2.2/device/serial_port.c:28
	for(uint32_t i = 0; i < length; i++){
2000312c:	c9a1                	c.beqz	a1,2000317c <uart_send_array+0x50>
uart_get_txfifo_num():
E:/promotion/gitlab/telink_b91m_driver_sdk/telink_b91m_driver_sdk/chip/B91/drivers/uart.h:283
	return (reg_uart_buf_cnt(uart_num)&FLD_UART_TX_BUF_CNT )>>4;
2000312e:	80140737          	lui	a4,0x80140
20003132:	00b508b3          	add	a7,a0,a1
20003136:	859f958b          	addigp	a1,-1960 # 80058 <uart_tx_byte_index>
uart_send_byte():
E:/promotion/gitlab/telink_b91m_driver_sdk/telink_b91m_driver_sdk/chip/B91/drivers/uart.c:299
	while(uart_get_txfifo_num(uart_num)>7);
2000313a:	469d                	c.li	a3,7
E:/promotion/gitlab/telink_b91m_driver_sdk/telink_b91m_driver_sdk/chip/B91/drivers/uart.c:301
	reg_uart_data_buf(uart_num, uart_tx_byte_index[uart_num]) = tx_data;
2000313c:	08070313          	addi	t1,a4,128 # 80140080 <_DATA_LMA_START+0x601380a8>
uart_send_array():
E:/promotion/gitlab/telink_b91m_driver_sdk/telink_b91m_driver_sdk/demo/vendor/Mars_B91_Mother_V2.2/device/serial_port.c:29
		uart_send_byte(UART0, array[i]);
20003140:	00054803          	lbu	a6,0(a0)
uart_get_txfifo_num():
E:/promotion/gitlab/telink_b91m_driver_sdk/telink_b91m_driver_sdk/chip/B91/drivers/uart.h:283
20003144:	08c70783          	lb	a5,140(a4)
20003148:	1c47a7db          	bfoz	a5,a5,7,4
uart_send_byte():
E:/promotion/gitlab/telink_b91m_driver_sdk/telink_b91m_driver_sdk/chip/B91/drivers/uart.c:299
	while(uart_get_txfifo_num(uart_num)>7);
2000314c:	fef6cce3          	blt	a3,a5,20003144 <uart_send_array+0x18>
E:/promotion/gitlab/telink_b91m_driver_sdk/telink_b91m_driver_sdk/chip/B91/drivers/uart.c:301
	reg_uart_data_buf(uart_num, uart_tx_byte_index[uart_num]) = tx_data;
20003150:	0005c783          	lbu	a5,0(a1)
20003154:	0505                	c.addi	a0,1
E:/promotion/gitlab/telink_b91m_driver_sdk/telink_b91m_driver_sdk/chip/B91/drivers/uart.c:302
	uart_tx_byte_index[uart_num] ++;
20003156:	00178613          	addi	a2,a5,1
E:/promotion/gitlab/telink_b91m_driver_sdk/telink_b91m_driver_sdk/chip/B91/drivers/uart.c:303
	(uart_tx_byte_index[uart_num]) &= 0x03;
2000315a:	8a0d                	c.andi	a2,3
E:/promotion/gitlab/telink_b91m_driver_sdk/telink_b91m_driver_sdk/chip/B91/drivers/uart.c:301
	reg_uart_data_buf(uart_num, uart_tx_byte_index[uart_num]) = tx_data;
2000315c:	006787b3          	add	a5,a5,t1
20003160:	01078023          	sb	a6,0(a5)
E:/promotion/gitlab/telink_b91m_driver_sdk/telink_b91m_driver_sdk/chip/B91/drivers/uart.c:303
	(uart_tx_byte_index[uart_num]) &= 0x03;
20003164:	00c58023          	sb	a2,0(a1)
uart_clr_tx_done():
E:/promotion/gitlab/telink_b91m_driver_sdk/telink_b91m_driver_sdk/chip/B91/drivers/uart.h:755
 * @param[in] uart_num
 * @return    none.
 */
static inline void uart_clr_tx_done(uart_num_e uart_num)
{
	reg_uart_state(uart_num) |=FLD_UART_CLR_TXDONE;
20003168:	08f70783          	lb	a5,143(a4)
2000316c:	f807e793          	ori	a5,a5,-128
20003170:	0ff7f793          	andi	a5,a5,255
20003174:	08f707a3          	sb	a5,143(a4)
uart_send_array():
E:/promotion/gitlab/telink_b91m_driver_sdk/telink_b91m_driver_sdk/demo/vendor/Mars_B91_Mother_V2.2/device/serial_port.c:28
	for(uint32_t i = 0; i < length; i++){
20003178:	fca894e3          	bne	a7,a0,20003140 <uart_send_array+0x14>
E:/promotion/gitlab/telink_b91m_driver_sdk/telink_b91m_driver_sdk/demo/vendor/Mars_B91_Mother_V2.2/device/serial_port.c:32
}
2000317c:	8082                	c.jr	ra
	...

20003180 <OLED_SetPos>:
OLED_SetPos():
E:/promotion/gitlab/telink_b91m_driver_sdk/telink_b91m_driver_sdk/demo/vendor/Mars_B91_Mother_V2.2/device/oled.c:19
{
20003180:	1101                	c.addi	sp,-32
20003182:	cc22                	c.swsp	s0,24(sp)
E:/promotion/gitlab/telink_b91m_driver_sdk/telink_b91m_driver_sdk/demo/vendor/Mars_B91_Mother_V2.2/device/oled.c:20
	WriteCmd(0xb0+y);
20003184:	fb058793          	addi	a5,a1,-80
E:/promotion/gitlab/telink_b91m_driver_sdk/telink_b91m_driver_sdk/demo/vendor/Mars_B91_Mother_V2.2/device/oled.c:19
{
20003188:	842a                	c.mv	s0,a0
WriteCmd():
E:/promotion/gitlab/telink_b91m_driver_sdk/telink_b91m_driver_sdk/demo/vendor/Mars_B91_Mother_V2.2/device/oled.c:9
	i2c_master_write(OLED_ADDR,write_buff, 2);
2000318a:	006c                	c.addi4spn	a1,sp,12
2000318c:	4609                	c.li	a2,2
2000318e:	07800513          	li	a0,120
OLED_SetPos():
E:/promotion/gitlab/telink_b91m_driver_sdk/telink_b91m_driver_sdk/demo/vendor/Mars_B91_Mother_V2.2/device/oled.c:19
{
20003192:	ce06                	c.swsp	ra,28(sp)
WriteCmd():
E:/promotion/gitlab/telink_b91m_driver_sdk/telink_b91m_driver_sdk/demo/vendor/Mars_B91_Mother_V2.2/device/oled.c:8
	uint8_t write_buff[2] = {0x00,I2C_Command};
20003194:	00f106a3          	sb	a5,13(sp)
20003198:	00010623          	sb	zero,12(sp)
E:/promotion/gitlab/telink_b91m_driver_sdk/telink_b91m_driver_sdk/demo/vendor/Mars_B91_Mother_V2.2/device/oled.c:9
	i2c_master_write(OLED_ADDR,write_buff, 2);
2000319c:	e2dff0ef          	jal	ra,20002fc8 <i2c_master_write>
OLED_SetPos():
E:/promotion/gitlab/telink_b91m_driver_sdk/telink_b91m_driver_sdk/demo/vendor/Mars_B91_Mother_V2.2/device/oled.c:21
	WriteCmd(((x&0xf0)>>4)|0x10);
200031a0:	00445793          	srli	a5,s0,0x4
200031a4:	0107e793          	ori	a5,a5,16
WriteCmd():
E:/promotion/gitlab/telink_b91m_driver_sdk/telink_b91m_driver_sdk/demo/vendor/Mars_B91_Mother_V2.2/device/oled.c:9
	i2c_master_write(OLED_ADDR,write_buff, 2);
200031a8:	006c                	c.addi4spn	a1,sp,12
200031aa:	4609                	c.li	a2,2
200031ac:	07800513          	li	a0,120
E:/promotion/gitlab/telink_b91m_driver_sdk/telink_b91m_driver_sdk/demo/vendor/Mars_B91_Mother_V2.2/device/oled.c:8
	uint8_t write_buff[2] = {0x00,I2C_Command};
200031b0:	00f106a3          	sb	a5,13(sp)
200031b4:	00010623          	sb	zero,12(sp)
OLED_SetPos():
E:/promotion/gitlab/telink_b91m_driver_sdk/telink_b91m_driver_sdk/demo/vendor/Mars_B91_Mother_V2.2/device/oled.c:22
	WriteCmd((x&0x0f)|0x01);
200031b8:	8839                	c.andi	s0,14
WriteCmd():
E:/promotion/gitlab/telink_b91m_driver_sdk/telink_b91m_driver_sdk/demo/vendor/Mars_B91_Mother_V2.2/device/oled.c:9
	i2c_master_write(OLED_ADDR,write_buff, 2);
200031ba:	3539                	c.jal	20002fc8 <i2c_master_write>
OLED_SetPos():
E:/promotion/gitlab/telink_b91m_driver_sdk/telink_b91m_driver_sdk/demo/vendor/Mars_B91_Mother_V2.2/device/oled.c:22
	WriteCmd((x&0x0f)|0x01);
200031bc:	00146413          	ori	s0,s0,1
WriteCmd():
E:/promotion/gitlab/telink_b91m_driver_sdk/telink_b91m_driver_sdk/demo/vendor/Mars_B91_Mother_V2.2/device/oled.c:9
	i2c_master_write(OLED_ADDR,write_buff, 2);
200031c0:	006c                	c.addi4spn	a1,sp,12
200031c2:	4609                	c.li	a2,2
200031c4:	07800513          	li	a0,120
E:/promotion/gitlab/telink_b91m_driver_sdk/telink_b91m_driver_sdk/demo/vendor/Mars_B91_Mother_V2.2/device/oled.c:8
	uint8_t write_buff[2] = {0x00,I2C_Command};
200031c8:	008106a3          	sb	s0,13(sp)
200031cc:	00010623          	sb	zero,12(sp)
E:/promotion/gitlab/telink_b91m_driver_sdk/telink_b91m_driver_sdk/demo/vendor/Mars_B91_Mother_V2.2/device/oled.c:9
	i2c_master_write(OLED_ADDR,write_buff, 2);
200031d0:	df9ff0ef          	jal	ra,20002fc8 <i2c_master_write>
OLED_SetPos():
E:/promotion/gitlab/telink_b91m_driver_sdk/telink_b91m_driver_sdk/demo/vendor/Mars_B91_Mother_V2.2/device/oled.c:23
}
200031d4:	40f2                	c.lwsp	ra,28(sp)
200031d6:	4462                	c.lwsp	s0,24(sp)
200031d8:	6105                	c.addi16sp	sp,32
200031da:	8082                	c.jr	ra

200031dc <OLED_ShowStr>:
OLED_ShowStr():
E:/promotion/gitlab/telink_b91m_driver_sdk/telink_b91m_driver_sdk/demo/vendor/Mars_B91_Mother_V2.2/device/oled.c:57
		}
	}
}

void OLED_ShowStr(uint8_t x, uint8_t y, uint8_t ch[])
{
200031dc:	711d                	c.addi16sp	sp,-96
200031de:	ce86                	c.swsp	ra,92(sp)
200031e0:	cca2                	c.swsp	s0,88(sp)
200031e2:	caa6                	c.swsp	s1,84(sp)
200031e4:	c8ca                	c.swsp	s2,80(sp)
200031e6:	c6ce                	c.swsp	s3,76(sp)
200031e8:	c4d2                	c.swsp	s4,72(sp)
200031ea:	c2d6                	c.swsp	s5,68(sp)
200031ec:	c0da                	c.swsp	s6,64(sp)
200031ee:	de5e                	c.swsp	s7,60(sp)
200031f0:	dc62                	c.swsp	s8,56(sp)
200031f2:	da66                	c.swsp	s9,52(sp)
200031f4:	d86a                	c.swsp	s10,48(sp)
200031f6:	d66e                	c.swsp	s11,44(sp)
E:/promotion/gitlab/telink_b91m_driver_sdk/telink_b91m_driver_sdk/demo/vendor/Mars_B91_Mother_V2.2/device/oled.c:59
	uint8_t c = 0,i = 0,j = 0;
	while(ch[j] != '\0'){
200031f8:	00064403          	lbu	s0,0(a2)
200031fc:	cc45                	c.beqz	s0,200032b4 <OLED_ShowStr+0xd8>
200031fe:	20007bb7          	lui	s7,0x20007
20003202:	20007d37          	lui	s10,0x20007
20003206:	20008cb7          	lui	s9,0x20008
2000320a:	7f4b8c13          	addi	s8,s7,2036 # 200077f4 <F8X16>
2000320e:	804c8693          	addi	a3,s9,-2044 # 20007804 <F8X16+0x10>
20003212:	8db2                	c.mv	s11,a2
20003214:	8aaa                	c.mv	s5,a0
20003216:	8a2e                	c.mv	s4,a1
E:/promotion/gitlab/telink_b91m_driver_sdk/telink_b91m_driver_sdk/demo/vendor/Mars_B91_Mother_V2.2/device/oled.c:58
	uint8_t c = 0,i = 0,j = 0;
20003218:	4981                	c.li	s3,0
2000321a:	7fcd0d13          	addi	s10,s10,2044 # 200077fc <F8X16+0x8>
2000321e:	7f4b8b93          	addi	s7,s7,2036
WriteDat():
E:/promotion/gitlab/telink_b91m_driver_sdk/telink_b91m_driver_sdk/demo/vendor/Mars_B91_Mother_V2.2/device/oled.c:14
	uint8_t write_buff[2] = {0x40,I2C_Data};
20003222:	04000493          	li	s1,64
20003226:	c636                	c.swsp	a3,12(sp)
OLED_ShowStr():
E:/promotion/gitlab/telink_b91m_driver_sdk/telink_b91m_driver_sdk/demo/vendor/Mars_B91_Mother_V2.2/device/oled.c:60
		c = ch[j] - 32;
20003228:	1401                	c.addi	s0,-32
E:/promotion/gitlab/telink_b91m_driver_sdk/telink_b91m_driver_sdk/demo/vendor/Mars_B91_Mother_V2.2/device/oled.c:61
		if(x > 120){
2000322a:	07800693          	li	a3,120
E:/promotion/gitlab/telink_b91m_driver_sdk/telink_b91m_driver_sdk/demo/vendor/Mars_B91_Mother_V2.2/device/oled.c:60
		c = ch[j] - 32;
2000322e:	0ff47413          	andi	s0,s0,255
E:/promotion/gitlab/telink_b91m_driver_sdk/telink_b91m_driver_sdk/demo/vendor/Mars_B91_Mother_V2.2/device/oled.c:61
		if(x > 120){
20003232:	0b56e163          	bltu	a3,s5,200032d4 <OLED_ShowStr+0xf8>
20003236:	008a8793          	addi	a5,s5,8
2000323a:	8b56                	c.mv	s6,s5
2000323c:	0ff7fa93          	andi	s5,a5,255
E:/promotion/gitlab/telink_b91m_driver_sdk/telink_b91m_driver_sdk/demo/vendor/Mars_B91_Mother_V2.2/device/oled.c:67
			x = 0;
			y+=2;
		}
		OLED_SetPos(x,y);
		for(i=0;i<8;i++)
			WriteDat(F8X16[c*16+i]);
20003240:	0412                	c.slli	s0,0x4
E:/promotion/gitlab/telink_b91m_driver_sdk/telink_b91m_driver_sdk/demo/vendor/Mars_B91_Mother_V2.2/device/oled.c:65
		OLED_SetPos(x,y);
20003242:	85d2                	c.mv	a1,s4
20003244:	855a                	c.mv	a0,s6
20003246:	008c0cb3          	add	s9,s8,s0
2000324a:	008d0933          	add	s2,s10,s0
2000324e:	8c5e                	c.mv	s8,s7
20003250:	f31ff0ef          	jal	ra,20003180 <OLED_SetPos>
E:/promotion/gitlab/telink_b91m_driver_sdk/telink_b91m_driver_sdk/demo/vendor/Mars_B91_Mother_V2.2/device/oled.c:67
			WriteDat(F8X16[c*16+i]);
20003254:	000cc703          	lbu	a4,0(s9)
WriteDat():
E:/promotion/gitlab/telink_b91m_driver_sdk/telink_b91m_driver_sdk/demo/vendor/Mars_B91_Mother_V2.2/device/oled.c:15
	i2c_master_write(OLED_ADDR,write_buff, 2);
20003258:	4609                	c.li	a2,2
2000325a:	0c85                	c.addi	s9,1
2000325c:	086c                	c.addi4spn	a1,sp,28
2000325e:	07800513          	li	a0,120
E:/promotion/gitlab/telink_b91m_driver_sdk/telink_b91m_driver_sdk/demo/vendor/Mars_B91_Mother_V2.2/device/oled.c:14
	uint8_t write_buff[2] = {0x40,I2C_Data};
20003262:	00910e23          	sb	s1,28(sp)
20003266:	00e10ea3          	sb	a4,29(sp)
E:/promotion/gitlab/telink_b91m_driver_sdk/telink_b91m_driver_sdk/demo/vendor/Mars_B91_Mother_V2.2/device/oled.c:15
	i2c_master_write(OLED_ADDR,write_buff, 2);
2000326a:	3bb9                	c.jal	20002fc8 <i2c_master_write>
OLED_ShowStr():
E:/promotion/gitlab/telink_b91m_driver_sdk/telink_b91m_driver_sdk/demo/vendor/Mars_B91_Mother_V2.2/device/oled.c:66
		for(i=0;i<8;i++)
2000326c:	ff2c94e3          	bne	s9,s2,20003254 <OLED_ShowStr+0x78>
E:/promotion/gitlab/telink_b91m_driver_sdk/telink_b91m_driver_sdk/demo/vendor/Mars_B91_Mother_V2.2/device/oled.c:68
		OLED_SetPos(x,y+1);
20003270:	001a0593          	addi	a1,s4,1 # 1001 <entry_irq60+0x3d>
20003274:	0ff5f593          	andi	a1,a1,255
20003278:	855a                	c.mv	a0,s6
2000327a:	3719                	c.jal	20003180 <OLED_SetPos>
2000327c:	46b2                	c.lwsp	a3,12(sp)
2000327e:	00840913          	addi	s2,s0,8
20003282:	995e                	c.add	s2,s7
20003284:	00d40433          	add	s0,s0,a3
E:/promotion/gitlab/telink_b91m_driver_sdk/telink_b91m_driver_sdk/demo/vendor/Mars_B91_Mother_V2.2/device/oled.c:70
		for(i=0;i<8;i++)
			WriteDat(F8X16[c*16+i+8]);
20003288:	00094783          	lbu	a5,0(s2)
WriteDat():
E:/promotion/gitlab/telink_b91m_driver_sdk/telink_b91m_driver_sdk/demo/vendor/Mars_B91_Mother_V2.2/device/oled.c:15
	i2c_master_write(OLED_ADDR,write_buff, 2);
2000328c:	4609                	c.li	a2,2
2000328e:	0905                	c.addi	s2,1
20003290:	086c                	c.addi4spn	a1,sp,28
20003292:	07800513          	li	a0,120
E:/promotion/gitlab/telink_b91m_driver_sdk/telink_b91m_driver_sdk/demo/vendor/Mars_B91_Mother_V2.2/device/oled.c:14
	uint8_t write_buff[2] = {0x40,I2C_Data};
20003296:	00910e23          	sb	s1,28(sp)
2000329a:	00f10ea3          	sb	a5,29(sp)
E:/promotion/gitlab/telink_b91m_driver_sdk/telink_b91m_driver_sdk/demo/vendor/Mars_B91_Mother_V2.2/device/oled.c:15
	i2c_master_write(OLED_ADDR,write_buff, 2);
2000329e:	332d                	c.jal	20002fc8 <i2c_master_write>
OLED_ShowStr():
E:/promotion/gitlab/telink_b91m_driver_sdk/telink_b91m_driver_sdk/demo/vendor/Mars_B91_Mother_V2.2/device/oled.c:69
		for(i=0;i<8;i++)
200032a0:	ff2414e3          	bne	s0,s2,20003288 <OLED_ShowStr+0xac>
E:/promotion/gitlab/telink_b91m_driver_sdk/telink_b91m_driver_sdk/demo/vendor/Mars_B91_Mother_V2.2/device/oled.c:72
		x += 8;
		j++;
200032a4:	0985                	c.addi	s3,1
200032a6:	0ff9f993          	andi	s3,s3,255
E:/promotion/gitlab/telink_b91m_driver_sdk/telink_b91m_driver_sdk/demo/vendor/Mars_B91_Mother_V2.2/device/oled.c:59
	while(ch[j] != '\0'){
200032aa:	013d87b3          	add	a5,s11,s3
200032ae:	0007c403          	lbu	s0,0(a5)
200032b2:	f83d                	c.bnez	s0,20003228 <OLED_ShowStr+0x4c>
E:/promotion/gitlab/telink_b91m_driver_sdk/telink_b91m_driver_sdk/demo/vendor/Mars_B91_Mother_V2.2/device/oled.c:74
	}
}
200032b4:	40f6                	c.lwsp	ra,92(sp)
200032b6:	4466                	c.lwsp	s0,88(sp)
200032b8:	44d6                	c.lwsp	s1,84(sp)
200032ba:	4946                	c.lwsp	s2,80(sp)
200032bc:	49b6                	c.lwsp	s3,76(sp)
200032be:	4a26                	c.lwsp	s4,72(sp)
200032c0:	4a96                	c.lwsp	s5,68(sp)
200032c2:	4b06                	c.lwsp	s6,64(sp)
200032c4:	5bf2                	c.lwsp	s7,60(sp)
200032c6:	5c62                	c.lwsp	s8,56(sp)
200032c8:	5cd2                	c.lwsp	s9,52(sp)
200032ca:	5d42                	c.lwsp	s10,48(sp)
200032cc:	5db2                	c.lwsp	s11,44(sp)
200032ce:	6125                	c.addi16sp	sp,96
200032d0:	00008067          	ret
E:/promotion/gitlab/telink_b91m_driver_sdk/telink_b91m_driver_sdk/demo/vendor/Mars_B91_Mother_V2.2/device/oled.c:63
			y+=2;
200032d4:	0a09                	c.addi	s4,2
200032d6:	0ffa7a13          	andi	s4,s4,255
200032da:	4aa1                	c.li	s5,8
E:/promotion/gitlab/telink_b91m_driver_sdk/telink_b91m_driver_sdk/demo/vendor/Mars_B91_Mother_V2.2/device/oled.c:62
			x = 0;
200032dc:	4b01                	c.li	s6,0
200032de:	b78d                	c.j	20003240 <OLED_ShowStr+0x64>

200032e0 <OLED_Show_Arrow>:
OLED_Show_Arrow():
E:/promotion/gitlab/telink_b91m_driver_sdk/telink_b91m_driver_sdk/demo/vendor/Mars_B91_Mother_V2.2/device/oled.c:100
		// j++;
	}
}

void OLED_Show_Arrow(uint8_t y)
{
200032e0:	1101                	c.addi	sp,-32
200032e2:	cc22                	c.swsp	s0,24(sp)
200032e4:	ca26                	c.swsp	s1,20(sp)
200032e6:	c84a                	c.swsp	s2,16(sp)
200032e8:	c64e                	c.swsp	s3,12(sp)
200032ea:	84aa                	c.mv	s1,a0
E:/promotion/gitlab/telink_b91m_driver_sdk/telink_b91m_driver_sdk/demo/vendor/Mars_B91_Mother_V2.2/device/oled.c:101
	for(uint8_t j = 0; j < 8; j = j+2){
200032ec:	4401                	c.li	s0,0
E:/promotion/gitlab/telink_b91m_driver_sdk/telink_b91m_driver_sdk/demo/vendor/Mars_B91_Mother_V2.2/device/oled.c:103
		if(j == y)  OLED_ShowStr(120,y,(uint8_t *)"<");
		else		OLED_ShowStr(120,j,(uint8_t *)" ");
200032ee:	20008937          	lui	s2,0x20008
E:/promotion/gitlab/telink_b91m_driver_sdk/telink_b91m_driver_sdk/demo/vendor/Mars_B91_Mother_V2.2/device/oled.c:102
		if(j == y)  OLED_ShowStr(120,y,(uint8_t *)"<");
200032f2:	200089b7          	lui	s3,0x20008
E:/promotion/gitlab/telink_b91m_driver_sdk/telink_b91m_driver_sdk/demo/vendor/Mars_B91_Mother_V2.2/device/oled.c:100
{
200032f6:	ce06                	c.swsp	ra,28(sp)
E:/promotion/gitlab/telink_b91m_driver_sdk/telink_b91m_driver_sdk/demo/vendor/Mars_B91_Mother_V2.2/device/oled.c:103
		else		OLED_ShowStr(120,j,(uint8_t *)" ");
200032f8:	85a2                	c.mv	a1,s0
200032fa:	de890613          	addi	a2,s2,-536 # 20007de8 <F8X16+0x5f4>
200032fe:	07800513          	li	a0,120
E:/promotion/gitlab/telink_b91m_driver_sdk/telink_b91m_driver_sdk/demo/vendor/Mars_B91_Mother_V2.2/device/oled.c:102
		if(j == y)  OLED_ShowStr(120,y,(uint8_t *)"<");
20003302:	00848f63          	beq	s1,s0,20003320 <OLED_Show_Arrow+0x40>
E:/promotion/gitlab/telink_b91m_driver_sdk/telink_b91m_driver_sdk/demo/vendor/Mars_B91_Mother_V2.2/device/oled.c:103
		else		OLED_ShowStr(120,j,(uint8_t *)" ");
20003306:	3dd9                	c.jal	200031dc <OLED_ShowStr>
E:/promotion/gitlab/telink_b91m_driver_sdk/telink_b91m_driver_sdk/demo/vendor/Mars_B91_Mother_V2.2/device/oled.c:101
	for(uint8_t j = 0; j < 8; j = j+2){
20003308:	0409                	c.addi	s0,2
2000330a:	0ff47413          	andi	s0,s0,255
2000330e:	be84655b          	bnec	s0,8,200032f8 <OLED_Show_Arrow+0x18>
E:/promotion/gitlab/telink_b91m_driver_sdk/telink_b91m_driver_sdk/demo/vendor/Mars_B91_Mother_V2.2/device/oled.c:105
	}
}
20003312:	40f2                	c.lwsp	ra,28(sp)
20003314:	4462                	c.lwsp	s0,24(sp)
20003316:	44d2                	c.lwsp	s1,20(sp)
20003318:	4942                	c.lwsp	s2,16(sp)
2000331a:	49b2                	c.lwsp	s3,12(sp)
2000331c:	6105                	c.addi16sp	sp,32
2000331e:	8082                	c.jr	ra
E:/promotion/gitlab/telink_b91m_driver_sdk/telink_b91m_driver_sdk/demo/vendor/Mars_B91_Mother_V2.2/device/oled.c:102
		if(j == y)  OLED_ShowStr(120,y,(uint8_t *)"<");
20003320:	de498613          	addi	a2,s3,-540 # 20007de4 <F8X16+0x5f0>
20003324:	85a6                	c.mv	a1,s1
20003326:	3d5d                	c.jal	200031dc <OLED_ShowStr>
20003328:	b7c5                	c.j	20003308 <OLED_Show_Arrow+0x28>
2000332a:	0001                	c.nop

2000332c <BTN_DOUBLE_CLICK_Handler>:
BTN_DOUBLE_CLICK_Handler():
E:/promotion/gitlab/telink_b91m_driver_sdk/telink_b91m_driver_sdk/demo/vendor/Mars_B91_Mother_V2.2/device/button.c:173
		g_line_num = (g_line_num+2)%8;
		OLED_Show_Arrow(g_line_num);
	}
}
__attribute__((weak)) void BTN_DOUBLE_CLICK_Handler(void* btn){
	if(btn == &btn_left){
2000332c:	0a90178b          	addigp	a5,2216 # 810a8 <btn_left>
20003330:	02f50263          	beq	a0,a5,20003354 <BTN_DOUBLE_CLICK_Handler+0x28>
E:/promotion/gitlab/telink_b91m_driver_sdk/telink_b91m_driver_sdk/demo/vendor/Mars_B91_Mother_V2.2/device/button.c:176
		uart_send_array("btn_left DOUBLE_CLICK\r\n",strlen("btn_left DOUBLE_CLICK\r\n"));
	}
	else if(btn == &btn_mid){
20003334:	0d10178b          	addigp	a5,2256 # 810d0 <btn_mid>
20003338:	00f50663          	beq	a0,a5,20003344 <BTN_DOUBLE_CLICK_Handler+0x18>
E:/promotion/gitlab/telink_b91m_driver_sdk/telink_b91m_driver_sdk/demo/vendor/Mars_B91_Mother_V2.2/device/button.c:178
	}
	else if(btn == &btn_right){
2000333c:	0f90178b          	addigp	a5,2296 # 810f8 <btn_right>
20003340:	00f50463          	beq	a0,a5,20003348 <BTN_DOUBLE_CLICK_Handler+0x1c>
E:/promotion/gitlab/telink_b91m_driver_sdk/telink_b91m_driver_sdk/demo/vendor/Mars_B91_Mother_V2.2/device/button.c:181
		uart_send_array("btn_right DOUBLE_CLICK\r\n",strlen("btn_right DOUBLE_CLICK\r\n"));
	}
}
20003344:	00008067          	ret
E:/promotion/gitlab/telink_b91m_driver_sdk/telink_b91m_driver_sdk/demo/vendor/Mars_B91_Mother_V2.2/device/button.c:179
		uart_send_array("btn_right DOUBLE_CLICK\r\n",strlen("btn_right DOUBLE_CLICK\r\n"));
20003348:	20007537          	lui	a0,0x20007
2000334c:	45e1                	c.li	a1,24
2000334e:	7d850513          	addi	a0,a0,2008 # 200077d8 <__riscv_restore_0+0x58>
20003352:	bbe9                	c.j	2000312c <uart_send_array>
E:/promotion/gitlab/telink_b91m_driver_sdk/telink_b91m_driver_sdk/demo/vendor/Mars_B91_Mother_V2.2/device/button.c:174
		uart_send_array("btn_left DOUBLE_CLICK\r\n",strlen("btn_left DOUBLE_CLICK\r\n"));
20003354:	20007537          	lui	a0,0x20007
20003358:	45dd                	c.li	a1,23
2000335a:	7c050513          	addi	a0,a0,1984 # 200077c0 <__riscv_restore_0+0x40>
2000335e:	b3f9                	c.j	2000312c <uart_send_array>
20003360:	0001                	c.nop
	...

20003364 <BTN_SINGLE_CLICK_Handler>:
BTN_SINGLE_CLICK_Handler():
E:/promotion/gitlab/telink_b91m_driver_sdk/telink_b91m_driver_sdk/demo/vendor/Mars_B91_Mother_V2.2/device/button.c:160
	if(btn == &btn_left){
20003364:	0a90178b          	addigp	a5,2216 # 810a8 <btn_left>
20003368:	00f50c63          	beq	a0,a5,20003380 <BTN_SINGLE_CLICK_Handler+0x1c>
E:/promotion/gitlab/telink_b91m_driver_sdk/telink_b91m_driver_sdk/demo/vendor/Mars_B91_Mother_V2.2/device/button.c:164
	else if(btn == &btn_mid){
2000336c:	0d10178b          	addigp	a5,2256 # 810d0 <btn_mid>
20003370:	04f50263          	beq	a0,a5,200033b4 <BTN_SINGLE_CLICK_Handler+0x50>
E:/promotion/gitlab/telink_b91m_driver_sdk/telink_b91m_driver_sdk/demo/vendor/Mars_B91_Mother_V2.2/device/button.c:167
	else if(btn == &btn_right){
20003374:	0f90178b          	addigp	a5,2296 # 810f8 <btn_right>
20003378:	02f50463          	beq	a0,a5,200033a0 <BTN_SINGLE_CLICK_Handler+0x3c>
E:/promotion/gitlab/telink_b91m_driver_sdk/telink_b91m_driver_sdk/demo/vendor/Mars_B91_Mother_V2.2/device/button.c:171
}
2000337c:	00008067          	ret
E:/promotion/gitlab/telink_b91m_driver_sdk/telink_b91m_driver_sdk/demo/vendor/Mars_B91_Mother_V2.2/device/button.c:161
		g_line_num =  g_line_num > 2 ? g_line_num - 2 : 6;
20003380:	829f978b          	addigp	a5,-2008 # 80028 <g_line_num>
20003384:	4390                	c.lw	a2,0(a5)
20003386:	4689                	c.li	a3,2
20003388:	4719                	c.li	a4,6
2000338a:	00c6f563          	bgeu	a3,a2,20003394 <BTN_SINGLE_CLICK_Handler+0x30>
2000338e:	4398                	c.lw	a4,0(a5)
20003390:	ffe70713          	addi	a4,a4,-2
E:/promotion/gitlab/telink_b91m_driver_sdk/telink_b91m_driver_sdk/demo/vendor/Mars_B91_Mother_V2.2/device/button.c:168
		g_line_num = (g_line_num+2)%8;
20003394:	c398                	c.sw	a4,0(a5)
E:/promotion/gitlab/telink_b91m_driver_sdk/telink_b91m_driver_sdk/demo/vendor/Mars_B91_Mother_V2.2/device/button.c:169
		OLED_Show_Arrow(g_line_num);
20003396:	4388                	c.lw	a0,0(a5)
20003398:	0ff57513          	andi	a0,a0,255
2000339c:	f45ff06f          	j	200032e0 <OLED_Show_Arrow>
E:/promotion/gitlab/telink_b91m_driver_sdk/telink_b91m_driver_sdk/demo/vendor/Mars_B91_Mother_V2.2/device/button.c:168
		g_line_num = (g_line_num+2)%8;
200033a0:	829f978b          	addigp	a5,-2008 # 80028 <g_line_num>
200033a4:	4398                	c.lw	a4,0(a5)
200033a6:	0709                	c.addi	a4,2
200033a8:	8b1d                	c.andi	a4,7
200033aa:	c398                	c.sw	a4,0(a5)
E:/promotion/gitlab/telink_b91m_driver_sdk/telink_b91m_driver_sdk/demo/vendor/Mars_B91_Mother_V2.2/device/button.c:169
		OLED_Show_Arrow(g_line_num);
200033ac:	4388                	c.lw	a0,0(a5)
200033ae:	0ff57513          	andi	a0,a0,255
200033b2:	b73d                	c.j	200032e0 <OLED_Show_Arrow>
gpio_toggle():
E:/promotion/gitlab/telink_b91m_driver_sdk/telink_b91m_driver_sdk/chip/B91/drivers/gpio.h:289
 * @param[in] pin - the pin needs to toggle.
 * @return    none.
 */
static inline void gpio_toggle(gpio_pin_e pin)
{
	reg_gpio_out(pin) ^= (pin & 0xFF);
200033b4:	80140737          	lui	a4,0x80140
200033b8:	30b70783          	lb	a5,779(a4) # 8014030b <_DATA_LMA_START+0x60138333>
200033bc:	0407c793          	xori	a5,a5,64
200033c0:	0ff7f793          	andi	a5,a5,255
200033c4:	30f705a3          	sb	a5,779(a4)
200033c8:	8082                	c.jr	ra
BTN_SINGLE_CLICK_Handler():
200033ca:	0001                	c.nop

200033cc <analog_read_reg32.constprop.3>:
core_interrupt_disable():
E:/promotion/gitlab/telink_b91m_driver_sdk/telink_b91m_driver_sdk/chip/B91/drivers/core.h:101
	unsigned int r = read_csr (NDS_MSTATUS)&FLD_MSTATUS_MIE;
200033cc:	300027f3          	csrr	a5,mstatus
200033d0:	8ba1                	c.andi	a5,8
E:/promotion/gitlab/telink_b91m_driver_sdk/telink_b91m_driver_sdk/chip/B91/drivers/core.h:102
	if(r)
200033d2:	c399                	c.beqz	a5,200033d8 <analog_read_reg32.constprop.3+0xc>
E:/promotion/gitlab/telink_b91m_driver_sdk/telink_b91m_driver_sdk/chip/B91/drivers/core.h:104
		clear_csr(NDS_MSTATUS,FLD_MSTATUS_MIE);//global interrupts disable
200033d4:	30047773          	csrrci	a4,mstatus,8
analog_read_reg32():
E:/promotion/gitlab/telink_b91m_driver_sdk/telink_b91m_driver_sdk/chip/B91/drivers/analog.c:176
	reg_ana_len = 4;
200033d8:	80140737          	lui	a4,0x80140
200033dc:	00400693          	li	a3,4
200033e0:	18d701a3          	sb	a3,387(a4) # 80140183 <_DATA_LMA_START+0x601381ab>
E:/promotion/gitlab/telink_b91m_driver_sdk/telink_b91m_driver_sdk/chip/B91/drivers/analog.c:177
	reg_ana_addr = addr;
200033e4:	06000693          	li	a3,96
200033e8:	18d70023          	sb	a3,384(a4)
E:/promotion/gitlab/telink_b91m_driver_sdk/telink_b91m_driver_sdk/chip/B91/drivers/analog.c:178
	reg_ana_ctrl = FLD_ANA_CYC;
200033ec:	04000613          	li	a2,64
analog_wait():
E:/promotion/gitlab/telink_b91m_driver_sdk/telink_b91m_driver_sdk/chip/B91/drivers/analog.c:432
	while(reg_ana_ctrl & FLD_ANA_BUSY){}
200033f0:	801406b7          	lui	a3,0x80140
analog_read_reg32():
E:/promotion/gitlab/telink_b91m_driver_sdk/telink_b91m_driver_sdk/chip/B91/drivers/analog.c:178
	reg_ana_ctrl = FLD_ANA_CYC;
200033f4:	18c70123          	sb	a2,386(a4)
analog_wait():
E:/promotion/gitlab/telink_b91m_driver_sdk/telink_b91m_driver_sdk/chip/B91/drivers/analog.c:432
	while(reg_ana_ctrl & FLD_ANA_BUSY){}
200033f8:	18268703          	lb	a4,386(a3) # 80140182 <_DATA_LMA_START+0x601381aa>
200033fc:	fe777e5b          	bbs	a4,7,200033f8 <analog_read_reg32.constprop.3+0x2c>
analog_read_reg32():
E:/promotion/gitlab/telink_b91m_driver_sdk/telink_b91m_driver_sdk/chip/B91/drivers/analog.c:180
	unsigned int data=reg_ana_addr_data32;
20003400:	1846a503          	lw	a0,388(a3)
core_restore_interrupt():
E:/promotion/gitlab/telink_b91m_driver_sdk/telink_b91m_driver_sdk/chip/B91/drivers/core.h:117
	if(en)
20003404:	00078463          	beqz	a5,2000340c <analog_read_reg32.constprop.3+0x40>
E:/promotion/gitlab/telink_b91m_driver_sdk/telink_b91m_driver_sdk/chip/B91/drivers/core.h:119
		set_csr(NDS_MSTATUS,en);//global interrupts enable
20003408:	3007a7f3          	csrrs	a5,mstatus,a5
analog_read_reg32():
E:/promotion/gitlab/telink_b91m_driver_sdk/telink_b91m_driver_sdk/chip/B91/drivers/analog.c:183
}
2000340c:	8082                	c.jr	ra
analog_read_reg32.constprop.3():
2000340e:	0001                	c.nop

20003410 <user_calib_freq_offset.constprop.43>:
user_calib_freq_offset():
E:/promotion/gitlab/telink_b91m_driver_sdk/telink_b91m_driver_sdk/demo/vendor/common/B91/calibration/calibration.c:120
unsigned char user_calib_freq_offset(user_calib_from_e velfrom, unsigned int addr)
{
	unsigned char frequency_offset_value = 0xff;
	if(velfrom == USER_CALIB_FROM_FLASH)
	{
		flash_read_page(addr, 1, &frequency_offset_value);
20003410:	000007b7          	lui	a5,0x0
E:/promotion/gitlab/telink_b91m_driver_sdk/telink_b91m_driver_sdk/demo/vendor/common/B91/calibration/calibration.c:115
unsigned char user_calib_freq_offset(user_calib_from_e velfrom, unsigned int addr)
20003414:	1101                	c.addi	sp,-32
E:/promotion/gitlab/telink_b91m_driver_sdk/telink_b91m_driver_sdk/demo/vendor/common/B91/calibration/calibration.c:120
		flash_read_page(addr, 1, &frequency_offset_value);
20003416:	15c7a783          	lw	a5,348(a5) # 15c <flash_read_page>
E:/promotion/gitlab/telink_b91m_driver_sdk/telink_b91m_driver_sdk/demo/vendor/common/B91/calibration/calibration.c:117
	unsigned char frequency_offset_value = 0xff;
2000341a:	577d                	c.li	a4,-1
E:/promotion/gitlab/telink_b91m_driver_sdk/telink_b91m_driver_sdk/demo/vendor/common/B91/calibration/calibration.c:120
		flash_read_page(addr, 1, &frequency_offset_value);
2000341c:	00f10613          	addi	a2,sp,15
20003420:	4585                	c.li	a1,1
E:/promotion/gitlab/telink_b91m_driver_sdk/telink_b91m_driver_sdk/demo/vendor/common/B91/calibration/calibration.c:115
unsigned char user_calib_freq_offset(user_calib_from_e velfrom, unsigned int addr)
20003422:	cc22                	c.swsp	s0,24(sp)
20003424:	ce06                	c.swsp	ra,28(sp)
E:/promotion/gitlab/telink_b91m_driver_sdk/telink_b91m_driver_sdk/demo/vendor/common/B91/calibration/calibration.c:117
	unsigned char frequency_offset_value = 0xff;
20003426:	00e107a3          	sb	a4,15(sp)
E:/promotion/gitlab/telink_b91m_driver_sdk/telink_b91m_driver_sdk/demo/vendor/common/B91/calibration/calibration.c:120
		flash_read_page(addr, 1, &frequency_offset_value);
2000342a:	9782                	c.jalr	a5
E:/promotion/gitlab/telink_b91m_driver_sdk/telink_b91m_driver_sdk/demo/vendor/common/B91/calibration/calibration.c:122
	}
	if(0xff != frequency_offset_value)
2000342c:	00f14403          	lbu	s0,15(sp)
20003430:	0ff00793          	li	a5,255
E:/promotion/gitlab/telink_b91m_driver_sdk/telink_b91m_driver_sdk/demo/vendor/common/B91/calibration/calibration.c:128
	{
		rf_update_internal_cap(frequency_offset_value);
		return 1;
	}

	return 0;
20003434:	00000513          	li	a0,0
E:/promotion/gitlab/telink_b91m_driver_sdk/telink_b91m_driver_sdk/demo/vendor/common/B91/calibration/calibration.c:122
	if(0xff != frequency_offset_value)
20003438:	02f40663          	beq	s0,a5,20003464 <user_calib_freq_offset.constprop.43+0x54>
rf_update_internal_cap():
C:/Users/Admin/Desktop/test1/telink_b91m_driver_src/chip/B91/drivers/lib/src/rf.c:1526
2000343c:	08a00513          	li	a0,138
20003440:	dfffd097          	auipc	ra,0xdfffd
20003444:	35c080e7          	jalr	860(ra) # 79c <analog_read_reg8>
20003448:	03f47413          	andi	s0,s0,63
2000344c:	04057593          	andi	a1,a0,64
20003450:	0085e5b3          	or	a1,a1,s0
20003454:	08a00513          	li	a0,138
20003458:	dfffd097          	auipc	ra,0xdfffd
2000345c:	308080e7          	jalr	776(ra) # 760 <analog_write_reg8>
user_calib_freq_offset():
E:/promotion/gitlab/telink_b91m_driver_sdk/telink_b91m_driver_sdk/demo/vendor/common/B91/calibration/calibration.c:125
		return 1;
20003460:	00100513          	li	a0,1
E:/promotion/gitlab/telink_b91m_driver_sdk/telink_b91m_driver_sdk/demo/vendor/common/B91/calibration/calibration.c:129
}
20003464:	40f2                	c.lwsp	ra,28(sp)
20003466:	4462                	c.lwsp	s0,24(sp)
20003468:	6105                	c.addi16sp	sp,32
2000346a:	8082                	c.jr	ra
user_calib_freq_offset.constprop.43():
2000346c:	0001                	c.nop
	...

20003470 <gpio_set_up_down_res.constprop.38>:
gpio_set_up_down_res():
E:/promotion/gitlab/telink_b91m_driver_sdk/telink_b91m_driver_sdk/chip/B91/drivers/gpio.c:372
 * @brief     This function set a pin's pull-up/down resistor.
 * @param[in] pin - the pin needs to set its pull-up/down resistor.
 * @param[in] up_down_res - the type of the pull-up/down resistor.
 * @return    none.
 */
void gpio_set_up_down_res(gpio_pin_e pin, gpio_pull_type_e up_down_res)
20003470:	1141                	c.addi	sp,-16
20003472:	c422                	c.swsp	s0,8(sp)
E:/promotion/gitlab/telink_b91m_driver_sdk/telink_b91m_driver_sdk/chip/B91/drivers/gpio.c:376
{
	unsigned char r_val = up_down_res & 0x03;

	unsigned char base_ana_reg = 0x0e + ((pin >> 8) << 1) + ( (pin & 0xf0) ? 1 : 0 );  //group = gpio>>8;
20003474:	00855413          	srli	s0,a0,0x8
20003478:	0406                	c.slli	s0,0x1
2000347a:	0439                	c.addi	s0,14
E:/promotion/gitlab/telink_b91m_driver_sdk/telink_b91m_driver_sdk/chip/B91/drivers/gpio.c:372
void gpio_set_up_down_res(gpio_pin_e pin, gpio_pull_type_e up_down_res)
2000347c:	c606                	c.swsp	ra,12(sp)
2000347e:	c226                	c.swsp	s1,4(sp)
20003480:	c04a                	c.swsp	s2,0(sp)
E:/promotion/gitlab/telink_b91m_driver_sdk/telink_b91m_driver_sdk/chip/B91/drivers/gpio.c:379
	unsigned char shift_num, mask_not;

	if(pin & 0x11){
20003482:	01157793          	andi	a5,a0,17
E:/promotion/gitlab/telink_b91m_driver_sdk/telink_b91m_driver_sdk/chip/B91/drivers/gpio.c:376
	unsigned char base_ana_reg = 0x0e + ((pin >> 8) << 1) + ( (pin & 0xf0) ? 1 : 0 );  //group = gpio>>8;
20003486:	0ff47413          	andi	s0,s0,255
E:/promotion/gitlab/telink_b91m_driver_sdk/telink_b91m_driver_sdk/chip/B91/drivers/gpio.c:379
	if(pin & 0x11){
2000348a:	eba9                	c.bnez	a5,200034dc <gpio_set_up_down_res.constprop.38+0x6c>
E:/promotion/gitlab/telink_b91m_driver_sdk/telink_b91m_driver_sdk/chip/B91/drivers/gpio.c:383
			shift_num = 0;
			mask_not = 0xfc;
		}
		else if(pin & 0x22){
2000348c:	02257793          	andi	a5,a0,34
20003490:	cf85                	c.beqz	a5,200034c8 <gpio_set_up_down_res.constprop.38+0x58>
E:/promotion/gitlab/telink_b91m_driver_sdk/telink_b91m_driver_sdk/chip/B91/drivers/gpio.c:385
			shift_num = 2;
			mask_not = 0xf3;
20003492:	0f300493          	li	s1,243
E:/promotion/gitlab/telink_b91m_driver_sdk/telink_b91m_driver_sdk/chip/B91/drivers/gpio.c:384
			shift_num = 2;
20003496:	4909                	c.li	s2,2
E:/promotion/gitlab/telink_b91m_driver_sdk/telink_b91m_driver_sdk/chip/B91/drivers/gpio.c:398
			mask_not = 0x3f;
		}
		else{
			return;
		}
	analog_write_reg8(base_ana_reg, (analog_read_reg8(base_ana_reg) & mask_not) | (r_val << shift_num));
20003498:	00800533          	add	a0,zero,s0
2000349c:	dfffd097          	auipc	ra,0xdfffd
200034a0:	300080e7          	jalr	768(ra) # 79c <analog_read_reg8>
200034a4:	458d                	c.li	a1,3
200034a6:	8d65                	c.and	a0,s1
200034a8:	012595b3          	sll	a1,a1,s2
200034ac:	8dc9                	c.or	a1,a0
200034ae:	8522                	c.mv	a0,s0
E:/promotion/gitlab/telink_b91m_driver_sdk/telink_b91m_driver_sdk/chip/B91/drivers/gpio.c:399
}
200034b0:	4422                	c.lwsp	s0,8(sp)
200034b2:	40b2                	c.lwsp	ra,12(sp)
200034b4:	4492                	c.lwsp	s1,4(sp)
200034b6:	4902                	c.lwsp	s2,0(sp)
E:/promotion/gitlab/telink_b91m_driver_sdk/telink_b91m_driver_sdk/chip/B91/drivers/gpio.c:398
	analog_write_reg8(base_ana_reg, (analog_read_reg8(base_ana_reg) & mask_not) | (r_val << shift_num));
200034b8:	0ff5f593          	andi	a1,a1,255
E:/promotion/gitlab/telink_b91m_driver_sdk/telink_b91m_driver_sdk/chip/B91/drivers/gpio.c:399
}
200034bc:	01010113          	addi	sp,sp,16
E:/promotion/gitlab/telink_b91m_driver_sdk/telink_b91m_driver_sdk/chip/B91/drivers/gpio.c:398
	analog_write_reg8(base_ana_reg, (analog_read_reg8(base_ana_reg) & mask_not) | (r_val << shift_num));
200034c0:	dfffd317          	auipc	t1,0xdfffd
200034c4:	2a030067          	jr	672(t1) # 760 <analog_write_reg8>
E:/promotion/gitlab/telink_b91m_driver_sdk/telink_b91m_driver_sdk/chip/B91/drivers/gpio.c:387
		else if(pin & 0x44){
200034c8:	04457793          	andi	a5,a0,68
200034cc:	ef81                	c.bnez	a5,200034e4 <gpio_set_up_down_res.constprop.38+0x74>
E:/promotion/gitlab/telink_b91m_driver_sdk/telink_b91m_driver_sdk/chip/B91/drivers/gpio.c:391
		else if(pin & 0x88){
200034ce:	08857513          	andi	a0,a0,136
200034d2:	cd09                	c.beqz	a0,200034ec <gpio_set_up_down_res.constprop.38+0x7c>
E:/promotion/gitlab/telink_b91m_driver_sdk/telink_b91m_driver_sdk/chip/B91/drivers/gpio.c:393
			mask_not = 0x3f;
200034d4:	03f00493          	li	s1,63
E:/promotion/gitlab/telink_b91m_driver_sdk/telink_b91m_driver_sdk/chip/B91/drivers/gpio.c:392
			shift_num = 6;
200034d8:	4919                	c.li	s2,6
200034da:	bf7d                	c.j	20003498 <gpio_set_up_down_res.constprop.38+0x28>
E:/promotion/gitlab/telink_b91m_driver_sdk/telink_b91m_driver_sdk/chip/B91/drivers/gpio.c:381
			mask_not = 0xfc;
200034dc:	0fc00493          	li	s1,252
E:/promotion/gitlab/telink_b91m_driver_sdk/telink_b91m_driver_sdk/chip/B91/drivers/gpio.c:380
			shift_num = 0;
200034e0:	4901                	c.li	s2,0
200034e2:	bf5d                	c.j	20003498 <gpio_set_up_down_res.constprop.38+0x28>
E:/promotion/gitlab/telink_b91m_driver_sdk/telink_b91m_driver_sdk/chip/B91/drivers/gpio.c:389
			mask_not = 0xcf;
200034e4:	0cf00493          	li	s1,207
E:/promotion/gitlab/telink_b91m_driver_sdk/telink_b91m_driver_sdk/chip/B91/drivers/gpio.c:388
			shift_num = 4;
200034e8:	4911                	c.li	s2,4
200034ea:	b77d                	c.j	20003498 <gpio_set_up_down_res.constprop.38+0x28>
E:/promotion/gitlab/telink_b91m_driver_sdk/telink_b91m_driver_sdk/chip/B91/drivers/gpio.c:399
}
200034ec:	40b2                	c.lwsp	ra,12(sp)
200034ee:	4422                	c.lwsp	s0,8(sp)
200034f0:	4492                	c.lwsp	s1,4(sp)
200034f2:	4902                	c.lwsp	s2,0(sp)
200034f4:	0141                	c.addi	sp,16
200034f6:	8082                	c.jr	ra

200034f8 <gpio_input_dis>:
gpio_input_dis():
E:/promotion/gitlab/telink_b91m_driver_sdk/telink_b91m_driver_sdk/chip/B91/drivers/gpio.c:98
		BM_CLR(reg_gpio_ie(pin), bit);
200034f8:	00140737          	lui	a4,0x140
200034fc:	00855793          	srli	a5,a0,0x8
20003500:	30170713          	addi	a4,a4,769 # 140301 <FLASH_SIZE+0x40301>
20003504:	0ef707db          	lea.d	a5,a4,a5
20003508:	80000737          	lui	a4,0x80000
2000350c:	8fd9                	c.or	a5,a4
2000350e:	00078703          	lb	a4,0(a5)
20003512:	fff54513          	not	a0,a0
20003516:	8d79                	c.and	a0,a4
20003518:	0ff57513          	andi	a0,a0,255
2000351c:	00a78023          	sb	a0,0(a5)
E:/promotion/gitlab/telink_b91m_driver_sdk/telink_b91m_driver_sdk/chip/B91/drivers/gpio.c:110
}
20003520:	8082                	c.jr	ra
	...

20003524 <gpio_input_en>:
gpio_input_en():
E:/promotion/gitlab/telink_b91m_driver_sdk/telink_b91m_driver_sdk/chip/B91/drivers/gpio.c:70
	if(group == GPIO_GROUPA || group == GPIO_GROUPB || group == GPIO_GROUPE)
20003524:	6785                	c.lui	a5,0x1
E:/promotion/gitlab/telink_b91m_driver_sdk/telink_b91m_driver_sdk/chip/B91/drivers/gpio.c:66
{
20003526:	1141                	c.addi	sp,-16
E:/promotion/gitlab/telink_b91m_driver_sdk/telink_b91m_driver_sdk/chip/B91/drivers/gpio.c:70
	if(group == GPIO_GROUPA || group == GPIO_GROUPB || group == GPIO_GROUPE)
20003528:	e0078713          	addi	a4,a5,-512 # e00 <pm_sleep_wakeup_ram.constprop.2+0x298>
E:/promotion/gitlab/telink_b91m_driver_sdk/telink_b91m_driver_sdk/chip/B91/drivers/gpio.c:66
{
2000352c:	c422                	c.swsp	s0,8(sp)
2000352e:	c606                	c.swsp	ra,12(sp)
E:/promotion/gitlab/telink_b91m_driver_sdk/telink_b91m_driver_sdk/chip/B91/drivers/gpio.c:70
	if(group == GPIO_GROUPA || group == GPIO_GROUPB || group == GPIO_GROUPE)
20003530:	8f69                	c.and	a4,a0
E:/promotion/gitlab/telink_b91m_driver_sdk/telink_b91m_driver_sdk/chip/B91/drivers/gpio.c:67
	unsigned char	bit = pin & 0xff;
20003532:	0ff57413          	andi	s0,a0,255
E:/promotion/gitlab/telink_b91m_driver_sdk/telink_b91m_driver_sdk/chip/B91/drivers/gpio.c:70
	if(group == GPIO_GROUPA || group == GPIO_GROUPB || group == GPIO_GROUPE)
20003536:	c729                	c.beqz	a4,20003580 <gpio_input_en+0x5c>
E:/promotion/gitlab/telink_b91m_driver_sdk/telink_b91m_driver_sdk/chip/B91/drivers/gpio.c:68
	unsigned short group = pin & 0xf00;
20003538:	f0078793          	addi	a5,a5,-256
2000353c:	00a7f7b3          	and	a5,a5,a0
E:/promotion/gitlab/telink_b91m_driver_sdk/telink_b91m_driver_sdk/chip/B91/drivers/gpio.c:70
	if(group == GPIO_GROUPA || group == GPIO_GROUPB || group == GPIO_GROUPE)
20003540:	40000713          	li	a4,1024
20003544:	02e78e63          	beq	a5,a4,20003580 <gpio_input_en+0x5c>
E:/promotion/gitlab/telink_b91m_driver_sdk/telink_b91m_driver_sdk/chip/B91/drivers/gpio.c:75
    else if(group == GPIO_GROUPC)
20003548:	20000713          	li	a4,512
2000354c:	06e78063          	beq	a5,a4,200035ac <gpio_input_en+0x88>
E:/promotion/gitlab/telink_b91m_driver_sdk/telink_b91m_driver_sdk/chip/B91/drivers/gpio.c:80
    else if(group == GPIO_GROUPD)
20003550:	30000713          	li	a4,768
20003554:	04e79863          	bne	a5,a4,200035a4 <gpio_input_en+0x80>
E:/promotion/gitlab/telink_b91m_driver_sdk/telink_b91m_driver_sdk/chip/B91/drivers/gpio.c:82
    	analog_write_reg8(areg_gpio_pd_ie, analog_read_reg8(areg_gpio_pd_ie)|bit);
20003558:	0c000513          	li	a0,192
2000355c:	dfffd097          	auipc	ra,0xdfffd
20003560:	240080e7          	jalr	576(ra) # 79c <analog_read_reg8>
20003564:	008565b3          	or	a1,a0,s0
20003568:	0ff5f593          	andi	a1,a1,255
2000356c:	0c000513          	li	a0,192
E:/promotion/gitlab/telink_b91m_driver_sdk/telink_b91m_driver_sdk/chip/B91/drivers/gpio.c:84
}
20003570:	4422                	c.lwsp	s0,8(sp)
20003572:	40b2                	c.lwsp	ra,12(sp)
20003574:	01010113          	addi	sp,sp,16
E:/promotion/gitlab/telink_b91m_driver_sdk/telink_b91m_driver_sdk/chip/B91/drivers/gpio.c:82
    	analog_write_reg8(areg_gpio_pd_ie, analog_read_reg8(areg_gpio_pd_ie)|bit);
20003578:	dfffd317          	auipc	t1,0xdfffd
2000357c:	1e830067          	jr	488(t1) # 760 <analog_write_reg8>
E:/promotion/gitlab/telink_b91m_driver_sdk/telink_b91m_driver_sdk/chip/B91/drivers/gpio.c:72
		BM_SET(reg_gpio_ie(pin), bit);
20003580:	001407b7          	lui	a5,0x140
20003584:	30178793          	addi	a5,a5,769 # 140301 <FLASH_SIZE+0x40301>
20003588:	8121                	c.srli	a0,0x8
2000358a:	0ea7855b          	lea.d	a0,a5,a0
2000358e:	800007b7          	lui	a5,0x80000
20003592:	8d5d                	c.or	a0,a5
20003594:	00050583          	lb	a1,0(a0)
20003598:	0ff5f593          	andi	a1,a1,255
2000359c:	0085e5b3          	or	a1,a1,s0
200035a0:	00b50023          	sb	a1,0(a0)
E:/promotion/gitlab/telink_b91m_driver_sdk/telink_b91m_driver_sdk/chip/B91/drivers/gpio.c:84
}
200035a4:	40b2                	c.lwsp	ra,12(sp)
200035a6:	4422                	c.lwsp	s0,8(sp)
200035a8:	0141                	c.addi	sp,16
200035aa:	8082                	c.jr	ra
E:/promotion/gitlab/telink_b91m_driver_sdk/telink_b91m_driver_sdk/chip/B91/drivers/gpio.c:77
    	analog_write_reg8(areg_gpio_pc_ie, analog_read_reg8(areg_gpio_pc_ie)|bit);
200035ac:	0bd00513          	li	a0,189
200035b0:	dfffd097          	auipc	ra,0xdfffd
200035b4:	1ec080e7          	jalr	492(ra) # 79c <analog_read_reg8>
200035b8:	008565b3          	or	a1,a0,s0
200035bc:	0ff5f593          	andi	a1,a1,255
200035c0:	0bd00513          	li	a0,189
200035c4:	b775                	c.j	20003570 <gpio_input_en+0x4c>
200035c6:	0001                	c.nop

200035c8 <button_init>:
button_init():
E:/promotion/gitlab/telink_b91m_driver_sdk/telink_b91m_driver_sdk/demo/vendor/Mars_B91_Mother_V2.2/device/button.c:9
void button_init(struct Button* handle, uint8_t(*pin_level)()){
200035c8:	1141                	c.addi	sp,-16
200035ca:	c606                	c.swsp	ra,12(sp)
200035cc:	c422                	c.swsp	s0,8(sp)
200035ce:	c226                	c.swsp	s1,4(sp)
E:/promotion/gitlab/telink_b91m_driver_sdk/telink_b91m_driver_sdk/demo/vendor/Mars_B91_Mother_V2.2/device/button.c:10
    memset(handle, 0, sizeof(struct Button));
200035d0:	00052023          	sw	zero,0(a0)
E:/promotion/gitlab/telink_b91m_driver_sdk/telink_b91m_driver_sdk/demo/vendor/Mars_B91_Mother_V2.2/device/button.c:11
	handle->event = (uint8_t)NONE_PRESS;
200035d4:	f8000793          	li	a5,-128
E:/promotion/gitlab/telink_b91m_driver_sdk/telink_b91m_driver_sdk/demo/vendor/Mars_B91_Mother_V2.2/device/button.c:9
void button_init(struct Button* handle, uint8_t(*pin_level)()){
200035d8:	842a                	c.mv	s0,a0
E:/promotion/gitlab/telink_b91m_driver_sdk/telink_b91m_driver_sdk/demo/vendor/Mars_B91_Mother_V2.2/device/button.c:11
	handle->event = (uint8_t)NONE_PRESS;
200035da:	00f50123          	sb	a5,2(a0)
E:/promotion/gitlab/telink_b91m_driver_sdk/telink_b91m_driver_sdk/demo/vendor/Mars_B91_Mother_V2.2/device/button.c:10
    memset(handle, 0, sizeof(struct Button));
200035de:	00052423          	sw	zero,8(a0)
200035e2:	00052623          	sw	zero,12(a0)
200035e6:	00052823          	sw	zero,16(a0)
200035ea:	00052a23          	sw	zero,20(a0)
200035ee:	00052c23          	sw	zero,24(a0)
200035f2:	00052e23          	sw	zero,28(a0)
200035f6:	02052023          	sw	zero,32(a0)
200035fa:	02052223          	sw	zero,36(a0)
E:/promotion/gitlab/telink_b91m_driver_sdk/telink_b91m_driver_sdk/demo/vendor/Mars_B91_Mother_V2.2/device/button.c:9
void button_init(struct Button* handle, uint8_t(*pin_level)()){
200035fe:	84ae                	c.mv	s1,a1
E:/promotion/gitlab/telink_b91m_driver_sdk/telink_b91m_driver_sdk/demo/vendor/Mars_B91_Mother_V2.2/device/button.c:12
	handle->hal_button_Level = pin_level;
20003600:	c04c                	c.sw	a1,4(s0)
E:/promotion/gitlab/telink_b91m_driver_sdk/telink_b91m_driver_sdk/demo/vendor/Mars_B91_Mother_V2.2/device/button.c:13
	handle->button_level = handle->hal_button_Level();
20003602:	9582                	c.jalr	a1
20003604:	00340783          	lb	a5,3(s0)
20003608:	051e                	c.slli	a0,0x7
2000360a:	07f7f793          	andi	a5,a5,127
2000360e:	8fc9                	c.or	a5,a0
20003610:	00f401a3          	sb	a5,3(s0)
E:/promotion/gitlab/telink_b91m_driver_sdk/telink_b91m_driver_sdk/demo/vendor/Mars_B91_Mother_V2.2/device/button.c:14
	handle->active_level = !pin_level();
20003614:	9482                	c.jalr	s1
20003616:	00340783          	lb	a5,3(s0)
2000361a:	00153513          	seqz	a0,a0
2000361e:	051a                	c.slli	a0,0x6
20003620:	fbf7f793          	andi	a5,a5,-65
20003624:	8fc9                	c.or	a5,a0
20003626:	00f401a3          	sb	a5,3(s0)
E:/promotion/gitlab/telink_b91m_driver_sdk/telink_b91m_driver_sdk/demo/vendor/Mars_B91_Mother_V2.2/device/button.c:15
}
2000362a:	40b2                	c.lwsp	ra,12(sp)
2000362c:	4422                	c.lwsp	s0,8(sp)
2000362e:	4492                	c.lwsp	s1,4(sp)
20003630:	0141                	c.addi	sp,16
20003632:	8082                	c.jr	ra
20003634:	0001                	c.nop
	...

20003638 <main>:
main():
E:/promotion/gitlab/telink_b91m_driver_sdk/telink_b91m_driver_sdk/demo/vendor/Mars_B91_Mother_V2.2/main.c:36
 * @brief		This is main function
 * @param[in]	none
 * @return      none
 */
int main (void)   //must on ramcode
{
20003638:	7155                	c.addi16sp	sp,-208
sys_init():
C:/Users/Admin/Desktop/test1/telink_b91m_driver_src/chip/B91/drivers/lib/src/sys.c:114
2000363a:	ffbc07b7          	lui	a5,0xffbc0
2000363e:	17fd                	c.addi	a5,-1
20003640:	80140737          	lui	a4,0x80140
main():
E:/promotion/gitlab/telink_b91m_driver_sdk/telink_b91m_driver_sdk/demo/vendor/Mars_B91_Mother_V2.2/main.c:36
20003644:	c786                	c.swsp	ra,204(sp)
20003646:	c5a2                	c.swsp	s0,200(sp)
20003648:	c3a6                	c.swsp	s1,196(sp)
2000364a:	c1ca                	c.swsp	s2,192(sp)
2000364c:	df4e                	c.swsp	s3,188(sp)
2000364e:	dd52                	c.swsp	s4,184(sp)
20003650:	db56                	c.swsp	s5,180(sp)
20003652:	d95a                	c.swsp	s6,176(sp)
20003654:	d75e                	c.swsp	s7,172(sp)
20003656:	d562                	c.swsp	s8,168(sp)
20003658:	d366                	c.swsp	s9,164(sp)
2000365a:	d16a                	c.swsp	s10,160(sp)
2000365c:	cf6e                	c.swsp	s11,156(sp)
sys_init():
C:/Users/Admin/Desktop/test1/telink_b91m_driver_src/chip/B91/drivers/lib/src/sys.c:114
2000365e:	1ef72023          	sw	a5,480(a4) # 801401e0 <_DATA_LMA_START+0x60138208>
C:/Users/Admin/Desktop/test1/telink_b91m_driver_src/chip/B91/drivers/lib/src/sys.c:117
20003662:	4589                	c.li	a1,2
20003664:	08c00513          	li	a0,140
C:/Users/Admin/Desktop/test1/telink_b91m_driver_src/chip/B91/drivers/lib/src/sys.c:115
20003668:	1ef72223          	sw	a5,484(a4)
C:/Users/Admin/Desktop/test1/telink_b91m_driver_src/chip/B91/drivers/lib/src/sys.c:117
2000366c:	dfffd097          	auipc	ra,0xdfffd
20003670:	0f4080e7          	jalr	244(ra) # 760 <analog_write_reg8>
C:/Users/Admin/Desktop/test1/telink_b91m_driver_src/chip/B91/drivers/lib/src/sys.c:127
20003674:	4581                	c.li	a1,0
20003676:	4529                	c.li	a0,10
20003678:	dfffd097          	auipc	ra,0xdfffd
2000367c:	0e8080e7          	jalr	232(ra) # 760 <analog_write_reg8>
C:/Users/Admin/Desktop/test1/telink_b91m_driver_src/chip/B91/drivers/lib/src/sys.c:134
20003680:	03b00593          	li	a1,59
20003684:	00b00513          	li	a0,11
20003688:	dfffd097          	auipc	ra,0xdfffd
2000368c:	0d8080e7          	jalr	216(ra) # 760 <analog_write_reg8>
C:/Users/Admin/Desktop/test1/telink_b91m_driver_src/chip/B91/drivers/lib/src/sys.c:136
20003690:	00500513          	li	a0,5
20003694:	dfffd097          	auipc	ra,0xdfffd
20003698:	108080e7          	jalr	264(ra) # 79c <analog_read_reg8>
2000369c:	0f757593          	andi	a1,a0,247
200036a0:	00500513          	li	a0,5
200036a4:	dfffd097          	auipc	ra,0xdfffd
200036a8:	0bc080e7          	jalr	188(ra) # 760 <analog_write_reg8>
C:/Users/Admin/Desktop/test1/telink_b91m_driver_src/chip/B91/drivers/lib/src/sys.c:138
200036ac:	00600513          	li	a0,6
200036b0:	dfffd097          	auipc	ra,0xdfffd
200036b4:	0ec080e7          	jalr	236(ra) # 79c <analog_read_reg8>
200036b8:	03e57593          	andi	a1,a0,62
200036bc:	00600513          	li	a0,6
200036c0:	dfffd097          	auipc	ra,0xdfffd
200036c4:	0a0080e7          	jalr	160(ra) # 760 <analog_write_reg8>
C:/Users/Admin/Desktop/test1/telink_b91m_driver_src/chip/B91/drivers/lib/src/sys.c:143
200036c8:	04500593          	li	a1,69
200036cc:	00100513          	li	a0,1
200036d0:	dfffd097          	auipc	ra,0xdfffd
200036d4:	090080e7          	jalr	144(ra) # 760 <analog_write_reg8>
C:/Users/Admin/Desktop/test1/telink_b91m_driver_src/chip/B91/drivers/lib/src/sys.c:149
200036d8:	04c00593          	li	a1,76
200036dc:	01c00513          	li	a0,28
200036e0:	dfffd097          	auipc	ra,0xdfffd
200036e4:	080080e7          	jalr	128(ra) # 760 <analog_write_reg8>
200036e8:	001007b7          	lui	a5,0x100
200036ec:	44478693          	addi	a3,a5,1092 # 100444 <FLASH_SIZE+0x444>
C:\Users\Admin\Desktop\test1\telink_b91m_driver_src\chip\B91\drivers/dma.h:203
200036f0:	800005b7          	lui	a1,0x80000
C:/Users/Admin/Desktop/test1/telink_b91m_driver_src/chip/B91/drivers/lib/src/sys.c:153
200036f4:	4e478713          	addi	a4,a5,1252
C:\Users\Admin\Desktop\test1\telink_b91m_driver_src\chip\B91\drivers/dma.h:203
200036f8:	00b6e633          	or	a2,a3,a1
200036fc:	00060783          	lb	a5,0(a2)
20003700:	01468693          	addi	a3,a3,20
20003704:	0ff7f793          	andi	a5,a5,255
20003708:	00e7e793          	ori	a5,a5,14
2000370c:	00f60023          	sb	a5,0(a2)
C:/Users/Admin/Desktop/test1/telink_b91m_driver_src/chip/B91/drivers/lib/src/sys.c:153
20003710:	fee694e3          	bne	a3,a4,200036f8 <main+0xc0>
C:\Users\Admin\Desktop\test1\telink_b91m_driver_src\chip\B91\drivers/usbhw.h:154
20003714:	801017b7          	lui	a5,0x80101
20003718:	83a78703          	lb	a4,-1990(a5) # 8010083a <_DATA_LMA_START+0x600f8862>
pm_update_status_info():
C:/Users/Admin/Desktop/test1/telink_b91m_driver_src/chip/B91/drivers/lib/src/pm.c:223
2000371c:	03800513          	li	a0,56
sys_init():
C:\Users\Admin\Desktop\test1\telink_b91m_driver_src\chip\B91\drivers/usbhw.h:154
20003720:	82078d23          	sb	zero,-1990(a5)
pm_update_status_info():
C:/Users/Admin/Desktop/test1/telink_b91m_driver_src/chip/B91/drivers/lib/src/pm.c:223
20003724:	dfffd097          	auipc	ra,0xdfffd
20003728:	078080e7          	jalr	120(ra) # 79c <analog_read_reg8>
2000372c:	00a00433          	add	s0,zero,a0
C:/Users/Admin/Desktop/test1/telink_b91m_driver_src/chip/B91/drivers/lib/src/pm.c:224
20003730:	03900513          	li	a0,57
20003734:	dfffd097          	auipc	ra,0xdfffd
20003738:	068080e7          	jalr	104(ra) # 79c <analog_read_reg8>
2000373c:	84aa                	c.mv	s1,a0
C:/Users/Admin/Desktop/test1/telink_b91m_driver_src/chip/B91/drivers/lib/src/pm.c:226
2000373e:	0e04735b          	bbc	s0,0,20003824 <main+0x1ec>
20003742:	0fe47593          	andi	a1,s0,254
C:/Users/Admin/Desktop/test1/telink_b91m_driver_src/chip/B91/drivers/lib/src/pm.c:227
20003746:	1604ff5b          	bbc	s1,0,200038c4 <main+0x28c>
C:/Users/Admin/Desktop/test1/telink_b91m_driver_src/chip/B91/drivers/lib/src/pm.c:228
2000374a:	82df940b          	addigp	s0,-2004 # 8002c <g_pm_status_info>
2000374e:	4791                	c.li	a5,4
C:/Users/Admin/Desktop/test1/telink_b91m_driver_src/chip/B91/drivers/lib/src/pm.c:229
20003750:	03800513          	li	a0,56
C:/Users/Admin/Desktop/test1/telink_b91m_driver_src/chip/B91/drivers/lib/src/pm.c:228
20003754:	00f40123          	sb	a5,2(s0)
C:/Users/Admin/Desktop/test1/telink_b91m_driver_src/chip/B91/drivers/lib/src/pm.c:229
20003758:	dfffd097          	auipc	ra,0xdfffd
2000375c:	008080e7          	jalr	8(ra) # 760 <analog_write_reg8>
C:/Users/Admin/Desktop/test1/telink_b91m_driver_src/chip/B91/drivers/lib/src/pm.c:245
20003760:	00100593          	li	a1,1
20003764:	07f00513          	li	a0,127
20003768:	dfffd097          	auipc	ra,0xdfffd
2000376c:	ff8080e7          	jalr	-8(ra) # 760 <analog_write_reg8>
pm_get_wakeup_src():
C:\Users\Admin\Desktop\test1\telink_b91m_driver_src\chip\B91\drivers/lib/include/pm.h:224
20003770:	06400513          	li	a0,100
20003774:	dfffd097          	auipc	ra,0xdfffd
20003778:	028080e7          	jalr	40(ra) # 79c <analog_read_reg8>
pm_update_status_info():
C:/Users/Admin/Desktop/test1/telink_b91m_driver_src/chip/B91/drivers/lib/src/pm.c:247
2000377c:	0c3527db          	bfoz	a5,a0,3,3
C:/Users/Admin/Desktop/test1/telink_b91m_driver_src/chip/B91/drivers/lib/src/pm.c:246
20003780:	00a400a3          	sb	a0,1(s0)
C:/Users/Admin/Desktop/test1/telink_b91m_driver_src/chip/B91/drivers/lib/src/pm.c:247
20003784:	00f40023          	sb	a5,0(s0)
sys_init():
C:/Users/Admin/Desktop/test1/telink_b91m_driver_src/chip/B91/drivers/lib/src/sys.c:164
20003788:	08800513          	li	a0,136
2000378c:	dfffd097          	auipc	ra,0xdfffd
20003790:	010080e7          	jalr	16(ra) # 79c <analog_read_reg8>
20003794:	be757a5b          	bbc	a0,7,20003788 <main+0x150>
C:/Users/Admin/Desktop/test1/telink_b91m_driver_src/chip/B91/drivers/lib/src/sys.c:169
20003798:	dfffd097          	auipc	ra,0xdfffd
2000379c:	188080e7          	jalr	392(ra) # 920 <pm_wait_bbpll_done>
C:/Users/Admin/Desktop/test1/telink_b91m_driver_src/chip/B91/drivers/lib/src/sys.c:171
200037a0:	00244783          	lbu	a5,2(s0)
200037a4:	0e87d45b          	beqc	a5,8,2000388c <main+0x254>
C:/Users/Admin/Desktop/test1/telink_b91m_driver_src/chip/B91/drivers/lib/src/sys.c:176
200037a8:	80140737          	lui	a4,0x80140
200037ac:	20a70783          	lb	a5,522(a4) # 8014020a <_DATA_LMA_START+0x60138232>
200037b0:	0ff7f793          	andi	a5,a5,255
200037b4:	00c7e793          	ori	a5,a5,12
200037b8:	20f70523          	sb	a5,522(a4)
C:/Users/Admin/Desktop/test1/telink_b91m_driver_src/chip/B91/drivers/lib/src/sys.c:177
200037bc:	00100793          	li	a5,1
200037c0:	20f72023          	sw	a5,512(a4)
C:/Users/Admin/Desktop/test1/telink_b91m_driver_src/chip/B91/drivers/lib/src/sys.c:183
200037c4:	801404b7          	lui	s1,0x80140
200037c8:	1fd48783          	lb	a5,509(s1) # 801401fd <_DATA_LMA_START+0x60138225>
200037cc:	0ff7f793          	andi	a5,a5,255
200037d0:	82ffc3ab          	swgp	a5,-2012 # 80024 <g_chip_version>
C:/Users/Admin/Desktop/test1/telink_b91m_driver_src/chip/B91/drivers/lib/src/sys.c:186
200037d4:	00244703          	lbu	a4,2(s0)
200037d8:	06475e5b          	beqc	a4,4,20003854 <main+0x21c>
C:/Users/Admin/Desktop/test1/telink_b91m_driver_src/chip/B91/drivers/lib/src/sys.c:194
200037dc:	0ff00693          	li	a3,255
200037e0:	06d78263          	beq	a5,a3,20003844 <main+0x20c>
C:/Users/Admin/Desktop/test1/telink_b91m_driver_src/chip/B91/drivers/lib/src/sys.c:202
200037e4:	08000593          	li	a1,128
200037e8:	07d00513          	li	a0,125
200037ec:	dfffd097          	auipc	ra,0xdfffd
200037f0:	f74080e7          	jalr	-140(ra) # 760 <analog_write_reg8>
efuse_get_low_word():
C:/Users/Admin/Desktop/test1/telink_b91m_driver_src/chip/B91/drivers/lib/src/sys.c:268
200037f4:	80140737          	lui	a4,0x80140
200037f8:	06500793          	li	a5,101
200037fc:	1ef70a23          	sb	a5,500(a4) # 801401f4 <_DATA_LMA_START+0x6013821c>
C:/Users/Admin/Desktop/test1/telink_b91m_driver_src/chip/B91/drivers/lib/src/sys.c:269
20003800:	1c872783          	lw	a5,456(a4)
C:/Users/Admin/Desktop/test1/telink_b91m_driver_src/chip/B91/drivers/lib/src/sys.c:270
20003804:	1e070a23          	sb	zero,500(a4)
efuse_check_protection_code():
C:/Users/Admin/Desktop/test1/telink_b91m_driver_src/chip/B91/drivers/lib/src/sys.c:63
20003808:	8bbd                	c.andi	a5,15
C:/Users/Admin/Desktop/test1/telink_b91m_driver_src/chip/B91/drivers/lib/src/sys.c:67
2000380a:	0037d55b          	beqc	a5,3,20003814 <main+0x1dc>
2000380e:	4725                	c.li	a4,9
20003810:	0ef77263          	bgeu	a4,a5,200038f4 <main+0x2bc>
C:/Users/Admin/Desktop/test1/telink_b91m_driver_src/chip/B91/drivers/lib/src/sys.c:69
20003814:	801407b7          	lui	a5,0x80140
20003818:	02000713          	li	a4,32
2000381c:	1ee787a3          	sb	a4,495(a5) # 801401ef <_DATA_LMA_START+0x60138217>
20003820:	0000006f          	j	20003820 <main+0x1e8>
pm_get_deep_retention_flag():
C:\Users\Admin\Desktop\test1\telink_b91m_driver_src\chip\B91\drivers/lib/include/pm.h:215
20003824:	07f00513          	li	a0,127
20003828:	dfffd097          	auipc	ra,0xdfffd
2000382c:	f74080e7          	jalr	-140(ra) # 79c <analog_read_reg8>
pm_update_status_info():
C:/Users/Admin/Desktop/test1/telink_b91m_driver_src/chip/B91/drivers/lib/src/pm.c:236
20003830:	0805745b          	bbc	a0,0,200038b8 <main+0x280>
C:/Users/Admin/Desktop/test1/telink_b91m_driver_src/chip/B91/drivers/lib/src/pm.c:238
20003834:	4614f25b          	bbs	s1,1,20003898 <main+0x260>
C:/Users/Admin/Desktop/test1/telink_b91m_driver_src/chip/B91/drivers/lib/src/pm.c:242
20003838:	82df940b          	addigp	s0,-2004 # 8002c <g_pm_status_info>
2000383c:	47c1                	c.li	a5,16
2000383e:	00f40123          	sb	a5,2(s0)
20003842:	bf39                	c.j	20003760 <main+0x128>
sys_init():
C:/Users/Admin/Desktop/test1/telink_b91m_driver_src/chip/B91/drivers/lib/src/sys.c:196
20003844:	ba17605b          	bnec	a4,1,200037e4 <main+0x1ac>
C:/Users/Admin/Desktop/test1/telink_b91m_driver_src/chip/B91/drivers/lib/src/sys.c:198
20003848:	07d00513          	li	a0,125
2000384c:	08000593          	li	a1,128
20003850:	01c0006f          	j	2000386c <main+0x234>
C:/Users/Admin/Desktop/test1/telink_b91m_driver_src/chip/B91/drivers/lib/src/sys.c:189
20003854:	03900513          	li	a0,57
20003858:	dfffd097          	auipc	ra,0xdfffd
2000385c:	f44080e7          	jalr	-188(ra) # 79c <analog_read_reg8>
20003860:	00256593          	ori	a1,a0,2
20003864:	0ff5f593          	andi	a1,a1,255
20003868:	03900513          	li	a0,57
C:/Users/Admin/Desktop/test1/telink_b91m_driver_src/chip/B91/drivers/lib/src/sys.c:198
2000386c:	dfffd097          	auipc	ra,0xdfffd
20003870:	ef4080e7          	jalr	-268(ra) # 760 <analog_write_reg8>
C:\Users\Admin\Desktop\test1\telink_b91m_driver_src\chip\B91\drivers/stimer.h:168
20003874:	2004a503          	lw	a0,512(s1)
C:/Users/Admin/Desktop/test1/telink_b91m_driver_src/chip/B91/drivers/lib/src/sys.c:199
20003878:	001877b7          	lui	a5,0x187
2000387c:	a0078793          	addi	a5,a5,-1536 # 186a00 <FLASH_SIZE+0x86a00>
20003880:	00f50533          	add	a0,a0,a5
20003884:	b0cff0ef          	jal	ra,20002b90 <pm_sleep_wakeup.constprop.1>
20003888:	f5dff06f          	j	200037e4 <main+0x1ac>
C:/Users/Admin/Desktop/test1/telink_b91m_driver_src/chip/B91/drivers/lib/src/sys.c:173
2000388c:	dfffd097          	auipc	ra,0xdfffd
20003890:	c30080e7          	jalr	-976(ra) # 4bc <pm_stimer_recover>
20003894:	f31ff06f          	j	200037c4 <main+0x18c>
pm_update_status_info():
C:/Users/Admin/Desktop/test1/telink_b91m_driver_src/chip/B91/drivers/lib/src/pm.c:239
20003898:	82df940b          	addigp	s0,-2004 # 8002c <g_pm_status_info>
2000389c:	02000793          	li	a5,32
C:/Users/Admin/Desktop/test1/telink_b91m_driver_src/chip/B91/drivers/lib/src/pm.c:240
200038a0:	0fd4f593          	andi	a1,s1,253
200038a4:	03900513          	li	a0,57
C:/Users/Admin/Desktop/test1/telink_b91m_driver_src/chip/B91/drivers/lib/src/pm.c:239
200038a8:	00f40123          	sb	a5,2(s0)
C:/Users/Admin/Desktop/test1/telink_b91m_driver_src/chip/B91/drivers/lib/src/pm.c:240
200038ac:	dfffd097          	auipc	ra,0xdfffd
200038b0:	eb4080e7          	jalr	-332(ra) # 760 <analog_write_reg8>
200038b4:	eadff06f          	j	20003760 <main+0x128>
C:/Users/Admin/Desktop/test1/telink_b91m_driver_src/chip/B91/drivers/lib/src/pm.c:237
200038b8:	82df940b          	addigp	s0,-2004 # 8002c <g_pm_status_info>
200038bc:	47a1                	c.li	a5,8
200038be:	00f40123          	sb	a5,2(s0)
200038c2:	bd79                	c.j	20003760 <main+0x128>
C:/Users/Admin/Desktop/test1/telink_b91m_driver_src/chip/B91/drivers/lib/src/pm.c:231
200038c4:	00100793          	li	a5,1
200038c8:	82df940b          	addigp	s0,-2004 # 8002c <g_pm_status_info>
C:/Users/Admin/Desktop/test1/telink_b91m_driver_src/chip/B91/drivers/lib/src/pm.c:232
200038cc:	03800513          	li	a0,56
C:/Users/Admin/Desktop/test1/telink_b91m_driver_src/chip/B91/drivers/lib/src/pm.c:231
200038d0:	00f40123          	sb	a5,2(s0)
C:/Users/Admin/Desktop/test1/telink_b91m_driver_src/chip/B91/drivers/lib/src/pm.c:232
200038d4:	dfffd097          	auipc	ra,0xdfffd
200038d8:	e8c080e7          	jalr	-372(ra) # 760 <analog_write_reg8>
C:/Users/Admin/Desktop/test1/telink_b91m_driver_src/chip/B91/drivers/lib/src/pm.c:233
200038dc:	0014e593          	ori	a1,s1,1
200038e0:	0ff5f593          	andi	a1,a1,255
200038e4:	03900513          	li	a0,57
200038e8:	dfffd097          	auipc	ra,0xdfffd
200038ec:	e78080e7          	jalr	-392(ra) # 760 <analog_write_reg8>
200038f0:	e71ff06f          	j	20003760 <main+0x128>
user_read_flash_value_calib():
E:/promotion/gitlab/telink_b91m_driver_sdk/telink_b91m_driver_sdk/demo/vendor/common/B91/calibration/calibration.c:145
	unsigned char flash_mid[4];
	unsigned char flash_uid[16];
	unsigned char flash_mid_sure = 0;

	/******check for flash mid********/
	flash_mid_sure = flash_read_mid_uid_with_check((unsigned int *)flash_mid, flash_uid);
200038f4:	08ec                	c.addi4spn	a1,sp,92
200038f6:	00e8                	c.addi4spn	a0,sp,76
200038f8:	9c0ff0ef          	jal	ra,20002ab8 <flash_read_mid_uid_with_check>
E:/promotion/gitlab/telink_b91m_driver_sdk/telink_b91m_driver_sdk/demo/vendor/common/B91/calibration/calibration.c:147

	if (1 == flash_mid_sure)
200038fc:	0ff57513          	andi	a0,a0,255
20003900:	0015545b          	beqc	a0,1,20003908 <main+0x2d0>
20003904:	0580106f          	j	2000495c <main+0x1324>
E:/promotion/gitlab/telink_b91m_driver_sdk/telink_b91m_driver_sdk/demo/vendor/common/B91/calibration/calibration.c:149
	{
		switch (flash_mid[2])
20003908:	04e14783          	lbu	a5,78(sp)
2000390c:	474d                	c.li	a4,19
2000390e:	0137e45b          	bnec	a5,19,20003916 <main+0x2de>
20003912:	3e20106f          	j	20004cf4 <main+0x16bc>
20003916:	00f76463          	bltu	a4,a5,2000391e <main+0x2e6>
2000391a:	3ba0106f          	j	20004cd4 <main+0x169c>
2000391e:	4755                	c.li	a4,21
20003920:	0157e45b          	bnec	a5,21,20003928 <main+0x2f0>
20003924:	3980106f          	j	20004cbc <main+0x1684>
20003928:	00e7f463          	bgeu	a5,a4,20003930 <main+0x2f8>
2000392c:	3780106f          	j	20004ca4 <main+0x166c>
20003930:	0167d45b          	beqc	a5,22,20003938 <main+0x300>
20003934:	0280106f          	j	2000495c <main+0x1324>
E:/promotion/gitlab/telink_b91m_driver_sdk/telink_b91m_driver_sdk/demo/vendor/common/B91/calibration/calibration.c:172
			case FLASH_SIZE_2M:
				user_calib_adc_vref(USER_CALIB_FROM_FLASH, FLASH_ADC_VREF_CALIB_ADDR_2M);
				user_calib_freq_offset(USER_CALIB_FROM_FLASH, FLASH_CAP_VALUE_ADDR_2M);
				break;
			case FLASH_SIZE_4M:
				user_calib_adc_vref(USER_CALIB_FROM_FLASH, FLASH_ADC_VREF_CALIB_ADDR_4M);
20003938:	003fe537          	lui	a0,0x3fe
2000393c:	0c050513          	addi	a0,a0,192 # 3fe0c0 <FLASH_SIZE+0x2fe0c0>
20003940:	a6cff0ef          	jal	ra,20002bac <user_calib_adc_vref.constprop.44>
E:/promotion/gitlab/telink_b91m_driver_sdk/telink_b91m_driver_sdk/demo/vendor/common/B91/calibration/calibration.c:173
				user_calib_freq_offset(USER_CALIB_FROM_FLASH, FLASH_CAP_VALUE_ADDR_4M);
20003944:	003fe537          	lui	a0,0x3fe
20003948:	ac9ff0ef          	jal	ra,20003410 <user_calib_freq_offset.constprop.43>
gpio_function_en():
E:/promotion/gitlab/telink_b91m_driver_sdk/telink_b91m_driver_sdk/chip/B91/drivers/gpio.h:194
	BM_SET(reg_gpio_func(pin), bit);
2000394c:	80140437          	lui	s0,0x80140
main():
E:/promotion/gitlab/telink_b91m_driver_sdk/telink_b91m_driver_sdk/demo/vendor/Mars_B91_Mother_V2.2/main.c:42
#if(MCU_CORE_B91)
	sys_init(LDO_1P4_LDO_1P8, VBAT_MAX_VALUE_GREATER_THAN_3V6);
	//Note: This function can improve the performance of some modules, which is described in the function comments.
	//Called immediately after sys_init, set in other positions, some calibration values may not take effect.
	user_read_flash_value_calib();
	CCLK_96M_HCLK_48M_PCLK_24M;
20003950:	a24ff0ef          	jal	ra,20002b74 <clock_init.constprop.4>
gpio_function_en():
E:/promotion/gitlab/telink_b91m_driver_sdk/telink_b91m_driver_sdk/chip/B91/drivers/gpio.h:194
20003954:	30e40783          	lb	a5,782(s0) # 8014030e <_DATA_LMA_START+0x60138336>
user_init():
E:/promotion/gitlab/telink_b91m_driver_sdk/telink_b91m_driver_sdk/demo/vendor/Mars_B91_Mother_V2.2/app_all.c:18

void user_init()
{
	gpio_function_en(LED);
	gpio_output_en(LED);
	gpio_input_dis(LED);
20003958:	14000513          	li	a0,320
gpio_function_en():
E:/promotion/gitlab/telink_b91m_driver_sdk/telink_b91m_driver_sdk/chip/B91/drivers/gpio.h:194
2000395c:	0ff7f793          	andi	a5,a5,255
20003960:	0407e793          	ori	a5,a5,64
20003964:	30f40723          	sb	a5,782(s0)
gpio_output_en():
E:/promotion/gitlab/telink_b91m_driver_sdk/telink_b91m_driver_sdk/chip/B91/drivers/gpio.h:302
 * @return     none.
 */
static inline void gpio_output_en(gpio_pin_e pin)
{
	unsigned char	bit = pin & 0xff;
	BM_CLR(reg_gpio_oen(pin), bit);
20003968:	30a40783          	lb	a5,778(s0)
2000396c:	0bf7f793          	andi	a5,a5,191
20003970:	30f40523          	sb	a5,778(s0)
user_init():
E:/promotion/gitlab/telink_b91m_driver_sdk/telink_b91m_driver_sdk/demo/vendor/Mars_B91_Mother_V2.2/app_all.c:18
20003974:	b85ff0ef          	jal	ra,200034f8 <gpio_input_dis>
i2c_set_pin():
E:/promotion/gitlab/telink_b91m_driver_sdk/telink_b91m_driver_sdk/chip/B91/drivers/i2c.c:98
	gpio_input_en(sda_pin);//enable sda input
20003978:	20400513          	li	a0,516
2000397c:	ba9ff0ef          	jal	ra,20003524 <gpio_input_en>
E:/promotion/gitlab/telink_b91m_driver_sdk/telink_b91m_driver_sdk/chip/B91/drivers/i2c.c:99
	gpio_input_en(scl_pin);//enable scl input
20003980:	40100513          	li	a0,1025
20003984:	ba1ff0ef          	jal	ra,20003524 <gpio_input_en>
E:/promotion/gitlab/telink_b91m_driver_sdk/telink_b91m_driver_sdk/chip/B91/drivers/i2c.c:100
	gpio_set_up_down_res(sda_pin, GPIO_PIN_PULLUP_10K);
20003988:	20400513          	li	a0,516
2000398c:	ae5ff0ef          	jal	ra,20003470 <gpio_set_up_down_res.constprop.38>
E:/promotion/gitlab/telink_b91m_driver_sdk/telink_b91m_driver_sdk/chip/B91/drivers/i2c.c:101
	gpio_set_up_down_res(scl_pin, GPIO_PIN_PULLUP_10K);
20003990:	40100513          	li	a0,1025
20003994:	addff0ef          	jal	ra,20003470 <gpio_set_up_down_res.constprop.38>
E:/promotion/gitlab/telink_b91m_driver_sdk/telink_b91m_driver_sdk/chip/B91/drivers/i2c.c:127
	reg_gpio_func_mux(sda_pin)=(reg_gpio_func_mux(sda_pin)& mask)|val;
20003998:	33440783          	lb	a5,820(s0)
user_init():
E:/promotion/gitlab/telink_b91m_driver_sdk/telink_b91m_driver_sdk/demo/vendor/Mars_B91_Mother_V2.2/app_all.c:21
    i2c_set_pin(I2C_GPIO_SDA_PIN,I2C_GPIO_SCL_PIN);
    i2c_master_init();
	i2c_set_master_clk((unsigned char)(sys_clk.pclk*1000*1000/(4*I2C_CLK_SPEED)));
2000399c:	805f948b          	addigp	s1,-2044 # 80004 <sys_clk>
i2c_set_pin():
E:/promotion/gitlab/telink_b91m_driver_sdk/telink_b91m_driver_sdk/chip/B91/drivers/i2c.c:127
200039a0:	0cf7f793          	andi	a5,a5,207
200039a4:	32f40a23          	sb	a5,820(s0)
E:/promotion/gitlab/telink_b91m_driver_sdk/telink_b91m_driver_sdk/chip/B91/drivers/i2c.c:149
	reg_gpio_func_mux(scl_pin)=(reg_gpio_func_mux(scl_pin)& mask)|val;
200039a8:	35040783          	lb	a5,848(s0)
user_init():
E:/promotion/gitlab/telink_b91m_driver_sdk/telink_b91m_driver_sdk/demo/vendor/Mars_B91_Mother_V2.2/app_all.c:21
200039ac:	0044c703          	lbu	a4,4(s1)
i2c_set_pin():
E:/promotion/gitlab/telink_b91m_driver_sdk/telink_b91m_driver_sdk/chip/B91/drivers/i2c.c:149
200039b0:	0fc7f793          	andi	a5,a5,252
200039b4:	34f40823          	sb	a5,848(s0)
gpio_function_dis():
E:/promotion/gitlab/telink_b91m_driver_sdk/telink_b91m_driver_sdk/chip/B91/drivers/gpio.h:206
	BM_CLR(reg_gpio_func(pin), bit);
200039b8:	32640783          	lb	a5,806(s0)
user_init():
E:/promotion/gitlab/telink_b91m_driver_sdk/telink_b91m_driver_sdk/demo/vendor/Mars_B91_Mother_V2.2/app_all.c:21
200039bc:	8309                	c.srli	a4,0x2
gpio_function_dis():
E:/promotion/gitlab/telink_b91m_driver_sdk/telink_b91m_driver_sdk/chip/B91/drivers/gpio.h:206
200039be:	0fe7f793          	andi	a5,a5,254
200039c2:	32f40323          	sb	a5,806(s0)
200039c6:	31640783          	lb	a5,790(s0)
WriteCmd():
E:/promotion/gitlab/telink_b91m_driver_sdk/telink_b91m_driver_sdk/demo/vendor/Mars_B91_Mother_V2.2/device/oled.c:8
	uint8_t write_buff[2] = {0x00,I2C_Command};
200039ca:	7a6d                	c.lui	s4,0xffffb
gpio_function_dis():
E:/promotion/gitlab/telink_b91m_driver_sdk/telink_b91m_driver_sdk/chip/B91/drivers/gpio.h:206
200039cc:	0fb7f793          	andi	a5,a5,251
200039d0:	30f40b23          	sb	a5,790(s0)
i2c_master_init():
E:/promotion/gitlab/telink_b91m_driver_sdk/telink_b91m_driver_sdk/chip/B91/drivers/i2c.c:162
	reg_i2c_sct0  |=  FLD_I2C_MASTER;       //i2c master enable.
200039d4:	28340783          	lb	a5,643(s0)
WriteCmd():
E:/promotion/gitlab/telink_b91m_driver_sdk/telink_b91m_driver_sdk/demo/vendor/Mars_B91_Mother_V2.2/device/oled.c:8
200039d8:	7c75                	c.lui	s8,0xffffd
i2c_master_init():
E:/promotion/gitlab/telink_b91m_driver_sdk/telink_b91m_driver_sdk/chip/B91/drivers/i2c.c:162
200039da:	0ff7f793          	andi	a5,a5,255
200039de:	0017e793          	ori	a5,a5,1
200039e2:	28f401a3          	sb	a5,643(s0)
i2c_master_stretch_en():
E:/promotion/gitlab/telink_b91m_driver_sdk/telink_b91m_driver_sdk/chip/B91/drivers/i2c.h:302
 *           If stretch is enabled on the slave, the master needs to be enabled,by default, it is enabled on the interface i2c_master_init.
 *@return    none.
 */
static inline void i2c_master_stretch_en(void){

	reg_i2c_sct0 |=FLD_I2C_R_CLK_STRETCH_EN;
200039e6:	28340783          	lb	a5,643(s0)
WriteCmd():
E:/promotion/gitlab/telink_b91m_driver_sdk/telink_b91m_driver_sdk/demo/vendor/Mars_B91_Mother_V2.2/device/oled.c:8
200039ea:	7be1                	c.lui	s7,0xffff8
i2c_master_stretch_en():
E:/promotion/gitlab/telink_b91m_driver_sdk/telink_b91m_driver_sdk/chip/B91/drivers/i2c.h:302
200039ec:	0ff7f793          	andi	a5,a5,255
200039f0:	0027e793          	ori	a5,a5,2
200039f4:	28f401a3          	sb	a5,643(s0)
i2c_set_master_clk():
E:/promotion/gitlab/telink_b91m_driver_sdk/telink_b91m_driver_sdk/chip/B91/drivers/i2c.c:178
	reg_i2c_sp = clock;
200039f8:	28e40023          	sb	a4,640(s0)
E:/promotion/gitlab/telink_b91m_driver_sdk/telink_b91m_driver_sdk/chip/B91/drivers/i2c.c:181
    reg_clk_en0 |= FLD_CLK0_I2C_EN;
200039fc:	1e440783          	lb	a5,484(s0)
WriteCmd():
E:/promotion/gitlab/telink_b91m_driver_sdk/telink_b91m_driver_sdk/demo/vendor/Mars_B91_Mother_V2.2/device/oled.c:8
20003a00:	ffffeab7          	lui	s5,0xffffe
i2c_set_master_clk():
E:/promotion/gitlab/telink_b91m_driver_sdk/telink_b91m_driver_sdk/chip/B91/drivers/i2c.c:181
20003a04:	0ff7f793          	andi	a5,a5,255
20003a08:	0027e793          	ori	a5,a5,2
20003a0c:	1ef40223          	sb	a5,484(s0)
OLED_Init():
E:/promotion/gitlab/telink_b91m_driver_sdk/telink_b91m_driver_sdk/demo/vendor/Mars_B91_Mother_V2.2/device/oled.c:133
	}
}

void OLED_Init(void)
{
	delay_ms(100);
20003a10:	dfffc097          	auipc	ra,0xdfffc
20003a14:	7f0080e7          	jalr	2032(ra) # 200 <delay_ms.constprop.34>
WriteCmd():
E:/promotion/gitlab/telink_b91m_driver_sdk/telink_b91m_driver_sdk/demo/vendor/Mars_B91_Mother_V2.2/device/oled.c:8
	uint8_t write_buff[2] = {0x00,I2C_Command};
20003a18:	e00a0793          	addi	a5,s4,-512 # ffffae00 <_DATA_LMA_START+0xdfff2e28>
E:/promotion/gitlab/telink_b91m_driver_sdk/telink_b91m_driver_sdk/demo/vendor/Mars_B91_Mother_V2.2/device/oled.c:9
	i2c_master_write(OLED_ADDR,write_buff, 2);
20003a1c:	4609                	c.li	a2,2
20003a1e:	08ec                	c.addi4spn	a1,sp,92
20003a20:	07800513          	li	a0,120
E:/promotion/gitlab/telink_b91m_driver_sdk/telink_b91m_driver_sdk/demo/vendor/Mars_B91_Mother_V2.2/device/oled.c:8
	uint8_t write_buff[2] = {0x00,I2C_Command};
20003a24:	04f11e23          	sh	a5,92(sp)
E:/promotion/gitlab/telink_b91m_driver_sdk/telink_b91m_driver_sdk/demo/vendor/Mars_B91_Mother_V2.2/device/oled.c:9
	i2c_master_write(OLED_ADDR,write_buff, 2);
20003a28:	da0ff0ef          	jal	ra,20002fc8 <i2c_master_write>
E:/promotion/gitlab/telink_b91m_driver_sdk/telink_b91m_driver_sdk/demo/vendor/Mars_B91_Mother_V2.2/device/oled.c:8
	uint8_t write_buff[2] = {0x00,I2C_Command};
20003a2c:	500c0793          	addi	a5,s8,1280 # ffffd500 <_DATA_LMA_START+0xdfff5528>
E:/promotion/gitlab/telink_b91m_driver_sdk/telink_b91m_driver_sdk/demo/vendor/Mars_B91_Mother_V2.2/device/oled.c:9
	i2c_master_write(OLED_ADDR,write_buff, 2);
20003a30:	4609                	c.li	a2,2
20003a32:	08ec                	c.addi4spn	a1,sp,92
20003a34:	07800513          	li	a0,120
E:/promotion/gitlab/telink_b91m_driver_sdk/telink_b91m_driver_sdk/demo/vendor/Mars_B91_Mother_V2.2/device/oled.c:8
	uint8_t write_buff[2] = {0x00,I2C_Command};
20003a38:	04f11e23          	sh	a5,92(sp)
E:/promotion/gitlab/telink_b91m_driver_sdk/telink_b91m_driver_sdk/demo/vendor/Mars_B91_Mother_V2.2/device/oled.c:9
	i2c_master_write(OLED_ADDR,write_buff, 2);
20003a3c:	d8cff0ef          	jal	ra,20002fc8 <i2c_master_write>
20003a40:	4609                	c.li	a2,2
20003a42:	08ec                	c.addi4spn	a1,sp,92
20003a44:	07800513          	li	a0,120
E:/promotion/gitlab/telink_b91m_driver_sdk/telink_b91m_driver_sdk/demo/vendor/Mars_B91_Mother_V2.2/device/oled.c:8
	uint8_t write_buff[2] = {0x00,I2C_Command};
20003a48:	05711e23          	sh	s7,92(sp)
E:/promotion/gitlab/telink_b91m_driver_sdk/telink_b91m_driver_sdk/demo/vendor/Mars_B91_Mother_V2.2/device/oled.c:9
	i2c_master_write(OLED_ADDR,write_buff, 2);
20003a4c:	d7cff0ef          	jal	ra,20002fc8 <i2c_master_write>
E:/promotion/gitlab/telink_b91m_driver_sdk/telink_b91m_driver_sdk/demo/vendor/Mars_B91_Mother_V2.2/device/oled.c:8
	uint8_t write_buff[2] = {0x00,I2C_Command};
20003a50:	800a0793          	addi	a5,s4,-2048
E:/promotion/gitlab/telink_b91m_driver_sdk/telink_b91m_driver_sdk/demo/vendor/Mars_B91_Mother_V2.2/device/oled.c:9
	i2c_master_write(OLED_ADDR,write_buff, 2);
20003a54:	4609                	c.li	a2,2
20003a56:	08ec                	c.addi4spn	a1,sp,92
20003a58:	07800513          	li	a0,120
E:/promotion/gitlab/telink_b91m_driver_sdk/telink_b91m_driver_sdk/demo/vendor/Mars_B91_Mother_V2.2/device/oled.c:8
	uint8_t write_buff[2] = {0x00,I2C_Command};
20003a5c:	04f11e23          	sh	a5,92(sp)
E:/promotion/gitlab/telink_b91m_driver_sdk/telink_b91m_driver_sdk/demo/vendor/Mars_B91_Mother_V2.2/device/oled.c:9
	i2c_master_write(OLED_ADDR,write_buff, 2);
20003a60:	d68ff0ef          	jal	ra,20002fc8 <i2c_master_write>
E:/promotion/gitlab/telink_b91m_driver_sdk/telink_b91m_driver_sdk/demo/vendor/Mars_B91_Mother_V2.2/device/oled.c:8
	uint8_t write_buff[2] = {0x00,I2C_Command};
20003a64:	6791                	c.lui	a5,0x4
20003a66:	f0078793          	addi	a5,a5,-256 # 3f00 <_RAMCODE_VMA_END+0x15fe>
E:/promotion/gitlab/telink_b91m_driver_sdk/telink_b91m_driver_sdk/demo/vendor/Mars_B91_Mother_V2.2/device/oled.c:9
	i2c_master_write(OLED_ADDR,write_buff, 2);
20003a6a:	4609                	c.li	a2,2
20003a6c:	05c10593          	addi	a1,sp,92
20003a70:	07800513          	li	a0,120
E:/promotion/gitlab/telink_b91m_driver_sdk/telink_b91m_driver_sdk/demo/vendor/Mars_B91_Mother_V2.2/device/oled.c:8
	uint8_t write_buff[2] = {0x00,I2C_Command};
20003a74:	04f11e23          	sh	a5,92(sp)
E:/promotion/gitlab/telink_b91m_driver_sdk/telink_b91m_driver_sdk/demo/vendor/Mars_B91_Mother_V2.2/device/oled.c:9
	i2c_master_write(OLED_ADDR,write_buff, 2);
20003a78:	d50ff0ef          	jal	ra,20002fc8 <i2c_master_write>
20003a7c:	4609                	c.li	a2,2
20003a7e:	08ec                	c.addi4spn	a1,sp,92
E:/promotion/gitlab/telink_b91m_driver_sdk/telink_b91m_driver_sdk/demo/vendor/Mars_B91_Mother_V2.2/device/oled.c:8
	uint8_t write_buff[2] = {0x00,I2C_Command};
20003a80:	300c0c13          	addi	s8,s8,768
E:/promotion/gitlab/telink_b91m_driver_sdk/telink_b91m_driver_sdk/demo/vendor/Mars_B91_Mother_V2.2/device/oled.c:9
	i2c_master_write(OLED_ADDR,write_buff, 2);
20003a84:	07800513          	li	a0,120
E:/promotion/gitlab/telink_b91m_driver_sdk/telink_b91m_driver_sdk/demo/vendor/Mars_B91_Mother_V2.2/device/oled.c:8
	uint8_t write_buff[2] = {0x00,I2C_Command};
20003a88:	05811e23          	sh	s8,92(sp)
E:/promotion/gitlab/telink_b91m_driver_sdk/telink_b91m_driver_sdk/demo/vendor/Mars_B91_Mother_V2.2/device/oled.c:9
	i2c_master_write(OLED_ADDR,write_buff, 2);
20003a8c:	d3cff0ef          	jal	ra,20002fc8 <i2c_master_write>
20003a90:	4609                	c.li	a2,2
20003a92:	08ec                	c.addi4spn	a1,sp,92
20003a94:	07800513          	li	a0,120
E:/promotion/gitlab/telink_b91m_driver_sdk/telink_b91m_driver_sdk/demo/vendor/Mars_B91_Mother_V2.2/device/oled.c:8
	uint8_t write_buff[2] = {0x00,I2C_Command};
20003a98:	04011e23          	sh	zero,92(sp)
E:/promotion/gitlab/telink_b91m_driver_sdk/telink_b91m_driver_sdk/demo/vendor/Mars_B91_Mother_V2.2/device/oled.c:9
	i2c_master_write(OLED_ADDR,write_buff, 2);
20003a9c:	d2cff0ef          	jal	ra,20002fc8 <i2c_master_write>
E:/promotion/gitlab/telink_b91m_driver_sdk/telink_b91m_driver_sdk/demo/vendor/Mars_B91_Mother_V2.2/device/oled.c:8
	uint8_t write_buff[2] = {0x00,I2C_Command};
20003aa0:	a00a8793          	addi	a5,s5,-1536 # ffffda00 <_DATA_LMA_START+0xdfff5a28>
E:/promotion/gitlab/telink_b91m_driver_sdk/telink_b91m_driver_sdk/demo/vendor/Mars_B91_Mother_V2.2/device/oled.c:9
	i2c_master_write(OLED_ADDR,write_buff, 2);
20003aa4:	4609                	c.li	a2,2
20003aa6:	08ec                	c.addi4spn	a1,sp,92
20003aa8:	07800513          	li	a0,120
E:/promotion/gitlab/telink_b91m_driver_sdk/telink_b91m_driver_sdk/demo/vendor/Mars_B91_Mother_V2.2/device/oled.c:8
	uint8_t write_buff[2] = {0x00,I2C_Command};
20003aac:	04f11e23          	sh	a5,92(sp)
E:/promotion/gitlab/telink_b91m_driver_sdk/telink_b91m_driver_sdk/demo/vendor/Mars_B91_Mother_V2.2/device/oled.c:9
	i2c_master_write(OLED_ADDR,write_buff, 2);
20003ab0:	d18ff0ef          	jal	ra,20002fc8 <i2c_master_write>
E:/promotion/gitlab/telink_b91m_driver_sdk/telink_b91m_driver_sdk/demo/vendor/Mars_B91_Mother_V2.2/device/oled.c:8
	uint8_t write_buff[2] = {0x00,I2C_Command};
20003ab4:	6985                	c.lui	s3,0x1
E:/promotion/gitlab/telink_b91m_driver_sdk/telink_b91m_driver_sdk/demo/vendor/Mars_B91_Mother_V2.2/device/oled.c:9
	i2c_master_write(OLED_ADDR,write_buff, 2);
20003ab6:	4609                	c.li	a2,2
20003ab8:	08ec                	c.addi4spn	a1,sp,92
20003aba:	07800513          	li	a0,120
E:/promotion/gitlab/telink_b91m_driver_sdk/telink_b91m_driver_sdk/demo/vendor/Mars_B91_Mother_V2.2/device/oled.c:8
	uint8_t write_buff[2] = {0x00,I2C_Command};
20003abe:	7969                	c.lui	s2,0xffffa
20003ac0:	05311e23          	sh	s3,92(sp)
E:/promotion/gitlab/telink_b91m_driver_sdk/telink_b91m_driver_sdk/demo/vendor/Mars_B91_Mother_V2.2/device/oled.c:9
	i2c_master_write(OLED_ADDR,write_buff, 2);
20003ac4:	d04ff0ef          	jal	ra,20002fc8 <i2c_master_write>
E:/promotion/gitlab/telink_b91m_driver_sdk/telink_b91m_driver_sdk/demo/vendor/Mars_B91_Mother_V2.2/device/oled.c:8
	uint8_t write_buff[2] = {0x00,I2C_Command};
20003ac8:	10090793          	addi	a5,s2,256 # ffffa100 <_DATA_LMA_START+0xdfff2128>
E:/promotion/gitlab/telink_b91m_driver_sdk/telink_b91m_driver_sdk/demo/vendor/Mars_B91_Mother_V2.2/device/oled.c:9
	i2c_master_write(OLED_ADDR,write_buff, 2);
20003acc:	4609                	c.li	a2,2
20003ace:	08ec                	c.addi4spn	a1,sp,92
20003ad0:	07800513          	li	a0,120
E:/promotion/gitlab/telink_b91m_driver_sdk/telink_b91m_driver_sdk/demo/vendor/Mars_B91_Mother_V2.2/device/oled.c:8
	uint8_t write_buff[2] = {0x00,I2C_Command};
20003ad4:	04f11e23          	sh	a5,92(sp)
E:/promotion/gitlab/telink_b91m_driver_sdk/telink_b91m_driver_sdk/demo/vendor/Mars_B91_Mother_V2.2/device/oled.c:9
	i2c_master_write(OLED_ADDR,write_buff, 2);
20003ad8:	cf0ff0ef          	jal	ra,20002fc8 <i2c_master_write>
E:/promotion/gitlab/telink_b91m_driver_sdk/telink_b91m_driver_sdk/demo/vendor/Mars_B91_Mother_V2.2/device/oled.c:8
	uint8_t write_buff[2] = {0x00,I2C_Command};
20003adc:	77f1                	c.lui	a5,0xffffc
E:/promotion/gitlab/telink_b91m_driver_sdk/telink_b91m_driver_sdk/demo/vendor/Mars_B91_Mother_V2.2/device/oled.c:9
	i2c_master_write(OLED_ADDR,write_buff, 2);
20003ade:	4609                	c.li	a2,2
20003ae0:	05c10593          	addi	a1,sp,92
20003ae4:	07800513          	li	a0,120
E:/promotion/gitlab/telink_b91m_driver_sdk/telink_b91m_driver_sdk/demo/vendor/Mars_B91_Mother_V2.2/device/oled.c:8
	uint8_t write_buff[2] = {0x00,I2C_Command};
20003ae8:	04f11e23          	sh	a5,92(sp)
E:/promotion/gitlab/telink_b91m_driver_sdk/telink_b91m_driver_sdk/demo/vendor/Mars_B91_Mother_V2.2/device/oled.c:9
	i2c_master_write(OLED_ADDR,write_buff, 2);
20003aec:	cdcff0ef          	jal	ra,20002fc8 <i2c_master_write>
20003af0:	4609                	c.li	a2,2
20003af2:	08ec                	c.addi4spn	a1,sp,92
E:/promotion/gitlab/telink_b91m_driver_sdk/telink_b91m_driver_sdk/demo/vendor/Mars_B91_Mother_V2.2/device/oled.c:8
	uint8_t write_buff[2] = {0x00,I2C_Command};
20003af4:	100b8b93          	addi	s7,s7,256 # ffff8100 <_DATA_LMA_START+0xdfff0128>
E:/promotion/gitlab/telink_b91m_driver_sdk/telink_b91m_driver_sdk/demo/vendor/Mars_B91_Mother_V2.2/device/oled.c:9
	i2c_master_write(OLED_ADDR,write_buff, 2);
20003af8:	07800513          	li	a0,120
E:/promotion/gitlab/telink_b91m_driver_sdk/telink_b91m_driver_sdk/demo/vendor/Mars_B91_Mother_V2.2/device/oled.c:8
	uint8_t write_buff[2] = {0x00,I2C_Command};
20003afc:	05711e23          	sh	s7,92(sp)
E:/promotion/gitlab/telink_b91m_driver_sdk/telink_b91m_driver_sdk/demo/vendor/Mars_B91_Mother_V2.2/device/oled.c:9
	i2c_master_write(OLED_ADDR,write_buff, 2);
20003b00:	cc8ff0ef          	jal	ra,20002fc8 <i2c_master_write>
E:/promotion/gitlab/telink_b91m_driver_sdk/telink_b91m_driver_sdk/demo/vendor/Mars_B91_Mother_V2.2/device/oled.c:8
	uint8_t write_buff[2] = {0x00,I2C_Command};
20003b04:	6799                	c.lui	a5,0x6
20003b06:	f0078793          	addi	a5,a5,-256 # 5f00 <_RAMCODE_VMA_END+0x35fe>
E:/promotion/gitlab/telink_b91m_driver_sdk/telink_b91m_driver_sdk/demo/vendor/Mars_B91_Mother_V2.2/device/oled.c:9
	i2c_master_write(OLED_ADDR,write_buff, 2);
20003b0a:	4609                	c.li	a2,2
20003b0c:	05c10593          	addi	a1,sp,92
20003b10:	07800513          	li	a0,120
E:/promotion/gitlab/telink_b91m_driver_sdk/telink_b91m_driver_sdk/demo/vendor/Mars_B91_Mother_V2.2/device/oled.c:8
	uint8_t write_buff[2] = {0x00,I2C_Command};
20003b14:	04f11e23          	sh	a5,92(sp)
E:/promotion/gitlab/telink_b91m_driver_sdk/telink_b91m_driver_sdk/demo/vendor/Mars_B91_Mother_V2.2/device/oled.c:9
	i2c_master_write(OLED_ADDR,write_buff, 2);
20003b18:	cb0ff0ef          	jal	ra,20002fc8 <i2c_master_write>
E:/promotion/gitlab/telink_b91m_driver_sdk/telink_b91m_driver_sdk/demo/vendor/Mars_B91_Mother_V2.2/device/oled.c:8
	uint8_t write_buff[2] = {0x00,I2C_Command};
20003b1c:	900a8793          	addi	a5,s5,-1792
E:/promotion/gitlab/telink_b91m_driver_sdk/telink_b91m_driver_sdk/demo/vendor/Mars_B91_Mother_V2.2/device/oled.c:9
	i2c_master_write(OLED_ADDR,write_buff, 2);
20003b20:	4609                	c.li	a2,2
20003b22:	08ec                	c.addi4spn	a1,sp,92
20003b24:	07800513          	li	a0,120
E:/promotion/gitlab/telink_b91m_driver_sdk/telink_b91m_driver_sdk/demo/vendor/Mars_B91_Mother_V2.2/device/oled.c:8
	uint8_t write_buff[2] = {0x00,I2C_Command};
20003b28:	04f11e23          	sh	a5,92(sp)
E:/promotion/gitlab/telink_b91m_driver_sdk/telink_b91m_driver_sdk/demo/vendor/Mars_B91_Mother_V2.2/device/oled.c:9
	i2c_master_write(OLED_ADDR,write_buff, 2);
20003b2c:	c9cff0ef          	jal	ra,20002fc8 <i2c_master_write>
E:/promotion/gitlab/telink_b91m_driver_sdk/telink_b91m_driver_sdk/demo/vendor/Mars_B91_Mother_V2.2/device/oled.c:8
	uint8_t write_buff[2] = {0x00,I2C_Command};
20003b30:	6789                	c.lui	a5,0x2
20003b32:	20078793          	addi	a5,a5,512 # 2200 <entry_irq14+0x6c>
E:/promotion/gitlab/telink_b91m_driver_sdk/telink_b91m_driver_sdk/demo/vendor/Mars_B91_Mother_V2.2/device/oled.c:9
	i2c_master_write(OLED_ADDR,write_buff, 2);
20003b36:	4609                	c.li	a2,2
20003b38:	05c10593          	addi	a1,sp,92
20003b3c:	07800513          	li	a0,120
E:/promotion/gitlab/telink_b91m_driver_sdk/telink_b91m_driver_sdk/demo/vendor/Mars_B91_Mother_V2.2/device/oled.c:8
	uint8_t write_buff[2] = {0x00,I2C_Command};
20003b40:	04f11e23          	sh	a5,92(sp)
E:/promotion/gitlab/telink_b91m_driver_sdk/telink_b91m_driver_sdk/demo/vendor/Mars_B91_Mother_V2.2/device/oled.c:9
	i2c_master_write(OLED_ADDR,write_buff, 2);
20003b44:	c84ff0ef          	jal	ra,20002fc8 <i2c_master_write>
20003b48:	4609                	c.li	a2,2
20003b4a:	08ec                	c.addi4spn	a1,sp,92
E:/promotion/gitlab/telink_b91m_driver_sdk/telink_b91m_driver_sdk/demo/vendor/Mars_B91_Mother_V2.2/device/oled.c:8
	uint8_t write_buff[2] = {0x00,I2C_Command};
20003b4c:	b00a8a93          	addi	s5,s5,-1280
E:/promotion/gitlab/telink_b91m_driver_sdk/telink_b91m_driver_sdk/demo/vendor/Mars_B91_Mother_V2.2/device/oled.c:9
	i2c_master_write(OLED_ADDR,write_buff, 2);
20003b50:	07800513          	li	a0,120
E:/promotion/gitlab/telink_b91m_driver_sdk/telink_b91m_driver_sdk/demo/vendor/Mars_B91_Mother_V2.2/device/oled.c:8
	uint8_t write_buff[2] = {0x00,I2C_Command};
20003b54:	05511e23          	sh	s5,92(sp)
E:/promotion/gitlab/telink_b91m_driver_sdk/telink_b91m_driver_sdk/demo/vendor/Mars_B91_Mother_V2.2/device/oled.c:9
	i2c_master_write(OLED_ADDR,write_buff, 2);
20003b58:	c70ff0ef          	jal	ra,20002fc8 <i2c_master_write>
E:/promotion/gitlab/telink_b91m_driver_sdk/telink_b91m_driver_sdk/demo/vendor/Mars_B91_Mother_V2.2/device/oled.c:8
	uint8_t write_buff[2] = {0x00,I2C_Command};
20003b5c:	6b0d                	c.lui	s6,0x3
E:/promotion/gitlab/telink_b91m_driver_sdk/telink_b91m_driver_sdk/demo/vendor/Mars_B91_Mother_V2.2/device/oled.c:9
	i2c_master_write(OLED_ADDR,write_buff, 2);
20003b5e:	4609                	c.li	a2,2
20003b60:	05c10593          	addi	a1,sp,92
20003b64:	07800513          	li	a0,120
E:/promotion/gitlab/telink_b91m_driver_sdk/telink_b91m_driver_sdk/demo/vendor/Mars_B91_Mother_V2.2/device/oled.c:8
	uint8_t write_buff[2] = {0x00,I2C_Command};
20003b68:	05611e23          	sh	s6,92(sp)
E:/promotion/gitlab/telink_b91m_driver_sdk/telink_b91m_driver_sdk/demo/vendor/Mars_B91_Mother_V2.2/device/oled.c:9
	i2c_master_write(OLED_ADDR,write_buff, 2);
20003b6c:	c5cff0ef          	jal	ra,20002fc8 <i2c_master_write>
E:/promotion/gitlab/telink_b91m_driver_sdk/telink_b91m_driver_sdk/demo/vendor/Mars_B91_Mother_V2.2/device/oled.c:8
	uint8_t write_buff[2] = {0x00,I2C_Command};
20003b70:	77e5                	c.lui	a5,0xffff9
20003b72:	d0078793          	addi	a5,a5,-768 # ffff8d00 <_DATA_LMA_START+0xdfff0d28>
E:/promotion/gitlab/telink_b91m_driver_sdk/telink_b91m_driver_sdk/demo/vendor/Mars_B91_Mother_V2.2/device/oled.c:9
	i2c_master_write(OLED_ADDR,write_buff, 2);
20003b76:	4609                	c.li	a2,2
20003b78:	05c10593          	addi	a1,sp,92
20003b7c:	07800513          	li	a0,120
E:/promotion/gitlab/telink_b91m_driver_sdk/telink_b91m_driver_sdk/demo/vendor/Mars_B91_Mother_V2.2/device/oled.c:8
	uint8_t write_buff[2] = {0x00,I2C_Command};
20003b80:	04f11e23          	sh	a5,92(sp)
E:/promotion/gitlab/telink_b91m_driver_sdk/telink_b91m_driver_sdk/demo/vendor/Mars_B91_Mother_V2.2/device/oled.c:9
	i2c_master_write(OLED_ADDR,write_buff, 2);
20003b84:	c44ff0ef          	jal	ra,20002fc8 <i2c_master_write>
E:/promotion/gitlab/telink_b91m_driver_sdk/telink_b91m_driver_sdk/demo/vendor/Mars_B91_Mother_V2.2/device/oled.c:8
	uint8_t write_buff[2] = {0x00,I2C_Command};
20003b88:	40098793          	addi	a5,s3,1024 # 1400 <entry_irq51+0x4c>
E:/promotion/gitlab/telink_b91m_driver_sdk/telink_b91m_driver_sdk/demo/vendor/Mars_B91_Mother_V2.2/device/oled.c:9
	i2c_master_write(OLED_ADDR,write_buff, 2);
20003b8c:	4609                	c.li	a2,2
20003b8e:	08ec                	c.addi4spn	a1,sp,92
20003b90:	07800513          	li	a0,120
E:/promotion/gitlab/telink_b91m_driver_sdk/telink_b91m_driver_sdk/demo/vendor/Mars_B91_Mother_V2.2/device/oled.c:8
	uint8_t write_buff[2] = {0x00,I2C_Command};
20003b94:	04f11e23          	sh	a5,92(sp)
E:/promotion/gitlab/telink_b91m_driver_sdk/telink_b91m_driver_sdk/demo/vendor/Mars_B91_Mother_V2.2/device/oled.c:9
	i2c_master_write(OLED_ADDR,write_buff, 2);
20003b98:	c30ff0ef          	jal	ra,20002fc8 <i2c_master_write>
20003b9c:	4609                	c.li	a2,2
20003b9e:	08ec                	c.addi4spn	a1,sp,92
E:/promotion/gitlab/telink_b91m_driver_sdk/telink_b91m_driver_sdk/demo/vendor/Mars_B91_Mother_V2.2/device/oled.c:8
	uint8_t write_buff[2] = {0x00,I2C_Command};
20003ba0:	e00b0b13          	addi	s6,s6,-512 # 2e00 <_RAMCODE_VMA_END+0x4fe>
E:/promotion/gitlab/telink_b91m_driver_sdk/telink_b91m_driver_sdk/demo/vendor/Mars_B91_Mother_V2.2/device/oled.c:9
	i2c_master_write(OLED_ADDR,write_buff, 2);
20003ba4:	07800513          	li	a0,120
E:/promotion/gitlab/telink_b91m_driver_sdk/telink_b91m_driver_sdk/demo/vendor/Mars_B91_Mother_V2.2/device/oled.c:8
	uint8_t write_buff[2] = {0x00,I2C_Command};
20003ba8:	05611e23          	sh	s6,92(sp)
E:/promotion/gitlab/telink_b91m_driver_sdk/telink_b91m_driver_sdk/demo/vendor/Mars_B91_Mother_V2.2/device/oled.c:9
	i2c_master_write(OLED_ADDR,write_buff, 2);
20003bac:	c1cff0ef          	jal	ra,20002fc8 <i2c_master_write>
E:/promotion/gitlab/telink_b91m_driver_sdk/telink_b91m_driver_sdk/demo/vendor/Mars_B91_Mother_V2.2/device/oled.c:8
	uint8_t write_buff[2] = {0x00,I2C_Command};
20003bb0:	70090793          	addi	a5,s2,1792
E:/promotion/gitlab/telink_b91m_driver_sdk/telink_b91m_driver_sdk/demo/vendor/Mars_B91_Mother_V2.2/device/oled.c:9
	i2c_master_write(OLED_ADDR,write_buff, 2);
20003bb4:	4609                	c.li	a2,2
20003bb6:	08ec                	c.addi4spn	a1,sp,92
20003bb8:	07800513          	li	a0,120
E:/promotion/gitlab/telink_b91m_driver_sdk/telink_b91m_driver_sdk/demo/vendor/Mars_B91_Mother_V2.2/device/oled.c:8
	uint8_t write_buff[2] = {0x00,I2C_Command};
20003bbc:	04f11e23          	sh	a5,92(sp)
E:/promotion/gitlab/telink_b91m_driver_sdk/telink_b91m_driver_sdk/demo/vendor/Mars_B91_Mother_V2.2/device/oled.c:9
	i2c_master_write(OLED_ADDR,write_buff, 2);
20003bc0:	c08ff0ef          	jal	ra,20002fc8 <i2c_master_write>
E:/promotion/gitlab/telink_b91m_driver_sdk/telink_b91m_driver_sdk/demo/vendor/Mars_B91_Mother_V2.2/device/oled.c:8
	uint8_t write_buff[2] = {0x00,I2C_Command};
20003bc4:	40090793          	addi	a5,s2,1024
E:/promotion/gitlab/telink_b91m_driver_sdk/telink_b91m_driver_sdk/demo/vendor/Mars_B91_Mother_V2.2/device/oled.c:9
	i2c_master_write(OLED_ADDR,write_buff, 2);
20003bc8:	4609                	c.li	a2,2
20003bca:	08ec                	c.addi4spn	a1,sp,92
20003bcc:	07800513          	li	a0,120
E:/promotion/gitlab/telink_b91m_driver_sdk/telink_b91m_driver_sdk/demo/vendor/Mars_B91_Mother_V2.2/device/oled.c:8
	uint8_t write_buff[2] = {0x00,I2C_Command};
20003bd0:	04f11e23          	sh	a5,92(sp)
E:/promotion/gitlab/telink_b91m_driver_sdk/telink_b91m_driver_sdk/demo/vendor/Mars_B91_Mother_V2.2/device/oled.c:9
	i2c_master_write(OLED_ADDR,write_buff, 2);
20003bd4:	bf4ff0ef          	jal	ra,20002fc8 <i2c_master_write>
OLED_CLS():
E:/promotion/gitlab/telink_b91m_driver_sdk/telink_b91m_driver_sdk/demo/vendor/Mars_B91_Mother_V2.2/device/oled.c:40
	OLED_Fill(0x00);
20003bd8:	ca4ff0ef          	jal	ra,2000307c <OLED_Fill.constprop.40>
WriteCmd():
E:/promotion/gitlab/telink_b91m_driver_sdk/telink_b91m_driver_sdk/demo/vendor/Mars_B91_Mother_V2.2/device/oled.c:9
	i2c_master_write(OLED_ADDR,write_buff, 2);
20003bdc:	4609                	c.li	a2,2
20003bde:	08ec                	c.addi4spn	a1,sp,92
E:/promotion/gitlab/telink_b91m_driver_sdk/telink_b91m_driver_sdk/demo/vendor/Mars_B91_Mother_V2.2/device/oled.c:8
	uint8_t write_buff[2] = {0x00,I2C_Command};
20003be0:	f00a0a13          	addi	s4,s4,-256
E:/promotion/gitlab/telink_b91m_driver_sdk/telink_b91m_driver_sdk/demo/vendor/Mars_B91_Mother_V2.2/device/oled.c:9
	i2c_master_write(OLED_ADDR,write_buff, 2);
20003be4:	07800513          	li	a0,120
E:/promotion/gitlab/telink_b91m_driver_sdk/telink_b91m_driver_sdk/demo/vendor/Mars_B91_Mother_V2.2/device/oled.c:8
	uint8_t write_buff[2] = {0x00,I2C_Command};
20003be8:	05411e23          	sh	s4,92(sp)
E:/promotion/gitlab/telink_b91m_driver_sdk/telink_b91m_driver_sdk/demo/vendor/Mars_B91_Mother_V2.2/device/oled.c:9
	i2c_master_write(OLED_ADDR,write_buff, 2);
20003bec:	bdcff0ef          	jal	ra,20002fc8 <i2c_master_write>
20003bf0:	4609                	c.li	a2,2
20003bf2:	08ec                	c.addi4spn	a1,sp,92
E:/promotion/gitlab/telink_b91m_driver_sdk/telink_b91m_driver_sdk/demo/vendor/Mars_B91_Mother_V2.2/device/oled.c:8
	uint8_t write_buff[2] = {0x00,I2C_Command};
20003bf4:	60090913          	addi	s2,s2,1536
E:/promotion/gitlab/telink_b91m_driver_sdk/telink_b91m_driver_sdk/demo/vendor/Mars_B91_Mother_V2.2/device/oled.c:9
	i2c_master_write(OLED_ADDR,write_buff, 2);
20003bf8:	07800513          	li	a0,120
E:/promotion/gitlab/telink_b91m_driver_sdk/telink_b91m_driver_sdk/demo/vendor/Mars_B91_Mother_V2.2/device/oled.c:8
	uint8_t write_buff[2] = {0x00,I2C_Command};
20003bfc:	05211e23          	sh	s2,92(sp)
E:/promotion/gitlab/telink_b91m_driver_sdk/telink_b91m_driver_sdk/demo/vendor/Mars_B91_Mother_V2.2/device/oled.c:9
	i2c_master_write(OLED_ADDR,write_buff, 2);
20003c00:	bc8ff0ef          	jal	ra,20002fc8 <i2c_master_write>
user_init():
E:/promotion/gitlab/telink_b91m_driver_sdk/telink_b91m_driver_sdk/demo/vendor/Mars_B91_Mother_V2.2/app_all.c:23
	OLED_Init();
	OLED_Show_Arrow(0);
20003c04:	00000513          	li	a0,0
20003c08:	ed8ff0ef          	jal	ra,200032e0 <OLED_Show_Arrow>
lis2dh12_iic_write_byte():
E:/promotion/gitlab/telink_b91m_driver_sdk/telink_b91m_driver_sdk/demo/vendor/Mars_B91_Mother_V2.2/device/lis2dh.c:11
axis_info_t g_axis_info;

uint8_t lis2dh12_iic_write_byte(uint8_t reg, uint8_t data)
{
	uint8_t write_buff[2] = {reg,data};
	return !i2c_master_write(LIS2DH_ADDR, write_buff, 2);
20003c0c:	4609                	c.li	a2,2
20003c0e:	08ec                	c.addi4spn	a1,sp,92
E:/promotion/gitlab/telink_b91m_driver_sdk/telink_b91m_driver_sdk/demo/vendor/Mars_B91_Mother_V2.2/device/lis2dh.c:10
	uint8_t write_buff[2] = {reg,data};
20003c10:	82398993          	addi	s3,s3,-2013
E:/promotion/gitlab/telink_b91m_driver_sdk/telink_b91m_driver_sdk/demo/vendor/Mars_B91_Mother_V2.2/device/lis2dh.c:11
	return !i2c_master_write(LIS2DH_ADDR, write_buff, 2);
20003c14:	03000513          	li	a0,48
E:/promotion/gitlab/telink_b91m_driver_sdk/telink_b91m_driver_sdk/demo/vendor/Mars_B91_Mother_V2.2/device/lis2dh.c:10
	uint8_t write_buff[2] = {reg,data};
20003c18:	05311e23          	sh	s3,92(sp)
E:/promotion/gitlab/telink_b91m_driver_sdk/telink_b91m_driver_sdk/demo/vendor/Mars_B91_Mother_V2.2/device/lis2dh.c:11
	return !i2c_master_write(LIS2DH_ADDR, write_buff, 2);
20003c1c:	bacff0ef          	jal	ra,20002fc8 <i2c_master_write>
E:/promotion/gitlab/telink_b91m_driver_sdk/telink_b91m_driver_sdk/demo/vendor/Mars_B91_Mother_V2.2/device/lis2dh.c:10
	uint8_t write_buff[2] = {reg,data};
20003c20:	679d                	c.lui	a5,0x7
E:/promotion/gitlab/telink_b91m_driver_sdk/telink_b91m_driver_sdk/demo/vendor/Mars_B91_Mother_V2.2/device/lis2dh.c:11
	return !i2c_master_write(LIS2DH_ADDR, write_buff, 2);
20003c22:	4609                	c.li	a2,2
20003c24:	05c10593          	addi	a1,sp,92
E:/promotion/gitlab/telink_b91m_driver_sdk/telink_b91m_driver_sdk/demo/vendor/Mars_B91_Mother_V2.2/device/lis2dh.c:10
	uint8_t write_buff[2] = {reg,data};
20003c28:	72078793          	addi	a5,a5,1824 # 7720 <_RAMCODE_VMA_END+0x4e1e>
E:/promotion/gitlab/telink_b91m_driver_sdk/telink_b91m_driver_sdk/demo/vendor/Mars_B91_Mother_V2.2/device/lis2dh.c:11
	return !i2c_master_write(LIS2DH_ADDR, write_buff, 2);
20003c2c:	03000513          	li	a0,48
E:/promotion/gitlab/telink_b91m_driver_sdk/telink_b91m_driver_sdk/demo/vendor/Mars_B91_Mother_V2.2/device/lis2dh.c:10
	uint8_t write_buff[2] = {reg,data};
20003c30:	04f11e23          	sh	a5,92(sp)
E:/promotion/gitlab/telink_b91m_driver_sdk/telink_b91m_driver_sdk/demo/vendor/Mars_B91_Mother_V2.2/device/lis2dh.c:11
	return !i2c_master_write(LIS2DH_ADDR, write_buff, 2);
20003c34:	b94ff0ef          	jal	ra,20002fc8 <i2c_master_write>
gpio_function_en():
E:/promotion/gitlab/telink_b91m_driver_sdk/telink_b91m_driver_sdk/chip/B91/drivers/gpio.h:194
	BM_SET(reg_gpio_func(pin), bit);
20003c38:	31e40783          	lb	a5,798(s0)
init_button():
E:/promotion/gitlab/telink_b91m_driver_sdk/telink_b91m_driver_sdk/demo/vendor/Mars_B91_Mother_V2.2/device/button.c:185
void init_button(void)
{
	gpio_function_en(BUTTON_LFT);
	gpio_input_en(BUTTON_LFT);
20003c3c:	30200513          	li	a0,770
gpio_function_en():
E:/promotion/gitlab/telink_b91m_driver_sdk/telink_b91m_driver_sdk/chip/B91/drivers/gpio.h:194
20003c40:	0ff7f793          	andi	a5,a5,255
20003c44:	0027e793          	ori	a5,a5,2
20003c48:	30f40f23          	sb	a5,798(s0)
init_button():
E:/promotion/gitlab/telink_b91m_driver_sdk/telink_b91m_driver_sdk/demo/vendor/Mars_B91_Mother_V2.2/device/button.c:185
20003c4c:	8d9ff0ef          	jal	ra,20003524 <gpio_input_en>
gpio_output_dis():
E:/promotion/gitlab/telink_b91m_driver_sdk/telink_b91m_driver_sdk/chip/B91/drivers/gpio.h:313
 * @return     none.
 */
static inline void gpio_output_dis(gpio_pin_e pin)
{
	unsigned char	bit = pin & 0xff;
	BM_SET(reg_gpio_oen(pin), bit);
20003c50:	31a40783          	lb	a5,794(s0)
init_button():
E:/promotion/gitlab/telink_b91m_driver_sdk/telink_b91m_driver_sdk/demo/vendor/Mars_B91_Mother_V2.2/device/button.c:187
	gpio_output_dis(BUTTON_LFT);
	gpio_set_up_down_res(BUTTON_LFT, GPIO_PIN_PULLUP_10K);
20003c54:	30200513          	li	a0,770
gpio_output_dis():
E:/promotion/gitlab/telink_b91m_driver_sdk/telink_b91m_driver_sdk/chip/B91/drivers/gpio.h:313
20003c58:	0ff7f793          	andi	a5,a5,255
20003c5c:	0027e793          	ori	a5,a5,2
20003c60:	30f40d23          	sb	a5,794(s0)
init_button():
E:/promotion/gitlab/telink_b91m_driver_sdk/telink_b91m_driver_sdk/demo/vendor/Mars_B91_Mother_V2.2/device/button.c:187
20003c64:	80dff0ef          	jal	ra,20003470 <gpio_set_up_down_res.constprop.38>
gpio_function_en():
E:/promotion/gitlab/telink_b91m_driver_sdk/telink_b91m_driver_sdk/chip/B91/drivers/gpio.h:194
	BM_SET(reg_gpio_func(pin), bit);
20003c68:	31e40783          	lb	a5,798(s0)
init_button():
E:/promotion/gitlab/telink_b91m_driver_sdk/telink_b91m_driver_sdk/demo/vendor/Mars_B91_Mother_V2.2/device/button.c:190

	gpio_function_en(BUTTON_MID);
	gpio_input_en(BUTTON_MID);
20003c6c:	30400513          	li	a0,772
gpio_function_en():
E:/promotion/gitlab/telink_b91m_driver_sdk/telink_b91m_driver_sdk/chip/B91/drivers/gpio.h:194
20003c70:	0ff7f793          	andi	a5,a5,255
20003c74:	0047e793          	ori	a5,a5,4
20003c78:	30f40f23          	sb	a5,798(s0)
init_button():
E:/promotion/gitlab/telink_b91m_driver_sdk/telink_b91m_driver_sdk/demo/vendor/Mars_B91_Mother_V2.2/device/button.c:190
20003c7c:	8a9ff0ef          	jal	ra,20003524 <gpio_input_en>
gpio_output_dis():
E:/promotion/gitlab/telink_b91m_driver_sdk/telink_b91m_driver_sdk/chip/B91/drivers/gpio.h:313
	BM_SET(reg_gpio_oen(pin), bit);
20003c80:	31a40783          	lb	a5,794(s0)
init_button():
E:/promotion/gitlab/telink_b91m_driver_sdk/telink_b91m_driver_sdk/demo/vendor/Mars_B91_Mother_V2.2/device/button.c:192
	gpio_output_dis(BUTTON_MID);
	gpio_set_up_down_res(BUTTON_MID, GPIO_PIN_PULLUP_10K);
20003c84:	30400513          	li	a0,772
gpio_output_dis():
E:/promotion/gitlab/telink_b91m_driver_sdk/telink_b91m_driver_sdk/chip/B91/drivers/gpio.h:313
20003c88:	0ff7f793          	andi	a5,a5,255
20003c8c:	0047e793          	ori	a5,a5,4
20003c90:	30f40d23          	sb	a5,794(s0)
init_button():
E:/promotion/gitlab/telink_b91m_driver_sdk/telink_b91m_driver_sdk/demo/vendor/Mars_B91_Mother_V2.2/device/button.c:192
20003c94:	fdcff0ef          	jal	ra,20003470 <gpio_set_up_down_res.constprop.38>
gpio_function_en():
E:/promotion/gitlab/telink_b91m_driver_sdk/telink_b91m_driver_sdk/chip/B91/drivers/gpio.h:194
	BM_SET(reg_gpio_func(pin), bit);
20003c98:	31e40783          	lb	a5,798(s0)
init_button():
E:/promotion/gitlab/telink_b91m_driver_sdk/telink_b91m_driver_sdk/demo/vendor/Mars_B91_Mother_V2.2/device/button.c:195

	gpio_function_en(BUTTON_RHT);
	gpio_input_en(BUTTON_RHT);
20003c9c:	30800513          	li	a0,776
gpio_function_en():
E:/promotion/gitlab/telink_b91m_driver_sdk/telink_b91m_driver_sdk/chip/B91/drivers/gpio.h:194
20003ca0:	0ff7f793          	andi	a5,a5,255
20003ca4:	0087e793          	ori	a5,a5,8
20003ca8:	30f40f23          	sb	a5,798(s0)
init_button():
E:/promotion/gitlab/telink_b91m_driver_sdk/telink_b91m_driver_sdk/demo/vendor/Mars_B91_Mother_V2.2/device/button.c:195
20003cac:	879ff0ef          	jal	ra,20003524 <gpio_input_en>
gpio_output_dis():
E:/promotion/gitlab/telink_b91m_driver_sdk/telink_b91m_driver_sdk/chip/B91/drivers/gpio.h:313
	BM_SET(reg_gpio_oen(pin), bit);
20003cb0:	31a40783          	lb	a5,794(s0)
init_button():
E:/promotion/gitlab/telink_b91m_driver_sdk/telink_b91m_driver_sdk/demo/vendor/Mars_B91_Mother_V2.2/device/button.c:197
	gpio_output_dis(BUTTON_RHT);
	gpio_set_up_down_res(BUTTON_RHT, GPIO_PIN_PULLUP_10K);
20003cb4:	30800513          	li	a0,776
gpio_output_dis():
E:/promotion/gitlab/telink_b91m_driver_sdk/telink_b91m_driver_sdk/chip/B91/drivers/gpio.h:313
20003cb8:	0ff7f793          	andi	a5,a5,255
20003cbc:	0087e793          	ori	a5,a5,8
20003cc0:	30f40d23          	sb	a5,794(s0)
init_button():
E:/promotion/gitlab/telink_b91m_driver_sdk/telink_b91m_driver_sdk/demo/vendor/Mars_B91_Mother_V2.2/device/button.c:197
20003cc4:	facff0ef          	jal	ra,20003470 <gpio_set_up_down_res.constprop.38>
binding_button():
E:/promotion/gitlab/telink_b91m_driver_sdk/telink_b91m_driver_sdk/demo/vendor/Mars_B91_Mother_V2.2/device/button.c:202
}

void binding_button(void)
{
	button_init(&btn_left, read_btn_left);
20003cc8:	200035b7          	lui	a1,0x20003
20003ccc:	0fc58593          	addi	a1,a1,252 # 200030fc <read_btn_left>
20003cd0:	0a90150b          	addigp	a0,2216 # 810a8 <btn_left>
20003cd4:	8f5ff0ef          	jal	ra,200035c8 <button_init>
button_start():
E:/promotion/gitlab/telink_b91m_driver_sdk/telink_b91m_driver_sdk/demo/vendor/Mars_B91_Mother_V2.2/device/button.c:120
	struct Button* target = head_handle;
20003cd8:	845f958b          	addigp	a1,-1980 # 80044 <head_handle>
button_attach():
E:/promotion/gitlab/telink_b91m_driver_sdk/telink_b91m_driver_sdk/demo/vendor/Mars_B91_Mother_V2.2/device/button.c:17
    handle->cb[event] = cb;
20003cdc:	200039b7          	lui	s3,0x20003
20003ce0:	20003937          	lui	s2,0x20003
binding_button():
E:/promotion/gitlab/telink_b91m_driver_sdk/telink_b91m_driver_sdk/demo/vendor/Mars_B91_Mother_V2.2/device/button.c:202
	button_init(&btn_left, read_btn_left);
20003ce4:	0a90140b          	addigp	s0,2216 # 810a8 <btn_left>
button_attach():
E:/promotion/gitlab/telink_b91m_driver_sdk/telink_b91m_driver_sdk/demo/vendor/Mars_B91_Mother_V2.2/device/button.c:17
    handle->cb[event] = cb;
20003ce8:	36498993          	addi	s3,s3,868 # 20003364 <BTN_SINGLE_CLICK_Handler>
20003cec:	32c90913          	addi	s2,s2,812 # 2000332c <BTN_DOUBLE_CLICK_Handler>
button_start():
E:/promotion/gitlab/telink_b91m_driver_sdk/telink_b91m_driver_sdk/demo/vendor/Mars_B91_Mother_V2.2/device/button.c:120
	struct Button* target = head_handle;
20003cf0:	419c                	c.lw	a5,0(a1)
20003cf2:	ce2e                	c.swsp	a1,28(sp)
button_attach():
E:/promotion/gitlab/telink_b91m_driver_sdk/telink_b91m_driver_sdk/demo/vendor/Mars_B91_Mother_V2.2/device/button.c:17
    handle->cb[event] = cb;
20003cf4:	01342a23          	sw	s3,20(s0)
20003cf8:	01242c23          	sw	s2,24(s0)
button_start():
E:/promotion/gitlab/telink_b91m_driver_sdk/telink_b91m_driver_sdk/demo/vendor/Mars_B91_Mother_V2.2/device/button.c:121
	while(target){
20003cfc:	460786e3          	beqz	a5,20004968 <main+0x1330>
E:/promotion/gitlab/telink_b91m_driver_sdk/telink_b91m_driver_sdk/demo/vendor/Mars_B91_Mother_V2.2/device/button.c:122
		if(target == handle) return -1;
20003d00:	00878a63          	beq	a5,s0,20003d14 <main+0x6dc>
20003d04:	00f00733          	add	a4,zero,a5
E:/promotion/gitlab/telink_b91m_driver_sdk/telink_b91m_driver_sdk/demo/vendor/Mars_B91_Mother_V2.2/device/button.c:123
		target = target->next;
20003d08:	02472703          	lw	a4,36(a4)
E:/promotion/gitlab/telink_b91m_driver_sdk/telink_b91m_driver_sdk/demo/vendor/Mars_B91_Mother_V2.2/device/button.c:121
	while(target){
20003d0c:	44070ee3          	beqz	a4,20004968 <main+0x1330>
E:/promotion/gitlab/telink_b91m_driver_sdk/telink_b91m_driver_sdk/demo/vendor/Mars_B91_Mother_V2.2/device/button.c:122
		if(target == handle) return -1;
20003d10:	fe871ce3          	bne	a4,s0,20003d08 <main+0x6d0>
binding_button():
E:/promotion/gitlab/telink_b91m_driver_sdk/telink_b91m_driver_sdk/demo/vendor/Mars_B91_Mother_V2.2/device/button.c:207
	button_attach(&btn_left, SINGLE_CLICK,  BTN_SINGLE_CLICK_Handler);
	button_attach(&btn_left, DOUBLE_CLICK,  BTN_DOUBLE_CLICK_Handler);
	button_start(&btn_left);

	button_init(&btn_mid, read_btn_mid);
20003d14:	200035b7          	lui	a1,0x20003
20003d18:	0d10150b          	addigp	a0,2256 # 810d0 <btn_mid>
20003d1c:	10c58593          	addi	a1,a1,268 # 2000310c <read_btn_mid>
20003d20:	8a9ff0ef          	jal	ra,200035c8 <button_init>
button_start():
E:/promotion/gitlab/telink_b91m_driver_sdk/telink_b91m_driver_sdk/demo/vendor/Mars_B91_Mother_V2.2/device/button.c:120
	struct Button* target = head_handle;
20003d24:	4572                	c.lwsp	a0,28(sp)
binding_button():
E:/promotion/gitlab/telink_b91m_driver_sdk/telink_b91m_driver_sdk/demo/vendor/Mars_B91_Mother_V2.2/device/button.c:207
	button_init(&btn_mid, read_btn_mid);
20003d26:	0d10140b          	addigp	s0,2256 # 810d0 <btn_mid>
button_start():
E:/promotion/gitlab/telink_b91m_driver_sdk/telink_b91m_driver_sdk/demo/vendor/Mars_B91_Mother_V2.2/device/button.c:120
	struct Button* target = head_handle;
20003d2a:	411c                	c.lw	a5,0(a0)
button_attach():
E:/promotion/gitlab/telink_b91m_driver_sdk/telink_b91m_driver_sdk/demo/vendor/Mars_B91_Mother_V2.2/device/button.c:17
    handle->cb[event] = cb;
20003d2c:	01342a23          	sw	s3,20(s0)
20003d30:	01242c23          	sw	s2,24(s0)
button_start():
E:/promotion/gitlab/telink_b91m_driver_sdk/telink_b91m_driver_sdk/demo/vendor/Mars_B91_Mother_V2.2/device/button.c:121
	while(target){
20003d34:	440780e3          	beqz	a5,20004974 <main+0x133c>
E:/promotion/gitlab/telink_b91m_driver_sdk/telink_b91m_driver_sdk/demo/vendor/Mars_B91_Mother_V2.2/device/button.c:122
		if(target == handle) return -1;
20003d38:	00878a63          	beq	a5,s0,20003d4c <main+0x714>
20003d3c:	00f00733          	add	a4,zero,a5
E:/promotion/gitlab/telink_b91m_driver_sdk/telink_b91m_driver_sdk/demo/vendor/Mars_B91_Mother_V2.2/device/button.c:123
		target = target->next;
20003d40:	02472703          	lw	a4,36(a4)
E:/promotion/gitlab/telink_b91m_driver_sdk/telink_b91m_driver_sdk/demo/vendor/Mars_B91_Mother_V2.2/device/button.c:121
	while(target){
20003d44:	420708e3          	beqz	a4,20004974 <main+0x133c>
E:/promotion/gitlab/telink_b91m_driver_sdk/telink_b91m_driver_sdk/demo/vendor/Mars_B91_Mother_V2.2/device/button.c:122
		if(target == handle) return -1;
20003d48:	fe871ce3          	bne	a4,s0,20003d40 <main+0x708>
binding_button():
E:/promotion/gitlab/telink_b91m_driver_sdk/telink_b91m_driver_sdk/demo/vendor/Mars_B91_Mother_V2.2/device/button.c:212
	button_attach(&btn_mid, SINGLE_CLICK,  BTN_SINGLE_CLICK_Handler);
	button_attach(&btn_mid, DOUBLE_CLICK,  BTN_DOUBLE_CLICK_Handler);
	button_start(&btn_mid);

	button_init(&btn_right, read_btn_right);
20003d4c:	200035b7          	lui	a1,0x20003
20003d50:	0f90150b          	addigp	a0,2296 # 810f8 <btn_right>
20003d54:	11c58593          	addi	a1,a1,284 # 2000311c <read_btn_right>
20003d58:	871ff0ef          	jal	ra,200035c8 <button_init>
button_start():
E:/promotion/gitlab/telink_b91m_driver_sdk/telink_b91m_driver_sdk/demo/vendor/Mars_B91_Mother_V2.2/device/button.c:120
	struct Button* target = head_handle;
20003d5c:	4572                	c.lwsp	a0,28(sp)
binding_button():
E:/promotion/gitlab/telink_b91m_driver_sdk/telink_b91m_driver_sdk/demo/vendor/Mars_B91_Mother_V2.2/device/button.c:212
	button_init(&btn_right, read_btn_right);
20003d5e:	0f90140b          	addigp	s0,2296 # 810f8 <btn_right>
button_start():
E:/promotion/gitlab/telink_b91m_driver_sdk/telink_b91m_driver_sdk/demo/vendor/Mars_B91_Mother_V2.2/device/button.c:120
	struct Button* target = head_handle;
20003d62:	411c                	c.lw	a5,0(a0)
button_attach():
E:/promotion/gitlab/telink_b91m_driver_sdk/telink_b91m_driver_sdk/demo/vendor/Mars_B91_Mother_V2.2/device/button.c:17
    handle->cb[event] = cb;
20003d64:	01342a23          	sw	s3,20(s0)
20003d68:	01242c23          	sw	s2,24(s0)
button_start():
E:/promotion/gitlab/telink_b91m_driver_sdk/telink_b91m_driver_sdk/demo/vendor/Mars_B91_Mother_V2.2/device/button.c:121
	while(target){
20003d6c:	40078ae3          	beqz	a5,20004980 <main+0x1348>
E:/promotion/gitlab/telink_b91m_driver_sdk/telink_b91m_driver_sdk/demo/vendor/Mars_B91_Mother_V2.2/device/button.c:122
		if(target == handle) return -1;
20003d70:	00878a63          	beq	a5,s0,20003d84 <main+0x74c>
20003d74:	00f00733          	add	a4,zero,a5
E:/promotion/gitlab/telink_b91m_driver_sdk/telink_b91m_driver_sdk/demo/vendor/Mars_B91_Mother_V2.2/device/button.c:123
		target = target->next;
20003d78:	02472703          	lw	a4,36(a4)
E:/promotion/gitlab/telink_b91m_driver_sdk/telink_b91m_driver_sdk/demo/vendor/Mars_B91_Mother_V2.2/device/button.c:121
	while(target){
20003d7c:	400702e3          	beqz	a4,20004980 <main+0x1348>
E:/promotion/gitlab/telink_b91m_driver_sdk/telink_b91m_driver_sdk/demo/vendor/Mars_B91_Mother_V2.2/device/button.c:122
		if(target == handle) return -1;
20003d80:	fe871ce3          	bne	a4,s0,20003d78 <main+0x740>
ws2812b_init():
E:/promotion/gitlab/telink_b91m_driver_sdk/telink_b91m_driver_sdk/demo/vendor/Mars_B91_Mother_V2.2/device/ws2812b.c:51

void ws2812b_init(void)
{
	pwm_set_pin(PWM_PIN);
20003d84:	9c4ff0ef          	jal	ra,20002f48 <pwm_set_pin.constprop.8>
E:/promotion/gitlab/telink_b91m_driver_sdk/telink_b91m_driver_sdk/demo/vendor/Mars_B91_Mother_V2.2/device/ws2812b.c:52
	pwm_set_clk((unsigned char) (sys_clk.pclk*1000*1000/PWM_PCLK_SPEED-1));
20003d88:	0044c783          	lbu	a5,4(s1)
20003d8c:	2aaab737          	lui	a4,0x2aaab
20003d90:	aab70713          	addi	a4,a4,-1365 # 2aaaaaab <_DATA_LMA_START+0xaaa2ad3>
20003d94:	e0e7977f          	mulsr64	a4,a5,a4
20003d98:	4017d713          	srai	a4,a5,0x1
20003d9c:	177d                	c.addi	a4,-1
pwm_set_clk():
E:/promotion/gitlab/telink_b91m_driver_sdk/telink_b91m_driver_sdk/chip/B91/drivers/pwm.h:149
    reg_pwm_clkdiv = pwm_clk_div;
20003d9e:	801407b7          	lui	a5,0x80140
ws2812b_init():
E:/promotion/gitlab/telink_b91m_driver_sdk/telink_b91m_driver_sdk/demo/vendor/Mars_B91_Mother_V2.2/device/ws2812b.c:52
20003da2:	0ff77713          	andi	a4,a4,255
pwm_set_clk():
E:/promotion/gitlab/telink_b91m_driver_sdk/telink_b91m_driver_sdk/chip/B91/drivers/pwm.h:149
20003da6:	40e78123          	sb	a4,1026(a5) # 80140402 <_DATA_LMA_START+0x6013842a>
pwm_set_tcmp():
E:/promotion/gitlab/telink_b91m_driver_sdk/telink_b91m_driver_sdk/chip/B91/drivers/pwm.h:185
	reg_pwm_cmp(id) = tcmp;
20003daa:	4715                	c.li	a4,5
20003dac:	40e79a23          	sh	a4,1044(a5)
pwm_set_tmax():
E:/promotion/gitlab/telink_b91m_driver_sdk/telink_b91m_driver_sdk/chip/B91/drivers/pwm.h:196
	reg_pwm_max(id) = tmax;
20003db0:	473d                	c.li	a4,15
20003db2:	40e79b23          	sh	a4,1046(a5)
pwm_set_pwm0_tcmp_and_tmax_shadow():
E:/promotion/gitlab/telink_b91m_driver_sdk/telink_b91m_driver_sdk/chip/B91/drivers/pwm.h:385
	reg_pwm_tcmp0_shadow = cmp_tick;
20003db6:	46a9                	c.li	a3,10
20003db8:	44d79223          	sh	a3,1092(a5)
E:/promotion/gitlab/telink_b91m_driver_sdk/telink_b91m_driver_sdk/chip/B91/drivers/pwm.h:386
	reg_pwm_tmax0_shadow = max_tick;
20003dbc:	44e79323          	sh	a4,1094(a5)
pwm_set_pwm0_mode():
E:/promotion/gitlab/telink_b91m_driver_sdk/telink_b91m_driver_sdk/chip/B91/drivers/pwm.h:373
		reg_pwm0_mode = mode;  //only PWM0 has count/IR/fifo IR mode
20003dc0:	40e781a3          	sb	a4,1027(a5)
dma_config():
E:/promotion/gitlab/telink_b91m_driver_sdk/telink_b91m_driver_sdk/chip/B91/drivers/dma.h:159
	reg_dma_ctrl(chn) = (reg_dma_ctrl(chn)&(~BIT_RNG(4,31)))|((*(unsigned int*)config)<<4);
20003dc4:	801006b7          	lui	a3,0x80100
20003dc8:	46c6a703          	lw	a4,1132(a3) # 8010046c <_DATA_LMA_START+0x600f8494>
20003dcc:	813fa7ab          	lwgp	a5,-2032 # 80010 <pwm_tx_dma_config>
20003dd0:	8b3d                	c.andi	a4,15
20003dd2:	0792                	c.slli	a5,0x4
20003dd4:	00e7e7b3          	or	a5,a5,a4
20003dd8:	46f6a623          	sw	a5,1132(a3)
ws2812b_init():
E:/promotion/gitlab/telink_b91m_driver_sdk/telink_b91m_driver_sdk/demo/vendor/Mars_B91_Mother_V2.2/device/ws2812b.c:58
	pwm_set_tcmp(PWM_ID,5);
	pwm_set_tmax(PWM_ID,15);
	pwm_set_pwm0_tcmp_and_tmax_shadow(15,10);
	pwm_set_pwm0_mode(PWM_IR_DMA_FIFO_MODE);
	pwm_set_dma_config(DMA_CHN);
	set_grb(g_grb);
20003ddc:	fd5fe0ef          	jal	ra,20002db0 <set_grb.constprop.10>
E:/promotion/gitlab/telink_b91m_driver_sdk/telink_b91m_driver_sdk/demo/vendor/Mars_B91_Mother_V2.2/device/ws2812b.c:59
    pwm_set_dma_buf(DMA_CHN,(unsigned int) IRQ_IR_DMA_Buff,48);
20003de0:	869f940b          	addigp	s0,-1944 # 80068 <IRQ_IR_DMA_Buff>
20003de4:	de22                	c.swsp	s0,60(sp)
dma_set_address():
E:/promotion/gitlab/telink_b91m_driver_sdk/telink_b91m_driver_sdk/chip/B91/drivers/dma.h:308
	reg_dma_src_addr(chn)= (unsigned int)convert_ram_addr_cpu2bus(src_addr);
20003de6:	000a07b7          	lui	a5,0xa0
20003dea:	00f47763          	bgeu	s0,a5,20003df8 <main+0x7c0>
20003dee:	c01807b7          	lui	a5,0xc0180
20003df2:	943e                	c.add	s0,a5
20003df4:	02812e23          	sw	s0,60(sp)
20003df8:	5472                	c.lwsp	s0,60(sp)
E:/promotion/gitlab/telink_b91m_driver_sdk/telink_b91m_driver_sdk/chip/B91/drivers/dma.h:309
	reg_dma_dst_addr(chn)= (unsigned int)convert_ram_addr_cpu2bus(dst_addr);
20003dfa:	801407b7          	lui	a5,0x80140
E:/promotion/gitlab/telink_b91m_driver_sdk/telink_b91m_driver_sdk/chip/B91/drivers/dma.h:308
	reg_dma_src_addr(chn)= (unsigned int)convert_ram_addr_cpu2bus(src_addr);
20003dfe:	80100737          	lui	a4,0x80100
20003e02:	46872823          	sw	s0,1136(a4) # 80100470 <_DATA_LMA_START+0x600f8498>
E:/promotion/gitlab/telink_b91m_driver_sdk/telink_b91m_driver_sdk/chip/B91/drivers/dma.h:309
	reg_dma_dst_addr(chn)= (unsigned int)convert_ram_addr_cpu2bus(dst_addr);
20003e06:	44878693          	addi	a3,a5,1096 # 80140448 <_DATA_LMA_START+0x60138470>
20003e0a:	46d72a23          	sw	a3,1140(a4)
dma_set_size():
E:/promotion/gitlab/telink_b91m_driver_sdk/telink_b91m_driver_sdk/chip/B91/drivers/dma.h:278
	reg_dma_size(chn) =((size_byte+byte_width-1)/byte_width)|( (size_byte % byte_width)<<22);
20003e0e:	46b1                	c.li	a3,12
20003e10:	46d72c23          	sw	a3,1144(a4)
pwm_set_irq_mask():
E:/promotion/gitlab/telink_b91m_driver_sdk/telink_b91m_driver_sdk/chip/B91/drivers/pwm.h:304
		BM_SET(reg_pwm_irq_mask(0), mask);
20003e14:	43078683          	lb	a3,1072(a5)
20003e18:	0ff6f693          	andi	a3,a3,255
20003e1c:	0026e693          	ori	a3,a3,2
20003e20:	42d78823          	sb	a3,1072(a5)
pwm_clr_irq_status():
E:/promotion/gitlab/telink_b91m_driver_sdk/telink_b91m_driver_sdk/chip/B91/drivers/pwm.h:361
		reg_pwm_irq_sta(0) = status;
20003e24:	4689                	c.li	a3,2
20003e26:	42d788a3          	sb	a3,1073(a5)
core_interrupt_enable():
E:/promotion/gitlab/telink_b91m_driver_sdk/telink_b91m_driver_sdk/chip/B91/drivers/core.h:130
	set_csr(NDS_MSTATUS,FLD_MSTATUS_MIE);//global interrupts enable
20003e2a:	300466f3          	csrrsi	a3,mstatus,8
E:/promotion/gitlab/telink_b91m_driver_sdk/telink_b91m_driver_sdk/chip/B91/drivers/core.h:131
	set_csr(NDS_MIE,FLD_MIE_MSIE |FLD_MIE_MTIE|FLD_MIE_MEIE);//machine Interrupt enable selectively
20003e2e:	6685                	c.lui	a3,0x1
20003e30:	88868693          	addi	a3,a3,-1912 # 888 <clock_init_ram.constprop.5+0xa8>
20003e34:	3046a6f3          	csrrs	a3,mie,a3
plic_interrupt_enable():
E:\promotion\gitlab\telink_b91m_driver_sdk\telink_b91m_driver_sdk\chip\B91\drivers/lib/include/plic.h:260
 * @param[in]   src - interrupt source.
 * @return  none
 */
static inline void plic_interrupt_enable(irq_source_e  src)
{
	reg_irq_src(src) |= BIT(src%32);
20003e38:	e4002637          	lui	a2,0xe4002
20003e3c:	4214                	c.lw	a3,0(a2)
20003e3e:	65c1                	c.lui	a1,0x10
20003e40:	8ecd                	c.or	a3,a1
20003e42:	c214                	c.sw	a3,0(a2)
dma_chn_en():
E:/promotion/gitlab/telink_b91m_driver_sdk/telink_b91m_driver_sdk/chip/B91/drivers/dma.h:170
	BM_SET(reg_dma_ctr0(chn),BIT(0));
20003e44:	46c70683          	lb	a3,1132(a4)
20003e48:	0ff6f693          	andi	a3,a3,255
20003e4c:	0016e693          	ori	a3,a3,1
20003e50:	46d70623          	sb	a3,1132(a4)
uart_reset():
E:/promotion/gitlab/telink_b91m_driver_sdk/telink_b91m_driver_sdk/chip/B91/drivers/uart.h:299
	if(reg_uart_rx_timeout1(uart_num)&FLD_UART_MASK_TXDONE)
20003e54:	08b78703          	lb	a4,139(a5)
20003e58:	4067745b          	bbs	a4,6,20003e60 <main+0x828>
20003e5c:	34d0006f          	j	200049a8 <main+0x1370>
E:/promotion/gitlab/telink_b91m_driver_sdk/telink_b91m_driver_sdk/chip/B91/drivers/uart.h:302
		reg_uart_rx_timeout1(uart_num)&=~FLD_UART_MASK_TXDONE;
20003e60:	08b78703          	lb	a4,139(a5)
20003e64:	0bf77713          	andi	a4,a4,191
20003e68:	08e785a3          	sb	a4,139(a5)
E:/promotion/gitlab/telink_b91m_driver_sdk/telink_b91m_driver_sdk/chip/B91/drivers/uart.h:304
	reg_rst0 &= (~((uart_num)?FLD_RST0_UART1:FLD_RST0_UART0));
20003e6c:	1e078703          	lb	a4,480(a5)
20003e70:	0fb77713          	andi	a4,a4,251
20003e74:	1ee78023          	sb	a4,480(a5)
E:/promotion/gitlab/telink_b91m_driver_sdk/telink_b91m_driver_sdk/chip/B91/drivers/uart.h:305
	reg_rst0 |= ((uart_num)?FLD_RST0_UART1:FLD_RST0_UART0);
20003e78:	1e078703          	lb	a4,480(a5)
20003e7c:	00476713          	ori	a4,a4,4
20003e80:	0ff77713          	andi	a4,a4,255
20003e84:	1ee78023          	sb	a4,480(a5)
E:/promotion/gitlab/telink_b91m_driver_sdk/telink_b91m_driver_sdk/chip/B91/drivers/uart.h:306
	reg_uart_state(uart_num) |=FLD_UART_CLR_TXDONE;
20003e88:	08f78703          	lb	a4,143(a5)
20003e8c:	f8076713          	ori	a4,a4,-128
20003e90:	0ff77713          	andi	a4,a4,255
20003e94:	08e787a3          	sb	a4,143(a5)
E:/promotion/gitlab/telink_b91m_driver_sdk/telink_b91m_driver_sdk/chip/B91/drivers/uart.h:308
		reg_uart_rx_timeout1(uart_num)|=FLD_UART_MASK_TXDONE;
20003e98:	08b78703          	lb	a4,139(a5)
20003e9c:	0ff77713          	andi	a4,a4,255
20003ea0:	04076713          	ori	a4,a4,64
20003ea4:	08e785a3          	sb	a4,139(a5)
uart_set_pin():
E:/promotion/gitlab/telink_b91m_driver_sdk/telink_b91m_driver_sdk/chip/B91/drivers/uart.c:477
    	gpio_input_en(tx_pin);
20003ea8:	10400513          	li	a0,260
20003eac:	e78ff0ef          	jal	ra,20003524 <gpio_input_en>
E:/promotion/gitlab/telink_b91m_driver_sdk/telink_b91m_driver_sdk/chip/B91/drivers/uart.c:478
    	gpio_set_up_down_res(tx_pin, GPIO_PIN_PULLUP_10K);
20003eb0:	10400513          	li	a0,260
20003eb4:	dbcff0ef          	jal	ra,20003470 <gpio_set_up_down_res.constprop.38>
E:/promotion/gitlab/telink_b91m_driver_sdk/telink_b91m_driver_sdk/chip/B91/drivers/uart.c:481
		gpio_input_en(rx_pin);
20003eb8:	10800513          	li	a0,264
20003ebc:	e68ff0ef          	jal	ra,20003524 <gpio_input_en>
E:/promotion/gitlab/telink_b91m_driver_sdk/telink_b91m_driver_sdk/chip/B91/drivers/uart.c:482
		gpio_set_up_down_res(rx_pin, GPIO_PIN_PULLUP_10K);
20003ec0:	10800513          	li	a0,264
20003ec4:	dacff0ef          	jal	ra,20003470 <gpio_set_up_down_res.constprop.38>
serial_port_init():
E:/promotion/gitlab/telink_b91m_driver_sdk/telink_b91m_driver_sdk/demo/vendor/Mars_B91_Mother_V2.2/device/serial_port.c:18
	uart_cal_div_and_bwpc(BAUD_RATE, sys_clk.pclk*1000*1000, &div, &bwpc);
20003ec8:	0044c783          	lbu	a5,4(s1)
20003ecc:	000f4637          	lui	a2,0xf4
20003ed0:	24060613          	addi	a2,a2,576 # f4240 <_STACK_TOP+0x54240>
20003ed4:	02c787b3          	mul	a5,a5,a2
uart_set_fuc_pin():
E:/promotion/gitlab/telink_b91m_driver_sdk/telink_b91m_driver_sdk/chip/B91/drivers/uart.c:752
 	}
 	else if(tx_pin == UART0_TX_PB2)
 	{
 		mask = (unsigned char)~(BIT(5)|BIT(4));
 		val = BIT(5);
 		reg_gpio_pad_mul_sel|=BIT(0);
20003ed8:	80140737          	lui	a4,0x80140
20003edc:	35570683          	lb	a3,853(a4) # 80140355 <_DATA_LMA_START+0x6013837d>
uart_cal_div_and_bwpc():
E:/promotion/gitlab/telink_b91m_driver_sdk/telink_b91m_driver_sdk/chip/B91/drivers/uart.c:211
	primeDec = 10*pclk/baudrate - 10*primeInt;
20003ee0:	44a9                	c.li	s1,10
uart_set_fuc_pin():
E:/promotion/gitlab/telink_b91m_driver_sdk/telink_b91m_driver_sdk/chip/B91/drivers/uart.c:752
 		reg_gpio_pad_mul_sel|=BIT(0);
20003ee2:	0ff6f693          	andi	a3,a3,255
20003ee6:	0016e693          	ori	a3,a3,1
20003eea:	34d70aa3          	sb	a3,853(a4)
E:/promotion/gitlab/telink_b91m_driver_sdk/telink_b91m_driver_sdk/chip/B91/drivers/uart.c:776
 	{
 		mask = (unsigned char)~(BIT(1)|BIT(0));;
 		val = BIT(0);
 	}
 	if(tx_pin != UART_TX_NONE_PIN){
 	   reg_gpio_func_mux(tx_pin)=(reg_gpio_func_mux(tx_pin)& mask)|val;
20003eee:	33270683          	lb	a3,818(a4)
uart_cal_div_and_bwpc():
E:/promotion/gitlab/telink_b91m_driver_sdk/telink_b91m_driver_sdk/chip/B91/drivers/uart.c:210
	primeInt = pclk/baudrate;
20003ef2:	91a2b637          	lui	a2,0x91a2b
uart_set_fuc_pin():
E:/promotion/gitlab/telink_b91m_driver_sdk/telink_b91m_driver_sdk/chip/B91/drivers/uart.c:776
 	   reg_gpio_func_mux(tx_pin)=(reg_gpio_func_mux(tx_pin)& mask)|val;
20003ef6:	0cf6f693          	andi	a3,a3,207
uart_cal_div_and_bwpc():
E:/promotion/gitlab/telink_b91m_driver_sdk/telink_b91m_driver_sdk/chip/B91/drivers/uart.c:211
	primeDec = 10*pclk/baudrate - 10*primeInt;
20003efa:	029784b3          	mul	s1,a5,s1
uart_set_fuc_pin():
E:/promotion/gitlab/telink_b91m_driver_sdk/telink_b91m_driver_sdk/chip/B91/drivers/uart.c:776
 	   reg_gpio_func_mux(tx_pin)=(reg_gpio_func_mux(tx_pin)& mask)|val;
20003efe:	0206e693          	ori	a3,a3,32
20003f02:	32d70923          	sb	a3,818(a4)
gpio_function_dis():
E:/promotion/gitlab/telink_b91m_driver_sdk/telink_b91m_driver_sdk/chip/B91/drivers/gpio.h:206
	BM_CLR(reg_gpio_func(pin), bit);
20003f06:	30e70683          	lb	a3,782(a4)
uart_cal_div_and_bwpc():
E:/promotion/gitlab/telink_b91m_driver_sdk/telink_b91m_driver_sdk/chip/B91/drivers/uart.c:210
	primeInt = pclk/baudrate;
20003f0a:	3c560613          	addi	a2,a2,965 # 91a2b3c5 <_DATA_LMA_START+0x71a233ed>
gpio_function_dis():
E:/promotion/gitlab/telink_b91m_driver_sdk/telink_b91m_driver_sdk/chip/B91/drivers/gpio.h:206
20003f0e:	0fb6f693          	andi	a3,a3,251
20003f12:	30d70723          	sb	a3,782(a4)
uart_cal_div_and_bwpc():
E:/promotion/gitlab/telink_b91m_driver_sdk/telink_b91m_driver_sdk/chip/B91/drivers/uart.c:210
20003f16:	02c7b7b3          	mulhu	a5,a5,a2
uart_set_fuc_pin():
E:/promotion/gitlab/telink_b91m_driver_sdk/telink_b91m_driver_sdk/chip/B91/drivers/uart.c:791
 	}
 	else if(rx_pin == UART0_RX_PB3)
 	{
 		mask = (unsigned char)~(BIT(7)|BIT(6));
 		val = BIT(7);
 		reg_gpio_pad_mul_sel|=BIT(0);
20003f1a:	35570683          	lb	a3,853(a4)
20003f1e:	0ff6f693          	andi	a3,a3,255
20003f22:	0016e693          	ori	a3,a3,1
20003f26:	34d70aa3          	sb	a3,853(a4)
uart_cal_div_and_bwpc():
E:/promotion/gitlab/telink_b91m_driver_sdk/telink_b91m_driver_sdk/chip/B91/drivers/uart.c:211
	primeDec = 10*pclk/baudrate - 10*primeInt;
20003f2a:	02c4b4b3          	mulhu	s1,s1,a2
uart_set_fuc_pin():
E:/promotion/gitlab/telink_b91m_driver_sdk/telink_b91m_driver_sdk/chip/B91/drivers/uart.c:816
 		mask = (unsigned char)~(BIT(5)|BIT(4));
 		val = BIT(4);
 	}
 	//note:  setting pad the function  must before  setting no_gpio function, cause it will lead to uart transmit extra one byte data at begin.(confirmed by minghai&sunpeng)
 	if(rx_pin != UART_RX_NONE_PIN){
 	  reg_gpio_func_mux(rx_pin)=(reg_gpio_func_mux(rx_pin)& mask)|val;
20003f2e:	33270683          	lb	a3,818(a4)
20003f32:	03f6f693          	andi	a3,a3,63
20003f36:	0806e693          	ori	a3,a3,128
20003f3a:	32d70923          	sb	a3,818(a4)
gpio_function_dis():
E:/promotion/gitlab/telink_b91m_driver_sdk/telink_b91m_driver_sdk/chip/B91/drivers/gpio.h:206
20003f3e:	30e70683          	lb	a3,782(a4)
uart_cal_div_and_bwpc():
E:/promotion/gitlab/telink_b91m_driver_sdk/telink_b91m_driver_sdk/chip/B91/drivers/uart.c:210
	primeInt = pclk/baudrate;
20003f42:	0107d413          	srli	s0,a5,0x10
gpio_function_dis():
E:/promotion/gitlab/telink_b91m_driver_sdk/telink_b91m_driver_sdk/chip/B91/drivers/gpio.h:206
20003f46:	0f76f793          	andi	a5,a3,247
20003f4a:	30f70723          	sb	a5,782(a4)
uart_rtx_en():
E:/promotion/gitlab/telink_b91m_driver_sdk/telink_b91m_driver_sdk/chip/B91/drivers/uart.h:765
 * @param[in]  	chn - UART0 or UART1.
 * @return     	none.
 */
static inline void uart_rtx_en(uart_num_e chn)
{
	reg_uart_rx_timeout1(chn)|=FLD_UART_P7816_EN;
20003f4e:	08b70783          	lb	a5,139(a4)
uart_cal_div_and_bwpc():
E:/promotion/gitlab/telink_b91m_driver_sdk/telink_b91m_driver_sdk/chip/B91/drivers/uart.c:211
	primeDec = 10*pclk/baudrate - 10*primeInt;
20003f52:	80c1                	c.srli	s1,0x10
20003f54:	46a9                	c.li	a3,10
20003f56:	c6d414ff          	msubr32	s1,s0,a3
uart_rtx_en():
E:/promotion/gitlab/telink_b91m_driver_sdk/telink_b91m_driver_sdk/chip/B91/drivers/uart.h:765
20003f5a:	0ff7f793          	andi	a5,a5,255
20003f5e:	0207e793          	ori	a5,a5,32
uart_cal_div_and_bwpc():
E:/promotion/gitlab/telink_b91m_driver_sdk/telink_b91m_driver_sdk/chip/B91/drivers/uart.c:213
	if(uart_is_prime(primeInt)){ // primeInt is prime
20003f62:	8522                	c.mv	a0,s0
uart_rtx_en():
E:/promotion/gitlab/telink_b91m_driver_sdk/telink_b91m_driver_sdk/chip/B91/drivers/uart.h:765
20003f64:	08f705a3          	sb	a5,139(a4)
uart_cal_div_and_bwpc():
E:/promotion/gitlab/telink_b91m_driver_sdk/telink_b91m_driver_sdk/chip/B91/drivers/uart.c:211
	primeDec = 10*pclk/baudrate - 10*primeInt;
20003f68:	0ff4f493          	andi	s1,s1,255
E:/promotion/gitlab/telink_b91m_driver_sdk/telink_b91m_driver_sdk/chip/B91/drivers/uart.c:213
	if(uart_is_prime(primeInt)){ // primeInt is prime
20003f6c:	800ff0ef          	jal	ra,20002f6c <uart_is_prime>
20003f70:	20050ee3          	beqz	a0,2000498c <main+0x1354>
E:/promotion/gitlab/telink_b91m_driver_sdk/telink_b91m_driver_sdk/chip/B91/drivers/uart.c:214
		primeInt += 1;  //+1 must be not prime. and primeInt must be larger than 2.
20003f74:	00140413          	addi	s0,s0,1
E:/promotion/gitlab/telink_b91m_driver_sdk/telink_b91m_driver_sdk/chip/B91/drivers/uart.c:226
		D_intdec[i-3] = (10*primeInt)/(i+1);////get the LSB
20003f78:	47a9                	c.li	a5,10
20003f7a:	02f40433          	mul	s0,s0,a5
20003f7e:	00e8                	c.addi4spn	a0,sp,76
20003f80:	08ec                	c.addi4spn	a1,sp,92
20003f82:	4811                	c.li	a6,4
E:/promotion/gitlab/telink_b91m_driver_sdk/telink_b91m_driver_sdk/chip/B91/drivers/uart.c:227
		D_dec[i-3] = D_intdec[i-3] - 10*(D_intdec[i-3]/10);//get the decimal section
20003f84:	ccccd637          	lui	a2,0xccccd
20003f88:	05910e13          	addi	t3,sp,89
E:/promotion/gitlab/telink_b91m_driver_sdk/telink_b91m_driver_sdk/chip/B91/drivers/uart.c:226
		D_intdec[i-3] = (10*primeInt)/(i+1);////get the LSB
20003f8c:	88ae                	c.mv	a7,a1
20003f8e:	872a                	c.mv	a4,a0
20003f90:	40a80833          	sub	a6,a6,a0
E:/promotion/gitlab/telink_b91m_driver_sdk/telink_b91m_driver_sdk/chip/B91/drivers/uart.c:227
		D_dec[i-3] = D_intdec[i-3] - 10*(D_intdec[i-3]/10);//get the decimal section
20003f94:	ccd60613          	addi	a2,a2,-819 # cccccccd <_DATA_LMA_START+0xaccc4cf5>
20003f98:	00a00313          	li	t1,10
E:/promotion/gitlab/telink_b91m_driver_sdk/telink_b91m_driver_sdk/chip/B91/drivers/uart.c:226
		D_intdec[i-3] = (10*primeInt)/(i+1);////get the LSB
20003f9c:	00e807b3          	add	a5,a6,a4
20003fa0:	02f457b3          	divu	a5,s0,a5
20003fa4:	0705                	c.addi	a4,1
20003fa6:	0891                	c.addi	a7,4
E:/promotion/gitlab/telink_b91m_driver_sdk/telink_b91m_driver_sdk/chip/B91/drivers/uart.c:227
		D_dec[i-3] = D_intdec[i-3] - 10*(D_intdec[i-3]/10);//get the decimal section
20003fa8:	02c7b6b3          	mulhu	a3,a5,a2
20003fac:	828d                	c.srli	a3,0x3
20003fae:	c66697ff          	msubr32	a5,a3,t1
E:/promotion/gitlab/telink_b91m_driver_sdk/telink_b91m_driver_sdk/chip/B91/drivers/uart.c:228
		D_int[i-3] = D_intdec[i-3]/10;//get the integer section
20003fb2:	fed8ae23          	sw	a3,-4(a7) # 7ffffffc <_DATA_LMA_START+0x5fff8024>
E:/promotion/gitlab/telink_b91m_driver_sdk/telink_b91m_driver_sdk/chip/B91/drivers/uart.c:227
		D_dec[i-3] = D_intdec[i-3] - 10*(D_intdec[i-3]/10);//get the decimal section
20003fb6:	fef70fa3          	sb	a5,-1(a4)
E:/promotion/gitlab/telink_b91m_driver_sdk/telink_b91m_driver_sdk/chip/B91/drivers/uart.c:225
	for(i=3;i<=15;i++){
20003fba:	feee11e3          	bne	t3,a4,20003f9c <main+0x964>
main():
E:/promotion/gitlab/telink_b91m_driver_sdk/telink_b91m_driver_sdk/chip/B91/drivers/uart.c:232
	unsigned char position_min = 0,position_max = 0;
20003fbe:	4781                	c.li	a5,0
20003fc0:	4701                	c.li	a4,0
E:/promotion/gitlab/telink_b91m_driver_sdk/telink_b91m_driver_sdk/chip/B91/drivers/uart.c:233
	unsigned int min = 0xffffffff,max = 0x00;
20003fc2:	4881                	c.li	a7,0
20003fc4:	587d                	c.li	a6,-1
E:/promotion/gitlab/telink_b91m_driver_sdk/telink_b91m_driver_sdk/chip/B91/drivers/uart.c:234
	for(j=0;j<13;j++){
20003fc6:	4681                	c.li	a3,0
uart_cal_div_and_bwpc():
E:/promotion/gitlab/telink_b91m_driver_sdk/telink_b91m_driver_sdk/chip/B91/drivers/uart.c:235
		if((D_dec[j] <= min)&&(D_int[j] != 0x01)){
20003fc8:	00054603          	lbu	a2,0(a0) # 3fe000 <FLASH_SIZE+0x2fe000>
E:/promotion/gitlab/telink_b91m_driver_sdk/telink_b91m_driver_sdk/chip/B91/drivers/uart.c:234
	for(j=0;j<13;j++){
20003fcc:	00168313          	addi	t1,a3,1
E:/promotion/gitlab/telink_b91m_driver_sdk/telink_b91m_driver_sdk/chip/B91/drivers/uart.c:235
		if((D_dec[j] <= min)&&(D_int[j] != 0x01)){
20003fd0:	00c86863          	bltu	a6,a2,20003fe0 <main+0x9a8>
20003fd4:	0005ae03          	lw	t3,0(a1) # 10000 <BIN_SIZE+0x7ff2>
20003fd8:	001e545b          	beqc	t3,1,20003fe0 <main+0x9a8>
20003fdc:	8736                	c.mv	a4,a3
20003fde:	8832                	c.mv	a6,a2
E:/promotion/gitlab/telink_b91m_driver_sdk/telink_b91m_driver_sdk/chip/B91/drivers/uart.c:239
		if(D_dec[j]>=max){
20003fe0:	01166463          	bltu	a2,a7,20003fe8 <main+0x9b0>
20003fe4:	87b6                	c.mv	a5,a3
20003fe6:	88b2                	c.mv	a7,a2
E:/promotion/gitlab/telink_b91m_driver_sdk/telink_b91m_driver_sdk/chip/B91/drivers/uart.c:234
	for(j=0;j<13;j++){
20003fe8:	0ff37693          	andi	a3,t1,255
20003fec:	0505                	c.addi	a0,1
20003fee:	0591                	c.addi	a1,4
20003ff0:	bcd6ec5b          	bnec	a3,13,20003fc8 <main+0x990>
E:/promotion/gitlab/telink_b91m_driver_sdk/telink_b91m_driver_sdk/chip/B91/drivers/uart.c:245
	if((D_dec[position_min]<5) && (D_dec[position_max]>=5)){
20003ff4:	0904                	c.addi4spn	s1,sp,144
20003ff6:	00e486b3          	add	a3,s1,a4
20003ffa:	fbc6c603          	lbu	a2,-68(a3)
20003ffe:	4691                	c.li	a3,4
20004000:	48c6e6e3          	bltu	a3,a2,20004c8c <main+0x1654>
20004004:	00f485b3          	add	a1,s1,a5
20004008:	fbc5c583          	lbu	a1,-68(a1)
2000400c:	44b6fae3          	bgeu	a3,a1,20004c60 <main+0x1628>
E:/promotion/gitlab/telink_b91m_driver_sdk/telink_b91m_driver_sdk/chip/B91/drivers/uart.c:246
		if(D_dec[position_min]<(10-D_dec[position_max])){
20004010:	46a9                	c.li	a3,10
20004012:	8e8d                	c.sub	a3,a1
20004014:	44d648e3          	blt	a2,a3,20004c64 <main+0x162c>
E:/promotion/gitlab/telink_b91m_driver_sdk/telink_b91m_driver_sdk/chip/B91/drivers/uart.c:252
			*div = D_int[position_max];
20004018:	09010493          	addi	s1,sp,144
E:/promotion/gitlab/telink_b91m_driver_sdk/telink_b91m_driver_sdk/chip/B91/drivers/uart.c:251
			*bwpc = position_max + 3;
2000401c:	00378713          	addi	a4,a5,3
E:/promotion/gitlab/telink_b91m_driver_sdk/telink_b91m_driver_sdk/chip/B91/drivers/uart.c:252
			*div = D_int[position_max];
20004020:	0cf487db          	lea.w	a5,s1,a5
20004024:	fcc7d783          	lhu	a5,-52(a5)
E:/promotion/gitlab/telink_b91m_driver_sdk/telink_b91m_driver_sdk/chip/B91/drivers/uart.c:251
			*bwpc = position_max + 3;
20004028:	0ff77713          	andi	a4,a4,255
uart_init():
E:/promotion/gitlab/telink_b91m_driver_sdk/telink_b91m_driver_sdk/chip/B91/drivers/uart.c:167
	reg_uart_ctrl0(uart_num) = ((reg_uart_ctrl0(uart_num) & (~FLD_UART_BPWC_O))| bwpc);//set bwpc
2000402c:	80140437          	lui	s0,0x80140
20004030:	08640683          	lb	a3,134(s0) # 80140086 <_DATA_LMA_START+0x601380ae>
E:/promotion/gitlab/telink_b91m_driver_sdk/telink_b91m_driver_sdk/chip/B91/drivers/uart.c:168
    reg_uart_clk_div(uart_num) = (div | FLD_UART_CLK_DIV_EN); //set div_clock
20004034:	6621                	c.lui	a2,0x8
E:/promotion/gitlab/telink_b91m_driver_sdk/telink_b91m_driver_sdk/chip/B91/drivers/uart.c:167
	reg_uart_ctrl0(uart_num) = ((reg_uart_ctrl0(uart_num) & (~FLD_UART_BPWC_O))| bwpc);//set bwpc
20004036:	0f06f693          	andi	a3,a3,240
2000403a:	8f55                	c.or	a4,a3
2000403c:	08e40323          	sb	a4,134(s0)
E:/promotion/gitlab/telink_b91m_driver_sdk/telink_b91m_driver_sdk/chip/B91/drivers/uart.c:168
    reg_uart_clk_div(uart_num) = (div | FLD_UART_CLK_DIV_EN); //set div_clock
20004040:	8fd1                	c.or	a5,a2
20004042:	08f41223          	sh	a5,132(s0)
E:/promotion/gitlab/telink_b91m_driver_sdk/telink_b91m_driver_sdk/chip/B91/drivers/uart.c:181
    	reg_uart_ctrl1(uart_num)  &= (~FLD_UART_PARITY_ENABLE); //disable parity function
20004046:	08740783          	lb	a5,135(s0)
2000404a:	0fb7f793          	andi	a5,a5,251
2000404e:	08f403a3          	sb	a5,135(s0)
E:/promotion/gitlab/telink_b91m_driver_sdk/telink_b91m_driver_sdk/chip/B91/drivers/uart.c:185
    reg_uart_ctrl1(uart_num) = ((reg_uart_ctrl1(uart_num) & (~FLD_UART_STOP_SEL)) | stop_bit);
20004052:	08740783          	lb	a5,135(s0)
adc_set_dma_config():
E:/promotion/gitlab/telink_b91m_driver_sdk/telink_b91m_driver_sdk/chip/B91/drivers/adc.c:63
	adc_dma_chn = chn;
20004056:	819f948b          	addigp	s1,-2024 # 80018 <_BSS_VMA_START>
2000405a:	c226                	c.swsp	s1,4(sp)
uart_init():
E:/promotion/gitlab/telink_b91m_driver_sdk/telink_b91m_driver_sdk/chip/B91/drivers/uart.c:185
2000405c:	0cf7f793          	andi	a5,a5,207
20004060:	08f403a3          	sb	a5,135(s0)
uart_rx_irq_trig_level():
E:/promotion/gitlab/telink_b91m_driver_sdk/telink_b91m_driver_sdk/chip/B91/drivers/uart.h:402
	reg_uart_ctrl3(uart_num) = (reg_uart_ctrl3(uart_num) & (~FLD_UART_RX_IRQ_TRIQ_LEV)) | (rx_level & 0x0f);
20004064:	08940783          	lb	a5,137(s0)
plic_interrupt_enable():
E:\promotion\gitlab\telink_b91m_driver_sdk\telink_b91m_driver_sdk\chip\B91\drivers/lib/include/plic.h:260
20004068:	e4002637          	lui	a2,0xe4002
uart_rx_irq_trig_level():
E:/promotion/gitlab/telink_b91m_driver_sdk/telink_b91m_driver_sdk/chip/B91/drivers/uart.h:402
2000406c:	0f07f793          	andi	a5,a5,240
20004070:	0017e793          	ori	a5,a5,1
20004074:	08f404a3          	sb	a5,137(s0)
uart_set_irq_mask():
E:/promotion/gitlab/telink_b91m_driver_sdk/telink_b91m_driver_sdk/chip/B91/drivers/uart.h:562
		reg_uart_ctrl0(uart_num) |= (((mask & UART_RX_IRQ_MASK)? 1:0) << 6) | (((mask & UART_TX_IRQ_MASK)? 1:0 )<< 7);
20004078:	08640703          	lb	a4,134(s0)
plic_interrupt_enable():
E:\promotion\gitlab\telink_b91m_driver_sdk\telink_b91m_driver_sdk\chip\B91\drivers/lib/include/plic.h:260
2000407c:	000805b7          	lui	a1,0x80
uart_set_irq_mask():
E:/promotion/gitlab/telink_b91m_driver_sdk/telink_b91m_driver_sdk/chip/B91/drivers/uart.h:562
20004080:	04076713          	ori	a4,a4,64
20004084:	0ff77713          	andi	a4,a4,255
20004088:	08e40323          	sb	a4,134(s0)
E:/promotion/gitlab/telink_b91m_driver_sdk/telink_b91m_driver_sdk/chip/B91/drivers/uart.h:567
		reg_uart_rx_timeout1(uart_num) |= (((mask & UART_RXDONE_MASK)? 1:0) << 2) | (((mask & UART_TXDONE_MASK) ? 1:0 )<< 6) | (((mask & UART_ERR_IRQ_MASK) ? 1:0 )<< 7);
2000408c:	08b40703          	lb	a4,139(s0)
dma_config():
E:/promotion/gitlab/telink_b91m_driver_sdk/telink_b91m_driver_sdk/chip/B91/drivers/dma.h:159
	reg_dma_ctrl(chn) = (reg_dma_ctrl(chn)&(~BIT_RNG(4,31)))|((*(unsigned int*)config)<<4);
20004090:	801006b7          	lui	a3,0x80100
uart_set_irq_mask():
E:/promotion/gitlab/telink_b91m_driver_sdk/telink_b91m_driver_sdk/chip/B91/drivers/uart.h:567
20004094:	f8076713          	ori	a4,a4,-128
20004098:	0ff77713          	andi	a4,a4,255
2000409c:	08e405a3          	sb	a4,139(s0)
plic_interrupt_enable():
E:\promotion\gitlab\telink_b91m_driver_sdk\telink_b91m_driver_sdk\chip\B91\drivers/lib/include/plic.h:260
200040a0:	4218                	c.lw	a4,0(a2)
200040a2:	8f4d                	c.or	a4,a1
200040a4:	c218                	c.sw	a4,0(a2)
adc_set_dma_config():
E:/promotion/gitlab/telink_b91m_driver_sdk/telink_b91m_driver_sdk/chip/B91/drivers/adc.c:63
200040a6:	471d                	c.li	a4,7
200040a8:	00e48023          	sb	a4,0(s1)
dma_config():
E:/promotion/gitlab/telink_b91m_driver_sdk/telink_b91m_driver_sdk/chip/B91/drivers/dma.h:159
200040ac:	80ffa7ab          	lwgp	a5,-2036 # 8000c <adc_rx_dma_config>
200040b0:	4d06a703          	lw	a4,1232(a3) # 801004d0 <_DATA_LMA_START+0x600f84f8>
200040b4:	0792                	c.slli	a5,0x4
200040b6:	8b3d                	c.andi	a4,15
200040b8:	8fd9                	c.or	a5,a4
200040ba:	4cf6a823          	sw	a5,1232(a3)
dma_clr_irq_mask():
E:/promotion/gitlab/telink_b91m_driver_sdk/telink_b91m_driver_sdk/chip/B91/drivers/dma.h:203
	reg_dma_ctr0(chn) |= (mask);
200040be:	0004c683          	lbu	a3,0(s1)
200040c2:	001007b7          	lui	a5,0x100
200040c6:	4751                	c.li	a4,20
200040c8:	44478793          	addi	a5,a5,1092 # 100444 <FLASH_SIZE+0x444>
200040cc:	c4e697ff          	maddr32	a5,a3,a4
adc_gpio_sample_init():
E:/promotion/gitlab/telink_b91m_driver_sdk/telink_b91m_driver_sdk/chip/B91/drivers/adc.c:292
 *			changed by chaofan.20201230.
 *		      In order to switch the pin of the ADC, it can be done by calling the interface 'adc_pin_config' and 'adc_set_diff_input'.
 */
void adc_gpio_sample_init(adc_input_pin_def_e pin,adc_ref_vol_e v_ref,adc_pre_scale_e pre_scale,adc_sample_freq_e sample_freq)
{
	g_adc_vref = g_adc_gpio_calib_vref;//set gpio sample calib vref
200040d0:	00000737          	lui	a4,0x0
200040d4:	15870493          	addi	s1,a4,344 # 158 <_AES_VMA_END>
dma_clr_irq_mask():
E:/promotion/gitlab/telink_b91m_driver_sdk/telink_b91m_driver_sdk/chip/B91/drivers/dma.h:203
200040d8:	80000737          	lui	a4,0x80000
200040dc:	8fd9                	c.or	a5,a4
200040de:	00078703          	lb	a4,0(a5)
adc_gpio_sample_init():
E:/promotion/gitlab/telink_b91m_driver_sdk/telink_b91m_driver_sdk/chip/B91/drivers/adc.c:293
	g_adc_vref_offset = g_adc_gpio_calib_vref_offset;//set adc_vref_offset as adc_gpio_calib_vref_offset
200040e2:	00248683          	lb	a3,2(s1)
dma_clr_irq_mask():
E:/promotion/gitlab/telink_b91m_driver_sdk/telink_b91m_driver_sdk/chip/B91/drivers/dma.h:203
200040e6:	0ff77713          	andi	a4,a4,255
200040ea:	00e76713          	ori	a4,a4,14
200040ee:	00e78023          	sb	a4,0(a5)
dma_set_irq_mask():
E:/promotion/gitlab/telink_b91m_driver_sdk/telink_b91m_driver_sdk/chip/B91/drivers/dma.h:191
	reg_dma_ctr0(chn) = (reg_dma_ctr0(chn) | BIT_RNG(1,3)) & (~(mask));
200040f2:	00078703          	lb	a4,0(a5)
adc_gpio_sample_init():
E:/promotion/gitlab/telink_b91m_driver_sdk/telink_b91m_driver_sdk/chip/B91/drivers/adc.c:293
200040f6:	04d48f23          	sb	a3,94(s1)
dma_set_irq_mask():
E:/promotion/gitlab/telink_b91m_driver_sdk/telink_b91m_driver_sdk/chip/B91/drivers/dma.h:191
200040fa:	0f177713          	andi	a4,a4,241
200040fe:	00c76713          	ori	a4,a4,12
20004102:	00e78023          	sb	a4,0(a5)
adc_gpio_sample_init():
E:/promotion/gitlab/telink_b91m_driver_sdk/telink_b91m_driver_sdk/chip/B91/drivers/adc.c:292
	g_adc_vref = g_adc_gpio_calib_vref;//set gpio sample calib vref
20004106:	d426                	c.swsp	s1,40(sp)
audio_data_fifo1_path_sel():
E:/promotion/gitlab/telink_b91m_driver_sdk/telink_b91m_driver_sdk/chip/B91/drivers/audio.h:645
 * @param[in] aout1_sel:fifo1 output source select
 * @return    none
 */
static inline void audio_data_fifo1_path_sel ( audio_mux_ain_e ain1_sel, audio_mux_aout_e aout1_sel)
{
	reg_audio_sel = MASK_VAL( FLD_AUDIO_AIN1_SEL, ain1_sel, FLD_AUDIO_AOUT1_SEL, aout1_sel);
20004108:	fe000793          	li	a5,-32
2000410c:	50f402a3          	sb	a5,1285(s0)
adc_gpio_sample_init():
E:/promotion/gitlab/telink_b91m_driver_sdk/telink_b91m_driver_sdk/chip/B91/drivers/adc.c:292
20004110:	00049783          	lh	a5,0(s1)
adc_power_off():
E:/promotion/gitlab/telink_b91m_driver_sdk/telink_b91m_driver_sdk/chip/B91/drivers/adc.h:167
 * @brief      This function close sar_adc power.
 * @return     none
 */
static inline void adc_power_off(void)
{
	analog_write_reg8 (areg_adc_pga_ctrl, (analog_read_reg8(areg_adc_pga_ctrl)|FLD_SAR_ADC_POWER_DOWN));
20004114:	0fc00513          	li	a0,252
adc_gpio_sample_init():
E:/promotion/gitlab/telink_b91m_driver_sdk/telink_b91m_driver_sdk/chip/B91/drivers/adc.c:292
20004118:	04f49e23          	sh	a5,92(s1)
adc_power_off():
E:/promotion/gitlab/telink_b91m_driver_sdk/telink_b91m_driver_sdk/chip/B91/drivers/adc.h:167
2000411c:	dfffc097          	auipc	ra,0xdfffc
20004120:	680080e7          	jalr	1664(ra) # 79c <analog_read_reg8>
20004124:	02056593          	ori	a1,a0,32
20004128:	0ff5f593          	andi	a1,a1,255
2000412c:	0fc00513          	li	a0,252
20004130:	dfffc097          	auipc	ra,0xdfffc
20004134:	630080e7          	jalr	1584(ra) # 760 <analog_write_reg8>
adc_reset():
E:/promotion/gitlab/telink_b91m_driver_sdk/telink_b91m_driver_sdk/chip/B91/drivers/adc.h:175
 * @brief      This function reset adc module
 * @return     none
 */
static inline void adc_reset(void)
{
	reg_rst3 &= (~FLD_RST3_SARADC );
20004138:	1e340783          	lb	a5,483(s0)
adc_clk_en():
E:/promotion/gitlab/telink_b91m_driver_sdk/telink_b91m_driver_sdk/chip/B91/drivers/adc.h:200
 * @brief      This function enable adc source clock: Pad_24M
 * @return     none
 */
static inline void adc_clk_en(void)
{
	analog_write_reg8(areg_adc_clk_setting	, analog_read_reg8(areg_adc_clk_setting	) | FLD_CLK_24M_TO_SAR_EN);
2000413c:	08200513          	li	a0,130
adc_reset():
E:/promotion/gitlab/telink_b91m_driver_sdk/telink_b91m_driver_sdk/chip/B91/drivers/adc.h:175
	reg_rst3 &= (~FLD_RST3_SARADC );
20004140:	0bf7f793          	andi	a5,a5,191
20004144:	1ef401a3          	sb	a5,483(s0)
E:/promotion/gitlab/telink_b91m_driver_sdk/telink_b91m_driver_sdk/chip/B91/drivers/adc.h:176
	reg_rst3 |=FLD_RST3_SARADC;
20004148:	1e340783          	lb	a5,483(s0)
2000414c:	0ff7f793          	andi	a5,a5,255
20004150:	0407e793          	ori	a5,a5,64
20004154:	1ef401a3          	sb	a5,483(s0)
adc_clk_en():
E:/promotion/gitlab/telink_b91m_driver_sdk/telink_b91m_driver_sdk/chip/B91/drivers/adc.h:200
	analog_write_reg8(areg_adc_clk_setting	, analog_read_reg8(areg_adc_clk_setting	) | FLD_CLK_24M_TO_SAR_EN);
20004158:	dfffc097          	auipc	ra,0xdfffc
2000415c:	644080e7          	jalr	1604(ra) # 79c <analog_read_reg8>
20004160:	04056593          	ori	a1,a0,64
20004164:	0ff5f593          	andi	a1,a1,255
20004168:	08200513          	li	a0,130
2000416c:	dfffc097          	auipc	ra,0xdfffc
20004170:	5f4080e7          	jalr	1524(ra) # 760 <analog_write_reg8>
adc_set_clk():
E:/promotion/gitlab/telink_b91m_driver_sdk/telink_b91m_driver_sdk/chip/B91/drivers/adc.h:218
 * @return     none
 * @attention: The ADC clock is fixed at 4MHz and should not be modified.
 */
static inline void adc_set_clk(unsigned char div)
{
	analog_write_reg8(areg_adc_sample_clk_div, div);
20004174:	00500593          	li	a1,5
20004178:	0f400513          	li	a0,244
2000417c:	dfffc097          	auipc	ra,0xdfffc
20004180:	5e4080e7          	jalr	1508(ra) # 760 <analog_write_reg8>
adc_set_ref_voltage():
E:/promotion/gitlab/telink_b91m_driver_sdk/telink_b91m_driver_sdk/chip/B91/drivers/adc.c:180
	analog_write_reg8(areg_adc_vref, v_ref);
20004184:	00200593          	li	a1,2
20004188:	0ea00513          	li	a0,234
2000418c:	dfffc097          	auipc	ra,0xdfffc
20004190:	5d4080e7          	jalr	1492(ra) # 760 <analog_write_reg8>
E:/promotion/gitlab/telink_b91m_driver_sdk/telink_b91m_driver_sdk/chip/B91/drivers/adc.c:185
		analog_write_reg8(areg_ain_scale  , (analog_read_reg8( areg_ain_scale  )&(0xC0)) | 0x3d );
20004194:	0fa00513          	li	a0,250
20004198:	dfffc097          	auipc	ra,0xdfffc
2000419c:	604080e7          	jalr	1540(ra) # 79c <analog_read_reg8>
200041a0:	0c057593          	andi	a1,a0,192
200041a4:	03d5e593          	ori	a1,a1,61
200041a8:	0fa00513          	li	a0,250
200041ac:	dfffc097          	auipc	ra,0xdfffc
200041b0:	5b4080e7          	jalr	1460(ra) # 760 <analog_write_reg8>
adc_set_scale_factor():
E:/promotion/gitlab/telink_b91m_driver_sdk/telink_b91m_driver_sdk/chip/B91/drivers/adc.c:233
	analog_write_reg8( areg_ain_scale  , (analog_read_reg8( areg_ain_scale  )&(~FLD_SEL_AIN_SCALE)) | (pre_scale<<6) );
200041b4:	0fa00513          	li	a0,250
200041b8:	dfffc097          	auipc	ra,0xdfffc
200041bc:	5e4080e7          	jalr	1508(ra) # 79c <analog_read_reg8>
200041c0:	03f57593          	andi	a1,a0,63
200041c4:	0805e593          	ori	a1,a1,128
200041c8:	0fa00513          	li	a0,250
200041cc:	dfffc097          	auipc	ra,0xdfffc
200041d0:	594080e7          	jalr	1428(ra) # 760 <analog_write_reg8>
E:/promotion/gitlab/telink_b91m_driver_sdk/telink_b91m_driver_sdk/chip/B91/drivers/adc.c:234
	g_adc_pre_scale = 1<<(unsigned char)pre_scale;
200041d4:	819fd48b          	addigp	s1,-2023 # 80019 <g_adc_pre_scale>
adc_set_state_length():
E:/promotion/gitlab/telink_b91m_driver_sdk/telink_b91m_driver_sdk/chip/B91/drivers/adc.h:283
 * @param[in]   r_max_s - Value of length of "set" state for MISC channel.
 * @return none
 */
static inline void adc_set_state_length(unsigned short r_max_mc,unsigned char r_max_s)
{
	analog_write_reg8(areg_r_max_mc, r_max_mc);
200041d8:	0f000593          	li	a1,240
adc_set_scale_factor():
E:/promotion/gitlab/telink_b91m_driver_sdk/telink_b91m_driver_sdk/chip/B91/drivers/adc.c:234
200041dc:	4791                	c.li	a5,4
adc_set_state_length():
E:/promotion/gitlab/telink_b91m_driver_sdk/telink_b91m_driver_sdk/chip/B91/drivers/adc.h:283
200041de:	0ef00513          	li	a0,239
adc_set_scale_factor():
E:/promotion/gitlab/telink_b91m_driver_sdk/telink_b91m_driver_sdk/chip/B91/drivers/adc.c:234
200041e2:	00f48023          	sb	a5,0(s1)
200041e6:	d026                	c.swsp	s1,32(sp)
adc_set_state_length():
E:/promotion/gitlab/telink_b91m_driver_sdk/telink_b91m_driver_sdk/chip/B91/drivers/adc.h:283
200041e8:	dfffc097          	auipc	ra,0xdfffc
200041ec:	578080e7          	jalr	1400(ra) # 760 <analog_write_reg8>
E:/promotion/gitlab/telink_b91m_driver_sdk/telink_b91m_driver_sdk/chip/B91/drivers/adc.h:284
	analog_write_reg8(areg_r_max_s, ((r_max_mc>>8)<<6)| (r_max_s & FLD_R_MAX_S));
200041f0:	00a00593          	li	a1,10
200041f4:	0f100513          	li	a0,241
200041f8:	dfffc097          	auipc	ra,0xdfffc
200041fc:	568080e7          	jalr	1384(ra) # 760 <analog_write_reg8>
adc_set_tsample_cycle():
E:/promotion/gitlab/telink_b91m_driver_sdk/telink_b91m_driver_sdk/chip/B91/drivers/adc.h:246
	analog_write_reg8(areg_adc_tsmaple_m, sample_cycle);  //optimize, <7:4> not cared
20004200:	00100593          	li	a1,1
20004204:	0ee00513          	li	a0,238
20004208:	dfffc097          	auipc	ra,0xdfffc
2000420c:	558080e7          	jalr	1368(ra) # 760 <analog_write_reg8>
adc_set_resolution():
E:/promotion/gitlab/telink_b91m_driver_sdk/telink_b91m_driver_sdk/chip/B91/drivers/adc.h:235
	analog_write_reg8(areg_adc_res_m, (analog_read_reg8(areg_adc_res_m)&(~FLD_ADC_RES_M)) | res);
20004210:	0ec00513          	li	a0,236
20004214:	dfffc097          	auipc	ra,0xdfffc
20004218:	588080e7          	jalr	1416(ra) # 79c <analog_read_reg8>
2000421c:	00356593          	ori	a1,a0,3
20004220:	0ff5f593          	andi	a1,a1,255
20004224:	0ec00513          	li	a0,236
20004228:	dfffc097          	auipc	ra,0xdfffc
2000422c:	538080e7          	jalr	1336(ra) # 760 <analog_write_reg8>
adc_set_m_chn_en():
E:/promotion/gitlab/telink_b91m_driver_sdk/telink_b91m_driver_sdk/chip/B91/drivers/adc.h:226
	analog_write_reg8(areg_adc_chn_en, FLD_ADC_CHN_EN_M | (ADC_MAX_STATE_NUM<<4) );
20004230:	02400593          	li	a1,36
20004234:	0f200513          	li	a0,242
20004238:	dfffc097          	auipc	ra,0xdfffc
2000423c:	528080e7          	jalr	1320(ra) # 760 <analog_write_reg8>
adc_set_vbat_divider():
E:/promotion/gitlab/telink_b91m_driver_sdk/telink_b91m_driver_sdk/chip/B91/drivers/adc.c:243
	analog_write_reg8(areg_adc_vref_vbat_div, (analog_read_reg8(areg_adc_vref_vbat_div)&(~FLD_ADC_VREF_VBAT_DIV)) | (vbat_div<<2) );
20004240:	0f900513          	li	a0,249
20004244:	dfffc097          	auipc	ra,0xdfffc
20004248:	558080e7          	jalr	1368(ra) # 79c <analog_read_reg8>
2000424c:	0f357593          	andi	a1,a0,243
20004250:	0f900513          	li	a0,249
20004254:	dfffc097          	auipc	ra,0xdfffc
20004258:	50c080e7          	jalr	1292(ra) # 760 <analog_write_reg8>
E:/promotion/gitlab/telink_b91m_driver_sdk/telink_b91m_driver_sdk/chip/B91/drivers/adc.c:250
		g_adc_vbat_divider=1;
2000425c:	81bf948b          	addigp	s1,-2022 # 8001a <g_adc_vbat_divider>
20004260:	4785                	c.li	a5,1
20004262:	d226                	c.swsp	s1,36(sp)
20004264:	00f48023          	sb	a5,0(s1)
gpio_function_en():
E:/promotion/gitlab/telink_b91m_driver_sdk/telink_b91m_driver_sdk/chip/B91/drivers/gpio.h:194
	BM_SET(reg_gpio_func(pin), bit);
20004268:	30e40783          	lb	a5,782(s0)
adc_pin_config():
E:/promotion/gitlab/telink_b91m_driver_sdk/telink_b91m_driver_sdk/chip/B91/drivers/adc.c:127
			gpio_input_dis(adc_input_pin);
2000426c:	12000513          	li	a0,288
gpio_function_en():
E:/promotion/gitlab/telink_b91m_driver_sdk/telink_b91m_driver_sdk/chip/B91/drivers/gpio.h:194
20004270:	0ff7f793          	andi	a5,a5,255
20004274:	0207e793          	ori	a5,a5,32
20004278:	30f40723          	sb	a5,782(s0)
adc_pin_config():
E:/promotion/gitlab/telink_b91m_driver_sdk/telink_b91m_driver_sdk/chip/B91/drivers/adc.c:127
2000427c:	a7cff0ef          	jal	ra,200034f8 <gpio_input_dis>
gpio_output_dis():
E:/promotion/gitlab/telink_b91m_driver_sdk/telink_b91m_driver_sdk/chip/B91/drivers/gpio.h:313
	BM_SET(reg_gpio_oen(pin), bit);
20004280:	30a40783          	lb	a5,778(s0)
adc_set_diff_input():
E:/promotion/gitlab/telink_b91m_driver_sdk/telink_b91m_driver_sdk/chip/B91/drivers/adc.h:272
	analog_write_reg8(areg_adc_res_m, analog_read_reg8(areg_adc_res_m) | FLD_ADC_EN_DIFF_CHN_M);
20004284:	0ec00513          	li	a0,236
gpio_output_dis():
E:/promotion/gitlab/telink_b91m_driver_sdk/telink_b91m_driver_sdk/chip/B91/drivers/gpio.h:313
20004288:	0ff7f793          	andi	a5,a5,255
2000428c:	0207e793          	ori	a5,a5,32
20004290:	30f40523          	sb	a5,778(s0)
gpio_set_low_level():
E:/promotion/gitlab/telink_b91m_driver_sdk/telink_b91m_driver_sdk/chip/B91/drivers/gpio.h:232
	BM_CLR(reg_gpio_out(pin), bit);
20004294:	30b40783          	lb	a5,779(s0)
20004298:	0df7f793          	andi	a5,a5,223
2000429c:	30f405a3          	sb	a5,779(s0)
adc_set_diff_input():
E:/promotion/gitlab/telink_b91m_driver_sdk/telink_b91m_driver_sdk/chip/B91/drivers/adc.h:272
200042a0:	dfffc097          	auipc	ra,0xdfffc
200042a4:	4fc080e7          	jalr	1276(ra) # 79c <analog_read_reg8>
200042a8:	04056593          	ori	a1,a0,64
200042ac:	0ff5f593          	andi	a1,a1,255
200042b0:	0ec00513          	li	a0,236
200042b4:	dfffc097          	auipc	ra,0xdfffc
200042b8:	4ac080e7          	jalr	1196(ra) # 760 <analog_write_reg8>
E:/promotion/gitlab/telink_b91m_driver_sdk/telink_b91m_driver_sdk/chip/B91/drivers/adc.h:273
	analog_write_reg8(areg_adc_ain_chn_misc, n_ain | p_ain<<4 );
200042bc:	06f00593          	li	a1,111
200042c0:	0eb00513          	li	a0,235
200042c4:	dfffc097          	auipc	ra,0xdfffc
200042c8:	49c080e7          	jalr	1180(ra) # 760 <analog_write_reg8>
adc_power_on():
E:/promotion/gitlab/telink_b91m_driver_sdk/telink_b91m_driver_sdk/chip/B91/drivers/adc.h:159
	analog_write_reg8 (areg_adc_pga_ctrl, (analog_read_reg8(areg_adc_pga_ctrl)&(~FLD_SAR_ADC_POWER_DOWN)));
200042cc:	0fc00513          	li	a0,252
200042d0:	dfffc097          	auipc	ra,0xdfffc
200042d4:	4cc080e7          	jalr	1228(ra) # 79c <analog_read_reg8>
200042d8:	0df57593          	andi	a1,a0,223
200042dc:	0fc00513          	li	a0,252
200042e0:	dfffc097          	auipc	ra,0xdfffc
200042e4:	480080e7          	jalr	1152(ra) # 760 <analog_write_reg8>
core_interrupt_enable():
E:/promotion/gitlab/telink_b91m_driver_sdk/telink_b91m_driver_sdk/chip/B91/drivers/core.h:130
	set_csr(NDS_MSTATUS,FLD_MSTATUS_MIE);//global interrupts enable
200042e8:	300467f3          	csrrsi	a5,mstatus,8
E:/promotion/gitlab/telink_b91m_driver_sdk/telink_b91m_driver_sdk/chip/B91/drivers/core.h:131
	set_csr(NDS_MIE,FLD_MIE_MSIE |FLD_MIE_MTIE|FLD_MIE_MEIE);//machine Interrupt enable selectively
200042ec:	000017b7          	lui	a5,0x1
200042f0:	88878793          	addi	a5,a5,-1912 # 888 <clock_init_ram.constprop.5+0xa8>
200042f4:	3047a7f3          	csrrs	a5,mie,a5
user_init():
E:/promotion/gitlab/telink_b91m_driver_sdk/telink_b91m_driver_sdk/demo/vendor/Mars_B91_Mother_V2.2/app_all.c:31
	binding_button();
	ws2812b_init();
	serial_port_init();
	photoresistor_init();
	core_interrupt_enable();
	printf("Mar_%s","B91");
200042f8:	200085b7          	lui	a1,0x20008
200042fc:	20008537          	lui	a0,0x20008
20004300:	dec58593          	addi	a1,a1,-532 # 20007dec <F8X16+0x5f8>
20004304:	df050513          	addi	a0,a0,-528 # 20007df0 <F8X16+0x5fc>
20004308:	019020ef          	jal	ra,20006b20 <printf>
stimer_get_tick():
E:/promotion/gitlab/telink_b91m_driver_sdk/telink_b91m_driver_sdk/chip/B91/drivers/stimer.h:168
	return reg_system_tick;
2000430c:	20042783          	lw	a5,512(s0)
user_init():
E:/promotion/gitlab/telink_b91m_driver_sdk/telink_b91m_driver_sdk/demo/vendor/Mars_B91_Mother_V2.2/app_all.c:32
	g_time0 = stimer_get_tick();
20004310:	831f9b0b          	addigp	s6,-2000 # 80030 <g_time0>
20004314:	00fb2023          	sw	a5,0(s6)
stimer_get_tick():
E:/promotion/gitlab/telink_b91m_driver_sdk/telink_b91m_driver_sdk/chip/B91/drivers/stimer.h:168
20004318:	20042703          	lw	a4,512(s0)
user_init():
E:/promotion/gitlab/telink_b91m_driver_sdk/telink_b91m_driver_sdk/demo/vendor/Mars_B91_Mother_V2.2/app_all.c:33
	g_time1 = stimer_get_tick();
2000431c:	835f9c0b          	addigp	s8,-1996 # 80034 <g_time1>
20004320:	00ec2023          	sw	a4,0(s8)
adc_start_sample_dma():
E:/promotion/gitlab/telink_b91m_driver_sdk/telink_b91m_driver_sdk/chip/B91/drivers/adc.c:82
	dma_set_address(adc_dma_chn,reg_fifo_buf_adr(1),(unsigned int)(adc_data_buf));
20004324:	09901d8b          	addigp	s11,2200 # 81098 <adc_sample_buffer>
20004328:	000a0737          	lui	a4,0xa0
2000432c:	14ede8e3          	bltu	s11,a4,20004c7c <main+0x1644>
20004330:	0990148b          	addigp	s1,2200 # 81098 <adc_sample_buffer>
20004334:	00912823          	sw	s1,16(sp)
20004338:	839f948b          	addigp	s1,-1992 # 80038 <g_uart_last_length>
2000433c:	200077b7          	lui	a5,0x20007
20004340:	c026                	c.swsp	s1,0(sp)
20004342:	79078493          	addi	s1,a5,1936 # 20007790 <__riscv_restore_0+0x10>
20004346:	200077b7          	lui	a5,0x20007
2000434a:	d626                	c.swsp	s1,44(sp)
2000434c:	79878493          	addi	s1,a5,1944 # 20007798 <__riscv_restore_0+0x18>
20004350:	200077b7          	lui	a5,0x20007
20004354:	ca26                	c.swsp	s1,20(sp)
20004356:	7a078493          	addi	s1,a5,1952 # 200077a0 <__riscv_restore_0+0x20>
2000435a:	200077b7          	lui	a5,0x20007
2000435e:	d826                	c.swsp	s1,48(sp)
20004360:	7a878493          	addi	s1,a5,1960 # 200077a8 <__riscv_restore_0+0x28>
20004364:	da26                	c.swsp	s1,52(sp)
20004366:	851f948b          	addigp	s1,-1968 # 80050 <pwm_irq_index>
2000436a:	cc26                	c.swsp	s1,24(sp)
2000436c:	801f948b          	addigp	s1,-2048 # 80000 <_DATA_VMA_START>
20004370:	dc26                	c.swsp	s1,56(sp)
uart_rec_handle():
E:/promotion/gitlab/telink_b91m_driver_sdk/telink_b91m_driver_sdk/demo/vendor/Mars_B91_Mother_V2.2/device/serial_port.c:35
	if(clock_time_exceed(g_uart_rec_time,10*1000)){ // 10ms
20004372:	00027437          	lui	s0,0x27
adc_get_code_dma():
E:/promotion/gitlab/telink_b91m_driver_sdk/telink_b91m_driver_sdk/chip/B91/drivers/adc.c:362
		{  //14 bit resolution, BIT(13) is sign bit, 1 means negative voltage in differential_mode
			sample_buffer[i] = 0;
		}
		else
		{
			sample_buffer[i] = (sample_buffer[i] & 0x1fff);  //BIT(12..0) is valid adc code
20004376:	6489                	c.lui	s1,0x2
dma_set_address():
E:/promotion/gitlab/telink_b91m_driver_sdk/telink_b91m_driver_sdk/chip/B91/drivers/dma.h:308
	reg_dma_src_addr(chn)= (unsigned int)convert_ram_addr_cpu2bus(src_addr);
20004378:	00100bb7          	lui	s7,0x100
2000437c:	841f9a8b          	addigp	s5,-1984 # 80040 <g_uart_rec_time>
20004380:	83df9a0b          	addigp	s4,-1988 # 8003c <g_uart_length>
20004384:	0a90190b          	addigp	s2,2216 # 810a8 <btn_left>
20004388:	81df998b          	addigp	s3,-2020 # 8001c <g_axis_info>
uart_rec_handle():
E:/promotion/gitlab/telink_b91m_driver_sdk/telink_b91m_driver_sdk/demo/vendor/Mars_B91_Mother_V2.2/device/serial_port.c:35
2000438c:	10040413          	addi	s0,s0,256 # 27100 <BIN_SIZE+0x1f0f2>
adc_get_code_dma():
E:/promotion/gitlab/telink_b91m_driver_sdk/telink_b91m_driver_sdk/chip/B91/drivers/adc.c:362
20004390:	fff48493          	addi	s1,s1,-1 # 1fff <entry_irq17+0x43>
main_loop():
E:/promotion/gitlab/telink_b91m_driver_sdk/telink_b91m_driver_sdk/demo/vendor/Mars_B91_Mother_V2.2/app_all.c:40

void main_loop(void)
{
	while(1){
		uart_rec_handle(uart_send_array);
		if(clock_time_exceed(g_time0,100*1000)){
20004394:	00187d37          	lui	s10,0x187
stimer_get_tick():
E:/promotion/gitlab/telink_b91m_driver_sdk/telink_b91m_driver_sdk/chip/B91/drivers/stimer.h:168
20004398:	80140cb7          	lui	s9,0x80140
main_loop():
E:/promotion/gitlab/telink_b91m_driver_sdk/telink_b91m_driver_sdk/demo/vendor/Mars_B91_Mother_V2.2/app_all.c:40
2000439c:	a00d0d13          	addi	s10,s10,-1536 # 186a00 <FLASH_SIZE+0x86a00>
200043a0:	0140006f          	j	200043b4 <main+0xd7c>
E:/promotion/gitlab/telink_b91m_driver_sdk/telink_b91m_driver_sdk/demo/vendor/Mars_B91_Mother_V2.2/app_all.c:46
			sht3x_test();
			get_res_value();
			get_acc_value(&g_axis_info);
			g_time0 = stimer_get_tick();
		}
		if(clock_time_exceed(g_time1,TICKS_INTERVAL*1000)){
200043a4:	000c2703          	lw	a4,0(s8)
stimer_get_tick():
E:/promotion/gitlab/telink_b91m_driver_sdk/telink_b91m_driver_sdk/chip/B91/drivers/stimer.h:168
200043a8:	200ca783          	lw	a5,512(s9) # 80140200 <_DATA_LMA_START+0x60138228>
clock_time_exceed():
E:/promotion/gitlab/telink_b91m_driver_sdk/telink_b91m_driver_sdk/chip/B91/drivers/stimer.h:179
	return ((unsigned int)(stimer_get_tick() - ref) > us * SYSTEM_TIMER_TICK_1US);
200043ac:	40e787b3          	sub	a5,a5,a4
main_loop():
E:/promotion/gitlab/telink_b91m_driver_sdk/telink_b91m_driver_sdk/demo/vendor/Mars_B91_Mother_V2.2/app_all.c:46
200043b0:	4af46a63          	bltu	s0,a5,20004864 <main+0x122c>
uart_rec_handle():
E:/promotion/gitlab/telink_b91m_driver_sdk/telink_b91m_driver_sdk/demo/vendor/Mars_B91_Mother_V2.2/device/serial_port.c:35
200043b4:	000aa703          	lw	a4,0(s5)
stimer_get_tick():
E:/promotion/gitlab/telink_b91m_driver_sdk/telink_b91m_driver_sdk/chip/B91/drivers/stimer.h:168
	return reg_system_tick;
200043b8:	200ca783          	lw	a5,512(s9)
clock_time_exceed():
E:/promotion/gitlab/telink_b91m_driver_sdk/telink_b91m_driver_sdk/chip/B91/drivers/stimer.h:179
	return ((unsigned int)(stimer_get_tick() - ref) > us * SYSTEM_TIMER_TICK_1US);
200043bc:	8f99                	c.sub	a5,a4
uart_rec_handle():
E:/promotion/gitlab/telink_b91m_driver_sdk/telink_b91m_driver_sdk/demo/vendor/Mars_B91_Mother_V2.2/device/serial_port.c:35
200043be:	02f47d63          	bgeu	s0,a5,200043f8 <main+0xdc0>
E:/promotion/gitlab/telink_b91m_driver_sdk/telink_b91m_driver_sdk/demo/vendor/Mars_B91_Mother_V2.2/device/serial_port.c:36
		if(g_uart_length && g_uart_last_length == g_uart_length){ // received
200043c2:	000a2783          	lw	a5,0(s4)
200043c6:	60078963          	beqz	a5,200049d8 <main+0x13a0>
200043ca:	4502                	c.lwsp	a0,0(sp)
200043cc:	00052703          	lw	a4,0(a0)
200043d0:	000a2783          	lw	a5,0(s4)
200043d4:	60f71263          	bne	a4,a5,200049d8 <main+0x13a0>
E:/promotion/gitlab/telink_b91m_driver_sdk/telink_b91m_driver_sdk/demo/vendor/Mars_B91_Mother_V2.2/device/serial_port.c:37
			cb((char*)UART_RX_BUF,g_uart_length);
200043d8:	000a2583          	lw	a1,0(s4)
200043dc:	899f950b          	addigp	a0,-1896 # 80098 <UART_RX_BUF>
200043e0:	d4dfe0ef          	jal	ra,2000312c <uart_send_array>
E:/promotion/gitlab/telink_b91m_driver_sdk/telink_b91m_driver_sdk/demo/vendor/Mars_B91_Mother_V2.2/device/serial_port.c:38
			g_uart_last_length = 0;
200043e4:	00012503          	lw	a0,0(sp)
200043e8:	00052023          	sw	zero,0(a0)
E:/promotion/gitlab/telink_b91m_driver_sdk/telink_b91m_driver_sdk/demo/vendor/Mars_B91_Mother_V2.2/device/serial_port.c:39
			g_uart_length = 0;
200043ec:	000a2023          	sw	zero,0(s4)
stimer_get_tick():
E:/promotion/gitlab/telink_b91m_driver_sdk/telink_b91m_driver_sdk/chip/B91/drivers/stimer.h:168
	return reg_system_tick;
200043f0:	200ca783          	lw	a5,512(s9)
uart_rec_handle():
E:/promotion/gitlab/telink_b91m_driver_sdk/telink_b91m_driver_sdk/demo/vendor/Mars_B91_Mother_V2.2/device/serial_port.c:42
		g_uart_rec_time = stimer_get_tick();
200043f4:	00faa023          	sw	a5,0(s5)
main_loop():
E:/promotion/gitlab/telink_b91m_driver_sdk/telink_b91m_driver_sdk/demo/vendor/Mars_B91_Mother_V2.2/app_all.c:40
		if(clock_time_exceed(g_time0,100*1000)){
200043f8:	000b2703          	lw	a4,0(s6)
stimer_get_tick():
E:/promotion/gitlab/telink_b91m_driver_sdk/telink_b91m_driver_sdk/chip/B91/drivers/stimer.h:168
200043fc:	200ca783          	lw	a5,512(s9)
clock_time_exceed():
E:/promotion/gitlab/telink_b91m_driver_sdk/telink_b91m_driver_sdk/chip/B91/drivers/stimer.h:179
	return ((unsigned int)(stimer_get_tick() - ref) > us * SYSTEM_TIMER_TICK_1US);
20004400:	8f99                	c.sub	a5,a4
main_loop():
E:/promotion/gitlab/telink_b91m_driver_sdk/telink_b91m_driver_sdk/demo/vendor/Mars_B91_Mother_V2.2/app_all.c:40
20004402:	fafd71e3          	bgeu	s10,a5,200043a4 <main+0xd6c>
ReadSHT3x():
E:/promotion/gitlab/telink_b91m_driver_sdk/telink_b91m_driver_sdk/demo/vendor/Mars_B91_Mother_V2.2/device/sht30.c:33
}

uint8_t ReadSHT3x(float *Temp,float *Hum)
{
	uint16_t HumData,TempData;
	uint8_t write_buff[2] = {0x2c,0x06};
20004406:	62c00793          	li	a5,1580
E:/promotion/gitlab/telink_b91m_driver_sdk/telink_b91m_driver_sdk/demo/vendor/Mars_B91_Mother_V2.2/device/sht30.c:35
	uint8_t read_buff[6];
	i2c_master_write(SHT3X_ADDR,(uint8_t *)write_buff, 2);
2000440a:	4609                	c.li	a2,2
2000440c:	04c10593          	addi	a1,sp,76
20004410:	08800513          	li	a0,136
E:/promotion/gitlab/telink_b91m_driver_sdk/telink_b91m_driver_sdk/demo/vendor/Mars_B91_Mother_V2.2/device/sht30.c:33
	uint8_t write_buff[2] = {0x2c,0x06};
20004414:	04f11623          	sh	a5,76(sp)
E:/promotion/gitlab/telink_b91m_driver_sdk/telink_b91m_driver_sdk/demo/vendor/Mars_B91_Mother_V2.2/device/sht30.c:35
	i2c_master_write(SHT3X_ADDR,(uint8_t *)write_buff, 2);
20004418:	bb1fe0ef          	jal	ra,20002fc8 <i2c_master_write>
E:/promotion/gitlab/telink_b91m_driver_sdk/telink_b91m_driver_sdk/demo/vendor/Mars_B91_Mother_V2.2/device/sht30.c:36
	i2c_master_read(SHT3X_ADDR,(uint8_t *)read_buff, 6);
2000441c:	05c10593          	addi	a1,sp,92
20004420:	08800513          	li	a0,136
20004424:	8d5fe0ef          	jal	ra,20002cf8 <i2c_master_read.constprop.36>
E:/promotion/gitlab/telink_b91m_driver_sdk/telink_b91m_driver_sdk/demo/vendor/Mars_B91_Mother_V2.2/device/sht30.c:38
	TempData = read_buff[0]<<8 |read_buff[1];
	HumData  = read_buff[3]<<8 |read_buff[4];
20004428:	06014583          	lbu	a1,96(sp)
2000442c:	05f14783          	lbu	a5,95(sp)
SHT3x_CRC_CAL():
E:/promotion/gitlab/telink_b91m_driver_sdk/telink_b91m_driver_sdk/demo/vendor/Mars_B91_Mother_V2.2/device/sht30.c:13
		CRC_BYTE ^= temp;
20004430:	46a1                	c.li	a3,8
ReadSHT3x():
E:/promotion/gitlab/telink_b91m_driver_sdk/telink_b91m_driver_sdk/demo/vendor/Mars_B91_Mother_V2.2/device/sht30.c:38
	HumData  = read_buff[3]<<8 |read_buff[4];
20004432:	07a2                	c.slli	a5,0x8
20004434:	00b7e7b3          	or	a5,a5,a1
20004438:	3c07b5db          	bfos	a1,a5,15,0
2000443c:	3c05a75b          	bfoz	a4,a1,15,0
SHT3x_CRC_CAL():
E:/promotion/gitlab/telink_b91m_driver_sdk/telink_b91m_driver_sdk/demo/vendor/Mars_B91_Mother_V2.2/device/sht30.c:11
	temp = (DAT>>8) & 0xFF;
20004440:	00875793          	srli	a5,a4,0x8
E:/promotion/gitlab/telink_b91m_driver_sdk/telink_b91m_driver_sdk/demo/vendor/Mars_B91_Mother_V2.2/device/sht30.c:13
		CRC_BYTE ^= temp;
20004444:	fff7c793          	not	a5,a5
20004448:	0ff7f793          	andi	a5,a5,255
E:/promotion/gitlab/telink_b91m_driver_sdk/telink_b91m_driver_sdk/demo/vendor/Mars_B91_Mother_V2.2/device/sht30.c:15
			if(CRC_BYTE & 0x80){
2000444c:	1c07b65b          	bfos	a2,a5,7,0
20004450:	0477a7db          	bfoz	a5,a5,1,7
20004454:	00065463          	bgez	a2,2000445c <main+0xe24>
E:/promotion/gitlab/telink_b91m_driver_sdk/telink_b91m_driver_sdk/demo/vendor/Mars_B91_Mother_V2.2/device/sht30.c:17
				CRC_BYTE ^= 0x31;
20004458:	0317c793          	xori	a5,a5,49
2000445c:	16fd                	c.addi	a3,-1
2000445e:	0ff6f693          	andi	a3,a3,255
E:/promotion/gitlab/telink_b91m_driver_sdk/telink_b91m_driver_sdk/demo/vendor/Mars_B91_Mother_V2.2/device/sht30.c:14
		for(i = 0;i < 8;i ++){
20004462:	f6ed                	c.bnez	a3,2000444c <main+0xe14>
E:/promotion/gitlab/telink_b91m_driver_sdk/telink_b91m_driver_sdk/demo/vendor/Mars_B91_Mother_V2.2/device/sht30.c:13
		CRC_BYTE ^= temp;
20004464:	8fad                	c.xor	a5,a1
20004466:	0ff7f793          	andi	a5,a5,255
2000446a:	46a1                	c.li	a3,8
E:/promotion/gitlab/telink_b91m_driver_sdk/telink_b91m_driver_sdk/demo/vendor/Mars_B91_Mother_V2.2/device/sht30.c:15
			if(CRC_BYTE & 0x80){
2000446c:	1c07b65b          	bfos	a2,a5,7,0
20004470:	0477a7db          	bfoz	a5,a5,1,7
20004474:	00065463          	bgez	a2,2000447c <main+0xe44>
E:/promotion/gitlab/telink_b91m_driver_sdk/telink_b91m_driver_sdk/demo/vendor/Mars_B91_Mother_V2.2/device/sht30.c:17
				CRC_BYTE ^= 0x31;
20004478:	0317c793          	xori	a5,a5,49
2000447c:	16fd                	c.addi	a3,-1
2000447e:	0ff6f693          	andi	a3,a3,255
E:/promotion/gitlab/telink_b91m_driver_sdk/telink_b91m_driver_sdk/demo/vendor/Mars_B91_Mother_V2.2/device/sht30.c:14
		for(i = 0;i < 8;i ++){
20004482:	f6ed                	c.bnez	a3,2000446c <main+0xe34>
ReadSHT3x():
E:/promotion/gitlab/telink_b91m_driver_sdk/telink_b91m_driver_sdk/demo/vendor/Mars_B91_Mother_V2.2/device/sht30.c:39
    if((SHT3x_CRC_CAL(HumData) == read_buff[5]) && (SHT3x_CRC_CAL(TempData)==read_buff[2]) ){
20004484:	06114683          	lbu	a3,97(sp)
20004488:	54f69e63          	bne	a3,a5,200049e4 <main+0x13ac>
E:/promotion/gitlab/telink_b91m_driver_sdk/telink_b91m_driver_sdk/demo/vendor/Mars_B91_Mother_V2.2/device/sht30.c:37
	TempData = read_buff[0]<<8 |read_buff[1];
2000448c:	05d14583          	lbu	a1,93(sp)
20004490:	05c14783          	lbu	a5,92(sp)
SHT3x_CRC_CAL():
E:/promotion/gitlab/telink_b91m_driver_sdk/telink_b91m_driver_sdk/demo/vendor/Mars_B91_Mother_V2.2/device/sht30.c:13
		CRC_BYTE ^= temp;
20004494:	46a1                	c.li	a3,8
ReadSHT3x():
E:/promotion/gitlab/telink_b91m_driver_sdk/telink_b91m_driver_sdk/demo/vendor/Mars_B91_Mother_V2.2/device/sht30.c:37
	TempData = read_buff[0]<<8 |read_buff[1];
20004496:	07a2                	c.slli	a5,0x8
20004498:	00b7e7b3          	or	a5,a5,a1
2000449c:	3c07b5db          	bfos	a1,a5,15,0
200044a0:	3c05a55b          	bfoz	a0,a1,15,0
SHT3x_CRC_CAL():
E:/promotion/gitlab/telink_b91m_driver_sdk/telink_b91m_driver_sdk/demo/vendor/Mars_B91_Mother_V2.2/device/sht30.c:11
	temp = (DAT>>8) & 0xFF;
200044a4:	00855793          	srli	a5,a0,0x8
E:/promotion/gitlab/telink_b91m_driver_sdk/telink_b91m_driver_sdk/demo/vendor/Mars_B91_Mother_V2.2/device/sht30.c:13
		CRC_BYTE ^= temp;
200044a8:	fff7c793          	not	a5,a5
200044ac:	0ff7f793          	andi	a5,a5,255
E:/promotion/gitlab/telink_b91m_driver_sdk/telink_b91m_driver_sdk/demo/vendor/Mars_B91_Mother_V2.2/device/sht30.c:15
			if(CRC_BYTE & 0x80){
200044b0:	1c07b65b          	bfos	a2,a5,7,0
200044b4:	0477a7db          	bfoz	a5,a5,1,7
200044b8:	00065463          	bgez	a2,200044c0 <main+0xe88>
E:/promotion/gitlab/telink_b91m_driver_sdk/telink_b91m_driver_sdk/demo/vendor/Mars_B91_Mother_V2.2/device/sht30.c:17
				CRC_BYTE ^= 0x31;
200044bc:	0317c793          	xori	a5,a5,49
200044c0:	16fd                	c.addi	a3,-1
200044c2:	0ff6f693          	andi	a3,a3,255
E:/promotion/gitlab/telink_b91m_driver_sdk/telink_b91m_driver_sdk/demo/vendor/Mars_B91_Mother_V2.2/device/sht30.c:14
		for(i = 0;i < 8;i ++){
200044c6:	f6ed                	c.bnez	a3,200044b0 <main+0xe78>
E:/promotion/gitlab/telink_b91m_driver_sdk/telink_b91m_driver_sdk/demo/vendor/Mars_B91_Mother_V2.2/device/sht30.c:13
		CRC_BYTE ^= temp;
200044c8:	8fad                	c.xor	a5,a1
200044ca:	0ff7f793          	andi	a5,a5,255
200044ce:	46a1                	c.li	a3,8
E:/promotion/gitlab/telink_b91m_driver_sdk/telink_b91m_driver_sdk/demo/vendor/Mars_B91_Mother_V2.2/device/sht30.c:15
			if(CRC_BYTE & 0x80){
200044d0:	1c07b65b          	bfos	a2,a5,7,0
200044d4:	0477a7db          	bfoz	a5,a5,1,7
200044d8:	00065463          	bgez	a2,200044e0 <main+0xea8>
E:/promotion/gitlab/telink_b91m_driver_sdk/telink_b91m_driver_sdk/demo/vendor/Mars_B91_Mother_V2.2/device/sht30.c:17
				CRC_BYTE ^= 0x31;
200044dc:	0317c793          	xori	a5,a5,49
200044e0:	16fd                	c.addi	a3,-1
200044e2:	0ff6f693          	andi	a3,a3,255
E:/promotion/gitlab/telink_b91m_driver_sdk/telink_b91m_driver_sdk/demo/vendor/Mars_B91_Mother_V2.2/device/sht30.c:14
		for(i = 0;i < 8;i ++){
200044e6:	f6ed                	c.bnez	a3,200044d0 <main+0xe98>
ReadSHT3x():
E:/promotion/gitlab/telink_b91m_driver_sdk/telink_b91m_driver_sdk/demo/vendor/Mars_B91_Mother_V2.2/device/sht30.c:39
    if((SHT3x_CRC_CAL(HumData) == read_buff[5]) && (SHT3x_CRC_CAL(TempData)==read_buff[2]) ){
200044e8:	05e14683          	lbu	a3,94(sp)
200044ec:	00e12423          	sw	a4,8(sp)
200044f0:	4ef69a63          	bne	a3,a5,200049e4 <main+0x13ac>
E:/promotion/gitlab/telink_b91m_driver_sdk/telink_b91m_driver_sdk/demo/vendor/Mars_B91_Mother_V2.2/device/sht30.c:40
        *Temp = ((175.0*TempData)/65535.0-45.0) ;// T = -45 + 175 * tem / (2^16-1)
200044f4:	1a0020ef          	jal	ra,20006694 <__floatsidf>
200044f8:	5632                	c.lwsp	a2,44(sp)
200044fa:	4254                	c.lw	a3,4(a2)
200044fc:	00062603          	lw	a2,0(a2) # e4002000 <_DATA_LMA_START+0xc3ffa028>
20004500:	13c010ef          	jal	ra,2000563c <__muldf3>
20004504:	4652                	c.lwsp	a2,20(sp)
20004506:	4254                	c.lw	a3,4(a2)
20004508:	00062603          	lw	a2,0(a2)
2000450c:	141000ef          	jal	ra,20004e4c <__divdf3>
20004510:	56c2                	c.lwsp	a3,48(sp)
20004512:	4290                	c.lw	a2,0(a3)
20004514:	0046a683          	lw	a3,4(a3)
20004518:	774010ef          	jal	ra,20005c8c <__subdf3>
2000451c:	304020ef          	jal	ra,20006820 <__truncdfsf2>
sht3x_test():
E:/promotion/gitlab/telink_b91m_driver_sdk/telink_b91m_driver_sdk/demo/vendor/Mars_B91_Mother_V2.2/device/sht30.c:56
	//char uart_send_buf[80];
    char oled_show_buff[32];
	if(0 == ReadSHT3x(&Temperature,&Humidity)){
		//sprintf(uart_send_buf,"Temperature:%.1f,Hum:%.1f\r\n",Temperature,Humidity);
		//uart_send_array(uart_send_buf,strlen(uart_send_buf));
		sprintf((char*)oled_show_buff,"T:%2.1f",Temperature);
20004520:	1f0020ef          	jal	ra,20006710 <__extendsfdf2>
20004524:	86ae                	c.mv	a3,a1
20004526:	200085b7          	lui	a1,0x20008
2000452a:	862a                	c.mv	a2,a0
2000452c:	df858593          	addi	a1,a1,-520 # 20007df8 <F8X16+0x604>
20004530:	05c10513          	addi	a0,sp,92
20004534:	60a020ef          	jal	ra,20006b3e <sprintf>
E:/promotion/gitlab/telink_b91m_driver_sdk/telink_b91m_driver_sdk/demo/vendor/Mars_B91_Mother_V2.2/device/sht30.c:57
		OLED_ShowStr(72,0,(uint8_t *)oled_show_buff);
20004538:	08ec                	c.addi4spn	a1,sp,92
2000453a:	862e                	c.mv	a2,a1
2000453c:	04800513          	li	a0,72
20004540:	00000593          	li	a1,0
20004544:	c99fe0ef          	jal	ra,200031dc <OLED_ShowStr>
ReadSHT3x():
E:/promotion/gitlab/telink_b91m_driver_sdk/telink_b91m_driver_sdk/demo/vendor/Mars_B91_Mother_V2.2/device/sht30.c:41
        *Hum  = ((100.0*HumData)/65535.0);       // RH = hum*100 / (2^16-1)
20004548:	4722                	c.lwsp	a4,8(sp)
2000454a:	853a                	c.mv	a0,a4
2000454c:	148020ef          	jal	ra,20006694 <__floatsidf>
20004550:	56d2                	c.lwsp	a3,52(sp)
20004552:	4290                	c.lw	a2,0(a3)
20004554:	0046a683          	lw	a3,4(a3)
20004558:	0e4010ef          	jal	ra,2000563c <__muldf3>
2000455c:	4652                	c.lwsp	a2,20(sp)
2000455e:	4254                	c.lw	a3,4(a2)
20004560:	00062603          	lw	a2,0(a2)
20004564:	0e9000ef          	jal	ra,20004e4c <__divdf3>
20004568:	2b8020ef          	jal	ra,20006820 <__truncdfsf2>
sht3x_test():
E:/promotion/gitlab/telink_b91m_driver_sdk/telink_b91m_driver_sdk/demo/vendor/Mars_B91_Mother_V2.2/device/sht30.c:58
		sprintf((char*)oled_show_buff,"H:%2.1f",Humidity);
2000456c:	1a4020ef          	jal	ra,20006710 <__extendsfdf2>
20004570:	86ae                	c.mv	a3,a1
20004572:	200085b7          	lui	a1,0x20008
20004576:	862a                	c.mv	a2,a0
20004578:	e0058593          	addi	a1,a1,-512 # 20007e00 <F8X16+0x60c>
2000457c:	05c10513          	addi	a0,sp,92
20004580:	5be020ef          	jal	ra,20006b3e <sprintf>
E:/promotion/gitlab/telink_b91m_driver_sdk/telink_b91m_driver_sdk/demo/vendor/Mars_B91_Mother_V2.2/device/sht30.c:59
		OLED_ShowStr(72,2,(uint8_t *)oled_show_buff);
20004584:	08f0                	c.addi4spn	a2,sp,92
20004586:	4589                	c.li	a1,2
20004588:	04800513          	li	a0,72
2000458c:	c51fe0ef          	jal	ra,200031dc <OLED_ShowStr>
dma_set_address():
E:/promotion/gitlab/telink_b91m_driver_sdk/telink_b91m_driver_sdk/chip/B91/drivers/dma.h:308
20004590:	4f92                	c.lwsp	t6,4(sp)
20004592:	4751                	c.li	a4,20
20004594:	000fc783          	lbu	a5,0(t6)
20004598:	00100537          	lui	a0,0x100
2000459c:	02e787b3          	mul	a5,a5,a4
200045a0:	44850513          	addi	a0,a0,1096 # 100448 <FLASH_SIZE+0x448>
200045a4:	800005b7          	lui	a1,0x80000
200045a8:	80120337          	lui	t1,0x80120
E:/promotion/gitlab/telink_b91m_driver_sdk/telink_b91m_driver_sdk/chip/B91/drivers/dma.h:309
	reg_dma_dst_addr(chn)= (unsigned int)convert_ram_addr_cpu2bus(dst_addr);
200045ac:	44cb8613          	addi	a2,s7,1100 # 10044c <FLASH_SIZE+0x44c>
E:/promotion/gitlab/telink_b91m_driver_sdk/telink_b91m_driver_sdk/chip/B91/drivers/dma.h:308
	reg_dma_src_addr(chn)= (unsigned int)convert_ram_addr_cpu2bus(src_addr);
200045b0:	04030313          	addi	t1,t1,64 # 80120040 <_DATA_LMA_START+0x60118068>
dma_set_size():
E:/promotion/gitlab/telink_b91m_driver_sdk/telink_b91m_driver_sdk/chip/B91/drivers/dma.h:278
	reg_dma_size(chn) =((size_byte+byte_width-1)/byte_width)|( (size_byte % byte_width)<<22);
200045b4:	450b8693          	addi	a3,s7,1104
dma_chn_en():
E:/promotion/gitlab/telink_b91m_driver_sdk/telink_b91m_driver_sdk/chip/B91/drivers/dma.h:170
	BM_SET(reg_dma_ctr0(chn),BIT(0));
200045b8:	444b8e13          	addi	t3,s7,1092
dma_get_tc_irq_status():
E:/promotion/gitlab/telink_b91m_driver_sdk/telink_b91m_driver_sdk/chip/B91/drivers/dma.h:212
	return reg_dma_tc_isr&tc_chn;
200045bc:	80100737          	lui	a4,0x80100
dma_set_address():
E:/promotion/gitlab/telink_b91m_driver_sdk/telink_b91m_driver_sdk/chip/B91/drivers/dma.h:308
	reg_dma_src_addr(chn)= (unsigned int)convert_ram_addr_cpu2bus(src_addr);
200045c0:	953e                	c.add	a0,a5
200045c2:	8d4d                	c.or	a0,a1
200045c4:	00652023          	sw	t1,0(a0)
E:/promotion/gitlab/telink_b91m_driver_sdk/telink_b91m_driver_sdk/chip/B91/drivers/dma.h:309
	reg_dma_dst_addr(chn)= (unsigned int)convert_ram_addr_cpu2bus(dst_addr);
200045c8:	963e                	c.add	a2,a5
200045ca:	4542                	c.lwsp	a0,16(sp)
200045cc:	8e4d                	c.or	a2,a1
dma_set_size():
E:/promotion/gitlab/telink_b91m_driver_sdk/telink_b91m_driver_sdk/chip/B91/drivers/dma.h:278
	reg_dma_size(chn) =((size_byte+byte_width-1)/byte_width)|( (size_byte % byte_width)<<22);
200045ce:	96be                	c.add	a3,a5
dma_chn_en():
E:/promotion/gitlab/telink_b91m_driver_sdk/telink_b91m_driver_sdk/chip/B91/drivers/dma.h:170
	BM_SET(reg_dma_ctr0(chn),BIT(0));
200045d0:	97f2                	c.add	a5,t3
dma_set_address():
E:/promotion/gitlab/telink_b91m_driver_sdk/telink_b91m_driver_sdk/chip/B91/drivers/dma.h:309
	reg_dma_dst_addr(chn)= (unsigned int)convert_ram_addr_cpu2bus(dst_addr);
200045d2:	c208                	c.sw	a0,0(a2)
dma_chn_en():
E:/promotion/gitlab/telink_b91m_driver_sdk/telink_b91m_driver_sdk/chip/B91/drivers/dma.h:170
	BM_SET(reg_dma_ctr0(chn),BIT(0));
200045d4:	8fcd                	c.or	a5,a1
dma_set_size():
E:/promotion/gitlab/telink_b91m_driver_sdk/telink_b91m_driver_sdk/chip/B91/drivers/dma.h:278
	reg_dma_size(chn) =((size_byte+byte_width-1)/byte_width)|( (size_byte % byte_width)<<22);
200045d6:	8ecd                	c.or	a3,a1
200045d8:	4611                	c.li	a2,4
200045da:	c290                	c.sw	a2,0(a3)
dma_chn_en():
E:/promotion/gitlab/telink_b91m_driver_sdk/telink_b91m_driver_sdk/chip/B91/drivers/dma.h:170
	BM_SET(reg_dma_ctr0(chn),BIT(0));
200045dc:	00078683          	lb	a3,0(a5)
200045e0:	0ff6f693          	andi	a3,a3,255
200045e4:	0016e693          	ori	a3,a3,1
200045e8:	00d78023          	sb	a3,0(a5)
adc_fifo_enable():
E:/promotion/gitlab/telink_b91m_driver_sdk/telink_b91m_driver_sdk/chip/B91/drivers/adc.h:184
	reg_i2s_cfg2 &= (~FLD_AUDIO_FIFO1_RST);
200045ec:	502c8783          	lb	a5,1282(s9)
adc_get_sample_status_dma():
E:/promotion/gitlab/telink_b91m_driver_sdk/telink_b91m_driver_sdk/chip/B91/drivers/adc.c:94
	return (dma_get_tc_irq_status(1<<adc_dma_chn));
200045f0:	00100693          	li	a3,1
adc_fifo_enable():
E:/promotion/gitlab/telink_b91m_driver_sdk/telink_b91m_driver_sdk/chip/B91/drivers/adc.h:184
200045f4:	0f77f793          	andi	a5,a5,247
200045f8:	50fc8123          	sb	a5,1282(s9)
adc_get_sample_status_dma():
E:/promotion/gitlab/telink_b91m_driver_sdk/telink_b91m_driver_sdk/chip/B91/drivers/adc.c:94
200045fc:	000fc783          	lbu	a5,0(t6)
20004600:	00f696b3          	sll	a3,a3,a5
20004604:	0ff6f693          	andi	a3,a3,255
dma_get_tc_irq_status():
E:/promotion/gitlab/telink_b91m_driver_sdk/telink_b91m_driver_sdk/chip/B91/drivers/dma.h:212
	return reg_dma_tc_isr&tc_chn;
20004608:	43270783          	lb	a5,1074(a4) # 80100432 <_DATA_LMA_START+0x600f845a>
2000460c:	43270613          	addi	a2,a4,1074
adc_get_code_dma():
E:/promotion/gitlab/telink_b91m_driver_sdk/telink_b91m_driver_sdk/chip/B91/drivers/adc.c:348
	while(!adc_get_sample_status_dma());
20004610:	8ff5                	c.and	a5,a3
20004612:	dbfd                	c.beqz	a5,20004608 <main+0xfd0>
adc_fifo_disable():
E:/promotion/gitlab/telink_b91m_driver_sdk/telink_b91m_driver_sdk/chip/B91/drivers/adc.h:192
	reg_i2s_cfg2 |= FLD_AUDIO_FIFO1_RST;
20004614:	502c8783          	lb	a5,1282(s9)
dma_chn_dis():
E:/promotion/gitlab/telink_b91m_driver_sdk/telink_b91m_driver_sdk/chip/B91/drivers/dma.h:180
	BM_CLR(reg_dma_ctr0(chn),BIT(0));
20004618:	46d1                	c.li	a3,20
adc_fifo_disable():
E:/promotion/gitlab/telink_b91m_driver_sdk/telink_b91m_driver_sdk/chip/B91/drivers/adc.h:192
2000461a:	0ff7f793          	andi	a5,a5,255
2000461e:	0087e793          	ori	a5,a5,8
20004622:	50fc8123          	sb	a5,1282(s9)
dma_chn_dis():
E:/promotion/gitlab/telink_b91m_driver_sdk/telink_b91m_driver_sdk/chip/B91/drivers/dma.h:180
20004626:	4512                	c.lwsp	a0,4(sp)
20004628:	444b8713          	addi	a4,s7,1092
2000462c:	00054783          	lbu	a5,0(a0)
20004630:	c4d7977f          	maddr32	a4,a5,a3
adc_clr_sample_status_dma():
E:/promotion/gitlab/telink_b91m_driver_sdk/telink_b91m_driver_sdk/chip/B91/drivers/adc.c:103
	dma_clr_tc_irq_status(1<<adc_dma_chn);
20004634:	4685                	c.li	a3,1
20004636:	00f696b3          	sll	a3,a3,a5
dma_chn_dis():
E:/promotion/gitlab/telink_b91m_driver_sdk/telink_b91m_driver_sdk/chip/B91/drivers/dma.h:180
2000463a:	800007b7          	lui	a5,0x80000
2000463e:	8f5d                	c.or	a4,a5
20004640:	00070583          	lb	a1,0(a4)
adc_clr_sample_status_dma():
E:/promotion/gitlab/telink_b91m_driver_sdk/telink_b91m_driver_sdk/chip/B91/drivers/adc.c:103
20004644:	0ff6f693          	andi	a3,a3,255
dma_chn_dis():
E:/promotion/gitlab/telink_b91m_driver_sdk/telink_b91m_driver_sdk/chip/B91/drivers/dma.h:180
20004648:	0fe5f593          	andi	a1,a1,254
2000464c:	00b70023          	sb	a1,0(a4)
dma_clr_tc_irq_status():
E:/promotion/gitlab/telink_b91m_driver_sdk/telink_b91m_driver_sdk/chip/B91/drivers/dma.h:223
	reg_dma_tc_isr = tc_chn;
20004650:	87ee                	c.mv	a5,s11
adc_get_code_dma():
E:/promotion/gitlab/telink_b91m_driver_sdk/telink_b91m_driver_sdk/chip/B91/drivers/adc.c:356
		if(sample_buffer[i] & BIT(13))
20004652:	6589                	c.lui	a1,0x2
dma_clr_tc_irq_status():
E:/promotion/gitlab/telink_b91m_driver_sdk/telink_b91m_driver_sdk/chip/B91/drivers/dma.h:223
20004654:	00d60023          	sb	a3,0(a2)
20004658:	0100006f          	j	20004668 <main+0x1030>
adc_get_code_dma():
E:/promotion/gitlab/telink_b91m_driver_sdk/telink_b91m_driver_sdk/chip/B91/drivers/adc.c:358
			sample_buffer[i] = 0;
2000465c:	00079023          	sh	zero,0(a5) # 80000000 <_DATA_LMA_START+0x5fff8028>
20004660:	00278793          	addi	a5,a5,2
E:/promotion/gitlab/telink_b91m_driver_sdk/telink_b91m_driver_sdk/chip/B91/drivers/adc.c:354
	for(int i=0;i<sample_num;i++)
20004664:	00f90e63          	beq	s2,a5,20004680 <main+0x1048>
E:/promotion/gitlab/telink_b91m_driver_sdk/telink_b91m_driver_sdk/chip/B91/drivers/adc.c:356
		if(sample_buffer[i] & BIT(13))
20004668:	0007d703          	lhu	a4,0(a5)
2000466c:	00b776b3          	and	a3,a4,a1
E:/promotion/gitlab/telink_b91m_driver_sdk/telink_b91m_driver_sdk/chip/B91/drivers/adc.c:362
			sample_buffer[i] = (sample_buffer[i] & 0x1fff);  //BIT(12..0) is valid adc code
20004670:	8f65                	c.and	a4,s1
E:/promotion/gitlab/telink_b91m_driver_sdk/telink_b91m_driver_sdk/chip/B91/drivers/adc.c:356
		if(sample_buffer[i] & BIT(13))
20004672:	f6ed                	c.bnez	a3,2000465c <main+0x1024>
E:/promotion/gitlab/telink_b91m_driver_sdk/telink_b91m_driver_sdk/chip/B91/drivers/adc.c:362
			sample_buffer[i] = (sample_buffer[i] & 0x1fff);  //BIT(12..0) is valid adc code
20004674:	00e79023          	sh	a4,0(a5)
20004678:	00278793          	addi	a5,a5,2
E:/promotion/gitlab/telink_b91m_driver_sdk/telink_b91m_driver_sdk/chip/B91/drivers/adc.c:354
	for(int i=0;i<sample_num;i++)
2000467c:	fef916e3          	bne	s2,a5,20004668 <main+0x1030>
main():
E:/promotion/gitlab/telink_b91m_driver_sdk/telink_b91m_driver_sdk/demo/vendor/Mars_B91_Mother_V2.2/device/photoresistor.c:22
{
	unsigned short adc_code_average = 0;
	int i, j;
	unsigned short temp;
	/**** insert Sort and get average value ******/
	for(i = 1 ;i < ADC_SAMPLE_NUM; i++)
20004680:	4505                	c.li	a0,1
adc_sort_and_get_average_code():
E:/promotion/gitlab/telink_b91m_driver_sdk/telink_b91m_driver_sdk/demo/vendor/Mars_B91_Mother_V2.2/device/photoresistor.c:33
	/**
		 * add judgment condition "j>=0" in for loop,
		 * otherwise may have array out of bounds.
		 * changed by chaofan.20201230.
	 */
			for(j=i-1; j>=0 && adc_sample_buffer[j] > temp;j--)
20004682:	5e7d                	c.li	t3,-1
20004684:	00c0006f          	j	20004690 <main+0x1058>
E:/promotion/gitlab/telink_b91m_driver_sdk/telink_b91m_driver_sdk/demo/vendor/Mars_B91_Mother_V2.2/device/photoresistor.c:22
	for(i = 1 ;i < ADC_SAMPLE_NUM; i++)
20004688:	00150513          	addi	a0,a0,1
2000468c:	06855a5b          	beqc	a0,8,20004700 <main+0x10c8>
20004690:	fff50793          	addi	a5,a0,-1
E:/promotion/gitlab/telink_b91m_driver_sdk/telink_b91m_driver_sdk/demo/vendor/Mars_B91_Mother_V2.2/device/photoresistor.c:24
		if(adc_sample_buffer[i] < adc_sample_buffer[i-1])
20004694:	00179613          	slli	a2,a5,0x1
20004698:	0aad85db          	lea.h	a1,s11,a0
2000469c:	00cd8333          	add	t1,s11,a2
200046a0:	00059683          	lh	a3,0(a1) # 2000 <entry_irq17+0x44>
200046a4:	00031703          	lh	a4,0(t1)
200046a8:	3c06a6db          	bfoz	a3,a3,15,0
200046ac:	3c07275b          	bfoz	a4,a4,15,0
200046b0:	fce6fce3          	bgeu	a3,a4,20004688 <main+0x1050>
E:/promotion/gitlab/telink_b91m_driver_sdk/telink_b91m_driver_sdk/demo/vendor/Mars_B91_Mother_V2.2/device/photoresistor.c:26
			temp = adc_sample_buffer[i];
200046b4:	00059f03          	lh	t5,0(a1)
E:/promotion/gitlab/telink_b91m_driver_sdk/telink_b91m_driver_sdk/demo/vendor/Mars_B91_Mother_V2.2/device/photoresistor.c:27
			adc_sample_buffer[i] = adc_sample_buffer[i-1];
200046b8:	00031703          	lh	a4,0(t1)
E:/promotion/gitlab/telink_b91m_driver_sdk/telink_b91m_driver_sdk/demo/vendor/Mars_B91_Mother_V2.2/device/photoresistor.c:26
			temp = adc_sample_buffer[i];
200046bc:	3c0f2edb          	bfoz	t4,t5,15,0
E:/promotion/gitlab/telink_b91m_driver_sdk/telink_b91m_driver_sdk/demo/vendor/Mars_B91_Mother_V2.2/device/photoresistor.c:27
			adc_sample_buffer[i] = adc_sample_buffer[i-1];
200046c0:	00e59023          	sh	a4,0(a1)
E:/promotion/gitlab/telink_b91m_driver_sdk/telink_b91m_driver_sdk/demo/vendor/Mars_B91_Mother_V2.2/device/photoresistor.c:33
			for(j=i-1; j>=0 && adc_sample_buffer[j] > temp;j--)
200046c4:	00cd86b3          	add	a3,s11,a2
200046c8:	00069703          	lh	a4,0(a3)
200046cc:	00178593          	addi	a1,a5,1
200046d0:	3c07275b          	bfoz	a4,a4,15,0
200046d4:	17fd                	c.addi	a5,-1
E:/promotion/gitlab/telink_b91m_driver_sdk/telink_b91m_driver_sdk/demo/vendor/Mars_B91_Mother_V2.2/device/photoresistor.c:35
			{
				adc_sample_buffer[j+1] = adc_sample_buffer[j];
200046d6:	0abd835b          	lea.h	t1,s11,a1
200046da:	00179613          	slli	a2,a5,0x1
E:/promotion/gitlab/telink_b91m_driver_sdk/telink_b91m_driver_sdk/demo/vendor/Mars_B91_Mother_V2.2/device/photoresistor.c:33
			for(j=i-1; j>=0 && adc_sample_buffer[j] > temp;j--)
200046de:	00eef963          	bgeu	t4,a4,200046f0 <main+0x10b8>
E:/promotion/gitlab/telink_b91m_driver_sdk/telink_b91m_driver_sdk/demo/vendor/Mars_B91_Mother_V2.2/device/photoresistor.c:35
				adc_sample_buffer[j+1] = adc_sample_buffer[j];
200046e2:	00069703          	lh	a4,0(a3)
200046e6:	00e31023          	sh	a4,0(t1)
E:/promotion/gitlab/telink_b91m_driver_sdk/telink_b91m_driver_sdk/demo/vendor/Mars_B91_Mother_V2.2/device/photoresistor.c:33
			for(j=i-1; j>=0 && adc_sample_buffer[j] > temp;j--)
200046ea:	fdc79de3          	bne	a5,t3,200046c4 <main+0x108c>
200046ee:	4581                	c.li	a1,0
E:/promotion/gitlab/telink_b91m_driver_sdk/telink_b91m_driver_sdk/demo/vendor/Mars_B91_Mother_V2.2/device/photoresistor.c:37
			}
			adc_sample_buffer[j+1] = temp;
200046f0:	0abd85db          	lea.h	a1,s11,a1
200046f4:	01e59023          	sh	t5,0(a1)
E:/promotion/gitlab/telink_b91m_driver_sdk/telink_b91m_driver_sdk/demo/vendor/Mars_B91_Mother_V2.2/device/photoresistor.c:22
	for(i = 1 ;i < ADC_SAMPLE_NUM; i++)
200046f8:	00150513          	addi	a0,a0,1
200046fc:	b8856a5b          	bnec	a0,8,20004690 <main+0x1058>
main():
E:/promotion/gitlab/telink_b91m_driver_sdk/telink_b91m_driver_sdk/demo/vendor/Mars_B91_Mother_V2.2/device/photoresistor.c:18
	unsigned short adc_code_average = 0;
20004700:	4781                	c.li	a5,0
E:/promotion/gitlab/telink_b91m_driver_sdk/telink_b91m_driver_sdk/demo/vendor/Mars_B91_Mother_V2.2/device/photoresistor.c:41
		}
	}
	//get average value from raw data(abandon 1/4 small and 1/4 big data)
	for (i = ADC_SAMPLE_NUM>>2; i < (ADC_SAMPLE_NUM - (ADC_SAMPLE_NUM>>2)); i++)
20004702:	4709                	c.li	a4,2
adc_sort_and_get_average_code():
E:/promotion/gitlab/telink_b91m_driver_sdk/telink_b91m_driver_sdk/demo/vendor/Mars_B91_Mother_V2.2/device/photoresistor.c:43
	{
		adc_code_average += adc_sample_buffer[i]/(ADC_SAMPLE_NUM>>1);
20004704:	0aed86db          	lea.h	a3,s11,a4
20004708:	00069683          	lh	a3,0(a3)
E:/promotion/gitlab/telink_b91m_driver_sdk/telink_b91m_driver_sdk/demo/vendor/Mars_B91_Mother_V2.2/device/photoresistor.c:41
	for (i = ADC_SAMPLE_NUM>>2; i < (ADC_SAMPLE_NUM - (ADC_SAMPLE_NUM>>2)); i++)
2000470c:	0705                	c.addi	a4,1
E:/promotion/gitlab/telink_b91m_driver_sdk/telink_b91m_driver_sdk/demo/vendor/Mars_B91_Mother_V2.2/device/photoresistor.c:43
		adc_code_average += adc_sample_buffer[i]/(ADC_SAMPLE_NUM>>1);
2000470e:	3c26a6db          	bfoz	a3,a3,15,2
20004712:	97b6                	c.add	a5,a3
20004714:	3c07a7db          	bfoz	a5,a5,15,0
E:/promotion/gitlab/telink_b91m_driver_sdk/telink_b91m_driver_sdk/demo/vendor/Mars_B91_Mother_V2.2/device/photoresistor.c:41
	for (i = ADC_SAMPLE_NUM>>2; i < (ADC_SAMPLE_NUM - (ADC_SAMPLE_NUM>>2)); i++)
20004718:	be67665b          	bnec	a4,6,20004704 <main+0x10cc>
adc_calculate_voltage():
E:/promotion/gitlab/telink_b91m_driver_sdk/telink_b91m_driver_sdk/chip/B91/drivers/adc.c:396
 * @return 		adc_vol_mv 	- the average value of adc voltage value.Unit is 'mv'.
 */
unsigned short adc_calculate_voltage(unsigned short adc_code)
{
	//When the code value is 0, the returned voltage value should be 0.
	if(adc_code == 0)
2000471c:	30078663          	beqz	a5,20004a28 <main+0x13f0>
E:/promotion/gitlab/telink_b91m_driver_sdk/telink_b91m_driver_sdk/chip/B91/drivers/adc.c:406
	{
		//////////////// adc sample data convert to voltage(mv) ////////////////
		//                          (Vref, adc_pre_scale)   (BIT<12~0> valid data)
		//			 =  (adc_code * Vref * adc_pre_scale / 0x2000) + offset
		//           =  (adc_code * Vref*adc_pre_scale >>13) + offset
		return (((adc_code * g_adc_vbat_divider * g_adc_pre_scale * g_adc_vref)>>13) + g_adc_vref_offset);
20004720:	5592                	c.lwsp	a1,36(sp)
20004722:	5522                	c.lwsp	a0,40(sp)
20004724:	00058703          	lb	a4,0(a1)
20004728:	5582                	c.lwsp	a1,32(sp)
2000472a:	0ff77713          	andi	a4,a4,255
2000472e:	02e787b3          	mul	a5,a5,a4
20004732:	00058603          	lb	a2,0(a1)
20004736:	05c55583          	lhu	a1,92(a0)
2000473a:	0ff67613          	andi	a2,a2,255
2000473e:	05e50683          	lb	a3,94(a0)
20004742:	6705                	c.lui	a4,0x1
20004744:	ce470713          	addi	a4,a4,-796 # ce4 <pm_sleep_wakeup_ram.constprop.2+0x17c>
20004748:	02c78633          	mul	a2,a5,a2
2000474c:	ffcda7b7          	lui	a5,0xffcda
20004750:	56078793          	addi	a5,a5,1376 # ffcda560 <_DATA_LMA_START+0xdfcd2588>
20004754:	02b60633          	mul	a2,a2,a1
20004758:	8635                	c.srai	a2,0xd
2000475a:	9636                	c.add	a2,a3
2000475c:	3c06265b          	bfoz	a2,a2,15,0
20004760:	02e60633          	mul	a2,a2,a4
20004764:	66ad                	c.lui	a3,0xb
20004766:	79868693          	addi	a3,a3,1944 # b798 <BIN_SIZE+0x378a>
2000476a:	8631                	c.srai	a2,0xc
2000476c:	c4d617ff          	maddr32	a5,a2,a3
20004770:	40c70733          	sub	a4,a4,a2
20004774:	02e7d7b3          	divu	a5,a5,a4
get_res_value():
E:/promotion/gitlab/telink_b91m_driver_sdk/telink_b91m_driver_sdk/demo/vendor/Mars_B91_Mother_V2.2/device/photoresistor.c:72
	unsigned int X;
	unsigned int R13;
	X = (adc_temp_val*3300)/4096;
	R13 = (47000*X-3300000)/(3300-X);
	char oled_show_buff[32];
	sprintf((char*)oled_show_buff,"V:%04d",X);
20004778:	20008537          	lui	a0,0x20008
2000477c:	e0850593          	addi	a1,a0,-504 # 20007e08 <F8X16+0x614>
20004780:	08e8                	c.addi4spn	a0,sp,92
20004782:	c43e                	c.swsp	a5,8(sp)
20004784:	3ba020ef          	jal	ra,20006b3e <sprintf>
E:/promotion/gitlab/telink_b91m_driver_sdk/telink_b91m_driver_sdk/demo/vendor/Mars_B91_Mother_V2.2/device/photoresistor.c:73
	OLED_ShowStr(72,4,(unsigned char *)oled_show_buff);
20004788:	08f0                	c.addi4spn	a2,sp,92
2000478a:	4591                	c.li	a1,4
2000478c:	04800513          	li	a0,72
20004790:	a4dfe0ef          	jal	ra,200031dc <OLED_ShowStr>
E:/promotion/gitlab/telink_b91m_driver_sdk/telink_b91m_driver_sdk/demo/vendor/Mars_B91_Mother_V2.2/device/photoresistor.c:74
	sprintf((char*)oled_show_buff,"R:%04d",R13);
20004794:	47a2                	c.lwsp	a5,8(sp)
20004796:	20008537          	lui	a0,0x20008
2000479a:	863e                	c.mv	a2,a5
2000479c:	e1050593          	addi	a1,a0,-496 # 20007e10 <F8X16+0x61c>
200047a0:	05c10513          	addi	a0,sp,92
200047a4:	39a020ef          	jal	ra,20006b3e <sprintf>
E:/promotion/gitlab/telink_b91m_driver_sdk/telink_b91m_driver_sdk/demo/vendor/Mars_B91_Mother_V2.2/device/photoresistor.c:75
	OLED_ShowStr(72,6,(unsigned char *)oled_show_buff);
200047a8:	08f0                	c.addi4spn	a2,sp,92
200047aa:	4599                	c.li	a1,6
200047ac:	04800513          	li	a0,72
200047b0:	a2dfe0ef          	jal	ra,200031dc <OLED_ShowStr>
get_acc_value():
E:/promotion/gitlab/telink_b91m_driver_sdk/telink_b91m_driver_sdk/demo/vendor/Mars_B91_Mother_V2.2/device/lis2dh.c:31
	return 0;
}

void get_acc_value(axis_info_t *sample)
{
	uint8_t reg = 0x28|0X80; // datasheet page.25
200047b4:	fa800793          	li	a5,-88
E:/promotion/gitlab/telink_b91m_driver_sdk/telink_b91m_driver_sdk/demo/vendor/Mars_B91_Mother_V2.2/device/lis2dh.c:33
	uint8_t data[6];
	i2c_master_write(LIS2DH_ADDR, &reg, 1);
200047b8:	00100613          	li	a2,1
200047bc:	04b10593          	addi	a1,sp,75
200047c0:	03000513          	li	a0,48
E:/promotion/gitlab/telink_b91m_driver_sdk/telink_b91m_driver_sdk/demo/vendor/Mars_B91_Mother_V2.2/device/lis2dh.c:31
	uint8_t reg = 0x28|0X80; // datasheet page.25
200047c4:	04f105a3          	sb	a5,75(sp)
E:/promotion/gitlab/telink_b91m_driver_sdk/telink_b91m_driver_sdk/demo/vendor/Mars_B91_Mother_V2.2/device/lis2dh.c:33
	i2c_master_write(LIS2DH_ADDR, &reg, 1);
200047c8:	801fe0ef          	jal	ra,20002fc8 <i2c_master_write>
E:/promotion/gitlab/telink_b91m_driver_sdk/telink_b91m_driver_sdk/demo/vendor/Mars_B91_Mother_V2.2/device/lis2dh.c:34
	i2c_master_read(LIS2DH_ADDR, data, 6);
200047cc:	04c10593          	addi	a1,sp,76
200047d0:	03000513          	li	a0,48
200047d4:	d24fe0ef          	jal	ra,20002cf8 <i2c_master_read.constprop.36>
E:/promotion/gitlab/telink_b91m_driver_sdk/telink_b91m_driver_sdk/demo/vendor/Mars_B91_Mother_V2.2/device/lis2dh.c:36
	#define right_shift		0
	sample->x = (*(int16_t*)(data+0))>>right_shift;
200047d8:	04c11783          	lh	a5,76(sp)
E:/promotion/gitlab/telink_b91m_driver_sdk/telink_b91m_driver_sdk/demo/vendor/Mars_B91_Mother_V2.2/device/lis2dh.c:40
	sample->y = (*(int16_t*)(data+2))>>right_shift;
	sample->z = (*(int16_t*)(data+4))>>right_shift;
 	char oled_show_buff[32];
	sprintf((char*)oled_show_buff,"x:%06d",sample->x);
200047dc:	20008537          	lui	a0,0x20008
200047e0:	863e                	c.mv	a2,a5
E:/promotion/gitlab/telink_b91m_driver_sdk/telink_b91m_driver_sdk/demo/vendor/Mars_B91_Mother_V2.2/device/lis2dh.c:36
	sample->x = (*(int16_t*)(data+0))>>right_shift;
200047e2:	00f99023          	sh	a5,0(s3)
E:/promotion/gitlab/telink_b91m_driver_sdk/telink_b91m_driver_sdk/demo/vendor/Mars_B91_Mother_V2.2/device/lis2dh.c:37
	sample->y = (*(int16_t*)(data+2))>>right_shift;
200047e6:	04e11783          	lh	a5,78(sp)
E:/promotion/gitlab/telink_b91m_driver_sdk/telink_b91m_driver_sdk/demo/vendor/Mars_B91_Mother_V2.2/device/lis2dh.c:40
	sprintf((char*)oled_show_buff,"x:%06d",sample->x);
200047ea:	e1850593          	addi	a1,a0,-488 # 20007e18 <F8X16+0x624>
E:/promotion/gitlab/telink_b91m_driver_sdk/telink_b91m_driver_sdk/demo/vendor/Mars_B91_Mother_V2.2/device/lis2dh.c:37
	sample->y = (*(int16_t*)(data+2))>>right_shift;
200047ee:	00f99123          	sh	a5,2(s3)
E:/promotion/gitlab/telink_b91m_driver_sdk/telink_b91m_driver_sdk/demo/vendor/Mars_B91_Mother_V2.2/device/lis2dh.c:38
	sample->z = (*(int16_t*)(data+4))>>right_shift;
200047f2:	05011783          	lh	a5,80(sp)
E:/promotion/gitlab/telink_b91m_driver_sdk/telink_b91m_driver_sdk/demo/vendor/Mars_B91_Mother_V2.2/device/lis2dh.c:40
	sprintf((char*)oled_show_buff,"x:%06d",sample->x);
200047f6:	08e8                	c.addi4spn	a0,sp,92
E:/promotion/gitlab/telink_b91m_driver_sdk/telink_b91m_driver_sdk/demo/vendor/Mars_B91_Mother_V2.2/device/lis2dh.c:38
	sample->z = (*(int16_t*)(data+4))>>right_shift;
200047f8:	00f99223          	sh	a5,4(s3)
E:/promotion/gitlab/telink_b91m_driver_sdk/telink_b91m_driver_sdk/demo/vendor/Mars_B91_Mother_V2.2/device/lis2dh.c:40
	sprintf((char*)oled_show_buff,"x:%06d",sample->x);
200047fc:	342020ef          	jal	ra,20006b3e <sprintf>
E:/promotion/gitlab/telink_b91m_driver_sdk/telink_b91m_driver_sdk/demo/vendor/Mars_B91_Mother_V2.2/device/lis2dh.c:41
	OLED_ShowStr(0,2,(unsigned char *)oled_show_buff);
20004800:	08f0                	c.addi4spn	a2,sp,92
20004802:	4589                	c.li	a1,2
20004804:	00000513          	li	a0,0
20004808:	9d5fe0ef          	jal	ra,200031dc <OLED_ShowStr>
E:/promotion/gitlab/telink_b91m_driver_sdk/telink_b91m_driver_sdk/demo/vendor/Mars_B91_Mother_V2.2/device/lis2dh.c:42
	sprintf((char*)oled_show_buff,"y:%06d",sample->y);
2000480c:	00299603          	lh	a2,2(s3)
20004810:	20008537          	lui	a0,0x20008
20004814:	e2050593          	addi	a1,a0,-480 # 20007e20 <F8X16+0x62c>
20004818:	05c10513          	addi	a0,sp,92
2000481c:	322020ef          	jal	ra,20006b3e <sprintf>
E:/promotion/gitlab/telink_b91m_driver_sdk/telink_b91m_driver_sdk/demo/vendor/Mars_B91_Mother_V2.2/device/lis2dh.c:43
	OLED_ShowStr(0,4,(unsigned char *)oled_show_buff);
20004820:	08f0                	c.addi4spn	a2,sp,92
20004822:	4591                	c.li	a1,4
20004824:	00000513          	li	a0,0
20004828:	9b5fe0ef          	jal	ra,200031dc <OLED_ShowStr>
E:/promotion/gitlab/telink_b91m_driver_sdk/telink_b91m_driver_sdk/demo/vendor/Mars_B91_Mother_V2.2/device/lis2dh.c:44
	sprintf((char*)oled_show_buff,"z:%06d",sample->z);
2000482c:	00499603          	lh	a2,4(s3)
20004830:	20008537          	lui	a0,0x20008
20004834:	e2850593          	addi	a1,a0,-472 # 20007e28 <F8X16+0x634>
20004838:	05c10513          	addi	a0,sp,92
2000483c:	302020ef          	jal	ra,20006b3e <sprintf>
E:/promotion/gitlab/telink_b91m_driver_sdk/telink_b91m_driver_sdk/demo/vendor/Mars_B91_Mother_V2.2/device/lis2dh.c:45
	OLED_ShowStr(0,6,(unsigned char *)oled_show_buff);
20004840:	08f0                	c.addi4spn	a2,sp,92
20004842:	4599                	c.li	a1,6
20004844:	00000513          	li	a0,0
20004848:	995fe0ef          	jal	ra,200031dc <OLED_ShowStr>
stimer_get_tick():
E:/promotion/gitlab/telink_b91m_driver_sdk/telink_b91m_driver_sdk/chip/B91/drivers/stimer.h:168
	return reg_system_tick;
2000484c:	200ca783          	lw	a5,512(s9)
main_loop():
E:/promotion/gitlab/telink_b91m_driver_sdk/telink_b91m_driver_sdk/demo/vendor/Mars_B91_Mother_V2.2/app_all.c:44
			g_time0 = stimer_get_tick();
20004850:	00fb2023          	sw	a5,0(s6)
E:/promotion/gitlab/telink_b91m_driver_sdk/telink_b91m_driver_sdk/demo/vendor/Mars_B91_Mother_V2.2/app_all.c:46
		if(clock_time_exceed(g_time1,TICKS_INTERVAL*1000)){
20004854:	000c2703          	lw	a4,0(s8)
stimer_get_tick():
E:/promotion/gitlab/telink_b91m_driver_sdk/telink_b91m_driver_sdk/chip/B91/drivers/stimer.h:168
20004858:	200ca783          	lw	a5,512(s9)
clock_time_exceed():
E:/promotion/gitlab/telink_b91m_driver_sdk/telink_b91m_driver_sdk/chip/B91/drivers/stimer.h:179
	return ((unsigned int)(stimer_get_tick() - ref) > us * SYSTEM_TIMER_TICK_1US);
2000485c:	40e787b3          	sub	a5,a5,a4
main_loop():
E:/promotion/gitlab/telink_b91m_driver_sdk/telink_b91m_driver_sdk/demo/vendor/Mars_B91_Mother_V2.2/app_all.c:46
20004860:	b4f47ae3          	bgeu	s0,a5,200043b4 <main+0xd7c>
button_ticks():
E:/promotion/gitlab/telink_b91m_driver_sdk/telink_b91m_driver_sdk/demo/vendor/Mars_B91_Mother_V2.2/device/button.c:143
	for(target = head_handle; target; target = target->next){
20004864:	45f2                	c.lwsp	a1,28(sp)
20004866:	0005ad03          	lw	s10,0(a1)
2000486a:	0c0d0d63          	beqz	s10,20004944 <main+0x130c>
button_handler():
E:/promotion/gitlab/telink_b91m_driver_sdk/telink_b91m_driver_sdk/demo/vendor/Mars_B91_Mother_V2.2/device/button.c:35
	switch (handle->state) {
2000486e:	4c89                	c.li	s9,2
20004870:	0400006f          	j	200048b0 <main+0x1278>
20004874:	20070863          	beqz	a4,20004a84 <main+0x144c>
20004878:	0217685b          	bnec	a4,1,200048a8 <main+0x1270>
E:/promotion/gitlab/telink_b91m_driver_sdk/telink_b91m_driver_sdk/demo/vendor/Mars_B91_Mother_V2.2/device/button.c:50
			if(handle->button_level != handle->active_level) {
2000487c:	003d4703          	lbu	a4,3(s10)
20004880:	00775613          	srli	a2,a4,0x7
20004884:	1867275b          	bfoz	a4,a4,6,6
20004888:	30e60863          	beq	a2,a4,20004b98 <main+0x1560>
E:/promotion/gitlab/telink_b91m_driver_sdk/telink_b91m_driver_sdk/demo/vendor/Mars_B91_Mother_V2.2/device/button.c:51
			    handle->event = (uint8_t)PRESS_UP;
2000488c:	002d0703          	lb	a4,2(s10)
E:/promotion/gitlab/telink_b91m_driver_sdk/telink_b91m_driver_sdk/demo/vendor/Mars_B91_Mother_V2.2/device/button.c:54
				handle->state = 2;
20004890:	9ae1                	c.andi	a3,-8
E:/promotion/gitlab/telink_b91m_driver_sdk/telink_b91m_driver_sdk/demo/vendor/Mars_B91_Mother_V2.2/device/button.c:51
			    handle->event = (uint8_t)PRESS_UP;
20004892:	8b3d                	c.andi	a4,15
E:/promotion/gitlab/telink_b91m_driver_sdk/telink_b91m_driver_sdk/demo/vendor/Mars_B91_Mother_V2.2/device/button.c:54
				handle->state = 2;
20004894:	0026e693          	ori	a3,a3,2
E:/promotion/gitlab/telink_b91m_driver_sdk/telink_b91m_driver_sdk/demo/vendor/Mars_B91_Mother_V2.2/device/button.c:51
			    handle->event = (uint8_t)PRESS_UP;
20004898:	01076713          	ori	a4,a4,16
2000489c:	00ed0123          	sb	a4,2(s10)
E:/promotion/gitlab/telink_b91m_driver_sdk/telink_b91m_driver_sdk/demo/vendor/Mars_B91_Mother_V2.2/device/button.c:53
				handle->ticks = 0;
200048a0:	000d1023          	sh	zero,0(s10)
E:/promotion/gitlab/telink_b91m_driver_sdk/telink_b91m_driver_sdk/demo/vendor/Mars_B91_Mother_V2.2/device/button.c:54
				handle->state = 2;
200048a4:	00dd01a3          	sb	a3,3(s10)
button_ticks():
E:/promotion/gitlab/telink_b91m_driver_sdk/telink_b91m_driver_sdk/demo/vendor/Mars_B91_Mother_V2.2/device/button.c:143
	for(target = head_handle; target; target = target->next){
200048a8:	024d2d03          	lw	s10,36(s10)
200048ac:	080d0c63          	beqz	s10,20004944 <main+0x130c>
button_handler():
E:/promotion/gitlab/telink_b91m_driver_sdk/telink_b91m_driver_sdk/demo/vendor/Mars_B91_Mother_V2.2/device/button.c:23
	uint8_t read_gpio_level = handle->hal_button_Level();
200048b0:	004d2703          	lw	a4,4(s10)
200048b4:	9702                	c.jalr	a4
E:/promotion/gitlab/telink_b91m_driver_sdk/telink_b91m_driver_sdk/demo/vendor/Mars_B91_Mother_V2.2/device/button.c:24
	if((handle->state) > 0) handle->ticks++;
200048b6:	003d0703          	lb	a4,3(s10)
200048ba:	8b1d                	c.andi	a4,7
200048bc:	c711                	c.beqz	a4,200048c8 <main+0x1290>
200048be:	000d1703          	lh	a4,0(s10)
200048c2:	0705                	c.addi	a4,1
200048c4:	00ed1023          	sh	a4,0(s10)
E:/promotion/gitlab/telink_b91m_driver_sdk/telink_b91m_driver_sdk/demo/vendor/Mars_B91_Mother_V2.2/device/button.c:25
	if(read_gpio_level != handle->button_level){
200048c8:	003d4703          	lbu	a4,3(s10)
200048cc:	00775693          	srli	a3,a4,0x7
200048d0:	16d50263          	beq	a0,a3,20004a34 <main+0x13fc>
E:/promotion/gitlab/telink_b91m_driver_sdk/telink_b91m_driver_sdk/demo/vendor/Mars_B91_Mother_V2.2/device/button.c:26
		if(++(handle->debounce_cnt) >= DEBOUNCE_TICKS) {
200048d4:	1437275b          	bfoz	a4,a4,5,3
200048d8:	003d0683          	lb	a3,3(s10)
200048dc:	0705                	c.addi	a4,1
200048de:	8b1d                	c.andi	a4,7
200048e0:	00371613          	slli	a2,a4,0x3
200048e4:	fc76f693          	andi	a3,a3,-57
200048e8:	8ed1                	c.or	a3,a2
200048ea:	00dd01a3          	sb	a3,3(s10)
200048ee:	4585                	c.li	a1,1
200048f0:	00e5f863          	bgeu	a1,a4,20004900 <main+0x12c8>
E:/promotion/gitlab/telink_b91m_driver_sdk/telink_b91m_driver_sdk/demo/vendor/Mars_B91_Mother_V2.2/device/button.c:27
			handle->button_level = read_gpio_level;
200048f4:	051e                	c.slli	a0,0x7
200048f6:	0476f693          	andi	a3,a3,71
E:/promotion/gitlab/telink_b91m_driver_sdk/telink_b91m_driver_sdk/demo/vendor/Mars_B91_Mother_V2.2/device/button.c:28
			handle->debounce_cnt = 0;
200048fa:	8ec9                	c.or	a3,a0
200048fc:	00dd01a3          	sb	a3,3(s10)
E:/promotion/gitlab/telink_b91m_driver_sdk/telink_b91m_driver_sdk/demo/vendor/Mars_B91_Mother_V2.2/device/button.c:35
	switch (handle->state) {
20004900:	003d0683          	lb	a3,3(s10)
20004904:	0076f713          	andi	a4,a3,7
20004908:	1427525b          	beqc	a4,2,20004a4c <main+0x1414>
2000490c:	f6ecf4e3          	bgeu	s9,a4,20004874 <main+0x123c>
20004910:	18375a5b          	beqc	a4,3,20004aa4 <main+0x146c>
20004914:	b8476a5b          	bnec	a4,4,200048a8 <main+0x1270>
E:/promotion/gitlab/telink_b91m_driver_sdk/telink_b91m_driver_sdk/demo/vendor/Mars_B91_Mother_V2.2/device/button.c:103
			if(handle->button_level == handle->active_level) {
20004918:	003d4703          	lbu	a4,3(s10)
2000491c:	00775613          	srli	a2,a4,0x7
20004920:	1867275b          	bfoz	a4,a4,6,6
20004924:	2ae60e63          	beq	a2,a4,20004be0 <main+0x15a8>
E:/promotion/gitlab/telink_b91m_driver_sdk/telink_b91m_driver_sdk/demo/vendor/Mars_B91_Mother_V2.2/device/button.c:111
				handle->event = (uint8_t)PRESS_UP;
20004928:	002d0703          	lb	a4,2(s10)
E:/promotion/gitlab/telink_b91m_driver_sdk/telink_b91m_driver_sdk/demo/vendor/Mars_B91_Mother_V2.2/device/button.c:113
				handle->state = 0; //reset
2000492c:	9ae1                	c.andi	a3,-8
E:/promotion/gitlab/telink_b91m_driver_sdk/telink_b91m_driver_sdk/demo/vendor/Mars_B91_Mother_V2.2/device/button.c:111
				handle->event = (uint8_t)PRESS_UP;
2000492e:	8b39                	c.andi	a4,14
E:/promotion/gitlab/telink_b91m_driver_sdk/telink_b91m_driver_sdk/demo/vendor/Mars_B91_Mother_V2.2/device/button.c:114
				handle->l_pre_s = 0;
20004930:	01076713          	ori	a4,a4,16
E:/promotion/gitlab/telink_b91m_driver_sdk/telink_b91m_driver_sdk/demo/vendor/Mars_B91_Mother_V2.2/device/button.c:113
				handle->state = 0; //reset
20004934:	00dd01a3          	sb	a3,3(s10)
E:/promotion/gitlab/telink_b91m_driver_sdk/telink_b91m_driver_sdk/demo/vendor/Mars_B91_Mother_V2.2/device/button.c:114
				handle->l_pre_s = 0;
20004938:	00ed0123          	sb	a4,2(s10)
button_ticks():
E:/promotion/gitlab/telink_b91m_driver_sdk/telink_b91m_driver_sdk/demo/vendor/Mars_B91_Mother_V2.2/device/button.c:143
	for(target = head_handle; target; target = target->next){
2000493c:	024d2d03          	lw	s10,36(s10)
20004940:	f60d18e3          	bnez	s10,200048b0 <main+0x1278>
ws2812b_test():
E:/promotion/gitlab/telink_b91m_driver_sdk/telink_b91m_driver_sdk/demo/vendor/Mars_B91_Mother_V2.2/device/ws2812b.c:69
	pwm_ir_dma_mode_start(DMA_CHN);
}

void ws2812b_test(void)
{
	if(pwm_irq_index == WS2812B_NUM){
20004944:	45e2                	c.lwsp	a1,24(sp)
20004946:	419c                	c.lw	a5,0(a1)
20004948:	1a17d45b          	beqc	a5,1,20004af0 <main+0x14b8>
stimer_get_tick():
E:/promotion/gitlab/telink_b91m_driver_sdk/telink_b91m_driver_sdk/chip/B91/drivers/stimer.h:168
	return reg_system_tick;
2000494c:	801407b7          	lui	a5,0x80140
20004950:	2007a783          	lw	a5,512(a5) # 80140200 <_DATA_LMA_START+0x60138228>
main_loop():
E:/promotion/gitlab/telink_b91m_driver_sdk/telink_b91m_driver_sdk/demo/vendor/Mars_B91_Mother_V2.2/app_all.c:49
			button_ticks();
			ws2812b_test();
			g_time1 = stimer_get_tick();
20004954:	00fc2023          	sw	a5,0(s8)
20004958:	a3dff06f          	j	20004394 <main+0xd5c>
user_read_flash_value_calib():
E:/promotion/gitlab/telink_b91m_driver_sdk/telink_b91m_driver_sdk/demo/vendor/common/B91/calibration/calibration.c:182
				break;
		}
	}
	else
	{
		user_calib_adc_vref(USER_CALIB_FROM_FLASH, 0);
2000495c:	00000513          	li	a0,0
20004960:	a4cfe0ef          	jal	ra,20002bac <user_calib_adc_vref.constprop.44>
20004964:	fe9fe06f          	j	2000394c <main+0x314>
button_start():
E:/promotion/gitlab/telink_b91m_driver_sdk/telink_b91m_driver_sdk/demo/vendor/Mars_B91_Mother_V2.2/device/button.c:126
	head_handle  = handle;
20004968:	4572                	c.lwsp	a0,28(sp)
E:/promotion/gitlab/telink_b91m_driver_sdk/telink_b91m_driver_sdk/demo/vendor/Mars_B91_Mother_V2.2/device/button.c:125
	handle->next = head_handle;
2000496a:	d05c                	c.sw	a5,36(s0)
E:/promotion/gitlab/telink_b91m_driver_sdk/telink_b91m_driver_sdk/demo/vendor/Mars_B91_Mother_V2.2/device/button.c:126
	head_handle  = handle;
2000496c:	00852023          	sw	s0,0(a0)
20004970:	ba4ff06f          	j	20003d14 <main+0x6dc>
20004974:	4572                	c.lwsp	a0,28(sp)
E:/promotion/gitlab/telink_b91m_driver_sdk/telink_b91m_driver_sdk/demo/vendor/Mars_B91_Mother_V2.2/device/button.c:125
	handle->next = head_handle;
20004976:	d05c                	c.sw	a5,36(s0)
E:/promotion/gitlab/telink_b91m_driver_sdk/telink_b91m_driver_sdk/demo/vendor/Mars_B91_Mother_V2.2/device/button.c:126
	head_handle  = handle;
20004978:	00852023          	sw	s0,0(a0)
2000497c:	bd0ff06f          	j	20003d4c <main+0x714>
20004980:	4572                	c.lwsp	a0,28(sp)
E:/promotion/gitlab/telink_b91m_driver_sdk/telink_b91m_driver_sdk/demo/vendor/Mars_B91_Mother_V2.2/device/button.c:125
	handle->next = head_handle;
20004982:	d05c                	c.sw	a5,36(s0)
E:/promotion/gitlab/telink_b91m_driver_sdk/telink_b91m_driver_sdk/demo/vendor/Mars_B91_Mother_V2.2/device/button.c:126
	head_handle  = handle;
20004984:	00852023          	sw	s0,0(a0)
20004988:	bfcff06f          	j	20003d84 <main+0x74c>
uart_cal_div_and_bwpc():
E:/promotion/gitlab/telink_b91m_driver_sdk/telink_b91m_driver_sdk/chip/B91/drivers/uart.c:217
		if(primeDec > 5){ // >5
2000498c:	4795                	c.li	a5,5
2000498e:	de97f563          	bgeu	a5,s1,20003f78 <main+0x940>
E:/promotion/gitlab/telink_b91m_driver_sdk/telink_b91m_driver_sdk/chip/B91/drivers/uart.c:218
			primeInt += 1;
20004992:	00140493          	addi	s1,s0,1
E:/promotion/gitlab/telink_b91m_driver_sdk/telink_b91m_driver_sdk/chip/B91/drivers/uart.c:219
			if(uart_is_prime(primeInt)){
20004996:	8526                	c.mv	a0,s1
20004998:	dd4fe0ef          	jal	ra,20002f6c <uart_is_prime>
2000499c:	dc051e63          	bnez	a0,20003f78 <main+0x940>
main():
E:/promotion/gitlab/telink_b91m_driver_sdk/telink_b91m_driver_sdk/chip/B91/drivers/uart.c:218
			primeInt += 1;
200049a0:	00900433          	add	s0,zero,s1
200049a4:	dd4ff06f          	j	20003f78 <main+0x940>
uart_reset():
E:/promotion/gitlab/telink_b91m_driver_sdk/telink_b91m_driver_sdk/chip/B91/drivers/uart.h:304
	reg_rst0 &= (~((uart_num)?FLD_RST0_UART1:FLD_RST0_UART0));
200049a8:	1e078703          	lb	a4,480(a5)
200049ac:	0fb77713          	andi	a4,a4,251
200049b0:	1ee78023          	sb	a4,480(a5)
E:/promotion/gitlab/telink_b91m_driver_sdk/telink_b91m_driver_sdk/chip/B91/drivers/uart.h:305
	reg_rst0 |= ((uart_num)?FLD_RST0_UART1:FLD_RST0_UART0);
200049b4:	1e078703          	lb	a4,480(a5)
200049b8:	00476713          	ori	a4,a4,4
200049bc:	0ff77713          	andi	a4,a4,255
200049c0:	1ee78023          	sb	a4,480(a5)
E:/promotion/gitlab/telink_b91m_driver_sdk/telink_b91m_driver_sdk/chip/B91/drivers/uart.h:306
	reg_uart_state(uart_num) |=FLD_UART_CLR_TXDONE;
200049c4:	08f78703          	lb	a4,143(a5)
200049c8:	f8076713          	ori	a4,a4,-128
200049cc:	0ff77713          	andi	a4,a4,255
200049d0:	08e787a3          	sb	a4,143(a5)
200049d4:	cd4ff06f          	j	20003ea8 <main+0x870>
uart_rec_handle():
E:/promotion/gitlab/telink_b91m_driver_sdk/telink_b91m_driver_sdk/demo/vendor/Mars_B91_Mother_V2.2/device/serial_port.c:41
		else g_uart_last_length = g_uart_length;
200049d8:	000a2783          	lw	a5,0(s4)
200049dc:	4502                	c.lwsp	a0,0(sp)
200049de:	c11c                	c.sw	a5,0(a0)
200049e0:	a11ff06f          	j	200043f0 <main+0xdb8>
sht3x_test():
E:/promotion/gitlab/telink_b91m_driver_sdk/telink_b91m_driver_sdk/demo/vendor/Mars_B91_Mother_V2.2/device/sht30.c:64
	}
	else{
		//sprintf(uart_send_buf,"read sht30 error!\r\n");
		//uart_send_array(uart_send_buf,strlen(uart_send_buf));
		sprintf((char*)oled_show_buff,"T:0.0");
200049e4:	2e3047b7          	lui	a5,0x2e304
200049e8:	03000713          	li	a4,48
200049ec:	a5478693          	addi	a3,a5,-1452 # 2e303a54 <_DATA_LMA_START+0xe2fba7c>
E:/promotion/gitlab/telink_b91m_driver_sdk/telink_b91m_driver_sdk/demo/vendor/Mars_B91_Mother_V2.2/device/sht30.c:65
		OLED_ShowStr(72,0,(uint8_t *)oled_show_buff);
200049f0:	08f0                	c.addi4spn	a2,sp,92
200049f2:	4581                	c.li	a1,0
200049f4:	04800513          	li	a0,72
E:/promotion/gitlab/telink_b91m_driver_sdk/telink_b91m_driver_sdk/demo/vendor/Mars_B91_Mother_V2.2/device/sht30.c:64
		sprintf((char*)oled_show_buff,"T:0.0");
200049f8:	c63e                	c.swsp	a5,12(sp)
200049fa:	06e11023          	sh	a4,96(sp)
200049fe:	c43a                	c.swsp	a4,8(sp)
20004a00:	04d12e23          	sw	a3,92(sp)
E:/promotion/gitlab/telink_b91m_driver_sdk/telink_b91m_driver_sdk/demo/vendor/Mars_B91_Mother_V2.2/device/sht30.c:65
		OLED_ShowStr(72,0,(uint8_t *)oled_show_buff);
20004a04:	fd8fe0ef          	jal	ra,200031dc <OLED_ShowStr>
E:/promotion/gitlab/telink_b91m_driver_sdk/telink_b91m_driver_sdk/demo/vendor/Mars_B91_Mother_V2.2/device/sht30.c:66
		sprintf((char*)oled_show_buff,"H:0.0");
20004a08:	47b2                	c.lwsp	a5,12(sp)
20004a0a:	4722                	c.lwsp	a4,8(sp)
20004a0c:	a4878793          	addi	a5,a5,-1464
E:/promotion/gitlab/telink_b91m_driver_sdk/telink_b91m_driver_sdk/demo/vendor/Mars_B91_Mother_V2.2/device/sht30.c:67
		OLED_ShowStr(72,2,(uint8_t *)oled_show_buff);
20004a10:	08f0                	c.addi4spn	a2,sp,92
20004a12:	4589                	c.li	a1,2
20004a14:	04800513          	li	a0,72
E:/promotion/gitlab/telink_b91m_driver_sdk/telink_b91m_driver_sdk/demo/vendor/Mars_B91_Mother_V2.2/device/sht30.c:66
		sprintf((char*)oled_show_buff,"H:0.0");
20004a18:	04f12e23          	sw	a5,92(sp)
20004a1c:	06e11023          	sh	a4,96(sp)
E:/promotion/gitlab/telink_b91m_driver_sdk/telink_b91m_driver_sdk/demo/vendor/Mars_B91_Mother_V2.2/device/sht30.c:67
		OLED_ShowStr(72,2,(uint8_t *)oled_show_buff);
20004a20:	fbcfe0ef          	jal	ra,200031dc <OLED_ShowStr>
20004a24:	b6dff06f          	j	20004590 <main+0xf58>
adc_calculate_voltage():
E:/promotion/gitlab/telink_b91m_driver_sdk/telink_b91m_driver_sdk/chip/B91/drivers/adc.c:396
	if(adc_code == 0)
20004a28:	0013e7b7          	lui	a5,0x13e
20004a2c:	81978793          	addi	a5,a5,-2023 # 13d819 <FLASH_SIZE+0x3d819>
20004a30:	4601                	c.li	a2,0
20004a32:	b399                	c.j	20004778 <main+0x1140>
button_handler():
E:/promotion/gitlab/telink_b91m_driver_sdk/telink_b91m_driver_sdk/demo/vendor/Mars_B91_Mother_V2.2/device/button.c:32
	    handle->debounce_cnt = 0;
20004a34:	003d0703          	lb	a4,3(s10)
20004a38:	fc777713          	andi	a4,a4,-57
20004a3c:	00ed01a3          	sb	a4,3(s10)
E:/promotion/gitlab/telink_b91m_driver_sdk/telink_b91m_driver_sdk/demo/vendor/Mars_B91_Mother_V2.2/device/button.c:35
	switch (handle->state) {
20004a40:	003d0683          	lb	a3,3(s10)
20004a44:	0076f713          	andi	a4,a3,7
20004a48:	ac27625b          	bnec	a4,2,2000490c <main+0x12d4>
E:/promotion/gitlab/telink_b91m_driver_sdk/telink_b91m_driver_sdk/demo/vendor/Mars_B91_Mother_V2.2/device/button.c:64
			if(handle->button_level == handle->active_level) {
20004a4c:	003d4703          	lbu	a4,3(s10)
20004a50:	00775613          	srli	a2,a4,0x7
20004a54:	1867275b          	bfoz	a4,a4,6,6
20004a58:	1ae60863          	beq	a2,a4,20004c08 <main+0x15d0>
E:/promotion/gitlab/telink_b91m_driver_sdk/telink_b91m_driver_sdk/demo/vendor/Mars_B91_Mother_V2.2/device/button.c:72
			else if(handle->ticks > SHORT_TICKS){
20004a5c:	000d5703          	lhu	a4,0(s10)
20004a60:	01400513          	li	a0,20
20004a64:	e4e572e3          	bgeu	a0,a4,200048a8 <main+0x1270>
E:/promotion/gitlab/telink_b91m_driver_sdk/telink_b91m_driver_sdk/demo/vendor/Mars_B91_Mother_V2.2/device/button.c:73
			    if(handle->repeat == 1) {
20004a68:	002d0703          	lb	a4,2(s10)
20004a6c:	00e77693          	andi	a3,a4,14
20004a70:	1c26d05b          	beqc	a3,2,20004c30 <main+0x15f8>
E:/promotion/gitlab/telink_b91m_driver_sdk/telink_b91m_driver_sdk/demo/vendor/Mars_B91_Mother_V2.2/device/button.c:77
				else if(handle->repeat == 2) {
20004a74:	1c46dc5b          	beqc	a3,4,20004c4c <main+0x1614>
E:/promotion/gitlab/telink_b91m_driver_sdk/telink_b91m_driver_sdk/demo/vendor/Mars_B91_Mother_V2.2/device/button.c:81
				handle->state = 0;
20004a78:	003d0703          	lb	a4,3(s10)
20004a7c:	9b61                	c.andi	a4,-8
20004a7e:	00ed01a3          	sb	a4,3(s10)
20004a82:	b51d                	c.j	200048a8 <main+0x1270>
E:/promotion/gitlab/telink_b91m_driver_sdk/telink_b91m_driver_sdk/demo/vendor/Mars_B91_Mother_V2.2/device/button.c:37
			if(handle->button_level == handle->active_level) {
20004a84:	003d4703          	lbu	a4,3(s10)
20004a88:	00775613          	srli	a2,a4,0x7
20004a8c:	1867275b          	bfoz	a4,a4,6,6
20004a90:	12e60863          	beq	a2,a4,20004bc0 <main+0x1588>
E:/promotion/gitlab/telink_b91m_driver_sdk/telink_b91m_driver_sdk/demo/vendor/Mars_B91_Mother_V2.2/device/button.c:45
			    handle->event = (uint8_t)NONE_PRESS;
20004a94:	002d0703          	lb	a4,2(s10)
20004a98:	8b3d                	c.andi	a4,15
20004a9a:	f8076713          	ori	a4,a4,-128
20004a9e:	00ed0123          	sb	a4,2(s10)
20004aa2:	b519                	c.j	200048a8 <main+0x1270>
E:/promotion/gitlab/telink_b91m_driver_sdk/telink_b91m_driver_sdk/demo/vendor/Mars_B91_Mother_V2.2/device/button.c:86
			if(handle->button_level != handle->active_level){
20004aa4:	003d4703          	lbu	a4,3(s10)
20004aa8:	000d5603          	lhu	a2,0(s10)
20004aac:	00775593          	srli	a1,a4,0x7
20004ab0:	1867275b          	bfoz	a4,a4,6,6
20004ab4:	02e58663          	beq	a1,a4,20004ae0 <main+0x14a8>
E:/promotion/gitlab/telink_b91m_driver_sdk/telink_b91m_driver_sdk/demo/vendor/Mars_B91_Mother_V2.2/device/button.c:87
			    handle->event = (uint8_t)PRESS_UP;
20004ab8:	002d0703          	lb	a4,2(s10)
E:/promotion/gitlab/telink_b91m_driver_sdk/telink_b91m_driver_sdk/demo/vendor/Mars_B91_Mother_V2.2/device/button.c:89
				if(handle->ticks < SHORT_TICKS) {
20004abc:	45cd                	c.li	a1,19
E:/promotion/gitlab/telink_b91m_driver_sdk/telink_b91m_driver_sdk/demo/vendor/Mars_B91_Mother_V2.2/device/button.c:87
			    handle->event = (uint8_t)PRESS_UP;
20004abe:	8b3d                	c.andi	a4,15
20004ac0:	01076713          	ori	a4,a4,16
20004ac4:	00ed0123          	sb	a4,2(s10)
E:/promotion/gitlab/telink_b91m_driver_sdk/telink_b91m_driver_sdk/demo/vendor/Mars_B91_Mother_V2.2/device/button.c:89
				if(handle->ticks < SHORT_TICKS) {
20004ac8:	02c5e063          	bltu	a1,a2,20004ae8 <main+0x14b0>
E:/promotion/gitlab/telink_b91m_driver_sdk/telink_b91m_driver_sdk/demo/vendor/Mars_B91_Mother_V2.2/device/button.c:91
				    handle->state = 2;
20004acc:	ff86f713          	andi	a4,a3,-8
20004ad0:	00276713          	ori	a4,a4,2
E:/promotion/gitlab/telink_b91m_driver_sdk/telink_b91m_driver_sdk/demo/vendor/Mars_B91_Mother_V2.2/device/button.c:90
					handle->ticks = 0;
20004ad4:	000d1023          	sh	zero,0(s10)
E:/promotion/gitlab/telink_b91m_driver_sdk/telink_b91m_driver_sdk/demo/vendor/Mars_B91_Mother_V2.2/device/button.c:91
				    handle->state = 2;
20004ad8:	00ed01a3          	sb	a4,3(s10)
20004adc:	dcdff06f          	j	200048a8 <main+0x1270>
E:/promotion/gitlab/telink_b91m_driver_sdk/telink_b91m_driver_sdk/demo/vendor/Mars_B91_Mother_V2.2/device/button.c:97
			else if(handle->ticks > SHORT_TICKS){
20004ae0:	01400593          	li	a1,20
20004ae4:	dcc5f2e3          	bgeu	a1,a2,200048a8 <main+0x1270>
E:/promotion/gitlab/telink_b91m_driver_sdk/telink_b91m_driver_sdk/demo/vendor/Mars_B91_Mother_V2.2/device/button.c:98
			    handle->state = 0;
20004ae8:	9ae1                	c.andi	a3,-8
20004aea:	00dd01a3          	sb	a3,3(s10)
20004aee:	bb6d                	c.j	200048a8 <main+0x1270>
ws2812b_test():
E:/promotion/gitlab/telink_b91m_driver_sdk/telink_b91m_driver_sdk/demo/vendor/Mars_B91_Mother_V2.2/device/ws2812b.c:73
//		g_grb[0] ^= g_grb[1];
//		g_grb[1] ^= g_grb[0];
//		g_grb[0] ^= g_grb[1];
		g_grb[0]++;
20004af0:	55e2                	c.lwsp	a1,56(sp)
E:/promotion/gitlab/telink_b91m_driver_sdk/telink_b91m_driver_sdk/demo/vendor/Mars_B91_Mother_V2.2/device/ws2812b.c:75
		g_grb[1]--;
		g_grb[2]=g_grb[0]>125?g_grb[0]:g_grb[1];
20004af2:	07d00693          	li	a3,125
E:/promotion/gitlab/telink_b91m_driver_sdk/telink_b91m_driver_sdk/demo/vendor/Mars_B91_Mother_V2.2/device/ws2812b.c:73
		g_grb[0]++;
20004af6:	00058703          	lb	a4,0(a1)
E:/promotion/gitlab/telink_b91m_driver_sdk/telink_b91m_driver_sdk/demo/vendor/Mars_B91_Mother_V2.2/device/ws2812b.c:74
		g_grb[1]--;
20004afa:	00158783          	lb	a5,1(a1)
E:/promotion/gitlab/telink_b91m_driver_sdk/telink_b91m_driver_sdk/demo/vendor/Mars_B91_Mother_V2.2/device/ws2812b.c:73
		g_grb[0]++;
20004afe:	0705                	c.addi	a4,1
E:/promotion/gitlab/telink_b91m_driver_sdk/telink_b91m_driver_sdk/demo/vendor/Mars_B91_Mother_V2.2/device/ws2812b.c:74
		g_grb[1]--;
20004b00:	17fd                	c.addi	a5,-1
E:/promotion/gitlab/telink_b91m_driver_sdk/telink_b91m_driver_sdk/demo/vendor/Mars_B91_Mother_V2.2/device/ws2812b.c:73
		g_grb[0]++;
20004b02:	0ff77713          	andi	a4,a4,255
E:/promotion/gitlab/telink_b91m_driver_sdk/telink_b91m_driver_sdk/demo/vendor/Mars_B91_Mother_V2.2/device/ws2812b.c:74
		g_grb[1]--;
20004b06:	0ff7f793          	andi	a5,a5,255
E:/promotion/gitlab/telink_b91m_driver_sdk/telink_b91m_driver_sdk/demo/vendor/Mars_B91_Mother_V2.2/device/ws2812b.c:73
		g_grb[0]++;
20004b0a:	00e58023          	sb	a4,0(a1)
E:/promotion/gitlab/telink_b91m_driver_sdk/telink_b91m_driver_sdk/demo/vendor/Mars_B91_Mother_V2.2/device/ws2812b.c:74
		g_grb[1]--;
20004b0e:	00f580a3          	sb	a5,1(a1)
E:/promotion/gitlab/telink_b91m_driver_sdk/telink_b91m_driver_sdk/demo/vendor/Mars_B91_Mother_V2.2/device/ws2812b.c:75
		g_grb[2]=g_grb[0]>125?g_grb[0]:g_grb[1];
20004b12:	00e6f363          	bgeu	a3,a4,20004b18 <main+0x14e0>
20004b16:	87ba                	c.mv	a5,a4
E:/promotion/gitlab/telink_b91m_driver_sdk/telink_b91m_driver_sdk/demo/vendor/Mars_B91_Mother_V2.2/device/ws2812b.c:76
		pwm_irq_index = 0;
20004b18:	4562                	c.lwsp	a0,24(sp)
gpio_output_en():
E:/promotion/gitlab/telink_b91m_driver_sdk/telink_b91m_driver_sdk/chip/B91/drivers/gpio.h:302
	BM_CLR(reg_gpio_oen(pin), bit);
20004b1a:	80140d37          	lui	s10,0x80140
ws2812b_test():
E:/promotion/gitlab/telink_b91m_driver_sdk/telink_b91m_driver_sdk/demo/vendor/Mars_B91_Mother_V2.2/device/ws2812b.c:76
20004b1e:	00052023          	sw	zero,0(a0)
E:/promotion/gitlab/telink_b91m_driver_sdk/telink_b91m_driver_sdk/demo/vendor/Mars_B91_Mother_V2.2/device/ws2812b.c:75
		g_grb[2]=g_grb[0]>125?g_grb[0]:g_grb[1];
20004b22:	55e2                	c.lwsp	a1,56(sp)
gpio_output_en():
E:/promotion/gitlab/telink_b91m_driver_sdk/telink_b91m_driver_sdk/chip/B91/drivers/gpio.h:302
20004b24:	30ad0703          	lb	a4,778(s10) # 8014030a <_DATA_LMA_START+0x60138332>
ws2812b_test():
E:/promotion/gitlab/telink_b91m_driver_sdk/telink_b91m_driver_sdk/demo/vendor/Mars_B91_Mother_V2.2/device/ws2812b.c:75
20004b28:	00f58123          	sb	a5,2(a1)
gpio_output_en():
E:/promotion/gitlab/telink_b91m_driver_sdk/telink_b91m_driver_sdk/chip/B91/drivers/gpio.h:302
20004b2c:	0ef77793          	andi	a5,a4,239
20004b30:	30fd0523          	sb	a5,778(s10)
gpio_set_low_level():
E:/promotion/gitlab/telink_b91m_driver_sdk/telink_b91m_driver_sdk/chip/B91/drivers/gpio.h:232
	BM_CLR(reg_gpio_out(pin), bit);
20004b34:	30bd0783          	lb	a5,779(s10)
dma_set_address():
E:/promotion/gitlab/telink_b91m_driver_sdk/telink_b91m_driver_sdk/chip/B91/drivers/dma.h:309
	reg_dma_dst_addr(chn)= (unsigned int)convert_ram_addr_cpu2bus(dst_addr);
20004b38:	448d0d13          	addi	s10,s10,1096
gpio_set_low_level():
E:/promotion/gitlab/telink_b91m_driver_sdk/telink_b91m_driver_sdk/chip/B91/drivers/gpio.h:232
20004b3c:	0ef7f793          	andi	a5,a5,239
20004b40:	ecfd01a3          	sb	a5,-317(s10)
gpio_function_en():
E:/promotion/gitlab/telink_b91m_driver_sdk/telink_b91m_driver_sdk/chip/B91/drivers/gpio.h:194
	BM_SET(reg_gpio_func(pin), bit);
20004b44:	ec6d0783          	lb	a5,-314(s10)
20004b48:	0ff7f793          	andi	a5,a5,255
20004b4c:	0107e793          	ori	a5,a5,16
20004b50:	ecfd0323          	sb	a5,-314(s10)
ws2812b_test():
E:/promotion/gitlab/telink_b91m_driver_sdk/telink_b91m_driver_sdk/demo/vendor/Mars_B91_Mother_V2.2/device/ws2812b.c:80
		gpio_output_en(PWM_PIN);
		gpio_set_low_level(PWM_PIN);
		gpio_function_en(PWM_PIN);
		delay_us(300);
20004b54:	dfffb097          	auipc	ra,0xdfffb
20004b58:	6cc080e7          	jalr	1740(ra) # 220 <delay_us.constprop.9>
E:/promotion/gitlab/telink_b91m_driver_sdk/telink_b91m_driver_sdk/demo/vendor/Mars_B91_Mother_V2.2/device/ws2812b.c:81
		pwm_set_pin(PWM_PIN);
20004b5c:	becfe0ef          	jal	ra,20002f48 <pwm_set_pin.constprop.8>
gpio_function_dis():
E:/promotion/gitlab/telink_b91m_driver_sdk/telink_b91m_driver_sdk/chip/B91/drivers/gpio.h:206
	BM_CLR(reg_gpio_func(pin), bit);
20004b60:	ec6d0783          	lb	a5,-314(s10)
20004b64:	0ef7f793          	andi	a5,a5,239
20004b68:	ecfd0323          	sb	a5,-314(s10)
ws2812b_test():
E:/promotion/gitlab/telink_b91m_driver_sdk/telink_b91m_driver_sdk/demo/vendor/Mars_B91_Mother_V2.2/device/ws2812b.c:83
		gpio_function_dis(PWM_PIN);
		set_grb(g_grb);
20004b6c:	a44fe0ef          	jal	ra,20002db0 <set_grb.constprop.10>
dma_set_address():
E:/promotion/gitlab/telink_b91m_driver_sdk/telink_b91m_driver_sdk/chip/B91/drivers/dma.h:308
	reg_dma_src_addr(chn)= (unsigned int)convert_ram_addr_cpu2bus(src_addr);
20004b70:	5572                	c.lwsp	a0,60(sp)
20004b72:	801007b7          	lui	a5,0x80100
20004b76:	46a7a823          	sw	a0,1136(a5) # 80100470 <_DATA_LMA_START+0x600f8498>
E:/promotion/gitlab/telink_b91m_driver_sdk/telink_b91m_driver_sdk/chip/B91/drivers/dma.h:309
	reg_dma_dst_addr(chn)= (unsigned int)convert_ram_addr_cpu2bus(dst_addr);
20004b7a:	47a7aa23          	sw	s10,1140(a5)
dma_set_size():
E:/promotion/gitlab/telink_b91m_driver_sdk/telink_b91m_driver_sdk/chip/B91/drivers/dma.h:278
	reg_dma_size(chn) =((size_byte+byte_width-1)/byte_width)|( (size_byte % byte_width)<<22);
20004b7e:	4731                	c.li	a4,12
20004b80:	46e7ac23          	sw	a4,1144(a5)
dma_chn_en():
E:/promotion/gitlab/telink_b91m_driver_sdk/telink_b91m_driver_sdk/chip/B91/drivers/dma.h:170
	BM_SET(reg_dma_ctr0(chn),BIT(0));
20004b84:	46c78703          	lb	a4,1132(a5)
20004b88:	0ff77713          	andi	a4,a4,255
20004b8c:	00176713          	ori	a4,a4,1
20004b90:	46e78623          	sb	a4,1132(a5)
20004b94:	db9ff06f          	j	2000494c <main+0x1314>
button_handler():
E:/promotion/gitlab/telink_b91m_driver_sdk/telink_b91m_driver_sdk/demo/vendor/Mars_B91_Mother_V2.2/device/button.c:56
			else if(handle->ticks > LONG_TICKS){
20004b98:	000d5703          	lhu	a4,0(s10)
20004b9c:	0c800513          	li	a0,200
20004ba0:	d0e574e3          	bgeu	a0,a4,200048a8 <main+0x1270>
E:/promotion/gitlab/telink_b91m_driver_sdk/telink_b91m_driver_sdk/demo/vendor/Mars_B91_Mother_V2.2/device/button.c:57
			    handle->event = (uint8_t)LONG_PRESS_START;
20004ba4:	002d0703          	lb	a4,2(s10)
E:/promotion/gitlab/telink_b91m_driver_sdk/telink_b91m_driver_sdk/demo/vendor/Mars_B91_Mother_V2.2/device/button.c:59
				handle->state = 4;
20004ba8:	9ae1                	c.andi	a3,-8
E:/promotion/gitlab/telink_b91m_driver_sdk/telink_b91m_driver_sdk/demo/vendor/Mars_B91_Mother_V2.2/device/button.c:57
			    handle->event = (uint8_t)LONG_PRESS_START;
20004baa:	8b3d                	c.andi	a4,15
E:/promotion/gitlab/telink_b91m_driver_sdk/telink_b91m_driver_sdk/demo/vendor/Mars_B91_Mother_V2.2/device/button.c:59
				handle->state = 4;
20004bac:	0046e693          	ori	a3,a3,4
E:/promotion/gitlab/telink_b91m_driver_sdk/telink_b91m_driver_sdk/demo/vendor/Mars_B91_Mother_V2.2/device/button.c:57
			    handle->event = (uint8_t)LONG_PRESS_START;
20004bb0:	05076713          	ori	a4,a4,80
20004bb4:	00ed0123          	sb	a4,2(s10)
E:/promotion/gitlab/telink_b91m_driver_sdk/telink_b91m_driver_sdk/demo/vendor/Mars_B91_Mother_V2.2/device/button.c:59
				handle->state = 4;
20004bb8:	00dd01a3          	sb	a3,3(s10)
20004bbc:	cedff06f          	j	200048a8 <main+0x1270>
E:/promotion/gitlab/telink_b91m_driver_sdk/telink_b91m_driver_sdk/demo/vendor/Mars_B91_Mother_V2.2/device/button.c:38
			    handle->event = (uint8_t)PRESS_DOWN;
20004bc0:	002d0703          	lb	a4,2(s10)
E:/promotion/gitlab/telink_b91m_driver_sdk/telink_b91m_driver_sdk/demo/vendor/Mars_B91_Mother_V2.2/device/button.c:42
				handle->state  = 1;
20004bc4:	9ae1                	c.andi	a3,-8
E:/promotion/gitlab/telink_b91m_driver_sdk/telink_b91m_driver_sdk/demo/vendor/Mars_B91_Mother_V2.2/device/button.c:41
				handle->repeat = 1;
20004bc6:	8b05                	c.andi	a4,1
E:/promotion/gitlab/telink_b91m_driver_sdk/telink_b91m_driver_sdk/demo/vendor/Mars_B91_Mother_V2.2/device/button.c:42
				handle->state  = 1;
20004bc8:	0016e693          	ori	a3,a3,1
E:/promotion/gitlab/telink_b91m_driver_sdk/telink_b91m_driver_sdk/demo/vendor/Mars_B91_Mother_V2.2/device/button.c:41
				handle->repeat = 1;
20004bcc:	00276713          	ori	a4,a4,2
E:/promotion/gitlab/telink_b91m_driver_sdk/telink_b91m_driver_sdk/demo/vendor/Mars_B91_Mother_V2.2/device/button.c:40
				handle->ticks  = 0;
20004bd0:	000d1023          	sh	zero,0(s10)
E:/promotion/gitlab/telink_b91m_driver_sdk/telink_b91m_driver_sdk/demo/vendor/Mars_B91_Mother_V2.2/device/button.c:41
				handle->repeat = 1;
20004bd4:	00ed0123          	sb	a4,2(s10)
E:/promotion/gitlab/telink_b91m_driver_sdk/telink_b91m_driver_sdk/demo/vendor/Mars_B91_Mother_V2.2/device/button.c:42
				handle->state  = 1;
20004bd8:	00dd01a3          	sb	a3,3(s10)
20004bdc:	ccdff06f          	j	200048a8 <main+0x1270>
E:/promotion/gitlab/telink_b91m_driver_sdk/telink_b91m_driver_sdk/demo/vendor/Mars_B91_Mother_V2.2/device/button.c:104
			    handle->event = (uint8_t)LONG_PRESS_HOLD;
20004be0:	002d0703          	lb	a4,2(s10)
20004be4:	8b3d                	c.andi	a4,15
20004be6:	06076693          	ori	a3,a4,96
20004bea:	00dd0123          	sb	a3,2(s10)
E:/promotion/gitlab/telink_b91m_driver_sdk/telink_b91m_driver_sdk/demo/vendor/Mars_B91_Mother_V2.2/device/button.c:105
			    if(handle->l_pre_s == 0){
20004bee:	ca06fd5b          	bbs	a3,0,200048a8 <main+0x1270>
E:/promotion/gitlab/telink_b91m_driver_sdk/telink_b91m_driver_sdk/demo/vendor/Mars_B91_Mother_V2.2/device/button.c:106
			    	handle->l_pre_s = 1;
20004bf2:	06176713          	ori	a4,a4,97
E:/promotion/gitlab/telink_b91m_driver_sdk/telink_b91m_driver_sdk/demo/vendor/Mars_B91_Mother_V2.2/device/button.c:107
			    	EVENT_CB(LONG_PRESS_HOLD);
20004bf6:	020d2683          	lw	a3,32(s10)
E:/promotion/gitlab/telink_b91m_driver_sdk/telink_b91m_driver_sdk/demo/vendor/Mars_B91_Mother_V2.2/device/button.c:106
			    	handle->l_pre_s = 1;
20004bfa:	00ed0123          	sb	a4,2(s10)
E:/promotion/gitlab/telink_b91m_driver_sdk/telink_b91m_driver_sdk/demo/vendor/Mars_B91_Mother_V2.2/device/button.c:107
			    	EVENT_CB(LONG_PRESS_HOLD);
20004bfe:	ca0685e3          	beqz	a3,200048a8 <main+0x1270>
20004c02:	856a                	c.mv	a0,s10
20004c04:	9682                	c.jalr	a3
20004c06:	b14d                	c.j	200048a8 <main+0x1270>
E:/promotion/gitlab/telink_b91m_driver_sdk/telink_b91m_driver_sdk/demo/vendor/Mars_B91_Mother_V2.2/device/button.c:65
			    handle->event = (uint8_t)PRESS_DOWN;
20004c08:	002d0703          	lb	a4,2(s10)
E:/promotion/gitlab/telink_b91m_driver_sdk/telink_b91m_driver_sdk/demo/vendor/Mars_B91_Mother_V2.2/device/button.c:70
				handle->state = 3;
20004c0c:	9ae1                	c.andi	a3,-8
20004c0e:	0036e613          	ori	a2,a3,3
E:/promotion/gitlab/telink_b91m_driver_sdk/telink_b91m_driver_sdk/demo/vendor/Mars_B91_Mother_V2.2/device/button.c:67
				handle->repeat++;
20004c12:	0c1726db          	bfoz	a3,a4,3,1
20004c16:	0685                	c.addi	a3,1
20004c18:	0436a6db          	bfoz	a3,a3,1,3
20004c1c:	8b05                	c.andi	a4,1
20004c1e:	8f55                	c.or	a4,a3
20004c20:	00ed0123          	sb	a4,2(s10)
E:/promotion/gitlab/telink_b91m_driver_sdk/telink_b91m_driver_sdk/demo/vendor/Mars_B91_Mother_V2.2/device/button.c:69
				handle->ticks = 0;
20004c24:	000d1023          	sh	zero,0(s10)
E:/promotion/gitlab/telink_b91m_driver_sdk/telink_b91m_driver_sdk/demo/vendor/Mars_B91_Mother_V2.2/device/button.c:70
				handle->state = 3;
20004c28:	00cd01a3          	sb	a2,3(s10)
20004c2c:	c7dff06f          	j	200048a8 <main+0x1270>
E:/promotion/gitlab/telink_b91m_driver_sdk/telink_b91m_driver_sdk/demo/vendor/Mars_B91_Mother_V2.2/device/button.c:74
				    handle->event = (uint8_t)SINGLE_CLICK;
20004c30:	00f77713          	andi	a4,a4,15
20004c34:	03076713          	ori	a4,a4,48
E:/promotion/gitlab/telink_b91m_driver_sdk/telink_b91m_driver_sdk/demo/vendor/Mars_B91_Mother_V2.2/device/button.c:75
					EVENT_CB(SINGLE_CLICK);
20004c38:	014d2683          	lw	a3,20(s10)
E:/promotion/gitlab/telink_b91m_driver_sdk/telink_b91m_driver_sdk/demo/vendor/Mars_B91_Mother_V2.2/device/button.c:74
				    handle->event = (uint8_t)SINGLE_CLICK;
20004c3c:	00ed0123          	sb	a4,2(s10)
E:/promotion/gitlab/telink_b91m_driver_sdk/telink_b91m_driver_sdk/demo/vendor/Mars_B91_Mother_V2.2/device/button.c:75
					EVENT_CB(SINGLE_CLICK);
20004c40:	e2068ce3          	beqz	a3,20004a78 <main+0x1440>
E:/promotion/gitlab/telink_b91m_driver_sdk/telink_b91m_driver_sdk/demo/vendor/Mars_B91_Mother_V2.2/device/button.c:79
					EVENT_CB(DOUBLE_CLICK);
20004c44:	856a                	c.mv	a0,s10
20004c46:	9682                	c.jalr	a3
20004c48:	e31ff06f          	j	20004a78 <main+0x1440>
E:/promotion/gitlab/telink_b91m_driver_sdk/telink_b91m_driver_sdk/demo/vendor/Mars_B91_Mother_V2.2/device/button.c:78
					handle->event = (uint8_t)DOUBLE_CLICK;
20004c4c:	8b3d                	c.andi	a4,15
20004c4e:	04076713          	ori	a4,a4,64
E:/promotion/gitlab/telink_b91m_driver_sdk/telink_b91m_driver_sdk/demo/vendor/Mars_B91_Mother_V2.2/device/button.c:79
					EVENT_CB(DOUBLE_CLICK);
20004c52:	018d2683          	lw	a3,24(s10)
E:/promotion/gitlab/telink_b91m_driver_sdk/telink_b91m_driver_sdk/demo/vendor/Mars_B91_Mother_V2.2/device/button.c:78
					handle->event = (uint8_t)DOUBLE_CLICK;
20004c56:	00ed0123          	sb	a4,2(s10)
E:/promotion/gitlab/telink_b91m_driver_sdk/telink_b91m_driver_sdk/demo/vendor/Mars_B91_Mother_V2.2/device/button.c:79
					EVENT_CB(DOUBLE_CLICK);
20004c5a:	f6ed                	c.bnez	a3,20004c44 <main+0x160c>
20004c5c:	e1dff06f          	j	20004a78 <main+0x1440>
uart_cal_div_and_bwpc():
E:/promotion/gitlab/telink_b91m_driver_sdk/telink_b91m_driver_sdk/chip/B91/drivers/uart.c:257
		*div = D_int[position_min] - 1;
20004c60:	09010493          	addi	s1,sp,144
20004c64:	0ce487db          	lea.w	a5,s1,a4
20004c68:	fcc7a783          	lw	a5,-52(a5)
E:/promotion/gitlab/telink_b91m_driver_sdk/telink_b91m_driver_sdk/chip/B91/drivers/uart.c:256
		*bwpc = position_min + 3;
20004c6c:	070d                	c.addi	a4,3
E:/promotion/gitlab/telink_b91m_driver_sdk/telink_b91m_driver_sdk/chip/B91/drivers/uart.c:257
		*div = D_int[position_min] - 1;
20004c6e:	17fd                	c.addi	a5,-1
E:/promotion/gitlab/telink_b91m_driver_sdk/telink_b91m_driver_sdk/chip/B91/drivers/uart.c:256
		*bwpc = position_min + 3;
20004c70:	0ff77713          	andi	a4,a4,255
E:/promotion/gitlab/telink_b91m_driver_sdk/telink_b91m_driver_sdk/chip/B91/drivers/uart.c:257
		*div = D_int[position_min] - 1;
20004c74:	3c07a7db          	bfoz	a5,a5,15,0
20004c78:	bb4ff06f          	j	2000402c <main+0x9f4>
dma_set_address():
E:/promotion/gitlab/telink_b91m_driver_sdk/telink_b91m_driver_sdk/chip/B91/drivers/dma.h:309
	reg_dma_dst_addr(chn)= (unsigned int)convert_ram_addr_cpu2bus(dst_addr);
20004c7c:	c01807b7          	lui	a5,0xc0180
20004c80:	00fd84b3          	add	s1,s11,a5
20004c84:	00912823          	sw	s1,16(sp)
20004c88:	eb0ff06f          	j	20004338 <main+0xd00>
uart_cal_div_and_bwpc():
E:/promotion/gitlab/telink_b91m_driver_sdk/telink_b91m_driver_sdk/chip/B91/drivers/uart.c:261
		*div = D_int[position_max];
20004c8c:	09010493          	addi	s1,sp,144
E:/promotion/gitlab/telink_b91m_driver_sdk/telink_b91m_driver_sdk/chip/B91/drivers/uart.c:260
		*bwpc = position_max + 3;
20004c90:	00378713          	addi	a4,a5,3 # c0180003 <_DATA_LMA_START+0xa017802b>
E:/promotion/gitlab/telink_b91m_driver_sdk/telink_b91m_driver_sdk/chip/B91/drivers/uart.c:261
		*div = D_int[position_max];
20004c94:	0cf486db          	lea.w	a3,s1,a5
20004c98:	fcc6d783          	lhu	a5,-52(a3)
E:/promotion/gitlab/telink_b91m_driver_sdk/telink_b91m_driver_sdk/chip/B91/drivers/uart.c:260
		*bwpc = position_max + 3;
20004c9c:	0ff77713          	andi	a4,a4,255
20004ca0:	b8cff06f          	j	2000402c <main+0x9f4>
user_read_flash_value_calib():
E:/promotion/gitlab/telink_b91m_driver_sdk/telink_b91m_driver_sdk/demo/vendor/common/B91/calibration/calibration.c:164
				user_calib_adc_vref(USER_CALIB_FROM_FLASH, FLASH_ADC_VREF_CALIB_ADDR_1M);
20004ca4:	000fe537          	lui	a0,0xfe
20004ca8:	0c050513          	addi	a0,a0,192 # fe0c0 <_STACK_TOP+0x5e0c0>
20004cac:	f01fd0ef          	jal	ra,20002bac <user_calib_adc_vref.constprop.44>
E:/promotion/gitlab/telink_b91m_driver_sdk/telink_b91m_driver_sdk/demo/vendor/common/B91/calibration/calibration.c:165
				user_calib_freq_offset(USER_CALIB_FROM_FLASH, FLASH_CAP_VALUE_ADDR_1M);
20004cb0:	000fe537          	lui	a0,0xfe
20004cb4:	f5cfe0ef          	jal	ra,20003410 <user_calib_freq_offset.constprop.43>
20004cb8:	c95fe06f          	j	2000394c <main+0x314>
E:/promotion/gitlab/telink_b91m_driver_sdk/telink_b91m_driver_sdk/demo/vendor/common/B91/calibration/calibration.c:168
				user_calib_adc_vref(USER_CALIB_FROM_FLASH, FLASH_ADC_VREF_CALIB_ADDR_2M);
20004cbc:	001fe537          	lui	a0,0x1fe
20004cc0:	0c050513          	addi	a0,a0,192 # 1fe0c0 <FLASH_SIZE+0xfe0c0>
20004cc4:	ee9fd0ef          	jal	ra,20002bac <user_calib_adc_vref.constprop.44>
E:/promotion/gitlab/telink_b91m_driver_sdk/telink_b91m_driver_sdk/demo/vendor/common/B91/calibration/calibration.c:169
				user_calib_freq_offset(USER_CALIB_FROM_FLASH, FLASH_CAP_VALUE_ADDR_2M);
20004cc8:	001fe537          	lui	a0,0x1fe
20004ccc:	f44fe0ef          	jal	ra,20003410 <user_calib_freq_offset.constprop.43>
20004cd0:	c7dfe06f          	j	2000394c <main+0x314>
E:/promotion/gitlab/telink_b91m_driver_sdk/telink_b91m_driver_sdk/demo/vendor/common/B91/calibration/calibration.c:149
		switch (flash_mid[2])
20004cd4:	0307dc5b          	beqc	a5,16,20004d0c <main+0x16d4>
20004cd8:	8917e25b          	bnec	a5,17,2000495c <main+0x1324>
E:/promotion/gitlab/telink_b91m_driver_sdk/telink_b91m_driver_sdk/demo/vendor/common/B91/calibration/calibration.c:156
				user_calib_adc_vref(USER_CALIB_FROM_FLASH, FLASH_ADC_VREF_CALIB_ADDR_128K);
20004cdc:	0001e537          	lui	a0,0x1e
20004ce0:	0c050513          	addi	a0,a0,192 # 1e0c0 <BIN_SIZE+0x160b2>
20004ce4:	ec9fd0ef          	jal	ra,20002bac <user_calib_adc_vref.constprop.44>
E:/promotion/gitlab/telink_b91m_driver_sdk/telink_b91m_driver_sdk/demo/vendor/common/B91/calibration/calibration.c:157
				user_calib_freq_offset(USER_CALIB_FROM_FLASH, FLASH_CAP_VALUE_ADDR_128K);
20004ce8:	0001e537          	lui	a0,0x1e
20004cec:	f24fe0ef          	jal	ra,20003410 <user_calib_freq_offset.constprop.43>
20004cf0:	c5dfe06f          	j	2000394c <main+0x314>
E:/promotion/gitlab/telink_b91m_driver_sdk/telink_b91m_driver_sdk/demo/vendor/common/B91/calibration/calibration.c:160
				user_calib_adc_vref(USER_CALIB_FROM_FLASH, FLASH_ADC_VREF_CALIB_ADDR_512K);
20004cf4:	0007e537          	lui	a0,0x7e
20004cf8:	0c050513          	addi	a0,a0,192 # 7e0c0 <BIN_SIZE+0x760b2>
20004cfc:	eb1fd0ef          	jal	ra,20002bac <user_calib_adc_vref.constprop.44>
E:/promotion/gitlab/telink_b91m_driver_sdk/telink_b91m_driver_sdk/demo/vendor/common/B91/calibration/calibration.c:161
				user_calib_freq_offset(USER_CALIB_FROM_FLASH, FLASH_CAP_VALUE_ADDR_512K);
20004d00:	0007e537          	lui	a0,0x7e
20004d04:	f0cfe0ef          	jal	ra,20003410 <user_calib_freq_offset.constprop.43>
20004d08:	c45fe06f          	j	2000394c <main+0x314>
E:/promotion/gitlab/telink_b91m_driver_sdk/telink_b91m_driver_sdk/demo/vendor/common/B91/calibration/calibration.c:152
				user_calib_adc_vref(USER_CALIB_FROM_FLASH, FLASH_ADC_VREF_CALIB_ADDR_64K);
20004d0c:	0000e537          	lui	a0,0xe
20004d10:	0c050513          	addi	a0,a0,192 # e0c0 <BIN_SIZE+0x60b2>
20004d14:	e99fd0ef          	jal	ra,20002bac <user_calib_adc_vref.constprop.44>
E:/promotion/gitlab/telink_b91m_driver_sdk/telink_b91m_driver_sdk/demo/vendor/common/B91/calibration/calibration.c:153
				user_calib_freq_offset(USER_CALIB_FROM_FLASH, FLASH_CAP_VALUE_ADDR_64K);
20004d18:	0000e537          	lui	a0,0xe
20004d1c:	ef4fe0ef          	jal	ra,20003410 <user_calib_freq_offset.constprop.43>
20004d20:	c2dfe06f          	j	2000394c <main+0x314>

20004d24 <_write>:
_write():
E:/promotion/gitlab/telink_b91m_driver_sdk/telink_b91m_driver_sdk/demo/vendor/common/common/printf.c:100
}
#endif

#if (DEBUG_BUS==OLED_PRINT_DEBUG_ENABLE || DEBUG_BUS==UART_PRINT_DEBUG_ENABLE)
__attribute__((used)) int _write(int fd, const unsigned char *buf, int size)
{
20004d24:	711d                	c.addi16sp	sp,-96
20004d26:	da66                	c.swsp	s9,52(sp)
20004d28:	8cb2                	c.mv	s9,a2
20004d2a:	d66e                	c.swsp	s11,44(sp)
20004d2c:	ce86                	c.swsp	ra,92(sp)
20004d2e:	cca2                	c.swsp	s0,88(sp)
20004d30:	caa6                	c.swsp	s1,84(sp)
20004d32:	c8ca                	c.swsp	s2,80(sp)
20004d34:	c6ce                	c.swsp	s3,76(sp)
20004d36:	c4d2                	c.swsp	s4,72(sp)
20004d38:	c2d6                	c.swsp	s5,68(sp)
20004d3a:	c0da                	c.swsp	s6,64(sp)
20004d3c:	de5e                	c.swsp	s7,60(sp)
20004d3e:	dc62                	c.swsp	s8,56(sp)
20004d40:	d86a                	c.swsp	s10,48(sp)
20004d42:	8dae                	c.mv	s11,a1
OLED_CLS():
E:/promotion/gitlab/telink_b91m_driver_sdk/telink_b91m_driver_sdk/demo/vendor/Mars_B91_Mother_V2.2/device/oled.c:40
	OLED_Fill(0x00);
20004d44:	b38fe0ef          	jal	ra,2000307c <OLED_Fill.constprop.40>
Printf_OLED():
E:/promotion/gitlab/telink_b91m_driver_sdk/telink_b91m_driver_sdk/demo/vendor/Mars_B91_Mother_V2.2/device/oled.c:81
	for (j = 0; j < size; j++){
20004d48:	0e0c8063          	beqz	s9,20004e28 <_write+0x104>
E:/promotion/gitlab/telink_b91m_driver_sdk/telink_b91m_driver_sdk/demo/vendor/Mars_B91_Mother_V2.2/device/oled.c:82
		c = ch[j] - 32;
20004d4c:	000d8403          	lb	s0,0(s11)
20004d50:	20007d37          	lui	s10,0x20007
20004d54:	20007b37          	lui	s6,0x20007
20004d58:	7fcd0693          	addi	a3,s10,2044 # 200077fc <F8X16+0x8>
20004d5c:	1401                	c.addi	s0,-32
20004d5e:	200087b7          	lui	a5,0x20008
20004d62:	7f4b0b93          	addi	s7,s6,2036 # 200077f4 <F8X16>
20004d66:	c636                	c.swsp	a3,12(sp)
20004d68:	0ff47413          	andi	s0,s0,255
20004d6c:	80478693          	addi	a3,a5,-2044 # 20007804 <F8X16+0x10>
_write():
E:/promotion/gitlab/telink_b91m_driver_sdk/telink_b91m_driver_sdk/demo/vendor/Mars_B91_Mother_V2.2/device/oled.c:81
	for (j = 0; j < size; j++){
20004d70:	4a01                	c.li	s4,0
Printf_OLED():
E:/promotion/gitlab/telink_b91m_driver_sdk/telink_b91m_driver_sdk/demo/vendor/Mars_B91_Mother_V2.2/device/oled.c:82
		c = ch[j] - 32;
20004d72:	4a81                	c.li	s5,0
20004d74:	4981                	c.li	s3,0
20004d76:	4c05                	c.li	s8,1
20004d78:	7f4b0b13          	addi	s6,s6,2036
WriteDat():
E:/promotion/gitlab/telink_b91m_driver_sdk/telink_b91m_driver_sdk/demo/vendor/Mars_B91_Mother_V2.2/device/oled.c:14
	uint8_t write_buff[2] = {0x40,I2C_Data};
20004d7c:	04000493          	li	s1,64
20004d80:	00d12423          	sw	a3,8(sp)
20004d84:	46b2                	c.lwsp	a3,12(sp)
Printf_OLED():
E:/promotion/gitlab/telink_b91m_driver_sdk/telink_b91m_driver_sdk/demo/vendor/Mars_B91_Mother_V2.2/device/oled.c:90
			WriteDat(F8X16[c*16+i]);
20004d86:	0412                	c.slli	s0,0x4
E:/promotion/gitlab/telink_b91m_driver_sdk/telink_b91m_driver_sdk/demo/vendor/Mars_B91_Mother_V2.2/device/oled.c:88
		OLED_SetPos(x,y);
20004d88:	85d6                	c.mv	a1,s5
20004d8a:	854e                	c.mv	a0,s3
20004d8c:	008b8d33          	add	s10,s7,s0
20004d90:	00868933          	add	s2,a3,s0
20004d94:	01600bb3          	add	s7,zero,s6
20004d98:	be8fe0ef          	jal	ra,20003180 <OLED_SetPos>
E:/promotion/gitlab/telink_b91m_driver_sdk/telink_b91m_driver_sdk/demo/vendor/Mars_B91_Mother_V2.2/device/oled.c:90
			WriteDat(F8X16[c*16+i]);
20004d9c:	000d4703          	lbu	a4,0(s10)
WriteDat():
E:/promotion/gitlab/telink_b91m_driver_sdk/telink_b91m_driver_sdk/demo/vendor/Mars_B91_Mother_V2.2/device/oled.c:15
	i2c_master_write(OLED_ADDR,write_buff, 2);
20004da0:	4609                	c.li	a2,2
20004da2:	0d05                	c.addi	s10,1
20004da4:	01c10593          	addi	a1,sp,28
20004da8:	07800513          	li	a0,120
E:/promotion/gitlab/telink_b91m_driver_sdk/telink_b91m_driver_sdk/demo/vendor/Mars_B91_Mother_V2.2/device/oled.c:14
	uint8_t write_buff[2] = {0x40,I2C_Data};
20004dac:	00910e23          	sb	s1,28(sp)
20004db0:	00e10ea3          	sb	a4,29(sp)
E:/promotion/gitlab/telink_b91m_driver_sdk/telink_b91m_driver_sdk/demo/vendor/Mars_B91_Mother_V2.2/device/oled.c:15
	i2c_master_write(OLED_ADDR,write_buff, 2);
20004db4:	a14fe0ef          	jal	ra,20002fc8 <i2c_master_write>
Printf_OLED():
E:/promotion/gitlab/telink_b91m_driver_sdk/telink_b91m_driver_sdk/demo/vendor/Mars_B91_Mother_V2.2/device/oled.c:89
		for(i=0;i<8;i++)
20004db8:	ffa912e3          	bne	s2,s10,20004d9c <_write+0x78>
E:/promotion/gitlab/telink_b91m_driver_sdk/telink_b91m_driver_sdk/demo/vendor/Mars_B91_Mother_V2.2/device/oled.c:91
		OLED_SetPos(x,y+1);
20004dbc:	0ffc7593          	andi	a1,s8,255
20004dc0:	01300533          	add	a0,zero,s3
20004dc4:	bbcfe0ef          	jal	ra,20003180 <OLED_SetPos>
20004dc8:	46a2                	c.lwsp	a3,8(sp)
20004dca:	00840913          	addi	s2,s0,8
20004dce:	995a                	c.add	s2,s6
20004dd0:	00d40433          	add	s0,s0,a3
E:/promotion/gitlab/telink_b91m_driver_sdk/telink_b91m_driver_sdk/demo/vendor/Mars_B91_Mother_V2.2/device/oled.c:93
			WriteDat(F8X16[c*16+i+8]);
20004dd4:	00094783          	lbu	a5,0(s2)
WriteDat():
E:/promotion/gitlab/telink_b91m_driver_sdk/telink_b91m_driver_sdk/demo/vendor/Mars_B91_Mother_V2.2/device/oled.c:15
	i2c_master_write(OLED_ADDR,write_buff, 2);
20004dd8:	4609                	c.li	a2,2
20004dda:	0905                	c.addi	s2,1
20004ddc:	01c10593          	addi	a1,sp,28
20004de0:	07800513          	li	a0,120
E:/promotion/gitlab/telink_b91m_driver_sdk/telink_b91m_driver_sdk/demo/vendor/Mars_B91_Mother_V2.2/device/oled.c:14
	uint8_t write_buff[2] = {0x40,I2C_Data};
20004de4:	00910e23          	sb	s1,28(sp)
20004de8:	00f10ea3          	sb	a5,29(sp)
E:/promotion/gitlab/telink_b91m_driver_sdk/telink_b91m_driver_sdk/demo/vendor/Mars_B91_Mother_V2.2/device/oled.c:15
	i2c_master_write(OLED_ADDR,write_buff, 2);
20004dec:	9dcfe0ef          	jal	ra,20002fc8 <i2c_master_write>
Printf_OLED():
E:/promotion/gitlab/telink_b91m_driver_sdk/telink_b91m_driver_sdk/demo/vendor/Mars_B91_Mother_V2.2/device/oled.c:92
		for(i=0;i<8;i++)
20004df0:	ff2412e3          	bne	s0,s2,20004dd4 <_write+0xb0>
E:/promotion/gitlab/telink_b91m_driver_sdk/telink_b91m_driver_sdk/demo/vendor/Mars_B91_Mother_V2.2/device/oled.c:81
	for (j = 0; j < size; j++){
20004df4:	0a05                	c.addi	s4,1
E:/promotion/gitlab/telink_b91m_driver_sdk/telink_b91m_driver_sdk/demo/vendor/Mars_B91_Mother_V2.2/device/oled.c:94
		x += 8;
20004df6:	09a1                	c.addi	s3,8
E:/promotion/gitlab/telink_b91m_driver_sdk/telink_b91m_driver_sdk/demo/vendor/Mars_B91_Mother_V2.2/device/oled.c:81
	for (j = 0; j < size; j++){
20004df8:	0ffa7a13          	andi	s4,s4,255
E:/promotion/gitlab/telink_b91m_driver_sdk/telink_b91m_driver_sdk/demo/vendor/Mars_B91_Mother_V2.2/device/oled.c:94
		x += 8;
20004dfc:	0ff9f993          	andi	s3,s3,255
E:/promotion/gitlab/telink_b91m_driver_sdk/telink_b91m_driver_sdk/demo/vendor/Mars_B91_Mother_V2.2/device/oled.c:81
	for (j = 0; j < size; j++){
20004e00:	039a7463          	bgeu	s4,s9,20004e28 <_write+0x104>
E:/promotion/gitlab/telink_b91m_driver_sdk/telink_b91m_driver_sdk/demo/vendor/Mars_B91_Mother_V2.2/device/oled.c:82
		c = ch[j] - 32;
20004e04:	014d87b3          	add	a5,s11,s4
20004e08:	00078403          	lb	s0,0(a5)
E:/promotion/gitlab/telink_b91m_driver_sdk/telink_b91m_driver_sdk/demo/vendor/Mars_B91_Mother_V2.2/device/oled.c:83
		if(x > 120)
20004e0c:	07800793          	li	a5,120
E:/promotion/gitlab/telink_b91m_driver_sdk/telink_b91m_driver_sdk/demo/vendor/Mars_B91_Mother_V2.2/device/oled.c:82
		c = ch[j] - 32;
20004e10:	1401                	c.addi	s0,-32
20004e12:	0ff47413          	andi	s0,s0,255
E:/promotion/gitlab/telink_b91m_driver_sdk/telink_b91m_driver_sdk/demo/vendor/Mars_B91_Mother_V2.2/device/oled.c:83
		if(x > 120)
20004e16:	f737f7e3          	bgeu	a5,s3,20004d84 <_write+0x60>
E:/promotion/gitlab/telink_b91m_driver_sdk/telink_b91m_driver_sdk/demo/vendor/Mars_B91_Mother_V2.2/device/oled.c:86
			y+=2;
20004e1a:	0a89                	c.addi	s5,2
20004e1c:	0ffafa93          	andi	s5,s5,255
_write():
E:/promotion/gitlab/telink_b91m_driver_sdk/telink_b91m_driver_sdk/demo/vendor/Mars_B91_Mother_V2.2/device/oled.c:85
			x = 0;
20004e20:	4981                	c.li	s3,0
20004e22:	001a8c13          	addi	s8,s5,1
20004e26:	bfb9                	c.j	20004d84 <_write+0x60>
E:/promotion/gitlab/telink_b91m_driver_sdk/telink_b91m_driver_sdk/demo/vendor/common/common/printf.c:114
    for(i = 0; i < size; i++){
    	dr_putchar(buf[i]);
    }
    return i;
#endif
}
20004e28:	40f6                	c.lwsp	ra,92(sp)
20004e2a:	4466                	c.lwsp	s0,88(sp)
20004e2c:	8566                	c.mv	a0,s9
20004e2e:	44d6                	c.lwsp	s1,84(sp)
20004e30:	4946                	c.lwsp	s2,80(sp)
20004e32:	49b6                	c.lwsp	s3,76(sp)
20004e34:	4a26                	c.lwsp	s4,72(sp)
20004e36:	4a96                	c.lwsp	s5,68(sp)
20004e38:	4b06                	c.lwsp	s6,64(sp)
20004e3a:	5bf2                	c.lwsp	s7,60(sp)
20004e3c:	5c62                	c.lwsp	s8,56(sp)
20004e3e:	5cd2                	c.lwsp	s9,52(sp)
20004e40:	5d42                	c.lwsp	s10,48(sp)
20004e42:	5db2                	c.lwsp	s11,44(sp)
20004e44:	6125                	c.addi16sp	sp,96
20004e46:	8082                	c.jr	ra
20004e48:	0001                	c.nop
	...

20004e4c <__divdf3>:
__divdf3():
/cygdrive/d/Jenkins/workspace/build-system-3/source-packages/gcc-7.4.0-riscv-bsp-v5_1_0-branch/libgcc/soft-fp/divdf3.c:36
20004e4c:	1101                	c.addi	sp,-32
20004e4e:	ce22                	c.swsp	s0,28(sp)
20004e50:	cc26                	c.swsp	s1,24(sp)
20004e52:	ca4a                	c.swsp	s2,20(sp)
20004e54:	c84e                	c.swsp	s3,16(sp)
20004e56:	c652                	c.swsp	s4,12(sp)
/cygdrive/d/Jenkins/workspace/build-system-3/source-packages/gcc-7.4.0-riscv-bsp-v5_1_0-branch/libgcc/soft-fp/divdf3.c:43
20004e58:	00202ef3          	frrm	t4
/cygdrive/d/Jenkins/workspace/build-system-3/source-packages/gcc-7.4.0-riscv-bsp-v5_1_0-branch/libgcc/soft-fp/divdf3.c:44
20004e5c:	7945a75b          	bfoz	a4,a1,30,20
20004e60:	4c05a7db          	bfoz	a5,a1,19,0
20004e64:	81fd                	c.srli	a1,0x1f
20004e66:	c76d                	c.beqz	a4,20004f50 <__divdf3+0x104>
20004e68:	7ff00813          	li	a6,2047
20004e6c:	07070c63          	beq	a4,a6,20004ee4 <__divdf3+0x98>
20004e70:	078e                	c.slli	a5,0x3
20004e72:	00800837          	lui	a6,0x800
20004e76:	01d55893          	srli	a7,a0,0x1d
20004e7a:	0107e7b3          	or	a5,a5,a6
20004e7e:	00f8e8b3          	or	a7,a7,a5
20004e82:	050e                	c.slli	a0,0x3
20004e84:	c0170f93          	addi	t6,a4,-1023
20004e88:	4781                	c.li	a5,0
20004e8a:	4381                	c.li	t2,0
/cygdrive/d/Jenkins/workspace/build-system-3/source-packages/gcc-7.4.0-riscv-bsp-v5_1_0-branch/libgcc/soft-fp/divdf3.c:37
20004e8c:	00000e13          	li	t3,0
/cygdrive/d/Jenkins/workspace/build-system-3/source-packages/gcc-7.4.0-riscv-bsp-v5_1_0-branch/libgcc/soft-fp/divdf3.c:45
20004e90:	7946a85b          	bfoz	a6,a3,30,20
20004e94:	4c06a75b          	bfoz	a4,a3,19,0
20004e98:	01f6d693          	srli	a3,a3,0x1f
20004e9c:	06080663          	beqz	a6,20004f08 <__divdf3+0xbc>
20004ea0:	7ff00313          	li	t1,2047
20004ea4:	0e680c63          	beq	a6,t1,20004f9c <__divdf3+0x150>
20004ea8:	070e                	c.slli	a4,0x3
20004eaa:	00800f37          	lui	t5,0x800
20004eae:	01d65313          	srli	t1,a2,0x1d
20004eb2:	01e76733          	or	a4,a4,t5
20004eb6:	c0180813          	addi	a6,a6,-1023 # 7ffc01 <FLASH_SIZE+0x6ffc01>
20004eba:	00e36733          	or	a4,t1,a4
20004ebe:	060e                	c.slli	a2,0x3
20004ec0:	410f8fb3          	sub	t6,t6,a6
20004ec4:	00000293          	li	t0,0
20004ec8:	00d5c833          	xor	a6,a1,a3
/cygdrive/d/Jenkins/workspace/build-system-3/source-packages/gcc-7.4.0-riscv-bsp-v5_1_0-branch/libgcc/soft-fp/divdf3.c:46
20004ecc:	433d                	c.li	t1,15
20004ece:	8f42                	c.mv	t5,a6
20004ed0:	12f36263          	bltu	t1,a5,20004ff4 <__divdf3+0x1a8>
20004ed4:	20008337          	lui	t1,0x20008
20004ed8:	e3030313          	addi	t1,t1,-464 # 20007e30 <F8X16+0x63c>
20004edc:	0cf307db          	lea.w	a5,t1,a5
20004ee0:	439c                	c.lw	a5,0(a5)
20004ee2:	8782                	c.jr	a5
/cygdrive/d/Jenkins/workspace/build-system-3/source-packages/gcc-7.4.0-riscv-bsp-v5_1_0-branch/libgcc/soft-fp/divdf3.c:44 (discriminator 3)
20004ee4:	00a7e8b3          	or	a7,a5,a0
20004ee8:	0e089a63          	bnez	a7,20004fdc <__divdf3+0x190>
/cygdrive/d/Jenkins/workspace/build-system-3/source-packages/gcc-7.4.0-riscv-bsp-v5_1_0-branch/libgcc/soft-fp/divdf3.c:45
20004eec:	7946a85b          	bfoz	a6,a3,30,20
20004ef0:	4c06a75b          	bfoz	a4,a3,19,0
20004ef4:	47a1                	c.li	a5,8
20004ef6:	4501                	c.li	a0,0
20004ef8:	7ff00f93          	li	t6,2047
/cygdrive/d/Jenkins/workspace/build-system-3/source-packages/gcc-7.4.0-riscv-bsp-v5_1_0-branch/libgcc/soft-fp/divdf3.c:44
20004efc:	4389                	c.li	t2,2
/cygdrive/d/Jenkins/workspace/build-system-3/source-packages/gcc-7.4.0-riscv-bsp-v5_1_0-branch/libgcc/soft-fp/divdf3.c:37
20004efe:	4e01                	c.li	t3,0
/cygdrive/d/Jenkins/workspace/build-system-3/source-packages/gcc-7.4.0-riscv-bsp-v5_1_0-branch/libgcc/soft-fp/divdf3.c:45
20004f00:	01f6d693          	srli	a3,a3,0x1f
20004f04:	f8081ee3          	bnez	a6,20004ea0 <__divdf3+0x54>
/cygdrive/d/Jenkins/workspace/build-system-3/source-packages/gcc-7.4.0-riscv-bsp-v5_1_0-branch/libgcc/soft-fp/divdf3.c:45 (discriminator 2)
20004f08:	00c76833          	or	a6,a4,a2
20004f0c:	0a080663          	beqz	a6,20004fb8 <__divdf3+0x16c>
/cygdrive/d/Jenkins/workspace/build-system-3/source-packages/gcc-7.4.0-riscv-bsp-v5_1_0-branch/libgcc/soft-fp/divdf3.c:45 (discriminator 11)
20004f10:	af97087f          	clz32	a6,a4
20004f14:	00071663          	bnez	a4,20004f20 <__divdf3+0xd4>
/cygdrive/d/Jenkins/workspace/build-system-3/source-packages/gcc-7.4.0-riscv-bsp-v5_1_0-branch/libgcc/soft-fp/divdf3.c:45 (discriminator 18)
20004f18:	af96087f          	clz32	a6,a2
20004f1c:	02080813          	addi	a6,a6,32
/cygdrive/d/Jenkins/workspace/build-system-3/source-packages/gcc-7.4.0-riscv-bsp-v5_1_0-branch/libgcc/soft-fp/divdf3.c:45 (discriminator 25)
20004f20:	ff580293          	addi	t0,a6,-11
20004f24:	4371                	c.li	t1,28
20004f26:	36534363          	blt	t1,t0,2000528c <__divdf3+0x440>
/cygdrive/d/Jenkins/workspace/build-system-3/source-packages/gcc-7.4.0-riscv-bsp-v5_1_0-branch/libgcc/soft-fp/divdf3.c:45 (discriminator 26)
20004f2a:	4375                	c.li	t1,29
20004f2c:	ff880f13          	addi	t5,a6,-8
20004f30:	40530333          	sub	t1,t1,t0
20004f34:	00665333          	srl	t1,a2,t1
20004f38:	01e71733          	sll	a4,a4,t5
20004f3c:	00e36733          	or	a4,t1,a4
20004f40:	01e61633          	sll	a2,a2,t5
/cygdrive/d/Jenkins/workspace/build-system-3/source-packages/gcc-7.4.0-riscv-bsp-v5_1_0-branch/libgcc/soft-fp/divdf3.c:45 (discriminator 35)
20004f44:	9fc2                	c.add	t6,a6
20004f46:	3f3f8f93          	addi	t6,t6,1011
20004f4a:	4281                	c.li	t0,0
20004f4c:	f7dff06f          	j	20004ec8 <__divdf3+0x7c>
/cygdrive/d/Jenkins/workspace/build-system-3/source-packages/gcc-7.4.0-riscv-bsp-v5_1_0-branch/libgcc/soft-fp/divdf3.c:44 (discriminator 2)
20004f50:	00a7e8b3          	or	a7,a5,a0
20004f54:	06088e63          	beqz	a7,20004fd0 <__divdf3+0x184>
/cygdrive/d/Jenkins/workspace/build-system-3/source-packages/gcc-7.4.0-riscv-bsp-v5_1_0-branch/libgcc/soft-fp/divdf3.c:44 (discriminator 11)
20004f58:	af97877f          	clz32	a4,a5
20004f5c:	00079663          	bnez	a5,20004f68 <__divdf3+0x11c>
/cygdrive/d/Jenkins/workspace/build-system-3/source-packages/gcc-7.4.0-riscv-bsp-v5_1_0-branch/libgcc/soft-fp/divdf3.c:44 (discriminator 18)
20004f60:	af95077f          	clz32	a4,a0
20004f64:	02070713          	addi	a4,a4,32
/cygdrive/d/Jenkins/workspace/build-system-3/source-packages/gcc-7.4.0-riscv-bsp-v5_1_0-branch/libgcc/soft-fp/divdf3.c:44 (discriminator 25)
20004f68:	ff570313          	addi	t1,a4,-11
20004f6c:	4871                	c.li	a6,28
20004f6e:	32684563          	blt	a6,t1,20005298 <__divdf3+0x44c>
/cygdrive/d/Jenkins/workspace/build-system-3/source-packages/gcc-7.4.0-riscv-bsp-v5_1_0-branch/libgcc/soft-fp/divdf3.c:44 (discriminator 26)
20004f72:	48f5                	c.li	a7,29
20004f74:	ff870813          	addi	a6,a4,-8
20004f78:	406888b3          	sub	a7,a7,t1
20004f7c:	011558b3          	srl	a7,a0,a7
20004f80:	010797b3          	sll	a5,a5,a6
20004f84:	00f8e8b3          	or	a7,a7,a5
20004f88:	01051533          	sll	a0,a0,a6
/cygdrive/d/Jenkins/workspace/build-system-3/source-packages/gcc-7.4.0-riscv-bsp-v5_1_0-branch/libgcc/soft-fp/divdf3.c:44 (discriminator 35)
20004f8c:	c0d00f93          	li	t6,-1011
20004f90:	40ef8fb3          	sub	t6,t6,a4
20004f94:	4781                	c.li	a5,0
20004f96:	4381                	c.li	t2,0
20004f98:	4e01                	c.li	t3,0
20004f9a:	bddd                	c.j	20004e90 <__divdf3+0x44>
/cygdrive/d/Jenkins/workspace/build-system-3/source-packages/gcc-7.4.0-riscv-bsp-v5_1_0-branch/libgcc/soft-fp/divdf3.c:45 (discriminator 3)
20004f9c:	00c76833          	or	a6,a4,a2
20004fa0:	801f8f93          	addi	t6,t6,-2047
20004fa4:	02080063          	beqz	a6,20004fc4 <__divdf3+0x178>
20004fa8:	0037e793          	ori	a5,a5,3
/cygdrive/d/Jenkins/workspace/build-system-3/source-packages/gcc-7.4.0-riscv-bsp-v5_1_0-branch/libgcc/soft-fp/divdf3.c:45 (discriminator 37)
20004fac:	428d                	c.li	t0,3
20004fae:	f1377d5b          	bbs	a4,19,20004ec8 <__divdf3+0x7c>
/cygdrive/d/Jenkins/workspace/build-system-3/source-packages/gcc-7.4.0-riscv-bsp-v5_1_0-branch/libgcc/soft-fp/divdf3.c:45
20004fb2:	4e41                	c.li	t3,16
20004fb4:	f15ff06f          	j	20004ec8 <__divdf3+0x7c>
20004fb8:	0017e793          	ori	a5,a5,1
20004fbc:	4701                	c.li	a4,0
20004fbe:	4601                	c.li	a2,0
20004fc0:	4285                	c.li	t0,1
20004fc2:	b719                	c.j	20004ec8 <__divdf3+0x7c>
20004fc4:	0027e793          	ori	a5,a5,2
20004fc8:	4701                	c.li	a4,0
20004fca:	4601                	c.li	a2,0
20004fcc:	4289                	c.li	t0,2
20004fce:	bded                	c.j	20004ec8 <__divdf3+0x7c>
20004fd0:	4791                	c.li	a5,4
20004fd2:	4501                	c.li	a0,0
20004fd4:	4f81                	c.li	t6,0
/cygdrive/d/Jenkins/workspace/build-system-3/source-packages/gcc-7.4.0-riscv-bsp-v5_1_0-branch/libgcc/soft-fp/divdf3.c:44
20004fd6:	4385                	c.li	t2,1
/cygdrive/d/Jenkins/workspace/build-system-3/source-packages/gcc-7.4.0-riscv-bsp-v5_1_0-branch/libgcc/soft-fp/divdf3.c:37
20004fd8:	4e01                	c.li	t3,0
20004fda:	bd5d                	c.j	20004e90 <__divdf3+0x44>
/cygdrive/d/Jenkins/workspace/build-system-3/source-packages/gcc-7.4.0-riscv-bsp-v5_1_0-branch/libgcc/soft-fp/divdf3.c:44 (discriminator 37)
20004fdc:	0137d713          	srli	a4,a5,0x13
20004fe0:	88be                	c.mv	a7,a5
20004fe2:	7ff00f93          	li	t6,2047
20004fe6:	47b1                	c.li	a5,12
20004fe8:	438d                	c.li	t2,3
20004fea:	4e41                	c.li	t3,16
20004fec:	ea0702e3          	beqz	a4,20004e90 <__divdf3+0x44>
/cygdrive/d/Jenkins/workspace/build-system-3/source-packages/gcc-7.4.0-riscv-bsp-v5_1_0-branch/libgcc/soft-fp/divdf3.c:37
20004ff0:	4e01                	c.li	t3,0
20004ff2:	bd79                	c.j	20004e90 <__divdf3+0x44>
/cygdrive/d/Jenkins/workspace/build-system-3/source-packages/gcc-7.4.0-riscv-bsp-v5_1_0-branch/libgcc/soft-fp/divdf3.c:46 (discriminator 2)
20004ff4:	2f176063          	bltu	a4,a7,200052d4 <__divdf3+0x488>
/cygdrive/d/Jenkins/workspace/build-system-3/source-packages/gcc-7.4.0-riscv-bsp-v5_1_0-branch/libgcc/soft-fp/divdf3.c:46 (discriminator 11)
20004ff8:	2ce88c63          	beq	a7,a4,200052d0 <__divdf3+0x484>
/cygdrive/d/Jenkins/workspace/build-system-3/source-packages/gcc-7.4.0-riscv-bsp-v5_1_0-branch/libgcc/soft-fp/divdf3.c:46 (discriminator 15)
20004ffc:	85aa                	c.mv	a1,a0
20004ffe:	1ffd                	c.addi	t6,-1
20005000:	00000513          	li	a0,0
/cygdrive/d/Jenkins/workspace/build-system-3/source-packages/gcc-7.4.0-riscv-bsp-v5_1_0-branch/libgcc/soft-fp/divdf3.c:46 (discriminator 19)
20005004:	0722                	c.slli	a4,0x8
20005006:	01865313          	srli	t1,a2,0x18
2000500a:	00e36333          	or	t1,t1,a4
2000500e:	01035293          	srli	t0,t1,0x10
20005012:	0258d733          	divu	a4,a7,t0
20005016:	3c0323db          	bfoz	t2,t1,15,0
2000501a:	00861413          	slli	s0,a2,0x8
2000501e:	0105d793          	srli	a5,a1,0x10
20005022:	0258f8b3          	remu	a7,a7,t0
20005026:	02e38633          	mul	a2,t2,a4
2000502a:	08c2                	c.slli	a7,0x10
2000502c:	0117e7b3          	or	a5,a5,a7
20005030:	00c7fc63          	bgeu	a5,a2,20005048 <__divdf3+0x1fc>
/cygdrive/d/Jenkins/workspace/build-system-3/source-packages/gcc-7.4.0-riscv-bsp-v5_1_0-branch/libgcc/soft-fp/divdf3.c:46 (discriminator 22)
20005034:	979a                	c.add	a5,t1
20005036:	fff70693          	addi	a3,a4,-1
2000503a:	3a67e963          	bltu	a5,t1,200053ec <__divdf3+0x5a0>
/cygdrive/d/Jenkins/workspace/build-system-3/source-packages/gcc-7.4.0-riscv-bsp-v5_1_0-branch/libgcc/soft-fp/divdf3.c:46 (discriminator 24)
2000503e:	3ac7f763          	bgeu	a5,a2,200053ec <__divdf3+0x5a0>
/cygdrive/d/Jenkins/workspace/build-system-3/source-packages/gcc-7.4.0-riscv-bsp-v5_1_0-branch/libgcc/soft-fp/divdf3.c:46 (discriminator 26)
20005042:	1779                	c.addi	a4,-2
20005044:	006787b3          	add	a5,a5,t1
/cygdrive/d/Jenkins/workspace/build-system-3/source-packages/gcc-7.4.0-riscv-bsp-v5_1_0-branch/libgcc/soft-fp/divdf3.c:46 (discriminator 28)
20005048:	8f91                	c.sub	a5,a2
2000504a:	0257d6b3          	divu	a3,a5,t0
2000504e:	0257f7b3          	remu	a5,a5,t0
20005052:	02d38933          	mul	s2,t2,a3
20005056:	0eb797ff          	pkbb16	a5,a5,a1
2000505a:	0127fb63          	bgeu	a5,s2,20005070 <__divdf3+0x224>
/cygdrive/d/Jenkins/workspace/build-system-3/source-packages/gcc-7.4.0-riscv-bsp-v5_1_0-branch/libgcc/soft-fp/divdf3.c:46 (discriminator 29)
2000505e:	979a                	c.add	a5,t1
20005060:	fff68613          	addi	a2,a3,-1
20005064:	3867e663          	bltu	a5,t1,200053f0 <__divdf3+0x5a4>
/cygdrive/d/Jenkins/workspace/build-system-3/source-packages/gcc-7.4.0-riscv-bsp-v5_1_0-branch/libgcc/soft-fp/divdf3.c:46 (discriminator 31)
20005068:	3927f463          	bgeu	a5,s2,200053f0 <__divdf3+0x5a4>
/cygdrive/d/Jenkins/workspace/build-system-3/source-packages/gcc-7.4.0-riscv-bsp-v5_1_0-branch/libgcc/soft-fp/divdf3.c:46 (discriminator 33)
2000506c:	16f9                	c.addi	a3,-2
2000506e:	979a                	c.add	a5,t1
/cygdrive/d/Jenkins/workspace/build-system-3/source-packages/gcc-7.4.0-riscv-bsp-v5_1_0-branch/libgcc/soft-fp/divdf3.c:46 (discriminator 35)
20005070:	0742                	c.slli	a4,0x10
20005072:	69c1                	c.lui	s3,0x10
20005074:	8f55                	c.or	a4,a3
20005076:	fff98693          	addi	a3,s3,-1 # ffff <BIN_SIZE+0x7ff1>
2000507a:	00d478b3          	and	a7,s0,a3
2000507e:	01075613          	srli	a2,a4,0x10
20005082:	031605b3          	mul	a1,a2,a7
20005086:	8ef9                	c.and	a3,a4
20005088:	01045493          	srli	s1,s0,0x10
2000508c:	412787b3          	sub	a5,a5,s2
20005090:	03168a33          	mul	s4,a3,a7
20005094:	892e                	c.mv	s2,a1
20005096:	c4d4997f          	maddr32	s2,s1,a3
2000509a:	02960633          	mul	a2,a2,s1
2000509e:	010a5693          	srli	a3,s4,0x10
200050a2:	96ca                	c.add	a3,s2
200050a4:	00b6f463          	bgeu	a3,a1,200050ac <__divdf3+0x260>
/cygdrive/d/Jenkins/workspace/build-system-3/source-packages/gcc-7.4.0-riscv-bsp-v5_1_0-branch/libgcc/soft-fp/divdf3.c:46 (discriminator 36)
200050a8:	01360633          	add	a2,a2,s3
/cygdrive/d/Jenkins/workspace/build-system-3/source-packages/gcc-7.4.0-riscv-bsp-v5_1_0-branch/libgcc/soft-fp/divdf3.c:46 (discriminator 38)
200050ac:	69c1                	c.lui	s3,0x10
200050ae:	19fd                	c.addi	s3,-1
200050b0:	0106d913          	srli	s2,a3,0x10
200050b4:	0136f5b3          	and	a1,a3,s3
200050b8:	05c2                	c.slli	a1,0x10
200050ba:	013a76b3          	and	a3,s4,s3
200050be:	964a                	c.add	a2,s2
200050c0:	00d585b3          	add	a1,a1,a3
200050c4:	1ec7e463          	bltu	a5,a2,200052ac <__divdf3+0x460>
/cygdrive/d/Jenkins/workspace/build-system-3/source-packages/gcc-7.4.0-riscv-bsp-v5_1_0-branch/libgcc/soft-fp/divdf3.c:46 (discriminator 40)
200050c8:	1cc78e63          	beq	a5,a2,200052a4 <__divdf3+0x458>
200050cc:	40c786b3          	sub	a3,a5,a2
/cygdrive/d/Jenkins/workspace/build-system-3/source-packages/gcc-7.4.0-riscv-bsp-v5_1_0-branch/libgcc/soft-fp/divdf3.c:46 (discriminator 57)
200050d0:	40b505b3          	sub	a1,a0,a1
200050d4:	00b53533          	sltu	a0,a0,a1
200050d8:	40a68533          	sub	a0,a3,a0
200050dc:	3fff8793          	addi	a5,t6,1023
200050e0:	3aa30863          	beq	t1,a0,20005490 <__divdf3+0x644>
/cygdrive/d/Jenkins/workspace/build-system-3/source-packages/gcc-7.4.0-riscv-bsp-v5_1_0-branch/libgcc/soft-fp/divdf3.c:46 (discriminator 59)
200050e4:	02555633          	divu	a2,a0,t0
200050e8:	0105d693          	srli	a3,a1,0x10
200050ec:	02557533          	remu	a0,a0,t0
200050f0:	02c38833          	mul	a6,t2,a2
200050f4:	0542                	c.slli	a0,0x10
200050f6:	8d55                	c.or	a0,a3
200050f8:	01057c63          	bgeu	a0,a6,20005110 <__divdf3+0x2c4>
/cygdrive/d/Jenkins/workspace/build-system-3/source-packages/gcc-7.4.0-riscv-bsp-v5_1_0-branch/libgcc/soft-fp/divdf3.c:46 (discriminator 60)
200050fc:	951a                	c.add	a0,t1
200050fe:	fff60693          	addi	a3,a2,-1
20005102:	3a656763          	bltu	a0,t1,200054b0 <__divdf3+0x664>
/cygdrive/d/Jenkins/workspace/build-system-3/source-packages/gcc-7.4.0-riscv-bsp-v5_1_0-branch/libgcc/soft-fp/divdf3.c:46 (discriminator 62)
20005106:	3b057563          	bgeu	a0,a6,200054b0 <__divdf3+0x664>
/cygdrive/d/Jenkins/workspace/build-system-3/source-packages/gcc-7.4.0-riscv-bsp-v5_1_0-branch/libgcc/soft-fp/divdf3.c:46 (discriminator 64)
2000510a:	1679                	c.addi	a2,-2
2000510c:	00650533          	add	a0,a0,t1
/cygdrive/d/Jenkins/workspace/build-system-3/source-packages/gcc-7.4.0-riscv-bsp-v5_1_0-branch/libgcc/soft-fp/divdf3.c:46 (discriminator 66)
20005110:	41050533          	sub	a0,a0,a6
20005114:	025556b3          	divu	a3,a0,t0
20005118:	02557533          	remu	a0,a0,t0
2000511c:	02d383b3          	mul	t2,t2,a3
20005120:	0eb5157f          	pkbb16	a0,a0,a1
20005124:	00757c63          	bgeu	a0,t2,2000513c <__divdf3+0x2f0>
/cygdrive/d/Jenkins/workspace/build-system-3/source-packages/gcc-7.4.0-riscv-bsp-v5_1_0-branch/libgcc/soft-fp/divdf3.c:46 (discriminator 67)
20005128:	951a                	c.add	a0,t1
2000512a:	fff68593          	addi	a1,a3,-1
2000512e:	36656f63          	bltu	a0,t1,200054ac <__divdf3+0x660>
/cygdrive/d/Jenkins/workspace/build-system-3/source-packages/gcc-7.4.0-riscv-bsp-v5_1_0-branch/libgcc/soft-fp/divdf3.c:46 (discriminator 69)
20005132:	36757d63          	bgeu	a0,t2,200054ac <__divdf3+0x660>
/cygdrive/d/Jenkins/workspace/build-system-3/source-packages/gcc-7.4.0-riscv-bsp-v5_1_0-branch/libgcc/soft-fp/divdf3.c:46 (discriminator 71)
20005136:	16f9                	c.addi	a3,-2
20005138:	00650533          	add	a0,a0,t1
/cygdrive/d/Jenkins/workspace/build-system-3/source-packages/gcc-7.4.0-riscv-bsp-v5_1_0-branch/libgcc/soft-fp/divdf3.c:46 (discriminator 73)
2000513c:	0642                	c.slli	a2,0x10
2000513e:	8e55                	c.or	a2,a3
20005140:	01065813          	srli	a6,a2,0x10
20005144:	031805b3          	mul	a1,a6,a7
20005148:	3c0626db          	bfoz	a3,a2,15,0
2000514c:	40750533          	sub	a0,a0,t2
20005150:	02d888b3          	mul	a7,a7,a3
20005154:	82ae                	c.mv	t0,a1
20005156:	c4d492ff          	maddr32	t0,s1,a3
2000515a:	030484b3          	mul	s1,s1,a6
2000515e:	0108d693          	srli	a3,a7,0x10
20005162:	9696                	c.add	a3,t0
20005164:	00b6f463          	bgeu	a3,a1,2000516c <__divdf3+0x320>
/cygdrive/d/Jenkins/workspace/build-system-3/source-packages/gcc-7.4.0-riscv-bsp-v5_1_0-branch/libgcc/soft-fp/divdf3.c:46 (discriminator 74)
20005168:	65c1                	c.lui	a1,0x10
2000516a:	94ae                	c.add	s1,a1
/cygdrive/d/Jenkins/workspace/build-system-3/source-packages/gcc-7.4.0-riscv-bsp-v5_1_0-branch/libgcc/soft-fp/divdf3.c:46 (discriminator 76)
2000516c:	6841                	c.lui	a6,0x10
2000516e:	187d                	c.addi	a6,-1
20005170:	0106d593          	srli	a1,a3,0x10
20005174:	0106f6b3          	and	a3,a3,a6
20005178:	06c2                	c.slli	a3,0x10
2000517a:	0108f8b3          	and	a7,a7,a6
2000517e:	94ae                	c.add	s1,a1
20005180:	00d888b3          	add	a7,a7,a3
20005184:	22957263          	bgeu	a0,s1,200053a8 <__divdf3+0x55c>
/cygdrive/d/Jenkins/workspace/build-system-3/source-packages/gcc-7.4.0-riscv-bsp-v5_1_0-branch/libgcc/soft-fp/divdf3.c:46 (discriminator 81)
20005188:	951a                	c.add	a0,t1
2000518a:	fff60693          	addi	a3,a2,-1
2000518e:	3c656163          	bltu	a0,t1,20005550 <__divdf3+0x704>
/cygdrive/d/Jenkins/workspace/build-system-3/source-packages/gcc-7.4.0-riscv-bsp-v5_1_0-branch/libgcc/soft-fp/divdf3.c:46 (discriminator 87)
20005192:	32956963          	bltu	a0,s1,200054c4 <__divdf3+0x678>
/cygdrive/d/Jenkins/workspace/build-system-3/source-packages/gcc-7.4.0-riscv-bsp-v5_1_0-branch/libgcc/soft-fp/divdf3.c:46 (discriminator 90)
20005196:	42950f63          	beq	a0,s1,200055d4 <__divdf3+0x788>
/cygdrive/d/Jenkins/workspace/build-system-3/source-packages/gcc-7.4.0-riscv-bsp-v5_1_0-branch/libgcc/soft-fp/divdf3.c:46
2000519a:	8636                	c.mv	a2,a3
/cygdrive/d/Jenkins/workspace/build-system-3/source-packages/gcc-7.4.0-riscv-bsp-v5_1_0-branch/libgcc/soft-fp/divdf3.c:46 (discriminator 98)
2000519c:	00166613          	ori	a2,a2,1
/cygdrive/d/Jenkins/workspace/build-system-3/source-packages/gcc-7.4.0-riscv-bsp-v5_1_0-branch/libgcc/soft-fp/divdf3.c:47 (discriminator 2)
200051a0:	18f05c63          	blez	a5,20005338 <__divdf3+0x4ec>
/cygdrive/d/Jenkins/workspace/build-system-3/source-packages/gcc-7.4.0-riscv-bsp-v5_1_0-branch/libgcc/soft-fp/divdf3.c:47 (discriminator 6)
200051a4:	00767693          	andi	a3,a2,7
200051a8:	20069e63          	bnez	a3,200053c4 <__divdf3+0x578>
200051ac:	01e00833          	add	a6,zero,t5
/cygdrive/d/Jenkins/workspace/build-system-3/source-packages/gcc-7.4.0-riscv-bsp-v5_1_0-branch/libgcc/soft-fp/divdf3.c:47 (discriminator 16)
200051b0:	0187785b          	bbc	a4,24,200051c0 <__divdf3+0x374>
/cygdrive/d/Jenkins/workspace/build-system-3/source-packages/gcc-7.4.0-riscv-bsp-v5_1_0-branch/libgcc/soft-fp/divdf3.c:47 (discriminator 21)
200051b4:	ff0007b7          	lui	a5,0xff000
200051b8:	17fd                	c.addi	a5,-1
200051ba:	8f7d                	c.and	a4,a5
200051bc:	400f8793          	addi	a5,t6,1024
/cygdrive/d/Jenkins/workspace/build-system-3/source-packages/gcc-7.4.0-riscv-bsp-v5_1_0-branch/libgcc/soft-fp/divdf3.c:47 (discriminator 23)
200051c0:	7fe00693          	li	a3,2046
200051c4:	12f6c263          	blt	a3,a5,200052e8 <__divdf3+0x49c>
/cygdrive/d/Jenkins/workspace/build-system-3/source-packages/gcc-7.4.0-riscv-bsp-v5_1_0-branch/libgcc/soft-fp/divdf3.c:47
200051c8:	00365693          	srli	a3,a2,0x3
200051cc:	01d71613          	slli	a2,a4,0x1d
200051d0:	8e55                	c.or	a2,a3
200051d2:	7ff7f793          	andi	a5,a5,2047
200051d6:	583726db          	bfoz	a3,a4,22,3
200051da:	a01d                	c.j	20005200 <__divdf3+0x3b4>
/cygdrive/d/Jenkins/workspace/build-system-3/source-packages/gcc-7.4.0-riscv-bsp-v5_1_0-branch/libgcc/soft-fp/divdf3.c:44
200051dc:	8f2e                	c.mv	t5,a1
200051de:	8746                	c.mv	a4,a7
200051e0:	862a                	c.mv	a2,a0
/cygdrive/d/Jenkins/workspace/build-system-3/source-packages/gcc-7.4.0-riscv-bsp-v5_1_0-branch/libgcc/soft-fp/divdf3.c:46
200051e2:	829e                	c.mv	t0,t2
/cygdrive/d/Jenkins/workspace/build-system-3/source-packages/gcc-7.4.0-riscv-bsp-v5_1_0-branch/libgcc/soft-fp/divdf3.c:47
200051e4:	3822da5b          	beqc	t0,2,20005578 <__divdf3+0x72c>
200051e8:	0832da5b          	beqc	t0,3,2000527c <__divdf3+0x430>
200051ec:	3012dc5b          	beqc	t0,1,20005504 <__divdf3+0x6b8>
200051f0:	3fff8793          	addi	a5,t6,1023
200051f4:	fadff06f          	j	200051a0 <__divdf3+0x354>
/cygdrive/d/Jenkins/workspace/build-system-3/source-packages/gcc-7.4.0-riscv-bsp-v5_1_0-branch/libgcc/soft-fp/divdf3.c:46
200051f8:	7ff00793          	li	a5,2047
200051fc:	4681                	c.li	a3,0
/cygdrive/d/Jenkins/workspace/build-system-3/source-packages/gcc-7.4.0-riscv-bsp-v5_1_0-branch/libgcc/soft-fp/divdf3.c:47
200051fe:	4601                	c.li	a2,0
/cygdrive/d/Jenkins/workspace/build-system-3/source-packages/gcc-7.4.0-riscv-bsp-v5_1_0-branch/libgcc/soft-fp/divdf3.c:47 (discriminator 108)
20005200:	4581                	c.li	a1,0
20005202:	fff00737          	lui	a4,0xfff00
20005206:	8f6d                	c.and	a4,a1
20005208:	4c06a6db          	bfoz	a3,a3,19,0
2000520c:	8f55                	c.or	a4,a3
2000520e:	01479693          	slli	a3,a5,0x14
20005212:	801007b7          	lui	a5,0x80100
20005216:	17fd                	c.addi	a5,-1
20005218:	8ff9                	c.and	a5,a4
2000521a:	8fd5                	c.or	a5,a3
2000521c:	087e                	c.slli	a6,0x1f
2000521e:	7807a7db          	bfoz	a5,a5,30,0
20005222:	8532                	c.mv	a0,a2
20005224:	0107e5b3          	or	a1,a5,a6
/cygdrive/d/Jenkins/workspace/build-system-3/source-packages/gcc-7.4.0-riscv-bsp-v5_1_0-branch/libgcc/soft-fp/divdf3.c:48 (discriminator 108)
20005228:	020e1863          	bnez	t3,20005258 <__divdf3+0x40c>
/cygdrive/d/Jenkins/workspace/build-system-3/source-packages/gcc-7.4.0-riscv-bsp-v5_1_0-branch/libgcc/soft-fp/divdf3.c:51
2000522c:	4472                	c.lwsp	s0,28(sp)
2000522e:	44e2                	c.lwsp	s1,24(sp)
20005230:	4952                	c.lwsp	s2,20(sp)
20005232:	49c2                	c.lwsp	s3,16(sp)
20005234:	4a32                	c.lwsp	s4,12(sp)
20005236:	6105                	c.addi16sp	sp,32
20005238:	00008067          	ret
/cygdrive/d/Jenkins/workspace/build-system-3/source-packages/gcc-7.4.0-riscv-bsp-v5_1_0-branch/libgcc/soft-fp/divdf3.c:45
2000523c:	8f36                	c.mv	t5,a3
2000523e:	b75d                	c.j	200051e4 <__divdf3+0x398>
/cygdrive/d/Jenkins/workspace/build-system-3/source-packages/gcc-7.4.0-riscv-bsp-v5_1_0-branch/libgcc/soft-fp/divdf3.c:46
20005240:	4781                	c.li	a5,0
20005242:	4681                	c.li	a3,0
/cygdrive/d/Jenkins/workspace/build-system-3/source-packages/gcc-7.4.0-riscv-bsp-v5_1_0-branch/libgcc/soft-fp/divdf3.c:47
20005244:	4601                	c.li	a2,0
20005246:	bf6d                	c.j	20005200 <__divdf3+0x3b4>
/cygdrive/d/Jenkins/workspace/build-system-3/source-packages/gcc-7.4.0-riscv-bsp-v5_1_0-branch/libgcc/soft-fp/divdf3.c:47 (discriminator 3)
20005248:	7ff007b7          	lui	a5,0x7ff00
2000524c:	087e                	c.slli	a6,0x1f
2000524e:	4501                	c.li	a0,0
20005250:	0107e5b3          	or	a1,a5,a6
/cygdrive/d/Jenkins/workspace/build-system-3/source-packages/gcc-7.4.0-riscv-bsp-v5_1_0-branch/libgcc/soft-fp/divdf3.c:46 (discriminator 3)
20005254:	008e6e13          	ori	t3,t3,8
/cygdrive/d/Jenkins/workspace/build-system-3/source-packages/gcc-7.4.0-riscv-bsp-v5_1_0-branch/libgcc/soft-fp/divdf3.c:48 (discriminator 1)
20005258:	001e2073          	csrs	fflags,t3
/cygdrive/d/Jenkins/workspace/build-system-3/source-packages/gcc-7.4.0-riscv-bsp-v5_1_0-branch/libgcc/soft-fp/divdf3.c:51
2000525c:	4472                	c.lwsp	s0,28(sp)
2000525e:	44e2                	c.lwsp	s1,24(sp)
20005260:	4952                	c.lwsp	s2,20(sp)
20005262:	49c2                	c.lwsp	s3,16(sp)
20005264:	4a32                	c.lwsp	s4,12(sp)
20005266:	6105                	c.addi16sp	sp,32
20005268:	00008067          	ret
/cygdrive/d/Jenkins/workspace/build-system-3/source-packages/gcc-7.4.0-riscv-bsp-v5_1_0-branch/libgcc/soft-fp/divdf3.c:46
2000526c:	4801                	c.li	a6,0
2000526e:	7ff00793          	li	a5,2047
20005272:	000806b7          	lui	a3,0x80
/cygdrive/d/Jenkins/workspace/build-system-3/source-packages/gcc-7.4.0-riscv-bsp-v5_1_0-branch/libgcc/soft-fp/divdf3.c:47
20005276:	4601                	c.li	a2,0
/cygdrive/d/Jenkins/workspace/build-system-3/source-packages/gcc-7.4.0-riscv-bsp-v5_1_0-branch/libgcc/soft-fp/divdf3.c:46
20005278:	4e41                	c.li	t3,16
2000527a:	b759                	c.j	20005200 <__divdf3+0x3b4>
/cygdrive/d/Jenkins/workspace/build-system-3/source-packages/gcc-7.4.0-riscv-bsp-v5_1_0-branch/libgcc/soft-fp/divdf3.c:47
2000527c:	4801                	c.li	a6,0
2000527e:	7ff00793          	li	a5,2047
20005282:	000806b7          	lui	a3,0x80
20005286:	4601                	c.li	a2,0
20005288:	f79ff06f          	j	20005200 <__divdf3+0x3b4>
/cygdrive/d/Jenkins/workspace/build-system-3/source-packages/gcc-7.4.0-riscv-bsp-v5_1_0-branch/libgcc/soft-fp/divdf3.c:45 (discriminator 27)
2000528c:	fd880713          	addi	a4,a6,-40 # ffd8 <BIN_SIZE+0x7fca>
20005290:	00e61733          	sll	a4,a2,a4
20005294:	4601                	c.li	a2,0
20005296:	b17d                	c.j	20004f44 <__divdf3+0xf8>
/cygdrive/d/Jenkins/workspace/build-system-3/source-packages/gcc-7.4.0-riscv-bsp-v5_1_0-branch/libgcc/soft-fp/divdf3.c:44 (discriminator 27)
20005298:	fd870893          	addi	a7,a4,-40 # ffefffd8 <_DATA_LMA_START+0xdfef8000>
2000529c:	011518b3          	sll	a7,a0,a7
200052a0:	4501                	c.li	a0,0
200052a2:	b1ed                	c.j	20004f8c <__divdf3+0x140>
200052a4:	00000693          	li	a3,0
/cygdrive/d/Jenkins/workspace/build-system-3/source-packages/gcc-7.4.0-riscv-bsp-v5_1_0-branch/libgcc/soft-fp/divdf3.c:46 (discriminator 41)
200052a8:	e2b574e3          	bgeu	a0,a1,200050d0 <__divdf3+0x284>
/cygdrive/d/Jenkins/workspace/build-system-3/source-packages/gcc-7.4.0-riscv-bsp-v5_1_0-branch/libgcc/soft-fp/divdf3.c:46 (discriminator 43)
200052ac:	9522                	c.add	a0,s0
200052ae:	008536b3          	sltu	a3,a0,s0
200052b2:	969a                	c.add	a3,t1
200052b4:	00d787b3          	add	a5,a5,a3
200052b8:	fff70913          	addi	s2,a4,-1
200052bc:	0ef37c63          	bgeu	t1,a5,200053b4 <__divdf3+0x568>
/cygdrive/d/Jenkins/workspace/build-system-3/source-packages/gcc-7.4.0-riscv-bsp-v5_1_0-branch/libgcc/soft-fp/divdf3.c:46 (discriminator 49)
200052c0:	1ec7ea63          	bltu	a5,a2,200054b4 <__divdf3+0x668>
/cygdrive/d/Jenkins/workspace/build-system-3/source-packages/gcc-7.4.0-riscv-bsp-v5_1_0-branch/libgcc/soft-fp/divdf3.c:46 (discriminator 52)
200052c4:	30f60263          	beq	a2,a5,200055c8 <__divdf3+0x77c>
200052c8:	40c786b3          	sub	a3,a5,a2
/cygdrive/d/Jenkins/workspace/build-system-3/source-packages/gcc-7.4.0-riscv-bsp-v5_1_0-branch/libgcc/soft-fp/divdf3.c:46
200052cc:	874a                	c.mv	a4,s2
200052ce:	b509                	c.j	200050d0 <__divdf3+0x284>
/cygdrive/d/Jenkins/workspace/build-system-3/source-packages/gcc-7.4.0-riscv-bsp-v5_1_0-branch/libgcc/soft-fp/divdf3.c:46 (discriminator 12)
200052d0:	d2c566e3          	bltu	a0,a2,20004ffc <__divdf3+0x1b0>
/cygdrive/d/Jenkins/workspace/build-system-3/source-packages/gcc-7.4.0-riscv-bsp-v5_1_0-branch/libgcc/soft-fp/divdf3.c:46 (discriminator 14)
200052d4:	01f89593          	slli	a1,a7,0x1f
200052d8:	00155793          	srli	a5,a0,0x1
200052dc:	0018d893          	srli	a7,a7,0x1
200052e0:	8ddd                	c.or	a1,a5
200052e2:	057e                	c.slli	a0,0x1f
200052e4:	d21ff06f          	j	20005004 <__divdf3+0x1b8>
/cygdrive/d/Jenkins/workspace/build-system-3/source-packages/gcc-7.4.0-riscv-bsp-v5_1_0-branch/libgcc/soft-fp/divdf3.c:47 (discriminator 24)
200052e8:	122ed45b          	beqc	t4,2,20005410 <__divdf3+0x5c4>
200052ec:	223ed25b          	beqc	t4,3,20005510 <__divdf3+0x6c4>
200052f0:	120e8263          	beqz	t4,20005414 <__divdf3+0x5c8>
200052f4:	00100737          	lui	a4,0x100
200052f8:	7fe00793          	li	a5,2046
200052fc:	fff70693          	addi	a3,a4,-1 # fffff <_STACK_TOP+0x5ffff>
/cygdrive/d/Jenkins/workspace/build-system-3/source-packages/gcc-7.4.0-riscv-bsp-v5_1_0-branch/libgcc/soft-fp/divdf3.c:47
20005300:	fff00613          	li	a2,-1
/cygdrive/d/Jenkins/workspace/build-system-3/source-packages/gcc-7.4.0-riscv-bsp-v5_1_0-branch/libgcc/soft-fp/divdf3.c:47 (discriminator 35)
20005304:	005e6e13          	ori	t3,t3,5
/cygdrive/d/Jenkins/workspace/build-system-3/source-packages/gcc-7.4.0-riscv-bsp-v5_1_0-branch/libgcc/soft-fp/divdf3.c:47
20005308:	4581                	c.li	a1,0
2000530a:	fff00737          	lui	a4,0xfff00
2000530e:	8532                	c.mv	a0,a2
20005310:	00b77633          	and	a2,a4,a1
20005314:	4c06a75b          	bfoz	a4,a3,19,0
20005318:	8f51                	c.or	a4,a2
2000531a:	80100637          	lui	a2,0x80100
2000531e:	167d                	c.addi	a2,-1
20005320:	8e79                	c.and	a2,a4
20005322:	07d2                	c.slli	a5,0x14
20005324:	8fd1                	c.or	a5,a2
20005326:	087e                	c.slli	a6,0x1f
20005328:	7807a7db          	bfoz	a5,a5,30,0
2000532c:	0107e5b3          	or	a1,a5,a6
/cygdrive/d/Jenkins/workspace/build-system-3/source-packages/gcc-7.4.0-riscv-bsp-v5_1_0-branch/libgcc/soft-fp/divdf3.c:48
20005330:	001e2073          	csrs	fflags,t3
20005334:	f29ff06f          	j	2000525c <__divdf3+0x410>
/cygdrive/d/Jenkins/workspace/build-system-3/source-packages/gcc-7.4.0-riscv-bsp-v5_1_0-branch/libgcc/soft-fp/divdf3.c:47 (discriminator 7)
20005338:	efd5                	c.bnez	a5,200053f4 <__divdf3+0x5a8>
/cygdrive/d/Jenkins/workspace/build-system-3/source-packages/gcc-7.4.0-riscv-bsp-v5_1_0-branch/libgcc/soft-fp/divdf3.c:47 (discriminator 36)
2000533a:	00767793          	andi	a5,a2,7
2000533e:	86ba                	c.mv	a3,a4
20005340:	24079263          	bnez	a5,20005584 <__divdf3+0x738>
/cygdrive/d/Jenkins/workspace/build-system-3/source-packages/gcc-7.4.0-riscv-bsp-v5_1_0-branch/libgcc/soft-fp/divdf3.c:47 (discriminator 46)
20005344:	01875513          	srli	a0,a4,0x18
20005348:	00154513          	xori	a0,a0,1
2000534c:	8905                	c.andi	a0,1
2000534e:	4585                	c.li	a1,1
/cygdrive/d/Jenkins/workspace/build-system-3/source-packages/gcc-7.4.0-riscv-bsp-v5_1_0-branch/libgcc/soft-fp/divdf3.c:47 (discriminator 56)
20005350:	41ef8713          	addi	a4,t6,1054
20005354:	00e697b3          	sll	a5,a3,a4
20005358:	00b65833          	srl	a6,a2,a1
2000535c:	00e61733          	sll	a4,a2,a4
20005360:	00e03733          	snez	a4,a4
20005364:	0107e633          	or	a2,a5,a6
20005368:	8e59                	c.or	a2,a4
2000536a:	00767793          	andi	a5,a2,7
2000536e:	00b6d733          	srl	a4,a3,a1
20005372:	cb89                	c.beqz	a5,20005384 <__divdf3+0x538>
/cygdrive/d/Jenkins/workspace/build-system-3/source-packages/gcc-7.4.0-riscv-bsp-v5_1_0-branch/libgcc/soft-fp/divdf3.c:47 (discriminator 70)
20005374:	001e6e13          	ori	t3,t3,1
20005378:	282ed25b          	beqc	t4,2,200055fc <__divdf3+0x7b0>
2000537c:	263ed45b          	beqc	t4,3,200055e4 <__divdf3+0x798>
20005380:	0e0e8c63          	beqz	t4,20005478 <__divdf3+0x62c>
/cygdrive/d/Jenkins/workspace/build-system-3/source-packages/gcc-7.4.0-riscv-bsp-v5_1_0-branch/libgcc/soft-fp/divdf3.c:47 (discriminator 78)
20005384:	2377745b          	bbc	a4,23,200055ac <__divdf3+0x760>
/cygdrive/d/Jenkins/workspace/build-system-3/source-packages/gcc-7.4.0-riscv-bsp-v5_1_0-branch/libgcc/soft-fp/divdf3.c:47 (discriminator 83)
20005388:	001e6e13          	ori	t3,t3,1
2000538c:	4785                	c.li	a5,1
2000538e:	4681                	c.li	a3,0
20005390:	00000613          	li	a2,0
20005394:	01e00833          	add	a6,zero,t5
/cygdrive/d/Jenkins/workspace/build-system-3/source-packages/gcc-7.4.0-riscv-bsp-v5_1_0-branch/libgcc/soft-fp/divdf3.c:47 (discriminator 86)
20005398:	e60504e3          	beqz	a0,20005200 <__divdf3+0x3b4>
/cygdrive/d/Jenkins/workspace/build-system-3/source-packages/gcc-7.4.0-riscv-bsp-v5_1_0-branch/libgcc/soft-fp/divdf3.c:47 (discriminator 87)
2000539c:	a60e725b          	bbc	t3,0,20005200 <__divdf3+0x3b4>
/cygdrive/d/Jenkins/workspace/build-system-3/source-packages/gcc-7.4.0-riscv-bsp-v5_1_0-branch/libgcc/soft-fp/divdf3.c:47 (discriminator 88)
200053a0:	002e6e13          	ori	t3,t3,2
200053a4:	f65ff06f          	j	20005308 <__divdf3+0x4bc>
/cygdrive/d/Jenkins/workspace/build-system-3/source-packages/gcc-7.4.0-riscv-bsp-v5_1_0-branch/libgcc/soft-fp/divdf3.c:46 (discriminator 78)
200053a8:	de951ae3          	bne	a0,s1,2000519c <__divdf3+0x350>
/cygdrive/d/Jenkins/workspace/build-system-3/source-packages/gcc-7.4.0-riscv-bsp-v5_1_0-branch/libgcc/soft-fp/divdf3.c:46 (discriminator 79)
200053ac:	de088ae3          	beqz	a7,200051a0 <__divdf3+0x354>
200053b0:	dd9ff06f          	j	20005188 <__divdf3+0x33c>
/cygdrive/d/Jenkins/workspace/build-system-3/source-packages/gcc-7.4.0-riscv-bsp-v5_1_0-branch/libgcc/soft-fp/divdf3.c:46 (discriminator 46)
200053b4:	f0f31ae3          	bne	t1,a5,200052c8 <__divdf3+0x47c>
/cygdrive/d/Jenkins/workspace/build-system-3/source-packages/gcc-7.4.0-riscv-bsp-v5_1_0-branch/libgcc/soft-fp/divdf3.c:46 (discriminator 47)
200053b8:	f08574e3          	bgeu	a0,s0,200052c0 <__divdf3+0x474>
200053bc:	40c306b3          	sub	a3,t1,a2
/cygdrive/d/Jenkins/workspace/build-system-3/source-packages/gcc-7.4.0-riscv-bsp-v5_1_0-branch/libgcc/soft-fp/divdf3.c:46
200053c0:	874a                	c.mv	a4,s2
200053c2:	b339                	c.j	200050d0 <__divdf3+0x284>
/cygdrive/d/Jenkins/workspace/build-system-3/source-packages/gcc-7.4.0-riscv-bsp-v5_1_0-branch/libgcc/soft-fp/divdf3.c:47 (discriminator 8)
200053c4:	001e6e13          	ori	t3,t3,1
200053c8:	162ed85b          	beqc	t4,2,20005538 <__divdf3+0x6ec>
200053cc:	143ed85b          	beqc	t4,3,2000551c <__divdf3+0x6d0>
200053d0:	dc0e9ee3          	bnez	t4,200051ac <__divdf3+0x360>
/cygdrive/d/Jenkins/workspace/build-system-3/source-packages/gcc-7.4.0-riscv-bsp-v5_1_0-branch/libgcc/soft-fp/divdf3.c:47 (discriminator 11)
200053d4:	00f67693          	andi	a3,a2,15
200053d8:	887a                	c.mv	a6,t5
200053da:	9c46db5b          	beqc	a3,4,200051b0 <__divdf3+0x364>
200053de:	86b2                	c.mv	a3,a2
/cygdrive/d/Jenkins/workspace/build-system-3/source-packages/gcc-7.4.0-riscv-bsp-v5_1_0-branch/libgcc/soft-fp/divdf3.c:47 (discriminator 15)
200053e0:	00468613          	addi	a2,a3,4 # 80004 <sys_clk>
200053e4:	00d636b3          	sltu	a3,a2,a3
200053e8:	9736                	c.add	a4,a3
200053ea:	b3d9                	c.j	200051b0 <__divdf3+0x364>
/cygdrive/d/Jenkins/workspace/build-system-3/source-packages/gcc-7.4.0-riscv-bsp-v5_1_0-branch/libgcc/soft-fp/divdf3.c:46
200053ec:	8736                	c.mv	a4,a3
200053ee:	b9a9                	c.j	20005048 <__divdf3+0x1fc>
200053f0:	86b2                	c.mv	a3,a2
200053f2:	b9bd                	c.j	20005070 <__divdf3+0x224>
/cygdrive/d/Jenkins/workspace/build-system-3/source-packages/gcc-7.4.0-riscv-bsp-v5_1_0-branch/libgcc/soft-fp/divdf3.c:47 (discriminator 53)
200053f4:	4585                	c.li	a1,1
200053f6:	8d9d                	c.sub	a1,a5
200053f8:	03800693          	li	a3,56
200053fc:	02b6da63          	bge	a3,a1,20005430 <__divdf3+0x5e4>
/cygdrive/d/Jenkins/workspace/build-system-3/source-packages/gcc-7.4.0-riscv-bsp-v5_1_0-branch/libgcc/soft-fp/divdf3.c:47 (discriminator 55)
20005400:	8e59                	c.or	a2,a4
20005402:	e26d                	c.bnez	a2,200054e4 <__divdf3+0x698>
/cygdrive/d/Jenkins/workspace/build-system-3/source-packages/gcc-7.4.0-riscv-bsp-v5_1_0-branch/libgcc/soft-fp/divdf3.c:47 (discriminator 104)
20005404:	002e6e13          	ori	t3,t3,2
20005408:	887a                	c.mv	a6,t5
2000540a:	4781                	c.li	a5,0
2000540c:	4681                	c.li	a3,0
2000540e:	bded                	c.j	20005308 <__divdf3+0x4bc>
/cygdrive/d/Jenkins/workspace/build-system-3/source-packages/gcc-7.4.0-riscv-bsp-v5_1_0-branch/libgcc/soft-fp/divdf3.c:47 (discriminator 27)
20005410:	ee0f02e3          	beqz	t5,200052f4 <__divdf3+0x4a8>
/cygdrive/d/Jenkins/workspace/build-system-3/source-packages/gcc-7.4.0-riscv-bsp-v5_1_0-branch/libgcc/soft-fp/divdf3.c:47
20005414:	7ff00793          	li	a5,2047
20005418:	4681                	c.li	a3,0
2000541a:	4601                	c.li	a2,0
2000541c:	ee9ff06f          	j	20005304 <__divdf3+0x4b8>
20005420:	4585                	c.li	a1,1
20005422:	8d9d                	c.sub	a1,a5
20005424:	03800693          	li	a3,56
20005428:	0ab6ce63          	blt	a3,a1,200054e4 <__divdf3+0x698>
/cygdrive/d/Jenkins/workspace/build-system-3/source-packages/gcc-7.4.0-riscv-bsp-v5_1_0-branch/libgcc/soft-fp/divdf3.c:46
2000542c:	fff00613          	li	a2,-1
/cygdrive/d/Jenkins/workspace/build-system-3/source-packages/gcc-7.4.0-riscv-bsp-v5_1_0-branch/libgcc/soft-fp/divdf3.c:47 (discriminator 54)
20005430:	46fd                	c.li	a3,31
20005432:	20b6d163          	bge	a3,a1,20005634 <__divdf3+0x7e8>
/cygdrive/d/Jenkins/workspace/build-system-3/source-packages/gcc-7.4.0-riscv-bsp-v5_1_0-branch/libgcc/soft-fp/divdf3.c:47 (discriminator 57)
20005436:	5685                	c.li	a3,-31
20005438:	40f687b3          	sub	a5,a3,a5
2000543c:	00f757b3          	srl	a5,a4,a5
20005440:	0005d8db          	beqc	a1,32,20005450 <__divdf3+0x604>
/cygdrive/d/Jenkins/workspace/build-system-3/source-packages/gcc-7.4.0-riscv-bsp-v5_1_0-branch/libgcc/soft-fp/divdf3.c:47 (discriminator 65)
20005444:	43ef8f93          	addi	t6,t6,1086
20005448:	01f71733          	sll	a4,a4,t6
2000544c:	00e66633          	or	a2,a2,a4
/cygdrive/d/Jenkins/workspace/build-system-3/source-packages/gcc-7.4.0-riscv-bsp-v5_1_0-branch/libgcc/soft-fp/divdf3.c:47 (discriminator 68)
20005450:	00c03633          	snez	a2,a2
20005454:	8e5d                	c.or	a2,a5
20005456:	00767793          	andi	a5,a2,7
2000545a:	16078163          	beqz	a5,200055bc <__divdf3+0x770>
/cygdrive/d/Jenkins/workspace/build-system-3/source-packages/gcc-7.4.0-riscv-bsp-v5_1_0-branch/libgcc/soft-fp/divdf3.c:47
2000545e:	001e6e13          	ori	t3,t3,1
20005462:	182edb5b          	beqc	t4,2,200055f8 <__divdf3+0x7ac>
20005466:	163edd5b          	beqc	t4,3,200055e0 <__divdf3+0x794>
2000546a:	4505                	c.li	a0,1
2000546c:	4701                	c.li	a4,0
2000546e:	120e9f63          	bnez	t4,200055ac <__divdf3+0x760>
20005472:	4505                	c.li	a0,1
20005474:	00000713          	li	a4,0
/cygdrive/d/Jenkins/workspace/build-system-3/source-packages/gcc-7.4.0-riscv-bsp-v5_1_0-branch/libgcc/soft-fp/divdf3.c:47 (discriminator 73)
20005478:	00f67793          	andi	a5,a2,15
2000547c:	b047d45b          	beqc	a5,4,20005384 <__divdf3+0x538>
/cygdrive/d/Jenkins/workspace/build-system-3/source-packages/gcc-7.4.0-riscv-bsp-v5_1_0-branch/libgcc/soft-fp/divdf3.c:47 (discriminator 77)
20005480:	00460793          	addi	a5,a2,4 # 80100004 <_DATA_LMA_START+0x600f802c>
20005484:	00c7b633          	sltu	a2,a5,a2
20005488:	9732                	c.add	a4,a2
2000548a:	863e                	c.mv	a2,a5
2000548c:	ef9ff06f          	j	20005384 <__divdf3+0x538>
/cygdrive/d/Jenkins/workspace/build-system-3/source-packages/gcc-7.4.0-riscv-bsp-v5_1_0-branch/libgcc/soft-fp/divdf3.c:47
20005490:	0cf05463          	blez	a5,20005558 <__divdf3+0x70c>
20005494:	001e6e13          	ori	t3,t3,1
20005498:	082ede5b          	beqc	t4,2,20005534 <__divdf3+0x6e8>
2000549c:	063ede5b          	beqc	t4,3,20005518 <__divdf3+0x6cc>
/cygdrive/d/Jenkins/workspace/build-system-3/source-packages/gcc-7.4.0-riscv-bsp-v5_1_0-branch/libgcc/soft-fp/divdf3.c:46
200054a0:	567d                	c.li	a2,-1
/cygdrive/d/Jenkins/workspace/build-system-3/source-packages/gcc-7.4.0-riscv-bsp-v5_1_0-branch/libgcc/soft-fp/divdf3.c:47
200054a2:	d00e95e3          	bnez	t4,200051ac <__divdf3+0x360>
/cygdrive/d/Jenkins/workspace/build-system-3/source-packages/gcc-7.4.0-riscv-bsp-v5_1_0-branch/libgcc/soft-fp/divdf3.c:46
200054a6:	56fd                	c.li	a3,-1
200054a8:	f39ff06f          	j	200053e0 <__divdf3+0x594>
200054ac:	86ae                	c.mv	a3,a1
200054ae:	b179                	c.j	2000513c <__divdf3+0x2f0>
200054b0:	8636                	c.mv	a2,a3
200054b2:	b9b9                	c.j	20005110 <__divdf3+0x2c4>
/cygdrive/d/Jenkins/workspace/build-system-3/source-packages/gcc-7.4.0-riscv-bsp-v5_1_0-branch/libgcc/soft-fp/divdf3.c:46 (discriminator 55)
200054b4:	9522                	c.add	a0,s0
200054b6:	008536b3          	sltu	a3,a0,s0
200054ba:	969a                	c.add	a3,t1
200054bc:	97b6                	c.add	a5,a3
200054be:	1779                	c.addi	a4,-2
200054c0:	c0dff06f          	j	200050cc <__divdf3+0x280>
/cygdrive/d/Jenkins/workspace/build-system-3/source-packages/gcc-7.4.0-riscv-bsp-v5_1_0-branch/libgcc/soft-fp/divdf3.c:46 (discriminator 93)
200054c4:	00141693          	slli	a3,s0,0x1
200054c8:	0086b433          	sltu	s0,a3,s0
200054cc:	9322                	c.add	t1,s0
200054ce:	951a                	c.add	a0,t1
200054d0:	1679                	c.addi	a2,-2
200054d2:	8436                	c.mv	s0,a3
200054d4:	cc9514e3          	bne	a0,s1,2000519c <__divdf3+0x350>
/cygdrive/d/Jenkins/workspace/build-system-3/source-packages/gcc-7.4.0-riscv-bsp-v5_1_0-branch/libgcc/soft-fp/divdf3.c:46 (discriminator 97)
200054d8:	cc8884e3          	beq	a7,s0,200051a0 <__divdf3+0x354>
/cygdrive/d/Jenkins/workspace/build-system-3/source-packages/gcc-7.4.0-riscv-bsp-v5_1_0-branch/libgcc/soft-fp/divdf3.c:46
200054dc:	00166613          	ori	a2,a2,1
200054e0:	cc1ff06f          	j	200051a0 <__divdf3+0x354>
/cygdrive/d/Jenkins/workspace/build-system-3/source-packages/gcc-7.4.0-riscv-bsp-v5_1_0-branch/libgcc/soft-fp/divdf3.c:47 (discriminator 91)
200054e4:	001e6e13          	ori	t3,t3,1
200054e8:	01e03633          	snez	a2,t5
200054ec:	b02edc5b          	beqc	t4,2,20005404 <__divdf3+0x5b8>
200054f0:	ffde8793          	addi	a5,t4,-3
200054f4:	0017b793          	seqz	a5,a5
200054f8:	001f3613          	seqz	a2,t5
200054fc:	40f007b3          	neg	a5,a5
20005500:	8e7d                	c.and	a2,a5
20005502:	b709                	c.j	20005404 <__divdf3+0x5b8>
20005504:	887a                	c.mv	a6,t5
/cygdrive/d/Jenkins/workspace/build-system-3/source-packages/gcc-7.4.0-riscv-bsp-v5_1_0-branch/libgcc/soft-fp/divdf3.c:47
20005506:	4781                	c.li	a5,0
20005508:	4681                	c.li	a3,0
2000550a:	4601                	c.li	a2,0
2000550c:	cf5ff06f          	j	20005200 <__divdf3+0x3b4>
/cygdrive/d/Jenkins/workspace/build-system-3/source-packages/gcc-7.4.0-riscv-bsp-v5_1_0-branch/libgcc/soft-fp/divdf3.c:47 (discriminator 28)
20005510:	de0f12e3          	bnez	t5,200052f4 <__divdf3+0x4a8>
20005514:	f01ff06f          	j	20005414 <__divdf3+0x5c8>
/cygdrive/d/Jenkins/workspace/build-system-3/source-packages/gcc-7.4.0-riscv-bsp-v5_1_0-branch/libgcc/soft-fp/divdf3.c:46
20005518:	fff00613          	li	a2,-1
2000551c:	4805                	c.li	a6,1
/cygdrive/d/Jenkins/workspace/build-system-3/source-packages/gcc-7.4.0-riscv-bsp-v5_1_0-branch/libgcc/soft-fp/divdf3.c:47 (discriminator 14)
2000551e:	c80f19e3          	bnez	t5,200051b0 <__divdf3+0x364>
/cygdrive/d/Jenkins/workspace/build-system-3/source-packages/gcc-7.4.0-riscv-bsp-v5_1_0-branch/libgcc/soft-fp/divdf3.c:47 (discriminator 18)
20005522:	00860693          	addi	a3,a2,8
20005526:	00c6b633          	sltu	a2,a3,a2
2000552a:	9732                	c.add	a4,a2
2000552c:	4801                	c.li	a6,0
2000552e:	8636                	c.mv	a2,a3
20005530:	c81ff06f          	j	200051b0 <__divdf3+0x364>
/cygdrive/d/Jenkins/workspace/build-system-3/source-packages/gcc-7.4.0-riscv-bsp-v5_1_0-branch/libgcc/soft-fp/divdf3.c:46
20005534:	fff00613          	li	a2,-1
20005538:	4801                	c.li	a6,0
/cygdrive/d/Jenkins/workspace/build-system-3/source-packages/gcc-7.4.0-riscv-bsp-v5_1_0-branch/libgcc/soft-fp/divdf3.c:47 (discriminator 13)
2000553a:	c60f0be3          	beqz	t5,200051b0 <__divdf3+0x364>
/cygdrive/d/Jenkins/workspace/build-system-3/source-packages/gcc-7.4.0-riscv-bsp-v5_1_0-branch/libgcc/soft-fp/divdf3.c:47 (discriminator 20)
2000553e:	00860693          	addi	a3,a2,8
20005542:	00c6b633          	sltu	a2,a3,a2
20005546:	9732                	c.add	a4,a2
20005548:	4805                	c.li	a6,1
2000554a:	8636                	c.mv	a2,a3
2000554c:	c65ff06f          	j	200051b0 <__divdf3+0x364>
/cygdrive/d/Jenkins/workspace/build-system-3/source-packages/gcc-7.4.0-riscv-bsp-v5_1_0-branch/libgcc/soft-fp/divdf3.c:46
20005550:	8636                	c.mv	a2,a3
20005552:	f89503e3          	beq	a0,s1,200054d8 <__divdf3+0x68c>
20005556:	b199                	c.j	2000519c <__divdf3+0x350>
/cygdrive/d/Jenkins/workspace/build-system-3/source-packages/gcc-7.4.0-riscv-bsp-v5_1_0-branch/libgcc/soft-fp/divdf3.c:47
20005558:	ec0794e3          	bnez	a5,20005420 <__divdf3+0x5d4>
2000555c:	001e6e13          	ori	t3,t3,1
20005560:	0a2ede5b          	beqc	t4,2,2000561c <__divdf3+0x7d0>
20005564:	0a3ed05b          	beqc	t4,3,20005604 <__divdf3+0x7b8>
20005568:	0c0e8263          	beqz	t4,2000562c <__divdf3+0x7e0>
2000556c:	86ba                	c.mv	a3,a4
/cygdrive/d/Jenkins/workspace/build-system-3/source-packages/gcc-7.4.0-riscv-bsp-v5_1_0-branch/libgcc/soft-fp/divdf3.c:46
2000556e:	567d                	c.li	a2,-1
/cygdrive/d/Jenkins/workspace/build-system-3/source-packages/gcc-7.4.0-riscv-bsp-v5_1_0-branch/libgcc/soft-fp/divdf3.c:47
20005570:	c0100f93          	li	t6,-1023
20005574:	dd1ff06f          	j	20005344 <__divdf3+0x4f8>
20005578:	887a                	c.mv	a6,t5
2000557a:	7ff00793          	li	a5,2047
2000557e:	4681                	c.li	a3,0
20005580:	4601                	c.li	a2,0
20005582:	b9bd                	c.j	20005200 <__divdf3+0x3b4>
/cygdrive/d/Jenkins/workspace/build-system-3/source-packages/gcc-7.4.0-riscv-bsp-v5_1_0-branch/libgcc/soft-fp/divdf3.c:47 (discriminator 38)
20005584:	001e6e13          	ori	t3,t3,1
20005588:	082ede5b          	beqc	t4,2,20005624 <__divdf3+0x7d8>
2000558c:	083ed05b          	beqc	t4,3,2000560c <__divdf3+0x7c0>
20005590:	da0e9ae3          	bnez	t4,20005344 <__divdf3+0x4f8>
/cygdrive/d/Jenkins/workspace/build-system-3/source-packages/gcc-7.4.0-riscv-bsp-v5_1_0-branch/libgcc/soft-fp/divdf3.c:47 (discriminator 41)
20005594:	00f67793          	andi	a5,a2,15
20005598:	9a47d65b          	beqc	a5,4,20005344 <__divdf3+0x4f8>
/cygdrive/d/Jenkins/workspace/build-system-3/source-packages/gcc-7.4.0-riscv-bsp-v5_1_0-branch/libgcc/soft-fp/divdf3.c:47 (discriminator 45)
2000559c:	ffc63793          	sltiu	a5,a2,-4
200055a0:	0017c793          	xori	a5,a5,1
200055a4:	86ba                	c.mv	a3,a4
200055a6:	973e                	c.add	a4,a5
200055a8:	d9dff06f          	j	20005344 <__divdf3+0x4f8>
/cygdrive/d/Jenkins/workspace/build-system-3/source-packages/gcc-7.4.0-riscv-bsp-v5_1_0-branch/libgcc/soft-fp/divdf3.c:47
200055ac:	01d71793          	slli	a5,a4,0x1d
200055b0:	820d                	c.srli	a2,0x3
200055b2:	8e5d                	c.or	a2,a5
200055b4:	583726db          	bfoz	a3,a4,22,3
200055b8:	4781                	c.li	a5,0
200055ba:	bbe9                	c.j	20005394 <__divdf3+0x548>
200055bc:	820d                	c.srli	a2,0x3
200055be:	887a                	c.mv	a6,t5
200055c0:	4781                	c.li	a5,0
200055c2:	4681                	c.li	a3,0
200055c4:	dd9ff06f          	j	2000539c <__divdf3+0x550>
/cygdrive/d/Jenkins/workspace/build-system-3/source-packages/gcc-7.4.0-riscv-bsp-v5_1_0-branch/libgcc/soft-fp/divdf3.c:46 (discriminator 53)
200055c8:	eeb566e3          	bltu	a0,a1,200054b4 <__divdf3+0x668>
/cygdrive/d/Jenkins/workspace/build-system-3/source-packages/gcc-7.4.0-riscv-bsp-v5_1_0-branch/libgcc/soft-fp/divdf3.c:46
200055cc:	874a                	c.mv	a4,s2
200055ce:	4681                	c.li	a3,0
200055d0:	b01ff06f          	j	200050d0 <__divdf3+0x284>
/cygdrive/d/Jenkins/workspace/build-system-3/source-packages/gcc-7.4.0-riscv-bsp-v5_1_0-branch/libgcc/soft-fp/divdf3.c:46 (discriminator 91)
200055d4:	ef1468e3          	bltu	s0,a7,200054c4 <__divdf3+0x678>
/cygdrive/d/Jenkins/workspace/build-system-3/source-packages/gcc-7.4.0-riscv-bsp-v5_1_0-branch/libgcc/soft-fp/divdf3.c:46
200055d8:	8636                	c.mv	a2,a3
200055da:	f08891e3          	bne	a7,s0,200054dc <__divdf3+0x690>
200055de:	b6c9                	c.j	200051a0 <__divdf3+0x354>
/cygdrive/d/Jenkins/workspace/build-system-3/source-packages/gcc-7.4.0-riscv-bsp-v5_1_0-branch/libgcc/soft-fp/divdf3.c:47
200055e0:	4505                	c.li	a0,1
200055e2:	4701                	c.li	a4,0
/cygdrive/d/Jenkins/workspace/build-system-3/source-packages/gcc-7.4.0-riscv-bsp-v5_1_0-branch/libgcc/soft-fp/divdf3.c:47 (discriminator 76)
200055e4:	da0f10e3          	bnez	t5,20005384 <__divdf3+0x538>
/cygdrive/d/Jenkins/workspace/build-system-3/source-packages/gcc-7.4.0-riscv-bsp-v5_1_0-branch/libgcc/soft-fp/divdf3.c:47 (discriminator 82)
200055e8:	00860793          	addi	a5,a2,8
200055ec:	00c7b633          	sltu	a2,a5,a2
200055f0:	9732                	c.add	a4,a2
200055f2:	863e                	c.mv	a2,a5
200055f4:	d91ff06f          	j	20005384 <__divdf3+0x538>
/cygdrive/d/Jenkins/workspace/build-system-3/source-packages/gcc-7.4.0-riscv-bsp-v5_1_0-branch/libgcc/soft-fp/divdf3.c:47
200055f8:	4505                	c.li	a0,1
200055fa:	4701                	c.li	a4,0
/cygdrive/d/Jenkins/workspace/build-system-3/source-packages/gcc-7.4.0-riscv-bsp-v5_1_0-branch/libgcc/soft-fp/divdf3.c:47 (discriminator 75)
200055fc:	d80f04e3          	beqz	t5,20005384 <__divdf3+0x538>
20005600:	fe9ff06f          	j	200055e8 <__divdf3+0x79c>
/cygdrive/d/Jenkins/workspace/build-system-3/source-packages/gcc-7.4.0-riscv-bsp-v5_1_0-branch/libgcc/soft-fp/divdf3.c:47
20005604:	86ba                	c.mv	a3,a4
20005606:	c0100f93          	li	t6,-1023
/cygdrive/d/Jenkins/workspace/build-system-3/source-packages/gcc-7.4.0-riscv-bsp-v5_1_0-branch/libgcc/soft-fp/divdf3.c:46
2000560a:	567d                	c.li	a2,-1
/cygdrive/d/Jenkins/workspace/build-system-3/source-packages/gcc-7.4.0-riscv-bsp-v5_1_0-branch/libgcc/soft-fp/divdf3.c:47 (discriminator 44)
2000560c:	d20f1ce3          	bnez	t5,20005344 <__divdf3+0x4f8>
/cygdrive/d/Jenkins/workspace/build-system-3/source-packages/gcc-7.4.0-riscv-bsp-v5_1_0-branch/libgcc/soft-fp/divdf3.c:47 (discriminator 50)
20005610:	ff863793          	sltiu	a5,a2,-8
20005614:	0017c793          	xori	a5,a5,1
20005618:	973e                	c.add	a4,a5
2000561a:	b32d                	c.j	20005344 <__divdf3+0x4f8>
/cygdrive/d/Jenkins/workspace/build-system-3/source-packages/gcc-7.4.0-riscv-bsp-v5_1_0-branch/libgcc/soft-fp/divdf3.c:47
2000561c:	86ba                	c.mv	a3,a4
2000561e:	c0100f93          	li	t6,-1023
/cygdrive/d/Jenkins/workspace/build-system-3/source-packages/gcc-7.4.0-riscv-bsp-v5_1_0-branch/libgcc/soft-fp/divdf3.c:46
20005622:	567d                	c.li	a2,-1
/cygdrive/d/Jenkins/workspace/build-system-3/source-packages/gcc-7.4.0-riscv-bsp-v5_1_0-branch/libgcc/soft-fp/divdf3.c:47 (discriminator 43)
20005624:	d20f00e3          	beqz	t5,20005344 <__divdf3+0x4f8>
20005628:	fe9ff06f          	j	20005610 <__divdf3+0x7c4>
/cygdrive/d/Jenkins/workspace/build-system-3/source-packages/gcc-7.4.0-riscv-bsp-v5_1_0-branch/libgcc/soft-fp/divdf3.c:47
2000562c:	c0100f93          	li	t6,-1023
/cygdrive/d/Jenkins/workspace/build-system-3/source-packages/gcc-7.4.0-riscv-bsp-v5_1_0-branch/libgcc/soft-fp/divdf3.c:46
20005630:	567d                	c.li	a2,-1
20005632:	b7ad                	c.j	2000559c <__divdf3+0x750>
20005634:	86ba                	c.mv	a3,a4
20005636:	4505                	c.li	a0,1
20005638:	bb21                	c.j	20005350 <__divdf3+0x504>
	...

2000563c <__muldf3>:
__muldf3():
/cygdrive/d/Jenkins/workspace/build-system-3/source-packages/gcc-7.4.0-riscv-bsp-v5_1_0-branch/libgcc/soft-fp/muldf3.c:36
2000563c:	1101                	c.addi	sp,-32
2000563e:	ce22                	c.swsp	s0,28(sp)
20005640:	cc26                	c.swsp	s1,24(sp)
20005642:	ca4a                	c.swsp	s2,20(sp)
20005644:	c84e                	c.swsp	s3,16(sp)
20005646:	c652                	c.swsp	s4,12(sp)
20005648:	c456                	c.swsp	s5,8(sp)
2000564a:	c25a                	c.swsp	s6,4(sp)
/cygdrive/d/Jenkins/workspace/build-system-3/source-packages/gcc-7.4.0-riscv-bsp-v5_1_0-branch/libgcc/soft-fp/muldf3.c:43
2000564c:	00202373          	frrm	t1
/cygdrive/d/Jenkins/workspace/build-system-3/source-packages/gcc-7.4.0-riscv-bsp-v5_1_0-branch/libgcc/soft-fp/muldf3.c:44
20005650:	7945a75b          	bfoz	a4,a1,30,20
20005654:	4c05a7db          	bfoz	a5,a1,19,0
20005658:	81fd                	c.srli	a1,0x1f
2000565a:	10070b63          	beqz	a4,20005770 <__muldf3+0x134>
2000565e:	7ff00813          	li	a6,2047
20005662:	07070b63          	beq	a4,a6,200056d8 <__muldf3+0x9c>
20005666:	00800837          	lui	a6,0x800
2000566a:	078e                	c.slli	a5,0x3
2000566c:	01d55293          	srli	t0,a0,0x1d
20005670:	0107e7b3          	or	a5,a5,a6
20005674:	c0170e13          	addi	t3,a4,-1023 # ffeffc01 <_DATA_LMA_START+0xdfef7c29>
20005678:	00f2e2b3          	or	t0,t0,a5
2000567c:	050e                	c.slli	a0,0x3
2000567e:	4701                	c.li	a4,0
20005680:	4381                	c.li	t2,0
/cygdrive/d/Jenkins/workspace/build-system-3/source-packages/gcc-7.4.0-riscv-bsp-v5_1_0-branch/libgcc/soft-fp/muldf3.c:37
20005682:	4801                	c.li	a6,0
/cygdrive/d/Jenkins/workspace/build-system-3/source-packages/gcc-7.4.0-riscv-bsp-v5_1_0-branch/libgcc/soft-fp/muldf3.c:45
20005684:	7946a8db          	bfoz	a7,a3,30,20
20005688:	4c06a7db          	bfoz	a5,a3,19,0
2000568c:	01f6d693          	srli	a3,a3,0x1f
20005690:	12088c63          	beqz	a7,200057c8 <__muldf3+0x18c>
20005694:	7ff00e93          	li	t4,2047
20005698:	17d88c63          	beq	a7,t4,20005810 <__muldf3+0x1d4>
2000569c:	00800f37          	lui	t5,0x800
200056a0:	078e                	c.slli	a5,0x3
200056a2:	01d65e93          	srli	t4,a2,0x1d
200056a6:	01e7e7b3          	or	a5,a5,t5
200056aa:	c0188893          	addi	a7,a7,-1023
200056ae:	00fee7b3          	or	a5,t4,a5
200056b2:	060e                	c.slli	a2,0x3
200056b4:	9e46                	c.add	t3,a7
200056b6:	4f01                	c.li	t5,0
/cygdrive/d/Jenkins/workspace/build-system-3/source-packages/gcc-7.4.0-riscv-bsp-v5_1_0-branch/libgcc/soft-fp/muldf3.c:46
200056b8:	48bd                	c.li	a7,15
200056ba:	00d5ceb3          	xor	t4,a1,a3
200056be:	001e0f93          	addi	t6,t3,1
200056c2:	16e8e563          	bltu	a7,a4,2000582c <__muldf3+0x1f0>
200056c6:	200088b7          	lui	a7,0x20008
200056ca:	e7088893          	addi	a7,a7,-400 # 20007e70 <F8X16+0x67c>
200056ce:	0ce8875b          	lea.w	a4,a7,a4
200056d2:	4318                	c.lw	a4,0(a4)
200056d4:	00070067          	jr	a4
/cygdrive/d/Jenkins/workspace/build-system-3/source-packages/gcc-7.4.0-riscv-bsp-v5_1_0-branch/libgcc/soft-fp/muldf3.c:44 (discriminator 3)
200056d8:	00a7e2b3          	or	t0,a5,a0
200056dc:	32028263          	beqz	t0,20005a00 <__muldf3+0x3c4>
/cygdrive/d/Jenkins/workspace/build-system-3/source-packages/gcc-7.4.0-riscv-bsp-v5_1_0-branch/libgcc/soft-fp/muldf3.c:44 (discriminator 37)
200056e0:	0137d713          	srli	a4,a5,0x13
200056e4:	82be                	c.mv	t0,a5
200056e6:	46070563          	beqz	a4,20005b50 <__muldf3+0x514>
/cygdrive/d/Jenkins/workspace/build-system-3/source-packages/gcc-7.4.0-riscv-bsp-v5_1_0-branch/libgcc/soft-fp/muldf3.c:44
200056ea:	4731                	c.li	a4,12
200056ec:	7ff00e13          	li	t3,2047
200056f0:	438d                	c.li	t2,3
/cygdrive/d/Jenkins/workspace/build-system-3/source-packages/gcc-7.4.0-riscv-bsp-v5_1_0-branch/libgcc/soft-fp/muldf3.c:37
200056f2:	4801                	c.li	a6,0
200056f4:	f91ff06f          	j	20005684 <__muldf3+0x48>
/cygdrive/d/Jenkins/workspace/build-system-3/source-packages/gcc-7.4.0-riscv-bsp-v5_1_0-branch/libgcc/soft-fp/muldf3.c:45 (discriminator 4)
200056f8:	00d00eb3          	add	t4,zero,a3
/cygdrive/d/Jenkins/workspace/build-system-3/source-packages/gcc-7.4.0-riscv-bsp-v5_1_0-branch/libgcc/soft-fp/muldf3.c:47
200056fc:	062f605b          	bnec	t5,2,2000575c <__muldf3+0x120>
20005700:	88f6                	c.mv	a7,t4
/cygdrive/d/Jenkins/workspace/build-system-3/source-packages/gcc-7.4.0-riscv-bsp-v5_1_0-branch/libgcc/soft-fp/muldf3.c:47 (discriminator 4)
20005702:	7ff00713          	li	a4,2047
20005706:	4781                	c.li	a5,0
20005708:	00000613          	li	a2,0
/cygdrive/d/Jenkins/workspace/build-system-3/source-packages/gcc-7.4.0-riscv-bsp-v5_1_0-branch/libgcc/soft-fp/muldf3.c:47 (discriminator 108)
2000570c:	4581                	c.li	a1,0
2000570e:	fff006b7          	lui	a3,0xfff00
20005712:	8eed                	c.and	a3,a1
20005714:	4c07a7db          	bfoz	a5,a5,19,0
20005718:	8fd5                	c.or	a5,a3
2000571a:	01471693          	slli	a3,a4,0x14
2000571e:	80100737          	lui	a4,0x80100
20005722:	177d                	c.addi	a4,-1
20005724:	8f7d                	c.and	a4,a5
20005726:	8f55                	c.or	a4,a3
20005728:	08fe                	c.slli	a7,0x1f
2000572a:	7807275b          	bfoz	a4,a4,30,0
2000572e:	8532                	c.mv	a0,a2
20005730:	011765b3          	or	a1,a4,a7
/cygdrive/d/Jenkins/workspace/build-system-3/source-packages/gcc-7.4.0-riscv-bsp-v5_1_0-branch/libgcc/soft-fp/muldf3.c:48 (discriminator 108)
20005734:	3e081e63          	bnez	a6,20005b30 <__muldf3+0x4f4>
/cygdrive/d/Jenkins/workspace/build-system-3/source-packages/gcc-7.4.0-riscv-bsp-v5_1_0-branch/libgcc/soft-fp/muldf3.c:51
20005738:	4472                	c.lwsp	s0,28(sp)
2000573a:	44e2                	c.lwsp	s1,24(sp)
2000573c:	4952                	c.lwsp	s2,20(sp)
2000573e:	49c2                	c.lwsp	s3,16(sp)
20005740:	4a32                	c.lwsp	s4,12(sp)
20005742:	4aa2                	c.lwsp	s5,8(sp)
20005744:	4b12                	c.lwsp	s6,4(sp)
20005746:	6105                	c.addi16sp	sp,32
20005748:	00008067          	ret
/cygdrive/d/Jenkins/workspace/build-system-3/source-packages/gcc-7.4.0-riscv-bsp-v5_1_0-branch/libgcc/soft-fp/muldf3.c:44 (discriminator 7)
2000574c:	00b00eb3          	add	t4,zero,a1
/cygdrive/d/Jenkins/workspace/build-system-3/source-packages/gcc-7.4.0-riscv-bsp-v5_1_0-branch/libgcc/soft-fp/muldf3.c:46 (discriminator 7)
20005750:	8f1e                	c.mv	t5,t2
20005752:	8796                	c.mv	a5,t0
20005754:	00a00633          	add	a2,zero,a0
/cygdrive/d/Jenkins/workspace/build-system-3/source-packages/gcc-7.4.0-riscv-bsp-v5_1_0-branch/libgcc/soft-fp/muldf3.c:47 (discriminator 7)
20005758:	ba2f545b          	beqc	t5,2,20005700 <__muldf3+0xc4>
/cygdrive/d/Jenkins/workspace/build-system-3/source-packages/gcc-7.4.0-riscv-bsp-v5_1_0-branch/libgcc/soft-fp/muldf3.c:47
2000575c:	363f525b          	beqc	t5,3,20005ac0 <__muldf3+0x484>
20005760:	221f685b          	bnec	t5,1,20005990 <__muldf3+0x354>
20005764:	88f6                	c.mv	a7,t4
20005766:	4701                	c.li	a4,0
20005768:	4781                	c.li	a5,0
2000576a:	4601                	c.li	a2,0
2000576c:	fa1ff06f          	j	2000570c <__muldf3+0xd0>
/cygdrive/d/Jenkins/workspace/build-system-3/source-packages/gcc-7.4.0-riscv-bsp-v5_1_0-branch/libgcc/soft-fp/muldf3.c:44 (discriminator 2)
20005770:	00a7e2b3          	or	t0,a5,a0
20005774:	28028063          	beqz	t0,200059f4 <__muldf3+0x3b8>
/cygdrive/d/Jenkins/workspace/build-system-3/source-packages/gcc-7.4.0-riscv-bsp-v5_1_0-branch/libgcc/soft-fp/muldf3.c:44 (discriminator 11)
20005778:	af97877f          	clz32	a4,a5
2000577c:	00079663          	bnez	a5,20005788 <__muldf3+0x14c>
/cygdrive/d/Jenkins/workspace/build-system-3/source-packages/gcc-7.4.0-riscv-bsp-v5_1_0-branch/libgcc/soft-fp/muldf3.c:44 (discriminator 18)
20005780:	af95077f          	clz32	a4,a0
20005784:	02070713          	addi	a4,a4,32 # 80100020 <_DATA_LMA_START+0x600f8048>
/cygdrive/d/Jenkins/workspace/build-system-3/source-packages/gcc-7.4.0-riscv-bsp-v5_1_0-branch/libgcc/soft-fp/muldf3.c:44 (discriminator 25)
20005788:	ff570893          	addi	a7,a4,-11
2000578c:	4871                	c.li	a6,28
2000578e:	3b184b63          	blt	a6,a7,20005b44 <__muldf3+0x508>
/cygdrive/d/Jenkins/workspace/build-system-3/source-packages/gcc-7.4.0-riscv-bsp-v5_1_0-branch/libgcc/soft-fp/muldf3.c:44 (discriminator 26)
20005792:	42f5                	c.li	t0,29
20005794:	ff870813          	addi	a6,a4,-8
20005798:	411282b3          	sub	t0,t0,a7
2000579c:	005552b3          	srl	t0,a0,t0
200057a0:	010797b3          	sll	a5,a5,a6
200057a4:	00f2e2b3          	or	t0,t0,a5
200057a8:	01051533          	sll	a0,a0,a6
/cygdrive/d/Jenkins/workspace/build-system-3/source-packages/gcc-7.4.0-riscv-bsp-v5_1_0-branch/libgcc/soft-fp/muldf3.c:44 (discriminator 35)
200057ac:	c0d00e13          	li	t3,-1011
/cygdrive/d/Jenkins/workspace/build-system-3/source-packages/gcc-7.4.0-riscv-bsp-v5_1_0-branch/libgcc/soft-fp/muldf3.c:45 (discriminator 35)
200057b0:	7946a8db          	bfoz	a7,a3,30,20
/cygdrive/d/Jenkins/workspace/build-system-3/source-packages/gcc-7.4.0-riscv-bsp-v5_1_0-branch/libgcc/soft-fp/muldf3.c:44 (discriminator 35)
200057b4:	40ee0e33          	sub	t3,t3,a4
/cygdrive/d/Jenkins/workspace/build-system-3/source-packages/gcc-7.4.0-riscv-bsp-v5_1_0-branch/libgcc/soft-fp/muldf3.c:45 (discriminator 35)
200057b8:	4c06a7db          	bfoz	a5,a3,19,0
/cygdrive/d/Jenkins/workspace/build-system-3/source-packages/gcc-7.4.0-riscv-bsp-v5_1_0-branch/libgcc/soft-fp/muldf3.c:44 (discriminator 35)
200057bc:	4701                	c.li	a4,0
200057be:	4381                	c.li	t2,0
200057c0:	4801                	c.li	a6,0
/cygdrive/d/Jenkins/workspace/build-system-3/source-packages/gcc-7.4.0-riscv-bsp-v5_1_0-branch/libgcc/soft-fp/muldf3.c:45 (discriminator 35)
200057c2:	82fd                	c.srli	a3,0x1f
200057c4:	ec0898e3          	bnez	a7,20005694 <__muldf3+0x58>
/cygdrive/d/Jenkins/workspace/build-system-3/source-packages/gcc-7.4.0-riscv-bsp-v5_1_0-branch/libgcc/soft-fp/muldf3.c:45 (discriminator 2)
200057c8:	00c7e8b3          	or	a7,a5,a2
200057cc:	24088263          	beqz	a7,20005a10 <__muldf3+0x3d4>
/cygdrive/d/Jenkins/workspace/build-system-3/source-packages/gcc-7.4.0-riscv-bsp-v5_1_0-branch/libgcc/soft-fp/muldf3.c:45 (discriminator 11)
200057d0:	af9788ff          	clz32	a7,a5
200057d4:	00079663          	bnez	a5,200057e0 <__muldf3+0x1a4>
/cygdrive/d/Jenkins/workspace/build-system-3/source-packages/gcc-7.4.0-riscv-bsp-v5_1_0-branch/libgcc/soft-fp/muldf3.c:45 (discriminator 18)
200057d8:	af9608ff          	clz32	a7,a2
200057dc:	02088893          	addi	a7,a7,32
/cygdrive/d/Jenkins/workspace/build-system-3/source-packages/gcc-7.4.0-riscv-bsp-v5_1_0-branch/libgcc/soft-fp/muldf3.c:45 (discriminator 25)
200057e0:	ff588f93          	addi	t6,a7,-11
200057e4:	4ef1                	c.li	t4,28
200057e6:	35fec963          	blt	t4,t6,20005b38 <__muldf3+0x4fc>
/cygdrive/d/Jenkins/workspace/build-system-3/source-packages/gcc-7.4.0-riscv-bsp-v5_1_0-branch/libgcc/soft-fp/muldf3.c:45 (discriminator 26)
200057ea:	4ef5                	c.li	t4,29
200057ec:	ff888f13          	addi	t5,a7,-8
200057f0:	41fe8eb3          	sub	t4,t4,t6
200057f4:	01d65eb3          	srl	t4,a2,t4
200057f8:	01e797b3          	sll	a5,a5,t5
200057fc:	00fee7b3          	or	a5,t4,a5
20005800:	01e61633          	sll	a2,a2,t5
/cygdrive/d/Jenkins/workspace/build-system-3/source-packages/gcc-7.4.0-riscv-bsp-v5_1_0-branch/libgcc/soft-fp/muldf3.c:45 (discriminator 35)
20005804:	411e0e33          	sub	t3,t3,a7
20005808:	c0de0e13          	addi	t3,t3,-1011
2000580c:	4f01                	c.li	t5,0
2000580e:	b56d                	c.j	200056b8 <__muldf3+0x7c>
/cygdrive/d/Jenkins/workspace/build-system-3/source-packages/gcc-7.4.0-riscv-bsp-v5_1_0-branch/libgcc/soft-fp/muldf3.c:45 (discriminator 3)
20005810:	00c7e8b3          	or	a7,a5,a2
20005814:	7ffe0e13          	addi	t3,t3,2047
20005818:	20088263          	beqz	a7,20005a1c <__muldf3+0x3e0>
2000581c:	00376713          	ori	a4,a4,3
/cygdrive/d/Jenkins/workspace/build-system-3/source-packages/gcc-7.4.0-riscv-bsp-v5_1_0-branch/libgcc/soft-fp/muldf3.c:45 (discriminator 37)
20005820:	4f0d                	c.li	t5,3
20005822:	e937fb5b          	bbs	a5,19,200056b8 <__muldf3+0x7c>
/cygdrive/d/Jenkins/workspace/build-system-3/source-packages/gcc-7.4.0-riscv-bsp-v5_1_0-branch/libgcc/soft-fp/muldf3.c:45
20005826:	4841                	c.li	a6,16
20005828:	e91ff06f          	j	200056b8 <__muldf3+0x7c>
2000582c:	6f41                	c.lui	t5,0x10
2000582e:	ffff0713          	addi	a4,t5,-1 # ffff <BIN_SIZE+0x7ff1>
20005832:	00e678b3          	and	a7,a2,a4
/cygdrive/d/Jenkins/workspace/build-system-3/source-packages/gcc-7.4.0-riscv-bsp-v5_1_0-branch/libgcc/soft-fp/muldf3.c:46 (discriminator 2)
20005836:	01055393          	srli	t2,a0,0x10
2000583a:	031385b3          	mul	a1,t2,a7
2000583e:	8d79                	c.and	a0,a4
20005840:	01065913          	srli	s2,a2,0x10
20005844:	02a886b3          	mul	a3,a7,a0
20005848:	862e                	c.mv	a2,a1
2000584a:	c4a9167f          	maddr32	a2,s2,a0
2000584e:	03238733          	mul	a4,t2,s2
20005852:	0106d413          	srli	s0,a3,0x10
20005856:	9432                	c.add	s0,a2
20005858:	00b47463          	bgeu	s0,a1,20005860 <__muldf3+0x224>
/cygdrive/d/Jenkins/workspace/build-system-3/source-packages/gcc-7.4.0-riscv-bsp-v5_1_0-branch/libgcc/soft-fp/muldf3.c:46 (discriminator 9)
2000585c:	01e70733          	add	a4,a4,t5
/cygdrive/d/Jenkins/workspace/build-system-3/source-packages/gcc-7.4.0-riscv-bsp-v5_1_0-branch/libgcc/soft-fp/muldf3.c:46 (discriminator 11)
20005860:	6b41                	c.lui	s6,0x10
20005862:	fffb0f13          	addi	t5,s6,-1 # ffff <BIN_SIZE+0x7ff1>
20005866:	01e7f5b3          	and	a1,a5,t5
2000586a:	02b38a33          	mul	s4,t2,a1
2000586e:	0107d993          	srli	s3,a5,0x10
20005872:	01e47633          	and	a2,s0,t5
20005876:	01e6f6b3          	and	a3,a3,t5
2000587a:	0642                	c.slli	a2,0x10
2000587c:	00d60f33          	add	t5,a2,a3
20005880:	02b50ab3          	mul	s5,a0,a1
20005884:	01045493          	srli	s1,s0,0x10
20005888:	87d2                	c.mv	a5,s4
2000588a:	c4a997ff          	maddr32	a5,s3,a0
2000588e:	033383b3          	mul	t2,t2,s3
20005892:	010ad693          	srli	a3,s5,0x10
20005896:	96be                	c.add	a3,a5
20005898:	0146f463          	bgeu	a3,s4,200058a0 <__muldf3+0x264>
/cygdrive/d/Jenkins/workspace/build-system-3/source-packages/gcc-7.4.0-riscv-bsp-v5_1_0-branch/libgcc/soft-fp/muldf3.c:46 (discriminator 12)
2000589c:	016383b3          	add	t2,t2,s6
/cygdrive/d/Jenkins/workspace/build-system-3/source-packages/gcc-7.4.0-riscv-bsp-v5_1_0-branch/libgcc/soft-fp/muldf3.c:46 (discriminator 14)
200058a0:	6b41                	c.lui	s6,0x10
200058a2:	fffb0413          	addi	s0,s6,-1 # ffff <BIN_SIZE+0x7ff1>
200058a6:	0102da13          	srli	s4,t0,0x10
200058aa:	0082f7b3          	and	a5,t0,s0
200058ae:	031a02b3          	mul	t0,s4,a7
200058b2:	0086f633          	and	a2,a3,s0
200058b6:	82c1                	c.srli	a3,0x10
200058b8:	93b6                	c.add	t2,a3
200058ba:	0642                	c.slli	a2,0x10
200058bc:	008afab3          	and	s5,s5,s0
200058c0:	02f888b3          	mul	a7,a7,a5
200058c4:	01560433          	add	s0,a2,s5
200058c8:	94a2                	c.add	s1,s0
200058ca:	8696                	c.mv	a3,t0
200058cc:	c4f916ff          	maddr32	a3,s2,a5
200058d0:	03490633          	mul	a2,s2,s4
200058d4:	0108d513          	srli	a0,a7,0x10
200058d8:	9536                	c.add	a0,a3
200058da:	00557363          	bgeu	a0,t0,200058e0 <__muldf3+0x2a4>
/cygdrive/d/Jenkins/workspace/build-system-3/source-packages/gcc-7.4.0-riscv-bsp-v5_1_0-branch/libgcc/soft-fp/muldf3.c:46 (discriminator 15)
200058de:	965a                	c.add	a2,s6
/cygdrive/d/Jenkins/workspace/build-system-3/source-packages/gcc-7.4.0-riscv-bsp-v5_1_0-branch/libgcc/soft-fp/muldf3.c:46 (discriminator 17)
200058e0:	02ba0ab3          	mul	s5,s4,a1
200058e4:	6b41                	c.lui	s6,0x10
200058e6:	fffb0293          	addi	t0,s6,-1 # ffff <BIN_SIZE+0x7ff1>
200058ea:	005576b3          	and	a3,a0,t0
200058ee:	06c2                	c.slli	a3,0x10
200058f0:	0058f8b3          	and	a7,a7,t0
200058f4:	02b78933          	mul	s2,a5,a1
200058f8:	98b6                	c.add	a7,a3
200058fa:	8141                	c.srli	a0,0x10
200058fc:	9532                	c.add	a0,a2
200058fe:	85d6                	c.mv	a1,s5
20005900:	c4f995ff          	maddr32	a1,s3,a5
20005904:	034982b3          	mul	t0,s3,s4
20005908:	01095693          	srli	a3,s2,0x10
2000590c:	00b687b3          	add	a5,a3,a1
20005910:	0157f463          	bgeu	a5,s5,20005918 <__muldf3+0x2dc>
/cygdrive/d/Jenkins/workspace/build-system-3/source-packages/gcc-7.4.0-riscv-bsp-v5_1_0-branch/libgcc/soft-fp/muldf3.c:46 (discriminator 18)
20005914:	016282b3          	add	t0,t0,s6
/cygdrive/d/Jenkins/workspace/build-system-3/source-packages/gcc-7.4.0-riscv-bsp-v5_1_0-branch/libgcc/soft-fp/muldf3.c:46 (discriminator 20)
20005918:	65c1                	c.lui	a1,0x10
2000591a:	15fd                	c.addi	a1,-1
2000591c:	00b7f6b3          	and	a3,a5,a1
20005920:	06c2                	c.slli	a3,0x10
20005922:	00b975b3          	and	a1,s2,a1
20005926:	9726                	c.add	a4,s1
20005928:	96ae                	c.add	a3,a1
2000592a:	00873633          	sltu	a2,a4,s0
2000592e:	969e                	c.add	a3,t2
20005930:	9746                	c.add	a4,a7
20005932:	00c684b3          	add	s1,a3,a2
20005936:	011735b3          	sltu	a1,a4,a7
2000593a:	00a488b3          	add	a7,s1,a0
2000593e:	00b88433          	add	s0,a7,a1
20005942:	00c4b633          	sltu	a2,s1,a2
20005946:	0076b6b3          	sltu	a3,a3,t2
2000594a:	8ed1                	c.or	a3,a2
2000594c:	00b435b3          	sltu	a1,s0,a1
20005950:	83c1                	c.srli	a5,0x10
20005952:	00a8b533          	sltu	a0,a7,a0
20005956:	97b6                	c.add	a5,a3
20005958:	8dc9                	c.or	a1,a0
2000595a:	00971613          	slli	a2,a4,0x9
2000595e:	97ae                	c.add	a5,a1
20005960:	9796                	c.add	a5,t0
20005962:	01e66633          	or	a2,a2,t5
20005966:	01745693          	srli	a3,s0,0x17
2000596a:	07a6                	c.slli	a5,0x9
2000596c:	00c03633          	snez	a2,a2
20005970:	835d                	c.srli	a4,0x17
20005972:	8e59                	c.or	a2,a4
20005974:	0426                	c.slli	s0,0x9
20005976:	8fd5                	c.or	a5,a3
20005978:	8e41                	c.or	a2,s0
2000597a:	1f87f15b          	bbc	a5,24,20005b5c <__muldf3+0x520>
/cygdrive/d/Jenkins/workspace/build-system-3/source-packages/gcc-7.4.0-riscv-bsp-v5_1_0-branch/libgcc/soft-fp/muldf3.c:46 (discriminator 37)
2000597e:	00165713          	srli	a4,a2,0x1
20005982:	8a05                	c.andi	a2,1
20005984:	01f79693          	slli	a3,a5,0x1f
20005988:	8e59                	c.or	a2,a4
2000598a:	8e55                	c.or	a2,a3
2000598c:	0017d793          	srli	a5,a5,0x1
/cygdrive/d/Jenkins/workspace/build-system-3/source-packages/gcc-7.4.0-riscv-bsp-v5_1_0-branch/libgcc/soft-fp/muldf3.c:47 (discriminator 2)
20005990:	3fff8713          	addi	a4,t6,1023
20005994:	0ae05263          	blez	a4,20005a38 <__muldf3+0x3fc>
/cygdrive/d/Jenkins/workspace/build-system-3/source-packages/gcc-7.4.0-riscv-bsp-v5_1_0-branch/libgcc/soft-fp/muldf3.c:47 (discriminator 6)
20005998:	00767693          	andi	a3,a2,7
2000599c:	c685                	c.beqz	a3,200059c4 <__muldf3+0x388>
/cygdrive/d/Jenkins/workspace/build-system-3/source-packages/gcc-7.4.0-riscv-bsp-v5_1_0-branch/libgcc/soft-fp/muldf3.c:47 (discriminator 8)
2000599e:	00186813          	ori	a6,a6,1
200059a2:	1c235f5b          	beqc	t1,2,20005b80 <__muldf3+0x544>
200059a6:	2633535b          	beqc	t1,3,20005c0c <__muldf3+0x5d0>
200059aa:	00031d63          	bnez	t1,200059c4 <__muldf3+0x388>
/cygdrive/d/Jenkins/workspace/build-system-3/source-packages/gcc-7.4.0-riscv-bsp-v5_1_0-branch/libgcc/soft-fp/muldf3.c:47 (discriminator 11)
200059ae:	00f67693          	andi	a3,a2,15
200059b2:	0046d95b          	beqc	a3,4,200059c4 <__muldf3+0x388>
/cygdrive/d/Jenkins/workspace/build-system-3/source-packages/gcc-7.4.0-riscv-bsp-v5_1_0-branch/libgcc/soft-fp/muldf3.c:47 (discriminator 15)
200059b6:	00460693          	addi	a3,a2,4
200059ba:	00c6b633          	sltu	a2,a3,a2
200059be:	97b2                	c.add	a5,a2
200059c0:	00d00633          	add	a2,zero,a3
/cygdrive/d/Jenkins/workspace/build-system-3/source-packages/gcc-7.4.0-riscv-bsp-v5_1_0-branch/libgcc/soft-fp/muldf3.c:47 (discriminator 16)
200059c4:	0187f85b          	bbc	a5,24,200059d4 <__muldf3+0x398>
/cygdrive/d/Jenkins/workspace/build-system-3/source-packages/gcc-7.4.0-riscv-bsp-v5_1_0-branch/libgcc/soft-fp/muldf3.c:47 (discriminator 21)
200059c8:	ff000737          	lui	a4,0xff000
200059cc:	177d                	c.addi	a4,-1
200059ce:	8ff9                	c.and	a5,a4
200059d0:	400f8713          	addi	a4,t6,1024
/cygdrive/d/Jenkins/workspace/build-system-3/source-packages/gcc-7.4.0-riscv-bsp-v5_1_0-branch/libgcc/soft-fp/muldf3.c:47 (discriminator 23)
200059d4:	7fe00693          	li	a3,2046
200059d8:	88f6                	c.mv	a7,t4
200059da:	18e6c363          	blt	a3,a4,20005b60 <__muldf3+0x524>
/cygdrive/d/Jenkins/workspace/build-system-3/source-packages/gcc-7.4.0-riscv-bsp-v5_1_0-branch/libgcc/soft-fp/muldf3.c:47
200059de:	00365693          	srli	a3,a2,0x3
200059e2:	01d79613          	slli	a2,a5,0x1d
200059e6:	8e55                	c.or	a2,a3
200059e8:	5837a7db          	bfoz	a5,a5,22,3
200059ec:	7ff77713          	andi	a4,a4,2047
200059f0:	d1dff06f          	j	2000570c <__muldf3+0xd0>
200059f4:	4711                	c.li	a4,4
200059f6:	4501                	c.li	a0,0
200059f8:	4e01                	c.li	t3,0
/cygdrive/d/Jenkins/workspace/build-system-3/source-packages/gcc-7.4.0-riscv-bsp-v5_1_0-branch/libgcc/soft-fp/muldf3.c:44
200059fa:	4385                	c.li	t2,1
/cygdrive/d/Jenkins/workspace/build-system-3/source-packages/gcc-7.4.0-riscv-bsp-v5_1_0-branch/libgcc/soft-fp/muldf3.c:37
200059fc:	4801                	c.li	a6,0
200059fe:	b159                	c.j	20005684 <__muldf3+0x48>
20005a00:	4721                	c.li	a4,8
20005a02:	4501                	c.li	a0,0
20005a04:	7ff00e13          	li	t3,2047
/cygdrive/d/Jenkins/workspace/build-system-3/source-packages/gcc-7.4.0-riscv-bsp-v5_1_0-branch/libgcc/soft-fp/muldf3.c:44
20005a08:	4389                	c.li	t2,2
/cygdrive/d/Jenkins/workspace/build-system-3/source-packages/gcc-7.4.0-riscv-bsp-v5_1_0-branch/libgcc/soft-fp/muldf3.c:37
20005a0a:	4801                	c.li	a6,0
20005a0c:	c79ff06f          	j	20005684 <__muldf3+0x48>
20005a10:	00176713          	ori	a4,a4,1
/cygdrive/d/Jenkins/workspace/build-system-3/source-packages/gcc-7.4.0-riscv-bsp-v5_1_0-branch/libgcc/soft-fp/muldf3.c:45
20005a14:	4781                	c.li	a5,0
20005a16:	4601                	c.li	a2,0
20005a18:	4f05                	c.li	t5,1
20005a1a:	b979                	c.j	200056b8 <__muldf3+0x7c>
20005a1c:	00276713          	ori	a4,a4,2
20005a20:	4781                	c.li	a5,0
20005a22:	4601                	c.li	a2,0
20005a24:	4f09                	c.li	t5,2
20005a26:	b949                	c.j	200056b8 <__muldf3+0x7c>
/cygdrive/d/Jenkins/workspace/build-system-3/source-packages/gcc-7.4.0-riscv-bsp-v5_1_0-branch/libgcc/soft-fp/muldf3.c:46
20005a28:	4881                	c.li	a7,0
20005a2a:	7ff00713          	li	a4,2047
20005a2e:	000807b7          	lui	a5,0x80
/cygdrive/d/Jenkins/workspace/build-system-3/source-packages/gcc-7.4.0-riscv-bsp-v5_1_0-branch/libgcc/soft-fp/muldf3.c:47
20005a32:	4601                	c.li	a2,0
/cygdrive/d/Jenkins/workspace/build-system-3/source-packages/gcc-7.4.0-riscv-bsp-v5_1_0-branch/libgcc/soft-fp/muldf3.c:46
20005a34:	4841                	c.li	a6,16
20005a36:	b9d9                	c.j	2000570c <__muldf3+0xd0>
20005a38:	4685                	c.li	a3,1
20005a3a:	8e99                	c.sub	a3,a4
/cygdrive/d/Jenkins/workspace/build-system-3/source-packages/gcc-7.4.0-riscv-bsp-v5_1_0-branch/libgcc/soft-fp/muldf3.c:47 (discriminator 7)
20005a3c:	eb51                	c.bnez	a4,20005ad0 <__muldf3+0x494>
/cygdrive/d/Jenkins/workspace/build-system-3/source-packages/gcc-7.4.0-riscv-bsp-v5_1_0-branch/libgcc/soft-fp/muldf3.c:47 (discriminator 36)
20005a3e:	00767593          	andi	a1,a2,7
20005a42:	873e                	c.mv	a4,a5
20005a44:	00058a63          	beqz	a1,20005a58 <__muldf3+0x41c>
/cygdrive/d/Jenkins/workspace/build-system-3/source-packages/gcc-7.4.0-riscv-bsp-v5_1_0-branch/libgcc/soft-fp/muldf3.c:47 (discriminator 38)
20005a48:	00186813          	ori	a6,a6,1
20005a4c:	1e23565b          	beqc	t1,2,20005c38 <__muldf3+0x5fc>
20005a50:	1c335c5b          	beqc	t1,3,20005c28 <__muldf3+0x5ec>
20005a54:	1e030663          	beqz	t1,20005c40 <__muldf3+0x604>
/cygdrive/d/Jenkins/workspace/build-system-3/source-packages/gcc-7.4.0-riscv-bsp-v5_1_0-branch/libgcc/soft-fp/muldf3.c:47 (discriminator 46)
20005a58:	01875593          	srli	a1,a4,0x18
20005a5c:	0015c593          	xori	a1,a1,1
20005a60:	0015f593          	andi	a1,a1,1
/cygdrive/d/Jenkins/workspace/build-system-3/source-packages/gcc-7.4.0-riscv-bsp-v5_1_0-branch/libgcc/soft-fp/muldf3.c:47 (discriminator 56)
20005a64:	41ef8f93          	addi	t6,t6,1054
20005a68:	01f61733          	sll	a4,a2,t6
20005a6c:	00d65533          	srl	a0,a2,a3
20005a70:	01f79fb3          	sll	t6,a5,t6
20005a74:	00e03633          	snez	a2,a4
20005a78:	00afefb3          	or	t6,t6,a0
20005a7c:	01f66633          	or	a2,a2,t6
20005a80:	00767713          	andi	a4,a2,7
20005a84:	00d7d7b3          	srl	a5,a5,a3
20005a88:	00070a63          	beqz	a4,20005a9c <__muldf3+0x460>
/cygdrive/d/Jenkins/workspace/build-system-3/source-packages/gcc-7.4.0-riscv-bsp-v5_1_0-branch/libgcc/soft-fp/muldf3.c:47 (discriminator 70)
20005a8c:	00186813          	ori	a6,a6,1
20005a90:	1c23545b          	beqc	t1,2,20005c58 <__muldf3+0x61c>
20005a94:	1c335e5b          	beqc	t1,3,20005c70 <__muldf3+0x634>
20005a98:	14030a63          	beqz	t1,20005bec <__muldf3+0x5b0>
/cygdrive/d/Jenkins/workspace/build-system-3/source-packages/gcc-7.4.0-riscv-bsp-v5_1_0-branch/libgcc/soft-fp/muldf3.c:47 (discriminator 78)
20005a9c:	1777fc5b          	bbc	a5,23,20005c14 <__muldf3+0x5d8>
/cygdrive/d/Jenkins/workspace/build-system-3/source-packages/gcc-7.4.0-riscv-bsp-v5_1_0-branch/libgcc/soft-fp/muldf3.c:47 (discriminator 83)
20005aa0:	00186813          	ori	a6,a6,1
20005aa4:	4705                	c.li	a4,1
20005aa6:	4781                	c.li	a5,0
20005aa8:	00000613          	li	a2,0
20005aac:	01d008b3          	add	a7,zero,t4
/cygdrive/d/Jenkins/workspace/build-system-3/source-packages/gcc-7.4.0-riscv-bsp-v5_1_0-branch/libgcc/soft-fp/muldf3.c:47 (discriminator 86)
20005ab0:	c4058ee3          	beqz	a1,2000570c <__muldf3+0xd0>
/cygdrive/d/Jenkins/workspace/build-system-3/source-packages/gcc-7.4.0-riscv-bsp-v5_1_0-branch/libgcc/soft-fp/muldf3.c:47 (discriminator 87)
20005ab4:	84087c5b          	bbc	a6,0,2000570c <__muldf3+0xd0>
/cygdrive/d/Jenkins/workspace/build-system-3/source-packages/gcc-7.4.0-riscv-bsp-v5_1_0-branch/libgcc/soft-fp/muldf3.c:47 (discriminator 88)
20005ab8:	00286813          	ori	a6,a6,2
20005abc:	04c0006f          	j	20005b08 <__muldf3+0x4cc>
/cygdrive/d/Jenkins/workspace/build-system-3/source-packages/gcc-7.4.0-riscv-bsp-v5_1_0-branch/libgcc/soft-fp/muldf3.c:47
20005ac0:	4881                	c.li	a7,0
20005ac2:	7ff00713          	li	a4,2047
20005ac6:	000807b7          	lui	a5,0x80
20005aca:	4601                	c.li	a2,0
20005acc:	c41ff06f          	j	2000570c <__muldf3+0xd0>
/cygdrive/d/Jenkins/workspace/build-system-3/source-packages/gcc-7.4.0-riscv-bsp-v5_1_0-branch/libgcc/soft-fp/muldf3.c:47 (discriminator 53)
20005ad0:	03800593          	li	a1,56
20005ad4:	0cd5da63          	bge	a1,a3,20005ba8 <__muldf3+0x56c>
/cygdrive/d/Jenkins/workspace/build-system-3/source-packages/gcc-7.4.0-riscv-bsp-v5_1_0-branch/libgcc/soft-fp/muldf3.c:47 (discriminator 55)
20005ad8:	8e5d                	c.or	a2,a5
20005ada:	c20d                	c.beqz	a2,20005afc <__muldf3+0x4c0>
/cygdrive/d/Jenkins/workspace/build-system-3/source-packages/gcc-7.4.0-riscv-bsp-v5_1_0-branch/libgcc/soft-fp/muldf3.c:47 (discriminator 91)
20005adc:	00186813          	ori	a6,a6,1
20005ae0:	01d03633          	snez	a2,t4
20005ae4:	00235c5b          	beqc	t1,2,20005afc <__muldf3+0x4c0>
20005ae8:	ffd30793          	addi	a5,t1,-3
20005aec:	0017b793          	seqz	a5,a5
20005af0:	001eb613          	seqz	a2,t4
20005af4:	40f007b3          	neg	a5,a5
20005af8:	00f67633          	and	a2,a2,a5
/cygdrive/d/Jenkins/workspace/build-system-3/source-packages/gcc-7.4.0-riscv-bsp-v5_1_0-branch/libgcc/soft-fp/muldf3.c:47 (discriminator 104)
20005afc:	00286813          	ori	a6,a6,2
20005b00:	88f6                	c.mv	a7,t4
20005b02:	4701                	c.li	a4,0
20005b04:	00000793          	li	a5,0
/cygdrive/d/Jenkins/workspace/build-system-3/source-packages/gcc-7.4.0-riscv-bsp-v5_1_0-branch/libgcc/soft-fp/muldf3.c:47
20005b08:	4581                	c.li	a1,0
20005b0a:	fff006b7          	lui	a3,0xfff00
20005b0e:	8eed                	c.and	a3,a1
20005b10:	4c07a7db          	bfoz	a5,a5,19,0
20005b14:	8fd5                	c.or	a5,a3
20005b16:	801006b7          	lui	a3,0x80100
20005b1a:	16fd                	c.addi	a3,-1
20005b1c:	0752                	c.slli	a4,0x14
20005b1e:	8efd                	c.and	a3,a5
20005b20:	8f55                	c.or	a4,a3
20005b22:	08fe                	c.slli	a7,0x1f
20005b24:	7807275b          	bfoz	a4,a4,30,0
20005b28:	00c00533          	add	a0,zero,a2
20005b2c:	011765b3          	or	a1,a4,a7
/cygdrive/d/Jenkins/workspace/build-system-3/source-packages/gcc-7.4.0-riscv-bsp-v5_1_0-branch/libgcc/soft-fp/muldf3.c:48 (discriminator 1)
20005b30:	00182073          	csrs	fflags,a6
/cygdrive/d/Jenkins/workspace/build-system-3/source-packages/gcc-7.4.0-riscv-bsp-v5_1_0-branch/libgcc/soft-fp/muldf3.c:50 (discriminator 1)
20005b34:	c05ff06f          	j	20005738 <__muldf3+0xfc>
/cygdrive/d/Jenkins/workspace/build-system-3/source-packages/gcc-7.4.0-riscv-bsp-v5_1_0-branch/libgcc/soft-fp/muldf3.c:45 (discriminator 27)
20005b38:	fd888793          	addi	a5,a7,-40
20005b3c:	00f617b3          	sll	a5,a2,a5
20005b40:	4601                	c.li	a2,0
20005b42:	b1c9                	c.j	20005804 <__muldf3+0x1c8>
/cygdrive/d/Jenkins/workspace/build-system-3/source-packages/gcc-7.4.0-riscv-bsp-v5_1_0-branch/libgcc/soft-fp/muldf3.c:44 (discriminator 27)
20005b44:	fd870793          	addi	a5,a4,-40 # feffffd8 <_DATA_LMA_START+0xdeff8000>
20005b48:	00f512b3          	sll	t0,a0,a5
20005b4c:	4501                	c.li	a0,0
20005b4e:	b9b9                	c.j	200057ac <__muldf3+0x170>
20005b50:	4731                	c.li	a4,12
20005b52:	7ff00e13          	li	t3,2047
/cygdrive/d/Jenkins/workspace/build-system-3/source-packages/gcc-7.4.0-riscv-bsp-v5_1_0-branch/libgcc/soft-fp/muldf3.c:44
20005b56:	438d                	c.li	t2,3
20005b58:	4841                	c.li	a6,16
20005b5a:	b62d                	c.j	20005684 <__muldf3+0x48>
/cygdrive/d/Jenkins/workspace/build-system-3/source-packages/gcc-7.4.0-riscv-bsp-v5_1_0-branch/libgcc/soft-fp/muldf3.c:46
20005b5c:	8ff2                	c.mv	t6,t3
20005b5e:	bd0d                	c.j	20005990 <__muldf3+0x354>
/cygdrive/d/Jenkins/workspace/build-system-3/source-packages/gcc-7.4.0-riscv-bsp-v5_1_0-branch/libgcc/soft-fp/muldf3.c:47 (discriminator 24)
20005b60:	02235a5b          	beqc	t1,2,20005b94 <__muldf3+0x558>
20005b64:	0a33505b          	beqc	t1,3,20005c04 <__muldf3+0x5c8>
20005b68:	02030863          	beqz	t1,20005b98 <__muldf3+0x55c>
20005b6c:	001007b7          	lui	a5,0x100
20005b70:	7fe00713          	li	a4,2046
20005b74:	17fd                	c.addi	a5,-1
/cygdrive/d/Jenkins/workspace/build-system-3/source-packages/gcc-7.4.0-riscv-bsp-v5_1_0-branch/libgcc/soft-fp/muldf3.c:47
20005b76:	567d                	c.li	a2,-1
20005b78:	00586813          	ori	a6,a6,5
20005b7c:	f8dff06f          	j	20005b08 <__muldf3+0x4cc>
/cygdrive/d/Jenkins/workspace/build-system-3/source-packages/gcc-7.4.0-riscv-bsp-v5_1_0-branch/libgcc/soft-fp/muldf3.c:47 (discriminator 13)
20005b80:	e40e82e3          	beqz	t4,200059c4 <__muldf3+0x388>
/cygdrive/d/Jenkins/workspace/build-system-3/source-packages/gcc-7.4.0-riscv-bsp-v5_1_0-branch/libgcc/soft-fp/muldf3.c:47 (discriminator 20)
20005b84:	00860693          	addi	a3,a2,8
20005b88:	00c6b633          	sltu	a2,a3,a2
20005b8c:	97b2                	c.add	a5,a2
20005b8e:	8636                	c.mv	a2,a3
20005b90:	e35ff06f          	j	200059c4 <__muldf3+0x388>
/cygdrive/d/Jenkins/workspace/build-system-3/source-packages/gcc-7.4.0-riscv-bsp-v5_1_0-branch/libgcc/soft-fp/muldf3.c:47 (discriminator 27)
20005b94:	fc0e8ce3          	beqz	t4,20005b6c <__muldf3+0x530>
20005b98:	7ff00713          	li	a4,2047
20005b9c:	4781                	c.li	a5,0
/cygdrive/d/Jenkins/workspace/build-system-3/source-packages/gcc-7.4.0-riscv-bsp-v5_1_0-branch/libgcc/soft-fp/muldf3.c:47
20005b9e:	4601                	c.li	a2,0
20005ba0:	00586813          	ori	a6,a6,5
20005ba4:	f65ff06f          	j	20005b08 <__muldf3+0x4cc>
/cygdrive/d/Jenkins/workspace/build-system-3/source-packages/gcc-7.4.0-riscv-bsp-v5_1_0-branch/libgcc/soft-fp/muldf3.c:47 (discriminator 54)
20005ba8:	45fd                	c.li	a1,31
20005baa:	0cd5dd63          	bge	a1,a3,20005c84 <__muldf3+0x648>
/cygdrive/d/Jenkins/workspace/build-system-3/source-packages/gcc-7.4.0-riscv-bsp-v5_1_0-branch/libgcc/soft-fp/muldf3.c:47 (discriminator 57)
20005bae:	5585                	c.li	a1,-31
20005bb0:	40e58733          	sub	a4,a1,a4
20005bb4:	00e7d733          	srl	a4,a5,a4
20005bb8:	0006d8db          	beqc	a3,32,20005bc8 <__muldf3+0x58c>
/cygdrive/d/Jenkins/workspace/build-system-3/source-packages/gcc-7.4.0-riscv-bsp-v5_1_0-branch/libgcc/soft-fp/muldf3.c:47 (discriminator 65)
20005bbc:	43ef8f93          	addi	t6,t6,1086
20005bc0:	01f797b3          	sll	a5,a5,t6
20005bc4:	00f66633          	or	a2,a2,a5
/cygdrive/d/Jenkins/workspace/build-system-3/source-packages/gcc-7.4.0-riscv-bsp-v5_1_0-branch/libgcc/soft-fp/muldf3.c:47 (discriminator 68)
20005bc8:	00c03633          	snez	a2,a2
20005bcc:	8e59                	c.or	a2,a4
20005bce:	00767793          	andi	a5,a2,7
20005bd2:	c3dd                	c.beqz	a5,20005c78 <__muldf3+0x63c>
/cygdrive/d/Jenkins/workspace/build-system-3/source-packages/gcc-7.4.0-riscv-bsp-v5_1_0-branch/libgcc/soft-fp/muldf3.c:47
20005bd4:	00186813          	ori	a6,a6,1
20005bd8:	06235e5b          	beqc	t1,2,20005c54 <__muldf3+0x618>
20005bdc:	0833585b          	beqc	t1,3,20005c6c <__muldf3+0x630>
20005be0:	4585                	c.li	a1,1
20005be2:	4781                	c.li	a5,0
20005be4:	02031863          	bnez	t1,20005c14 <__muldf3+0x5d8>
20005be8:	4781                	c.li	a5,0
20005bea:	4585                	c.li	a1,1
/cygdrive/d/Jenkins/workspace/build-system-3/source-packages/gcc-7.4.0-riscv-bsp-v5_1_0-branch/libgcc/soft-fp/muldf3.c:47 (discriminator 73)
20005bec:	00f67713          	andi	a4,a2,15
20005bf0:	aa47565b          	beqc	a4,4,20005a9c <__muldf3+0x460>
/cygdrive/d/Jenkins/workspace/build-system-3/source-packages/gcc-7.4.0-riscv-bsp-v5_1_0-branch/libgcc/soft-fp/muldf3.c:47 (discriminator 77)
20005bf4:	00460713          	addi	a4,a2,4
20005bf8:	00c73633          	sltu	a2,a4,a2
20005bfc:	97b2                	c.add	a5,a2
20005bfe:	863a                	c.mv	a2,a4
20005c00:	e9dff06f          	j	20005a9c <__muldf3+0x460>
/cygdrive/d/Jenkins/workspace/build-system-3/source-packages/gcc-7.4.0-riscv-bsp-v5_1_0-branch/libgcc/soft-fp/muldf3.c:47 (discriminator 28)
20005c04:	f80e8ae3          	beqz	t4,20005b98 <__muldf3+0x55c>
20005c08:	f65ff06f          	j	20005b6c <__muldf3+0x530>
/cygdrive/d/Jenkins/workspace/build-system-3/source-packages/gcc-7.4.0-riscv-bsp-v5_1_0-branch/libgcc/soft-fp/muldf3.c:47 (discriminator 14)
20005c0c:	da0e9ce3          	bnez	t4,200059c4 <__muldf3+0x388>
20005c10:	f75ff06f          	j	20005b84 <__muldf3+0x548>
/cygdrive/d/Jenkins/workspace/build-system-3/source-packages/gcc-7.4.0-riscv-bsp-v5_1_0-branch/libgcc/soft-fp/muldf3.c:47
20005c14:	00365713          	srli	a4,a2,0x3
20005c18:	01d79613          	slli	a2,a5,0x1d
20005c1c:	8e59                	c.or	a2,a4
20005c1e:	5837a7db          	bfoz	a5,a5,22,3
20005c22:	4701                	c.li	a4,0
20005c24:	e89ff06f          	j	20005aac <__muldf3+0x470>
/cygdrive/d/Jenkins/workspace/build-system-3/source-packages/gcc-7.4.0-riscv-bsp-v5_1_0-branch/libgcc/soft-fp/muldf3.c:47 (discriminator 44)
20005c28:	e20e98e3          	bnez	t4,20005a58 <__muldf3+0x41c>
/cygdrive/d/Jenkins/workspace/build-system-3/source-packages/gcc-7.4.0-riscv-bsp-v5_1_0-branch/libgcc/soft-fp/muldf3.c:47 (discriminator 50)
20005c2c:	ff863713          	sltiu	a4,a2,-8
20005c30:	00174713          	xori	a4,a4,1
20005c34:	973e                	c.add	a4,a5
20005c36:	b50d                	c.j	20005a58 <__muldf3+0x41c>
/cygdrive/d/Jenkins/workspace/build-system-3/source-packages/gcc-7.4.0-riscv-bsp-v5_1_0-branch/libgcc/soft-fp/muldf3.c:47 (discriminator 43)
20005c38:	e20e80e3          	beqz	t4,20005a58 <__muldf3+0x41c>
20005c3c:	ff1ff06f          	j	20005c2c <__muldf3+0x5f0>
/cygdrive/d/Jenkins/workspace/build-system-3/source-packages/gcc-7.4.0-riscv-bsp-v5_1_0-branch/libgcc/soft-fp/muldf3.c:47 (discriminator 41)
20005c40:	00f67593          	andi	a1,a2,15
20005c44:	a045da5b          	beqc	a1,4,20005a58 <__muldf3+0x41c>
/cygdrive/d/Jenkins/workspace/build-system-3/source-packages/gcc-7.4.0-riscv-bsp-v5_1_0-branch/libgcc/soft-fp/muldf3.c:47 (discriminator 45)
20005c48:	ffc63713          	sltiu	a4,a2,-4
20005c4c:	00174713          	xori	a4,a4,1
20005c50:	973e                	c.add	a4,a5
20005c52:	b519                	c.j	20005a58 <__muldf3+0x41c>
/cygdrive/d/Jenkins/workspace/build-system-3/source-packages/gcc-7.4.0-riscv-bsp-v5_1_0-branch/libgcc/soft-fp/muldf3.c:47
20005c54:	4781                	c.li	a5,0
20005c56:	4585                	c.li	a1,1
/cygdrive/d/Jenkins/workspace/build-system-3/source-packages/gcc-7.4.0-riscv-bsp-v5_1_0-branch/libgcc/soft-fp/muldf3.c:47 (discriminator 75)
20005c58:	e40e82e3          	beqz	t4,20005a9c <__muldf3+0x460>
/cygdrive/d/Jenkins/workspace/build-system-3/source-packages/gcc-7.4.0-riscv-bsp-v5_1_0-branch/libgcc/soft-fp/muldf3.c:47 (discriminator 82)
20005c5c:	00860713          	addi	a4,a2,8
20005c60:	00c73633          	sltu	a2,a4,a2
20005c64:	97b2                	c.add	a5,a2
20005c66:	863a                	c.mv	a2,a4
20005c68:	e35ff06f          	j	20005a9c <__muldf3+0x460>
/cygdrive/d/Jenkins/workspace/build-system-3/source-packages/gcc-7.4.0-riscv-bsp-v5_1_0-branch/libgcc/soft-fp/muldf3.c:47
20005c6c:	4781                	c.li	a5,0
20005c6e:	4585                	c.li	a1,1
/cygdrive/d/Jenkins/workspace/build-system-3/source-packages/gcc-7.4.0-riscv-bsp-v5_1_0-branch/libgcc/soft-fp/muldf3.c:47 (discriminator 76)
20005c70:	e20e96e3          	bnez	t4,20005a9c <__muldf3+0x460>
20005c74:	fe9ff06f          	j	20005c5c <__muldf3+0x620>
/cygdrive/d/Jenkins/workspace/build-system-3/source-packages/gcc-7.4.0-riscv-bsp-v5_1_0-branch/libgcc/soft-fp/muldf3.c:47
20005c78:	820d                	c.srli	a2,0x3
20005c7a:	88f6                	c.mv	a7,t4
20005c7c:	4701                	c.li	a4,0
20005c7e:	4781                	c.li	a5,0
20005c80:	e35ff06f          	j	20005ab4 <__muldf3+0x478>
20005c84:	4585                	c.li	a1,1
20005c86:	bbf9                	c.j	20005a64 <__muldf3+0x428>
20005c88:	0001                	c.nop
	...

20005c8c <__subdf3>:
__subdf3():
/cygdrive/d/Jenkins/workspace/build-system-3/source-packages/gcc-7.4.0-riscv-bsp-v5_1_0-branch/libgcc/soft-fp/subdf3.c:43
20005c8c:	00202f73          	frrm	t5
/cygdrive/d/Jenkins/workspace/build-system-3/source-packages/gcc-7.4.0-riscv-bsp-v5_1_0-branch/libgcc/soft-fp/subdf3.c:44
20005c90:	001007b7          	lui	a5,0x100
20005c94:	17fd                	c.addi	a5,-1
20005c96:	00f5f833          	and	a6,a1,a5
/cygdrive/d/Jenkins/workspace/build-system-3/source-packages/gcc-7.4.0-riscv-bsp-v5_1_0-branch/libgcc/soft-fp/subdf3.c:45
20005c9a:	8ff5                	c.and	a5,a3
/cygdrive/d/Jenkins/workspace/build-system-3/source-packages/gcc-7.4.0-riscv-bsp-v5_1_0-branch/libgcc/soft-fp/subdf3.c:44
20005c9c:	01d55e13          	srli	t3,a0,0x1d
/cygdrive/d/Jenkins/workspace/build-system-3/source-packages/gcc-7.4.0-riscv-bsp-v5_1_0-branch/libgcc/soft-fp/subdf3.c:45
20005ca0:	01d65713          	srli	a4,a2,0x1d
/cygdrive/d/Jenkins/workspace/build-system-3/source-packages/gcc-7.4.0-riscv-bsp-v5_1_0-branch/libgcc/soft-fp/subdf3.c:44
20005ca4:	080e                	c.slli	a6,0x3
/cygdrive/d/Jenkins/workspace/build-system-3/source-packages/gcc-7.4.0-riscv-bsp-v5_1_0-branch/libgcc/soft-fp/subdf3.c:45
20005ca6:	078e                	c.slli	a5,0x3
20005ca8:	7946a35b          	bfoz	t1,a3,30,20
/cygdrive/d/Jenkins/workspace/build-system-3/source-packages/gcc-7.4.0-riscv-bsp-v5_1_0-branch/libgcc/soft-fp/subdf3.c:46
20005cac:	7ff00893          	li	a7,2047
/cygdrive/d/Jenkins/workspace/build-system-3/source-packages/gcc-7.4.0-riscv-bsp-v5_1_0-branch/libgcc/soft-fp/subdf3.c:44
20005cb0:	7945afdb          	bfoz	t6,a1,30,20
20005cb4:	010e6833          	or	a6,t3,a6
20005cb8:	81fd                	c.srli	a1,0x1f
20005cba:	050e                	c.slli	a0,0x3
/cygdrive/d/Jenkins/workspace/build-system-3/source-packages/gcc-7.4.0-riscv-bsp-v5_1_0-branch/libgcc/soft-fp/subdf3.c:45
20005cbc:	82fd                	c.srli	a3,0x1f
20005cbe:	8fd9                	c.or	a5,a4
20005cc0:	00361613          	slli	a2,a2,0x3
/cygdrive/d/Jenkins/workspace/build-system-3/source-packages/gcc-7.4.0-riscv-bsp-v5_1_0-branch/libgcc/soft-fp/subdf3.c:46
20005cc4:	09130263          	beq	t1,a7,20005d48 <__subdf3+0xbc>
/cygdrive/d/Jenkins/workspace/build-system-3/source-packages/gcc-7.4.0-riscv-bsp-v5_1_0-branch/libgcc/soft-fp/subdf3.c:46 (discriminator 3)
20005cc8:	0016c693          	xori	a3,a3,1
20005ccc:	406f8eb3          	sub	t4,t6,t1
20005cd0:	08b68463          	beq	a3,a1,20005d58 <__subdf3+0xcc>
/cygdrive/d/Jenkins/workspace/build-system-3/source-packages/gcc-7.4.0-riscv-bsp-v5_1_0-branch/libgcc/soft-fp/subdf3.c:46 (discriminator 13)
20005cd4:	13d05663          	blez	t4,20005e00 <__subdf3+0x174>
/cygdrive/d/Jenkins/workspace/build-system-3/source-packages/gcc-7.4.0-riscv-bsp-v5_1_0-branch/libgcc/soft-fp/subdf3.c:46 (discriminator 190)
20005cd8:	16031a63          	bnez	t1,20005e4c <__subdf3+0x1c0>
/cygdrive/d/Jenkins/workspace/build-system-3/source-packages/gcc-7.4.0-riscv-bsp-v5_1_0-branch/libgcc/soft-fp/subdf3.c:46 (discriminator 192)
20005cdc:	00c7e733          	or	a4,a5,a2
20005ce0:	1e071863          	bnez	a4,20005ed0 <__subdf3+0x244>
/cygdrive/d/Jenkins/workspace/build-system-3/source-packages/gcc-7.4.0-riscv-bsp-v5_1_0-branch/libgcc/soft-fp/subdf3.c:46 (discriminator 194)
20005ce4:	7ff00793          	li	a5,2047
20005ce8:	4afe8e63          	beq	t4,a5,200061a4 <__subdf3+0x518>
20005cec:	01d81893          	slli	a7,a6,0x1d
20005cf0:	00355513          	srli	a0,a0,0x3
/cygdrive/d/Jenkins/workspace/build-system-3/source-packages/gcc-7.4.0-riscv-bsp-v5_1_0-branch/libgcc/soft-fp/subdf3.c:47
20005cf4:	7ff00693          	li	a3,2047
20005cf8:	00a8e8b3          	or	a7,a7,a0
20005cfc:	00385713          	srli	a4,a6,0x3
20005d00:	12de9e63          	bne	t4,a3,20005e3c <__subdf3+0x1b0>
/cygdrive/d/Jenkins/workspace/build-system-3/source-packages/gcc-7.4.0-riscv-bsp-v5_1_0-branch/libgcc/soft-fp/subdf3.c:47 (discriminator 64)
20005d04:	00e8e733          	or	a4,a7,a4
20005d08:	60070263          	beqz	a4,2000630c <__subdf3+0x680>
20005d0c:	4681                	c.li	a3,0
20005d0e:	7ff00793          	li	a5,2047
20005d12:	00080737          	lui	a4,0x80
/cygdrive/d/Jenkins/workspace/build-system-3/source-packages/gcc-7.4.0-riscv-bsp-v5_1_0-branch/libgcc/soft-fp/subdf3.c:47
20005d16:	4881                	c.li	a7,0
/cygdrive/d/Jenkins/workspace/build-system-3/source-packages/gcc-7.4.0-riscv-bsp-v5_1_0-branch/libgcc/soft-fp/subdf3.c:47 (discriminator 74)
20005d18:	4581                	c.li	a1,0
20005d1a:	fff00637          	lui	a2,0xfff00
20005d1e:	8e6d                	c.and	a2,a1
20005d20:	4c07275b          	bfoz	a4,a4,19,0
20005d24:	8f51                	c.or	a4,a2
20005d26:	01479613          	slli	a2,a5,0x14
20005d2a:	801007b7          	lui	a5,0x80100
20005d2e:	17fd                	c.addi	a5,-1
20005d30:	8ff9                	c.and	a5,a4
20005d32:	8fd1                	c.or	a5,a2
20005d34:	06fe                	c.slli	a3,0x1f
20005d36:	7807a7db          	bfoz	a5,a5,30,0
20005d3a:	8546                	c.mv	a0,a7
20005d3c:	00d7e5b3          	or	a1,a5,a3
/cygdrive/d/Jenkins/workspace/build-system-3/source-packages/gcc-7.4.0-riscv-bsp-v5_1_0-branch/libgcc/soft-fp/subdf3.c:48 (discriminator 74)
20005d40:	32031263          	bnez	t1,20006064 <__subdf3+0x3d8>
/cygdrive/d/Jenkins/workspace/build-system-3/source-packages/gcc-7.4.0-riscv-bsp-v5_1_0-branch/libgcc/soft-fp/subdf3.c:51
20005d44:	00008067          	ret
/cygdrive/d/Jenkins/workspace/build-system-3/source-packages/gcc-7.4.0-riscv-bsp-v5_1_0-branch/libgcc/soft-fp/subdf3.c:46 (discriminator 2)
20005d48:	00c7e733          	or	a4,a5,a2
20005d4c:	f6070ee3          	beqz	a4,20005cc8 <__subdf3+0x3c>
20005d50:	406f8eb3          	sub	t4,t6,t1
/cygdrive/d/Jenkins/workspace/build-system-3/source-packages/gcc-7.4.0-riscv-bsp-v5_1_0-branch/libgcc/soft-fp/subdf3.c:46
20005d54:	f8b690e3          	bne	a3,a1,20005cd4 <__subdf3+0x48>
/cygdrive/d/Jenkins/workspace/build-system-3/source-packages/gcc-7.4.0-riscv-bsp-v5_1_0-branch/libgcc/soft-fp/subdf3.c:46 (discriminator 12)
20005d58:	2dd05a63          	blez	t4,2000602c <__subdf3+0x3a0>
/cygdrive/d/Jenkins/workspace/build-system-3/source-packages/gcc-7.4.0-riscv-bsp-v5_1_0-branch/libgcc/soft-fp/subdf3.c:46 (discriminator 14)
20005d5c:	12031663          	bnez	t1,20005e88 <__subdf3+0x1fc>
/cygdrive/d/Jenkins/workspace/build-system-3/source-packages/gcc-7.4.0-riscv-bsp-v5_1_0-branch/libgcc/soft-fp/subdf3.c:46 (discriminator 16)
20005d60:	00c7e733          	or	a4,a5,a2
20005d64:	d341                	c.beqz	a4,20005ce4 <__subdf3+0x58>
/cygdrive/d/Jenkins/workspace/build-system-3/source-packages/gcc-7.4.0-riscv-bsp-v5_1_0-branch/libgcc/soft-fp/subdf3.c:46 (discriminator 19)
20005d66:	fffe8713          	addi	a4,t4,-1
20005d6a:	58071163          	bnez	a4,200062ec <__subdf3+0x660>
/cygdrive/d/Jenkins/workspace/build-system-3/source-packages/gcc-7.4.0-riscv-bsp-v5_1_0-branch/libgcc/soft-fp/subdf3.c:46 (discriminator 28)
20005d6e:	00c508b3          	add	a7,a0,a2
20005d72:	97c2                	c.add	a5,a6
20005d74:	00a8b533          	sltu	a0,a7,a0
20005d78:	97aa                	c.add	a5,a0
20005d7a:	4e09                	c.li	t3,2
/cygdrive/d/Jenkins/workspace/build-system-3/source-packages/gcc-7.4.0-riscv-bsp-v5_1_0-branch/libgcc/soft-fp/subdf3.c:44 (discriminator 28)
20005d7c:	00100f93          	li	t6,1
/cygdrive/d/Jenkins/workspace/build-system-3/source-packages/gcc-7.4.0-riscv-bsp-v5_1_0-branch/libgcc/soft-fp/subdf3.c:46 (discriminator 28)
20005d80:	2977f65b          	bbc	a5,23,2000600c <__subdf3+0x380>
/cygdrive/d/Jenkins/workspace/build-system-3/source-packages/gcc-7.4.0-riscv-bsp-v5_1_0-branch/libgcc/soft-fp/subdf3.c:46
20005d84:	ff800737          	lui	a4,0xff800
20005d88:	177d                	c.addi	a4,-1
20005d8a:	8ff9                	c.and	a5,a4
20005d8c:	0018d713          	srli	a4,a7,0x1
20005d90:	0018f893          	andi	a7,a7,1
20005d94:	011768b3          	or	a7,a4,a7
20005d98:	01f79713          	slli	a4,a5,0x1f
20005d9c:	011768b3          	or	a7,a4,a7
20005da0:	8385                	c.srli	a5,0x1
20005da2:	0078f713          	andi	a4,a7,7
20005da6:	4301                	c.li	t1,0
20005da8:	00000e93          	li	t4,0
/cygdrive/d/Jenkins/workspace/build-system-3/source-packages/gcc-7.4.0-riscv-bsp-v5_1_0-branch/libgcc/soft-fp/subdf3.c:47 (discriminator 28)
20005dac:	0c070ee3          	beqz	a4,20006688 <__subdf3+0x9fc>
/cygdrive/d/Jenkins/workspace/build-system-3/source-packages/gcc-7.4.0-riscv-bsp-v5_1_0-branch/libgcc/soft-fp/subdf3.c:47 (discriminator 29)
20005db0:	322f5e5b          	beqc	t5,2,200060ec <__subdf3+0x460>
20005db4:	343f545b          	beqc	t5,3,200060fc <__subdf3+0x470>
20005db8:	300f0063          	beqz	t5,200060b8 <__subdf3+0x42c>
20005dbc:	00800737          	lui	a4,0x800
20005dc0:	00f77733          	and	a4,a4,a5
/cygdrive/d/Jenkins/workspace/build-system-3/source-packages/gcc-7.4.0-riscv-bsp-v5_1_0-branch/libgcc/soft-fp/subdf3.c:47
20005dc4:	0a030ee3          	beqz	t1,20006680 <__subdf3+0x9f4>
/cygdrive/d/Jenkins/workspace/build-system-3/source-packages/gcc-7.4.0-riscv-bsp-v5_1_0-branch/libgcc/soft-fp/subdf3.c:47 (discriminator 44)
20005dc8:	00236313          	ori	t1,t1,2
/cygdrive/d/Jenkins/workspace/build-system-3/source-packages/gcc-7.4.0-riscv-bsp-v5_1_0-branch/libgcc/soft-fp/subdf3.c:47 (discriminator 46)
20005dcc:	0a0704e3          	beqz	a4,20006674 <__subdf3+0x9e8>
/cygdrive/d/Jenkins/workspace/build-system-3/source-packages/gcc-7.4.0-riscv-bsp-v5_1_0-branch/libgcc/soft-fp/subdf3.c:47 (discriminator 47)
20005dd0:	001e0613          	addi	a2,t3,1
20005dd4:	7ff00713          	li	a4,2047
20005dd8:	2ce60463          	beq	a2,a4,200060a0 <__subdf3+0x414>
/cygdrive/d/Jenkins/workspace/build-system-3/source-packages/gcc-7.4.0-riscv-bsp-v5_1_0-branch/libgcc/soft-fp/subdf3.c:47
20005ddc:	ff800737          	lui	a4,0xff800
20005de0:	177d                	c.addi	a4,-1
20005de2:	8f7d                	c.and	a4,a5
20005de4:	01d71513          	slli	a0,a4,0x1d
20005de8:	0038d893          	srli	a7,a7,0x3
20005dec:	011568b3          	or	a7,a0,a7
20005df0:	5837275b          	bfoz	a4,a4,22,3
20005df4:	7ff67793          	andi	a5,a2,2047
20005df8:	0015f693          	andi	a3,a1,1
20005dfc:	f1dff06f          	j	20005d18 <__subdf3+0x8c>
/cygdrive/d/Jenkins/workspace/build-system-3/source-packages/gcc-7.4.0-riscv-bsp-v5_1_0-branch/libgcc/soft-fp/subdf3.c:46 (discriminator 191)
20005e00:	1a0e9063          	bnez	t4,20005fa0 <__subdf3+0x314>
/cygdrive/d/Jenkins/workspace/build-system-3/source-packages/gcc-7.4.0-riscv-bsp-v5_1_0-branch/libgcc/soft-fp/subdf3.c:46 (discriminator 243)
20005e04:	001f8713          	addi	a4,t6,1
20005e08:	7ff77713          	andi	a4,a4,2047
20005e0c:	4885                	c.li	a7,1
20005e0e:	36e8d963          	bge	a7,a4,20006180 <__subdf3+0x4f4>
/cygdrive/d/Jenkins/workspace/build-system-3/source-packages/gcc-7.4.0-riscv-bsp-v5_1_0-branch/libgcc/soft-fp/subdf3.c:46 (discriminator 295)
20005e12:	40c508b3          	sub	a7,a0,a2
20005e16:	40f80333          	sub	t1,a6,a5
20005e1a:	01153733          	sltu	a4,a0,a7
20005e1e:	40e30333          	sub	t1,t1,a4
20005e22:	0173745b          	bbc	t1,23,20005e2a <__subdf3+0x19e>
20005e26:	3ca0006f          	j	200061f0 <__subdf3+0x564>
/cygdrive/d/Jenkins/workspace/build-system-3/source-packages/gcc-7.4.0-riscv-bsp-v5_1_0-branch/libgcc/soft-fp/subdf3.c:46 (discriminator 336)
20005e2a:	0068e733          	or	a4,a7,t1
20005e2e:	e379                	c.bnez	a4,20005ef4 <__subdf3+0x268>
/cygdrive/d/Jenkins/workspace/build-system-3/source-packages/gcc-7.4.0-riscv-bsp-v5_1_0-branch/libgcc/soft-fp/subdf3.c:46 (discriminator 337)
20005e30:	ffef0593          	addi	a1,t5,-2
20005e34:	0015b593          	seqz	a1,a1
20005e38:	4881                	c.li	a7,0
20005e3a:	4301                	c.li	t1,0
20005e3c:	4c07275b          	bfoz	a4,a4,19,0
20005e40:	7ffef793          	andi	a5,t4,2047
20005e44:	0015f693          	andi	a3,a1,1
20005e48:	ed1ff06f          	j	20005d18 <__subdf3+0x8c>
/cygdrive/d/Jenkins/workspace/build-system-3/source-packages/gcc-7.4.0-riscv-bsp-v5_1_0-branch/libgcc/soft-fp/subdf3.c:46 (discriminator 193)
20005e4c:	008006b7          	lui	a3,0x800
20005e50:	7ff00713          	li	a4,2047
20005e54:	00d7e7b3          	or	a5,a5,a3
20005e58:	1cef8063          	beq	t6,a4,20006018 <__subdf3+0x38c>
/cygdrive/d/Jenkins/workspace/build-system-3/source-packages/gcc-7.4.0-riscv-bsp-v5_1_0-branch/libgcc/soft-fp/subdf3.c:46 (discriminator 223)
20005e5c:	03800713          	li	a4,56
20005e60:	21d74663          	blt	a4,t4,2000606c <__subdf3+0x3e0>
/cygdrive/d/Jenkins/workspace/build-system-3/source-packages/gcc-7.4.0-riscv-bsp-v5_1_0-branch/libgcc/soft-fp/subdf3.c:46 (discriminator 224)
20005e64:	477d                	c.li	a4,31
20005e66:	3fd75363          	bge	a4,t4,2000624c <__subdf3+0x5c0>
/cygdrive/d/Jenkins/workspace/build-system-3/source-packages/gcc-7.4.0-riscv-bsp-v5_1_0-branch/libgcc/soft-fp/subdf3.c:46 (discriminator 227)
20005e6a:	01d7d8b3          	srl	a7,a5,t4
20005e6e:	000ed7db          	beqc	t4,32,20005e7c <__subdf3+0x1f0>
/cygdrive/d/Jenkins/workspace/build-system-3/source-packages/gcc-7.4.0-riscv-bsp-v5_1_0-branch/libgcc/soft-fp/subdf3.c:46 (discriminator 234)
20005e72:	41d00eb3          	neg	t4,t4
20005e76:	01d797b3          	sll	a5,a5,t4
20005e7a:	8e5d                	c.or	a2,a5
/cygdrive/d/Jenkins/workspace/build-system-3/source-packages/gcc-7.4.0-riscv-bsp-v5_1_0-branch/libgcc/soft-fp/subdf3.c:46 (discriminator 237)
20005e7c:	00c03633          	snez	a2,a2
20005e80:	011668b3          	or	a7,a2,a7
20005e84:	1f00006f          	j	20006074 <__subdf3+0x3e8>
/cygdrive/d/Jenkins/workspace/build-system-3/source-packages/gcc-7.4.0-riscv-bsp-v5_1_0-branch/libgcc/soft-fp/subdf3.c:46 (discriminator 17)
20005e88:	008008b7          	lui	a7,0x800
20005e8c:	7ff00713          	li	a4,2047
20005e90:	0117e7b3          	or	a5,a5,a7
20005e94:	50ef8063          	beq	t6,a4,20006394 <__subdf3+0x708>
/cygdrive/d/Jenkins/workspace/build-system-3/source-packages/gcc-7.4.0-riscv-bsp-v5_1_0-branch/libgcc/soft-fp/subdf3.c:46 (discriminator 50)
20005e98:	03800713          	li	a4,56
20005e9c:	37d74463          	blt	a4,t4,20006204 <__subdf3+0x578>
/cygdrive/d/Jenkins/workspace/build-system-3/source-packages/gcc-7.4.0-riscv-bsp-v5_1_0-branch/libgcc/soft-fp/subdf3.c:46 (discriminator 51)
20005ea0:	477d                	c.li	a4,31
20005ea2:	55d74f63          	blt	a4,t4,20006400 <__subdf3+0x774>
/cygdrive/d/Jenkins/workspace/build-system-3/source-packages/gcc-7.4.0-riscv-bsp-v5_1_0-branch/libgcc/soft-fp/subdf3.c:46 (discriminator 53)
20005ea6:	02000713          	li	a4,32
20005eaa:	41d70733          	sub	a4,a4,t4
20005eae:	00e798b3          	sll	a7,a5,a4
20005eb2:	01d65333          	srl	t1,a2,t4
20005eb6:	00e61633          	sll	a2,a2,a4
20005eba:	0068e8b3          	or	a7,a7,t1
20005ebe:	00c03633          	snez	a2,a2
20005ec2:	01d7d7b3          	srl	a5,a5,t4
20005ec6:	00c8e8b3          	or	a7,a7,a2
20005eca:	983e                	c.add	a6,a5
20005ecc:	3400006f          	j	2000620c <__subdf3+0x580>
/cygdrive/d/Jenkins/workspace/build-system-3/source-packages/gcc-7.4.0-riscv-bsp-v5_1_0-branch/libgcc/soft-fp/subdf3.c:46 (discriminator 195)
20005ed0:	fffe8313          	addi	t1,t4,-1
20005ed4:	2e031463          	bnez	t1,200061bc <__subdf3+0x530>
/cygdrive/d/Jenkins/workspace/build-system-3/source-packages/gcc-7.4.0-riscv-bsp-v5_1_0-branch/libgcc/soft-fp/subdf3.c:46 (discriminator 203)
20005ed8:	40c508b3          	sub	a7,a0,a2
20005edc:	40f807b3          	sub	a5,a6,a5
20005ee0:	01153533          	sltu	a0,a0,a7
20005ee4:	8f89                	c.sub	a5,a0
20005ee6:	4177f45b          	bbs	a5,23,20005eee <__subdf3+0x262>
20005eea:	40e0006f          	j	200062f8 <__subdf3+0x66c>
/cygdrive/d/Jenkins/workspace/build-system-3/source-packages/gcc-7.4.0-riscv-bsp-v5_1_0-branch/libgcc/soft-fp/subdf3.c:46
20005eee:	4f85                	c.li	t6,1
/cygdrive/d/Jenkins/workspace/build-system-3/source-packages/gcc-7.4.0-riscv-bsp-v5_1_0-branch/libgcc/soft-fp/subdf3.c:46 (discriminator 338)
20005ef0:	5807a35b          	bfoz	t1,a5,22,0
/cygdrive/d/Jenkins/workspace/build-system-3/source-packages/gcc-7.4.0-riscv-bsp-v5_1_0-branch/libgcc/soft-fp/subdf3.c:46 (discriminator 339)
20005ef4:	af9306ff          	clz32	a3,t1
20005ef8:	00031663          	bnez	t1,20005f04 <__subdf3+0x278>
/cygdrive/d/Jenkins/workspace/build-system-3/source-packages/gcc-7.4.0-riscv-bsp-v5_1_0-branch/libgcc/soft-fp/subdf3.c:46 (discriminator 346)
20005efc:	af9886ff          	clz32	a3,a7
20005f00:	02068693          	addi	a3,a3,32 # 800020 <FLASH_SIZE+0x700020>
/cygdrive/d/Jenkins/workspace/build-system-3/source-packages/gcc-7.4.0-riscv-bsp-v5_1_0-branch/libgcc/soft-fp/subdf3.c:46 (discriminator 353)
20005f04:	ff868513          	addi	a0,a3,-8
20005f08:	01f00793          	li	a5,31
20005f0c:	20a7ce63          	blt	a5,a0,20006128 <__subdf3+0x49c>
/cygdrive/d/Jenkins/workspace/build-system-3/source-packages/gcc-7.4.0-riscv-bsp-v5_1_0-branch/libgcc/soft-fp/subdf3.c:46 (discriminator 354)
20005f10:	40a007b3          	neg	a5,a0
20005f14:	00f8d7b3          	srl	a5,a7,a5
20005f18:	00a31333          	sll	t1,t1,a0
20005f1c:	0067e7b3          	or	a5,a5,t1
20005f20:	00a898b3          	sll	a7,a7,a0
/cygdrive/d/Jenkins/workspace/build-system-3/source-packages/gcc-7.4.0-riscv-bsp-v5_1_0-branch/libgcc/soft-fp/subdf3.c:46 (discriminator 363)
20005f24:	1ff54663          	blt	a0,t6,20006110 <__subdf3+0x484>
/cygdrive/d/Jenkins/workspace/build-system-3/source-packages/gcc-7.4.0-riscv-bsp-v5_1_0-branch/libgcc/soft-fp/subdf3.c:46 (discriminator 364)
20005f28:	41f50fb3          	sub	t6,a0,t6
20005f2c:	001f8713          	addi	a4,t6,1
20005f30:	46fd                	c.li	a3,31
20005f32:	28e6cb63          	blt	a3,a4,200061c8 <__subdf3+0x53c>
/cygdrive/d/Jenkins/workspace/build-system-3/source-packages/gcc-7.4.0-riscv-bsp-v5_1_0-branch/libgcc/soft-fp/subdf3.c:46 (discriminator 366)
20005f36:	02000693          	li	a3,32
20005f3a:	8e99                	c.sub	a3,a4
20005f3c:	00e8d633          	srl	a2,a7,a4
20005f40:	00d898b3          	sll	a7,a7,a3
20005f44:	00d796b3          	sll	a3,a5,a3
20005f48:	00c6e6b3          	or	a3,a3,a2
20005f4c:	011038b3          	snez	a7,a7
20005f50:	0116e8b3          	or	a7,a3,a7
20005f54:	00e7d7b3          	srl	a5,a5,a4
20005f58:	00f8e733          	or	a4,a7,a5
/cygdrive/d/Jenkins/workspace/build-system-3/source-packages/gcc-7.4.0-riscv-bsp-v5_1_0-branch/libgcc/soft-fp/subdf3.c:47 (discriminator 1)
20005f5c:	12070663          	beqz	a4,20006088 <__subdf3+0x3fc>
20005f60:	0078f713          	andi	a4,a7,7
/cygdrive/d/Jenkins/workspace/build-system-3/source-packages/gcc-7.4.0-riscv-bsp-v5_1_0-branch/libgcc/soft-fp/subdf3.c:47
20005f64:	00189693          	slli	a3,a7,0x1
20005f68:	01f8d313          	srli	t1,a7,0x1f
20005f6c:	0076f613          	andi	a2,a3,7
20005f70:	0af3035b          	lea.h	t1,t1,a5
20005f74:	4e81                	c.li	t4,0
20005f76:	ce09                	c.beqz	a2,20005f90 <__subdf3+0x304>
/cygdrive/d/Jenkins/workspace/build-system-3/source-packages/gcc-7.4.0-riscv-bsp-v5_1_0-branch/libgcc/soft-fp/subdf3.c:47 (discriminator 13)
20005f78:	002f645b          	bnec	t5,2,20005f80 <__subdf3+0x2f4>
20005f7c:	4380006f          	j	200063b4 <__subdf3+0x728>
20005f80:	003f645b          	bnec	t5,3,20005f88 <__subdf3+0x2fc>
20005f84:	41c0006f          	j	200063a0 <__subdf3+0x714>
20005f88:	00100e93          	li	t4,1
20005f8c:	380f0263          	beqz	t5,20006310 <__subdf3+0x684>
/cygdrive/d/Jenkins/workspace/build-system-3/source-packages/gcc-7.4.0-riscv-bsp-v5_1_0-branch/libgcc/soft-fp/subdf3.c:47 (discriminator 21)
20005f90:	01835313          	srli	t1,t1,0x18
20005f94:	00134313          	xori	t1,t1,1
20005f98:	00137313          	andi	t1,t1,1
20005f9c:	4e01                	c.li	t3,0
20005f9e:	b539                	c.j	20005dac <__subdf3+0x120>
/cygdrive/d/Jenkins/workspace/build-system-3/source-packages/gcc-7.4.0-riscv-bsp-v5_1_0-branch/libgcc/soft-fp/subdf3.c:46 (discriminator 242)
20005fa0:	2c0f8c63          	beqz	t6,20006278 <__subdf3+0x5ec>
/cygdrive/d/Jenkins/workspace/build-system-3/source-packages/gcc-7.4.0-riscv-bsp-v5_1_0-branch/libgcc/soft-fp/subdf3.c:46 (discriminator 245)
20005fa4:	7ff00713          	li	a4,2047
20005fa8:	4ee30063          	beq	t1,a4,20006488 <__subdf3+0x7fc>
/cygdrive/d/Jenkins/workspace/build-system-3/source-packages/gcc-7.4.0-riscv-bsp-v5_1_0-branch/libgcc/soft-fp/subdf3.c:46 (discriminator 267)
20005fac:	00800737          	lui	a4,0x800
20005fb0:	41d00eb3          	neg	t4,t4
20005fb4:	00e86833          	or	a6,a6,a4
/cygdrive/d/Jenkins/workspace/build-system-3/source-packages/gcc-7.4.0-riscv-bsp-v5_1_0-branch/libgcc/soft-fp/subdf3.c:46 (discriminator 275)
20005fb8:	03800713          	li	a4,56
20005fbc:	51d74063          	blt	a4,t4,200064bc <__subdf3+0x830>
/cygdrive/d/Jenkins/workspace/build-system-3/source-packages/gcc-7.4.0-riscv-bsp-v5_1_0-branch/libgcc/soft-fp/subdf3.c:46 (discriminator 276)
20005fc0:	01f00713          	li	a4,31
20005fc4:	5bd74463          	blt	a4,t4,2000656c <__subdf3+0x8e0>
/cygdrive/d/Jenkins/workspace/build-system-3/source-packages/gcc-7.4.0-riscv-bsp-v5_1_0-branch/libgcc/soft-fp/subdf3.c:46 (discriminator 278)
20005fc8:	02000713          	li	a4,32
20005fcc:	41d70733          	sub	a4,a4,t4
20005fd0:	00e818b3          	sll	a7,a6,a4
20005fd4:	01d555b3          	srl	a1,a0,t4
20005fd8:	00e51733          	sll	a4,a0,a4
20005fdc:	00b8e8b3          	or	a7,a7,a1
20005fe0:	00e03733          	snez	a4,a4
20005fe4:	01d85eb3          	srl	t4,a6,t4
20005fe8:	00e8e8b3          	or	a7,a7,a4
20005fec:	41d787b3          	sub	a5,a5,t4
/cygdrive/d/Jenkins/workspace/build-system-3/source-packages/gcc-7.4.0-riscv-bsp-v5_1_0-branch/libgcc/soft-fp/subdf3.c:46 (discriminator 292)
20005ff0:	411608b3          	sub	a7,a2,a7
20005ff4:	01163633          	sltu	a2,a2,a7
20005ff8:	8f91                	c.sub	a5,a2
/cygdrive/d/Jenkins/workspace/build-system-3/source-packages/gcc-7.4.0-riscv-bsp-v5_1_0-branch/libgcc/soft-fp/subdf3.c:45 (discriminator 292)
20005ffa:	8f9a                	c.mv	t6,t1
20005ffc:	00d005b3          	add	a1,zero,a3
/cygdrive/d/Jenkins/workspace/build-system-3/source-packages/gcc-7.4.0-riscv-bsp-v5_1_0-branch/libgcc/soft-fp/subdf3.c:46 (discriminator 292)
20006000:	ef77f85b          	bbs	a5,23,20005ef0 <__subdf3+0x264>
20006004:	00f8e733          	or	a4,a7,a5
/cygdrive/d/Jenkins/workspace/build-system-3/source-packages/gcc-7.4.0-riscv-bsp-v5_1_0-branch/libgcc/soft-fp/subdf3.c:47
20006008:	f40f8ae3          	beqz	t6,20005f5c <__subdf3+0x2d0>
2000600c:	0078f713          	andi	a4,a7,7
20006010:	8e7e                	c.mv	t3,t6
20006012:	4301                	c.li	t1,0
20006014:	4e81                	c.li	t4,0
20006016:	bb59                	c.j	20005dac <__subdf3+0x120>
/cygdrive/d/Jenkins/workspace/build-system-3/source-packages/gcc-7.4.0-riscv-bsp-v5_1_0-branch/libgcc/soft-fp/subdf3.c:46 (discriminator 216)
20006018:	00a867b3          	or	a5,a6,a0
2000601c:	26078e63          	beqz	a5,20006298 <__subdf3+0x60c>
/cygdrive/d/Jenkins/workspace/build-system-3/source-packages/gcc-7.4.0-riscv-bsp-v5_1_0-branch/libgcc/soft-fp/subdf3.c:46 (discriminator 218)
20006020:	7ff00e93          	li	t4,2047
20006024:	6b68785b          	bbs	a6,22,200062d4 <__subdf3+0x648>
/cygdrive/d/Jenkins/workspace/build-system-3/source-packages/gcc-7.4.0-riscv-bsp-v5_1_0-branch/libgcc/soft-fp/subdf3.c:46
20006028:	4341                	c.li	t1,16
2000602a:	b1c9                	c.j	20005cec <__subdf3+0x60>
/cygdrive/d/Jenkins/workspace/build-system-3/source-packages/gcc-7.4.0-riscv-bsp-v5_1_0-branch/libgcc/soft-fp/subdf3.c:46 (discriminator 15)
2000602c:	320e9c63          	bnez	t4,20006364 <__subdf3+0x6d8>
/cygdrive/d/Jenkins/workspace/build-system-3/source-packages/gcc-7.4.0-riscv-bsp-v5_1_0-branch/libgcc/soft-fp/subdf3.c:46 (discriminator 70)
20006030:	001f8e13          	addi	t3,t6,1
20006034:	7ffe7893          	andi	a7,t3,2047
20006038:	4705                	c.li	a4,1
2000603a:	39175763          	bge	a4,a7,200063c8 <__subdf3+0x73c>
/cygdrive/d/Jenkins/workspace/build-system-3/source-packages/gcc-7.4.0-riscv-bsp-v5_1_0-branch/libgcc/soft-fp/subdf3.c:46 (discriminator 125)
2000603e:	7ff00713          	li	a4,2047
20006042:	2eee0363          	beq	t3,a4,20006328 <__subdf3+0x69c>
/cygdrive/d/Jenkins/workspace/build-system-3/source-packages/gcc-7.4.0-riscv-bsp-v5_1_0-branch/libgcc/soft-fp/subdf3.c:46
20006046:	962a                	c.add	a2,a0
20006048:	00a63533          	sltu	a0,a2,a0
2000604c:	97c2                	c.add	a5,a6
2000604e:	97aa                	c.add	a5,a0
20006050:	01f79893          	slli	a7,a5,0x1f
20006054:	8205                	c.srli	a2,0x1
20006056:	00c8e8b3          	or	a7,a7,a2
2000605a:	8385                	c.srli	a5,0x1
2000605c:	0078f713          	andi	a4,a7,7
20006060:	4301                	c.li	t1,0
20006062:	b3a9                	c.j	20005dac <__subdf3+0x120>
/cygdrive/d/Jenkins/workspace/build-system-3/source-packages/gcc-7.4.0-riscv-bsp-v5_1_0-branch/libgcc/soft-fp/subdf3.c:48 (discriminator 1)
20006064:	00132073          	csrs	fflags,t1
/cygdrive/d/Jenkins/workspace/build-system-3/source-packages/gcc-7.4.0-riscv-bsp-v5_1_0-branch/libgcc/soft-fp/subdf3.c:50 (discriminator 1)
20006068:	00008067          	ret
/cygdrive/d/Jenkins/workspace/build-system-3/source-packages/gcc-7.4.0-riscv-bsp-v5_1_0-branch/libgcc/soft-fp/subdf3.c:46 (discriminator 225)
2000606c:	00c7e7b3          	or	a5,a5,a2
20006070:	00f038b3          	snez	a7,a5
/cygdrive/d/Jenkins/workspace/build-system-3/source-packages/gcc-7.4.0-riscv-bsp-v5_1_0-branch/libgcc/soft-fp/subdf3.c:46 (discriminator 240)
20006074:	411508b3          	sub	a7,a0,a7
20006078:	011537b3          	sltu	a5,a0,a7
2000607c:	40f807b3          	sub	a5,a6,a5
20006080:	b977f25b          	bbc	a5,23,20006004 <__subdf3+0x378>
20006084:	e6dff06f          	j	20005ef0 <__subdf3+0x264>
20006088:	4e81                	c.li	t4,0
2000608a:	4881                	c.li	a7,0
2000608c:	4301                	c.li	t1,0
2000608e:	4c07275b          	bfoz	a4,a4,19,0
20006092:	7ffef793          	andi	a5,t4,2047
20006096:	0015f693          	andi	a3,a1,1
2000609a:	b9bd                	c.j	20005d18 <__subdf3+0x8c>
/cygdrive/d/Jenkins/workspace/build-system-3/source-packages/gcc-7.4.0-riscv-bsp-v5_1_0-branch/libgcc/soft-fp/subdf3.c:47
2000609c:	85b6                	c.mv	a1,a3
2000609e:	4315                	c.li	t1,5
/cygdrive/d/Jenkins/workspace/build-system-3/source-packages/gcc-7.4.0-riscv-bsp-v5_1_0-branch/libgcc/soft-fp/subdf3.c:47 (discriminator 49)
200060a0:	080f1a63          	bnez	t5,20006134 <__subdf3+0x4a8>
/cygdrive/d/Jenkins/workspace/build-system-3/source-packages/gcc-7.4.0-riscv-bsp-v5_1_0-branch/libgcc/soft-fp/subdf3.c:47
200060a4:	00536313          	ori	t1,t1,5
200060a8:	00b006b3          	add	a3,zero,a1
200060ac:	8a85                	c.andi	a3,1
200060ae:	7ff00793          	li	a5,2047
200060b2:	4701                	c.li	a4,0
200060b4:	4881                	c.li	a7,0
200060b6:	b18d                	c.j	20005d18 <__subdf3+0x8c>
200060b8:	00f8f713          	andi	a4,a7,15
200060bc:	00100813          	li	a6,1
200060c0:	8e475e5b          	beqc	a4,4,20005dbc <__subdf3+0x130>
/cygdrive/d/Jenkins/workspace/build-system-3/source-packages/gcc-7.4.0-riscv-bsp-v5_1_0-branch/libgcc/soft-fp/subdf3.c:47 (discriminator 36)
200060c4:	00488513          	addi	a0,a7,4 # 800004 <FLASH_SIZE+0x700004>
200060c8:	011538b3          	sltu	a7,a0,a7
200060cc:	97c6                	c.add	a5,a7
200060ce:	00800737          	lui	a4,0x800
200060d2:	869a                	c.mv	a3,t1
200060d4:	8f7d                	c.and	a4,a5
200060d6:	88aa                	c.mv	a7,a0
200060d8:	01000333          	add	t1,zero,a6
/cygdrive/d/Jenkins/workspace/build-system-3/source-packages/gcc-7.4.0-riscv-bsp-v5_1_0-branch/libgcc/soft-fp/subdf3.c:47 (discriminator 37)
200060dc:	ce0688e3          	beqz	a3,20005dcc <__subdf3+0x140>
/cygdrive/d/Jenkins/workspace/build-system-3/source-packages/gcc-7.4.0-riscv-bsp-v5_1_0-branch/libgcc/soft-fp/subdf3.c:47 (discriminator 42)
200060e0:	8e03765b          	bbc	t1,0,20005dcc <__subdf3+0x140>
/cygdrive/d/Jenkins/workspace/build-system-3/source-packages/gcc-7.4.0-riscv-bsp-v5_1_0-branch/libgcc/soft-fp/subdf3.c:47
200060e4:	00236313          	ori	t1,t1,2
200060e8:	ce5ff06f          	j	20005dcc <__subdf3+0x140>
/cygdrive/d/Jenkins/workspace/build-system-3/source-packages/gcc-7.4.0-riscv-bsp-v5_1_0-branch/libgcc/soft-fp/subdf3.c:47 (discriminator 34)
200060ec:	edb5                	c.bnez	a1,20006168 <__subdf3+0x4dc>
200060ee:	00800737          	lui	a4,0x800
/cygdrive/d/Jenkins/workspace/build-system-3/source-packages/gcc-7.4.0-riscv-bsp-v5_1_0-branch/libgcc/soft-fp/subdf3.c:47
200060f2:	869a                	c.mv	a3,t1
200060f4:	8f7d                	c.and	a4,a5
200060f6:	4305                	c.li	t1,1
200060f8:	fe5ff06f          	j	200060dc <__subdf3+0x450>
200060fc:	00100613          	li	a2,1
/cygdrive/d/Jenkins/workspace/build-system-3/source-packages/gcc-7.4.0-riscv-bsp-v5_1_0-branch/libgcc/soft-fp/subdf3.c:47 (discriminator 35)
20006100:	c9a1                	c.beqz	a1,20006150 <__subdf3+0x4c4>
20006102:	00800737          	lui	a4,0x800
/cygdrive/d/Jenkins/workspace/build-system-3/source-packages/gcc-7.4.0-riscv-bsp-v5_1_0-branch/libgcc/soft-fp/subdf3.c:47
20006106:	869a                	c.mv	a3,t1
20006108:	8f7d                	c.and	a4,a5
2000610a:	8332                	c.mv	t1,a2
2000610c:	fd1ff06f          	j	200060dc <__subdf3+0x450>
/cygdrive/d/Jenkins/workspace/build-system-3/source-packages/gcc-7.4.0-riscv-bsp-v5_1_0-branch/libgcc/soft-fp/subdf3.c:46 (discriminator 365)
20006110:	ff800737          	lui	a4,0xff800
20006114:	177d                	c.addi	a4,-1
20006116:	8ff9                	c.and	a5,a4
20006118:	40af8fb3          	sub	t6,t6,a0
2000611c:	00f8e733          	or	a4,a7,a5
/cygdrive/d/Jenkins/workspace/build-system-3/source-packages/gcc-7.4.0-riscv-bsp-v5_1_0-branch/libgcc/soft-fp/subdf3.c:47 (discriminator 365)
20006120:	e20f8ee3          	beqz	t6,20005f5c <__subdf3+0x2d0>
20006124:	ee9ff06f          	j	2000600c <__subdf3+0x380>
/cygdrive/d/Jenkins/workspace/build-system-3/source-packages/gcc-7.4.0-riscv-bsp-v5_1_0-branch/libgcc/soft-fp/subdf3.c:46 (discriminator 355)
20006128:	fd868793          	addi	a5,a3,-40
2000612c:	00f897b3          	sll	a5,a7,a5
20006130:	4881                	c.li	a7,0
20006132:	bbcd                	c.j	20005f24 <__subdf3+0x298>
/cygdrive/d/Jenkins/workspace/build-system-3/source-packages/gcc-7.4.0-riscv-bsp-v5_1_0-branch/libgcc/soft-fp/subdf3.c:47 (discriminator 52)
20006134:	283f545b          	beqc	t5,3,200063bc <__subdf3+0x730>
/cygdrive/d/Jenkins/workspace/build-system-3/source-packages/gcc-7.4.0-riscv-bsp-v5_1_0-branch/libgcc/soft-fp/subdf3.c:47 (discriminator 56)
20006138:	1c2f565b          	beqc	t5,2,20006304 <__subdf3+0x678>
/cygdrive/d/Jenkins/workspace/build-system-3/source-packages/gcc-7.4.0-riscv-bsp-v5_1_0-branch/libgcc/soft-fp/subdf3.c:47
2000613c:	00536313          	ori	t1,t1,5
20006140:	20000737          	lui	a4,0x20000
20006144:	58fd                	c.li	a7,-1
20006146:	177d                	c.addi	a4,-1
20006148:	7fe00e93          	li	t4,2046
2000614c:	cf1ff06f          	j	20005e3c <__subdf3+0x1b0>
/cygdrive/d/Jenkins/workspace/build-system-3/source-packages/gcc-7.4.0-riscv-bsp-v5_1_0-branch/libgcc/soft-fp/subdf3.c:47 (discriminator 39)
20006150:	00888513          	addi	a0,a7,8
20006154:	011538b3          	sltu	a7,a0,a7
20006158:	97c6                	c.add	a5,a7
2000615a:	00800737          	lui	a4,0x800
2000615e:	869a                	c.mv	a3,t1
20006160:	8f7d                	c.and	a4,a5
20006162:	88aa                	c.mv	a7,a0
20006164:	8332                	c.mv	t1,a2
20006166:	bf9d                	c.j	200060dc <__subdf3+0x450>
/cygdrive/d/Jenkins/workspace/build-system-3/source-packages/gcc-7.4.0-riscv-bsp-v5_1_0-branch/libgcc/soft-fp/subdf3.c:47 (discriminator 41)
20006168:	00888613          	addi	a2,a7,8
2000616c:	011638b3          	sltu	a7,a2,a7
20006170:	97c6                	c.add	a5,a7
20006172:	00800737          	lui	a4,0x800
20006176:	869a                	c.mv	a3,t1
20006178:	8f7d                	c.and	a4,a5
2000617a:	88b2                	c.mv	a7,a2
2000617c:	4305                	c.li	t1,1
2000617e:	bfb9                	c.j	200060dc <__subdf3+0x450>
20006180:	00a86733          	or	a4,a6,a0
20006184:	00c7e8b3          	or	a7,a5,a2
/cygdrive/d/Jenkins/workspace/build-system-3/source-packages/gcc-7.4.0-riscv-bsp-v5_1_0-branch/libgcc/soft-fp/subdf3.c:46 (discriminator 294)
20006188:	100f9c63          	bnez	t6,200062a0 <__subdf3+0x614>
/cygdrive/d/Jenkins/workspace/build-system-3/source-packages/gcc-7.4.0-riscv-bsp-v5_1_0-branch/libgcc/soft-fp/subdf3.c:46 (discriminator 296)
2000618c:	36071063          	bnez	a4,200064ec <__subdf3+0x860>
/cygdrive/d/Jenkins/workspace/build-system-3/source-packages/gcc-7.4.0-riscv-bsp-v5_1_0-branch/libgcc/soft-fp/subdf3.c:46 (discriminator 298)
20006190:	42089663          	bnez	a7,200065bc <__subdf3+0x930>
/cygdrive/d/Jenkins/workspace/build-system-3/source-packages/gcc-7.4.0-riscv-bsp-v5_1_0-branch/libgcc/soft-fp/subdf3.c:46 (discriminator 300)
20006194:	ffef0593          	addi	a1,t5,-2
20006198:	0015b593          	seqz	a1,a1
2000619c:	8776                	c.mv	a4,t4
2000619e:	4301                	c.li	t1,0
200061a0:	c9dff06f          	j	20005e3c <__subdf3+0x1b0>
/cygdrive/d/Jenkins/workspace/build-system-3/source-packages/gcc-7.4.0-riscv-bsp-v5_1_0-branch/libgcc/soft-fp/subdf3.c:46 (discriminator 196)
200061a4:	00a867b3          	or	a5,a6,a0
200061a8:	12078e63          	beqz	a5,200062e4 <__subdf3+0x658>
/cygdrive/d/Jenkins/workspace/build-system-3/source-packages/gcc-7.4.0-riscv-bsp-v5_1_0-branch/libgcc/soft-fp/subdf3.c:46 (discriminator 209)
200061ac:	00400337          	lui	t1,0x400
200061b0:	00687333          	and	t1,a6,t1
200061b4:	00133313          	seqz	t1,t1
200061b8:	0312                	c.slli	t1,0x4
200061ba:	be0d                	c.j	20005cec <__subdf3+0x60>
/cygdrive/d/Jenkins/workspace/build-system-3/source-packages/gcc-7.4.0-riscv-bsp-v5_1_0-branch/libgcc/soft-fp/subdf3.c:46 (discriminator 204)
200061bc:	7ff00713          	li	a4,2047
200061c0:	0cee8863          	beq	t4,a4,20006290 <__subdf3+0x604>
200061c4:	8e9a                	c.mv	t4,t1
200061c6:	b959                	c.j	20005e5c <__subdf3+0x1d0>
/cygdrive/d/Jenkins/workspace/build-system-3/source-packages/gcc-7.4.0-riscv-bsp-v5_1_0-branch/libgcc/soft-fp/subdf3.c:46 (discriminator 367)
200061c8:	fe1f8f93          	addi	t6,t6,-31
200061cc:	01f7d533          	srl	a0,a5,t6
200061d0:	000758db          	beqc	a4,32,200061e0 <__subdf3+0x554>
/cygdrive/d/Jenkins/workspace/build-system-3/source-packages/gcc-7.4.0-riscv-bsp-v5_1_0-branch/libgcc/soft-fp/subdf3.c:46 (discriminator 375)
200061d4:	40e00733          	neg	a4,a4
200061d8:	00e797b3          	sll	a5,a5,a4
200061dc:	00f8e8b3          	or	a7,a7,a5
/cygdrive/d/Jenkins/workspace/build-system-3/source-packages/gcc-7.4.0-riscv-bsp-v5_1_0-branch/libgcc/soft-fp/subdf3.c:46 (discriminator 378)
200061e0:	011038b3          	snez	a7,a7
200061e4:	00a8e8b3          	or	a7,a7,a0
200061e8:	8746                	c.mv	a4,a7
200061ea:	4781                	c.li	a5,0
200061ec:	d71ff06f          	j	20005f5c <__subdf3+0x2d0>
/cygdrive/d/Jenkins/workspace/build-system-3/source-packages/gcc-7.4.0-riscv-bsp-v5_1_0-branch/libgcc/soft-fp/subdf3.c:46 (discriminator 335)
200061f0:	40a608b3          	sub	a7,a2,a0
200061f4:	410787b3          	sub	a5,a5,a6
200061f8:	01163633          	sltu	a2,a2,a7
200061fc:	40c78333          	sub	t1,a5,a2
20006200:	85b6                	c.mv	a1,a3
20006202:	b9cd                	c.j	20005ef4 <__subdf3+0x268>
/cygdrive/d/Jenkins/workspace/build-system-3/source-packages/gcc-7.4.0-riscv-bsp-v5_1_0-branch/libgcc/soft-fp/subdf3.c:46 (discriminator 52)
20006204:	00c7e7b3          	or	a5,a5,a2
20006208:	00f038b3          	snez	a7,a5
/cygdrive/d/Jenkins/workspace/build-system-3/source-packages/gcc-7.4.0-riscv-bsp-v5_1_0-branch/libgcc/soft-fp/subdf3.c:46 (discriminator 67)
2000620c:	98aa                	c.add	a7,a0
2000620e:	00a8b7b3          	sltu	a5,a7,a0
20006212:	97c2                	c.add	a5,a6
/cygdrive/d/Jenkins/workspace/build-system-3/source-packages/gcc-7.4.0-riscv-bsp-v5_1_0-branch/libgcc/soft-fp/subdf3.c:46 (discriminator 123)
20006214:	9f77f85b          	bbc	a5,23,20006004 <__subdf3+0x378>
/cygdrive/d/Jenkins/workspace/build-system-3/source-packages/gcc-7.4.0-riscv-bsp-v5_1_0-branch/libgcc/soft-fp/subdf3.c:46 (discriminator 173)
20006218:	001f8e13          	addi	t3,t6,1
2000621c:	7ff00713          	li	a4,2047
20006220:	b6ee12e3          	bne	t3,a4,20005d84 <__subdf3+0xf8>
/cygdrive/d/Jenkins/workspace/build-system-3/source-packages/gcc-7.4.0-riscv-bsp-v5_1_0-branch/libgcc/soft-fp/subdf3.c:46 (discriminator 175)
20006224:	120f0e63          	beqz	t5,20006360 <__subdf3+0x6d4>
/cygdrive/d/Jenkins/workspace/build-system-3/source-packages/gcc-7.4.0-riscv-bsp-v5_1_0-branch/libgcc/soft-fp/subdf3.c:46 (discriminator 178)
20006228:	003f645b          	bnec	t5,3,20006230 <__subdf3+0x5a4>
2000622c:	3f80006f          	j	20006624 <__subdf3+0x998>
/cygdrive/d/Jenkins/workspace/build-system-3/source-packages/gcc-7.4.0-riscv-bsp-v5_1_0-branch/libgcc/soft-fp/subdf3.c:46 (discriminator 182)
20006230:	122f565b          	beqc	t5,2,2000635c <__subdf3+0x6d0>
/cygdrive/d/Jenkins/workspace/build-system-3/source-packages/gcc-7.4.0-riscv-bsp-v5_1_0-branch/libgcc/soft-fp/subdf3.c:47
20006234:	420f0863          	beqz	t5,20006664 <__subdf3+0x9d8>
20006238:	a63f625b          	bnec	t5,3,2000609c <__subdf3+0x410>
2000623c:	57fd                	c.li	a5,-1
2000623e:	58fd                	c.li	a7,-1
20006240:	7fe00e13          	li	t3,2046
20006244:	4301                	c.li	t1,0
20006246:	4615                	c.li	a2,5
20006248:	eb9ff06f          	j	20006100 <__subdf3+0x474>
/cygdrive/d/Jenkins/workspace/build-system-3/source-packages/gcc-7.4.0-riscv-bsp-v5_1_0-branch/libgcc/soft-fp/subdf3.c:46 (discriminator 226)
2000624c:	02000713          	li	a4,32
20006250:	41d70733          	sub	a4,a4,t4
20006254:	00e798b3          	sll	a7,a5,a4
20006258:	01d656b3          	srl	a3,a2,t4
2000625c:	00e61633          	sll	a2,a2,a4
20006260:	00d8e8b3          	or	a7,a7,a3
20006264:	00c03633          	snez	a2,a2
20006268:	01d7d7b3          	srl	a5,a5,t4
2000626c:	00c8e8b3          	or	a7,a7,a2
20006270:	40f80833          	sub	a6,a6,a5
20006274:	e01ff06f          	j	20006074 <__subdf3+0x3e8>
/cygdrive/d/Jenkins/workspace/build-system-3/source-packages/gcc-7.4.0-riscv-bsp-v5_1_0-branch/libgcc/soft-fp/subdf3.c:46 (discriminator 244)
20006278:	00a86733          	or	a4,a6,a0
2000627c:	1e071c63          	bnez	a4,20006474 <__subdf3+0x7e8>
/cygdrive/d/Jenkins/workspace/build-system-3/source-packages/gcc-7.4.0-riscv-bsp-v5_1_0-branch/libgcc/soft-fp/subdf3.c:46 (discriminator 246)
20006280:	7ff00713          	li	a4,2047
20006284:	04e30a63          	beq	t1,a4,200062d8 <__subdf3+0x64c>
/cygdrive/d/Jenkins/workspace/build-system-3/source-packages/gcc-7.4.0-riscv-bsp-v5_1_0-branch/libgcc/soft-fp/subdf3.c:45
20006288:	88b2                	c.mv	a7,a2
2000628a:	8f9a                	c.mv	t6,t1
2000628c:	85b6                	c.mv	a1,a3
2000628e:	bb9d                	c.j	20006004 <__subdf3+0x378>
/cygdrive/d/Jenkins/workspace/build-system-3/source-packages/gcc-7.4.0-riscv-bsp-v5_1_0-branch/libgcc/soft-fp/subdf3.c:46 (discriminator 207)
20006290:	00a867b3          	or	a5,a6,a0
20006294:	f0079ce3          	bnez	a5,200061ac <__subdf3+0x520>
20006298:	86ae                	c.mv	a3,a1
/cygdrive/d/Jenkins/workspace/build-system-3/source-packages/gcc-7.4.0-riscv-bsp-v5_1_0-branch/libgcc/soft-fp/subdf3.c:37
2000629a:	4301                	c.li	t1,0
2000629c:	e11ff06f          	j	200060ac <__subdf3+0x420>
/cygdrive/d/Jenkins/workspace/build-system-3/source-packages/gcc-7.4.0-riscv-bsp-v5_1_0-branch/libgcc/soft-fp/subdf3.c:46 (discriminator 297)
200062a0:	7ff00e13          	li	t3,2047
200062a4:	27cf8c63          	beq	t6,t3,2000651c <__subdf3+0x890>
/cygdrive/d/Jenkins/workspace/build-system-3/source-packages/gcc-7.4.0-riscv-bsp-v5_1_0-branch/libgcc/soft-fp/subdf3.c:46 (discriminator 313)
200062a8:	0bc30063          	beq	t1,t3,20006348 <__subdf3+0x6bc>
/cygdrive/d/Jenkins/workspace/build-system-3/source-packages/gcc-7.4.0-riscv-bsp-v5_1_0-branch/libgcc/soft-fp/subdf3.c:46 (discriminator 320)
200062ac:	28071263          	bnez	a4,20006530 <__subdf3+0x8a4>
/cygdrive/d/Jenkins/workspace/build-system-3/source-packages/gcc-7.4.0-riscv-bsp-v5_1_0-branch/libgcc/soft-fp/subdf3.c:47 (discriminator 321)
200062b0:	4501                	c.li	a0,0
200062b2:	7ff805b7          	lui	a1,0x7ff80
/cygdrive/d/Jenkins/workspace/build-system-3/source-packages/gcc-7.4.0-riscv-bsp-v5_1_0-branch/libgcc/soft-fp/subdf3.c:46 (discriminator 321)
200062b6:	4341                	c.li	t1,16
200062b8:	da0886e3          	beqz	a7,20006064 <__subdf3+0x3d8>
/cygdrive/d/Jenkins/workspace/build-system-3/source-packages/gcc-7.4.0-riscv-bsp-v5_1_0-branch/libgcc/soft-fp/subdf3.c:46
200062bc:	8376                	c.mv	t1,t4
200062be:	85b6                	c.mv	a1,a3
200062c0:	883e                	c.mv	a6,a5
200062c2:	8532                	c.mv	a0,a2
200062c4:	7ff00e93          	li	t4,2047
200062c8:	a25ff06f          	j	20005cec <__subdf3+0x60>
200062cc:	85b6                	c.mv	a1,a3
200062ce:	883e                	c.mv	a6,a5
/cygdrive/d/Jenkins/workspace/build-system-3/source-packages/gcc-7.4.0-riscv-bsp-v5_1_0-branch/libgcc/soft-fp/subdf3.c:45
200062d0:	00c00533          	add	a0,zero,a2
/cygdrive/d/Jenkins/workspace/build-system-3/source-packages/gcc-7.4.0-riscv-bsp-v5_1_0-branch/libgcc/soft-fp/subdf3.c:37
200062d4:	4301                	c.li	t1,0
200062d6:	bc19                	c.j	20005cec <__subdf3+0x60>
/cygdrive/d/Jenkins/workspace/build-system-3/source-packages/gcc-7.4.0-riscv-bsp-v5_1_0-branch/libgcc/soft-fp/subdf3.c:46 (discriminator 248)
200062d8:	00c7e733          	or	a4,a5,a2
200062dc:	1a071a63          	bnez	a4,20006490 <__subdf3+0x804>
200062e0:	00d005b3          	add	a1,zero,a3
/cygdrive/d/Jenkins/workspace/build-system-3/source-packages/gcc-7.4.0-riscv-bsp-v5_1_0-branch/libgcc/soft-fp/subdf3.c:47
200062e4:	4881                	c.li	a7,0
200062e6:	4701                	c.li	a4,0
200062e8:	4301                	c.li	t1,0
200062ea:	bc29                	c.j	20005d04 <__subdf3+0x78>
/cygdrive/d/Jenkins/workspace/build-system-3/source-packages/gcc-7.4.0-riscv-bsp-v5_1_0-branch/libgcc/soft-fp/subdf3.c:46 (discriminator 29)
200062ec:	7ff00893          	li	a7,2047
200062f0:	291e8e63          	beq	t4,a7,2000658c <__subdf3+0x900>
200062f4:	8eba                	c.mv	t4,a4
200062f6:	b64d                	c.j	20005e98 <__subdf3+0x20c>
200062f8:	0078f713          	andi	a4,a7,7
/cygdrive/d/Jenkins/workspace/build-system-3/source-packages/gcc-7.4.0-riscv-bsp-v5_1_0-branch/libgcc/soft-fp/subdf3.c:46
200062fc:	4e81                	c.li	t4,0
200062fe:	4e05                	c.li	t3,1
20006300:	aadff06f          	j	20005dac <__subdf3+0x120>
/cygdrive/d/Jenkins/workspace/build-system-3/source-packages/gcc-7.4.0-riscv-bsp-v5_1_0-branch/libgcc/soft-fp/subdf3.c:47 (discriminator 57)
20006304:	00536313          	ori	t1,t1,5
20006308:	e2058ce3          	beqz	a1,20006140 <__subdf3+0x4b4>
2000630c:	86ae                	c.mv	a3,a1
2000630e:	bb79                	c.j	200060ac <__subdf3+0x420>
/cygdrive/d/Jenkins/workspace/build-system-3/source-packages/gcc-7.4.0-riscv-bsp-v5_1_0-branch/libgcc/soft-fp/subdf3.c:47 (discriminator 16)
20006310:	00f6f613          	andi	a2,a3,15
20006314:	4e85                	c.li	t4,1
20006316:	86465d5b          	beqc	a2,4,20005f90 <__subdf3+0x304>
/cygdrive/d/Jenkins/workspace/build-system-3/source-packages/gcc-7.4.0-riscv-bsp-v5_1_0-branch/libgcc/soft-fp/subdf3.c:47 (discriminator 20)
2000631a:	ffc6b693          	sltiu	a3,a3,-4
2000631e:	0016c693          	xori	a3,a3,1
20006322:	9336                	c.add	t1,a3
20006324:	c6dff06f          	j	20005f90 <__subdf3+0x304>
/cygdrive/d/Jenkins/workspace/build-system-3/source-packages/gcc-7.4.0-riscv-bsp-v5_1_0-branch/libgcc/soft-fp/subdf3.c:46 (discriminator 160)
20006328:	020f0c63          	beqz	t5,20006360 <__subdf3+0x6d4>
/cygdrive/d/Jenkins/workspace/build-system-3/source-packages/gcc-7.4.0-riscv-bsp-v5_1_0-branch/libgcc/soft-fp/subdf3.c:46 (discriminator 162)
2000632c:	323f505b          	beqc	t5,3,2000664c <__subdf3+0x9c0>
/cygdrive/d/Jenkins/workspace/build-system-3/source-packages/gcc-7.4.0-riscv-bsp-v5_1_0-branch/libgcc/soft-fp/subdf3.c:46 (discriminator 166)
20006330:	b02f625b          	bnec	t5,2,20006234 <__subdf3+0x5a8>
/cygdrive/d/Jenkins/workspace/build-system-3/source-packages/gcc-7.4.0-riscv-bsp-v5_1_0-branch/libgcc/soft-fp/subdf3.c:46 (discriminator 167)
20006334:	02069663          	bnez	a3,20006360 <__subdf3+0x6d4>
20006338:	58fd                	c.li	a7,-1
2000633a:	7fe00e13          	li	t3,2046
2000633e:	57fd                	c.li	a5,-1
20006340:	4315                	c.li	t1,5
20006342:	b479                	c.j	20005dd0 <__subdf3+0x144>
/cygdrive/d/Jenkins/workspace/build-system-3/source-packages/gcc-7.4.0-riscv-bsp-v5_1_0-branch/libgcc/soft-fp/subdf3.c:46
20006344:	f7f316e3          	bne	t1,t6,200062b0 <__subdf3+0x624>
/cygdrive/d/Jenkins/workspace/build-system-3/source-packages/gcc-7.4.0-riscv-bsp-v5_1_0-branch/libgcc/soft-fp/subdf3.c:46 (discriminator 314)
20006348:	f60882e3          	beqz	a7,200062ac <__subdf3+0x620>
/cygdrive/d/Jenkins/workspace/build-system-3/source-packages/gcc-7.4.0-riscv-bsp-v5_1_0-branch/libgcc/soft-fp/subdf3.c:46 (discriminator 316)
2000634c:	4167f45b          	bbs	a5,22,20006354 <__subdf3+0x6c8>
/cygdrive/d/Jenkins/workspace/build-system-3/source-packages/gcc-7.4.0-riscv-bsp-v5_1_0-branch/libgcc/soft-fp/subdf3.c:46
20006350:	01000e93          	li	t4,16
20006354:	f60704e3          	beqz	a4,200062bc <__subdf3+0x630>
20006358:	8376                	c.mv	t1,t4
2000635a:	ba4d                	c.j	20005d0c <__subdf3+0x80>
/cygdrive/d/Jenkins/workspace/build-system-3/source-packages/gcc-7.4.0-riscv-bsp-v5_1_0-branch/libgcc/soft-fp/subdf3.c:46 (discriminator 183)
2000635c:	ddf1                	c.beqz	a1,20006338 <__subdf3+0x6ac>
/cygdrive/d/Jenkins/workspace/build-system-3/source-packages/gcc-7.4.0-riscv-bsp-v5_1_0-branch/libgcc/soft-fp/subdf3.c:46
2000635e:	86ae                	c.mv	a3,a1
20006360:	4315                	c.li	t1,5
20006362:	b3a9                	c.j	200060ac <__subdf3+0x420>
/cygdrive/d/Jenkins/workspace/build-system-3/source-packages/gcc-7.4.0-riscv-bsp-v5_1_0-branch/libgcc/soft-fp/subdf3.c:46 (discriminator 69)
20006364:	0a0f9e63          	bnez	t6,20006420 <__subdf3+0x794>
/cygdrive/d/Jenkins/workspace/build-system-3/source-packages/gcc-7.4.0-riscv-bsp-v5_1_0-branch/libgcc/soft-fp/subdf3.c:46 (discriminator 71)
20006368:	00a86733          	or	a4,a6,a0
2000636c:	1c071a63          	bnez	a4,20006540 <__subdf3+0x8b4>
/cygdrive/d/Jenkins/workspace/build-system-3/source-packages/gcc-7.4.0-riscv-bsp-v5_1_0-branch/libgcc/soft-fp/subdf3.c:46 (discriminator 73)
20006370:	7ff00713          	li	a4,2047
/cygdrive/d/Jenkins/workspace/build-system-3/source-packages/gcc-7.4.0-riscv-bsp-v5_1_0-branch/libgcc/soft-fp/subdf3.c:45 (discriminator 73)
20006374:	88b2                	c.mv	a7,a2
20006376:	8f9a                	c.mv	t6,t1
/cygdrive/d/Jenkins/workspace/build-system-3/source-packages/gcc-7.4.0-riscv-bsp-v5_1_0-branch/libgcc/soft-fp/subdf3.c:46 (discriminator 73)
20006378:	c8e316e3          	bne	t1,a4,20006004 <__subdf3+0x378>
/cygdrive/d/Jenkins/workspace/build-system-3/source-packages/gcc-7.4.0-riscv-bsp-v5_1_0-branch/libgcc/soft-fp/subdf3.c:46 (discriminator 75)
2000637c:	00c7e733          	or	a4,a5,a2
20006380:	f60702e3          	beqz	a4,200062e4 <__subdf3+0x658>
/cygdrive/d/Jenkins/workspace/build-system-3/source-packages/gcc-7.4.0-riscv-bsp-v5_1_0-branch/libgcc/soft-fp/subdf3.c:46 (discriminator 99)
20006384:	7ff00e93          	li	t4,2047
20006388:	883e                	c.mv	a6,a5
2000638a:	8532                	c.mv	a0,a2
2000638c:	f567f45b          	bbs	a5,22,200062d4 <__subdf3+0x648>
/cygdrive/d/Jenkins/workspace/build-system-3/source-packages/gcc-7.4.0-riscv-bsp-v5_1_0-branch/libgcc/soft-fp/subdf3.c:46
20006390:	4341                	c.li	t1,16
20006392:	baa9                	c.j	20005cec <__subdf3+0x60>
/cygdrive/d/Jenkins/workspace/build-system-3/source-packages/gcc-7.4.0-riscv-bsp-v5_1_0-branch/libgcc/soft-fp/subdf3.c:46 (discriminator 42)
20006394:	00a867b3          	or	a5,a6,a0
20006398:	c80794e3          	bnez	a5,20006020 <__subdf3+0x394>
/cygdrive/d/Jenkins/workspace/build-system-3/source-packages/gcc-7.4.0-riscv-bsp-v5_1_0-branch/libgcc/soft-fp/subdf3.c:37
2000639c:	4301                	c.li	t1,0
2000639e:	b339                	c.j	200060ac <__subdf3+0x420>
/cygdrive/d/Jenkins/workspace/build-system-3/source-packages/gcc-7.4.0-riscv-bsp-v5_1_0-branch/libgcc/soft-fp/subdf3.c:47 (discriminator 19)
200063a0:	00100e93          	li	t4,1
200063a4:	be0596e3          	bnez	a1,20005f90 <__subdf3+0x304>
/cygdrive/d/Jenkins/workspace/build-system-3/source-packages/gcc-7.4.0-riscv-bsp-v5_1_0-branch/libgcc/soft-fp/subdf3.c:47 (discriminator 25)
200063a8:	ff86b693          	sltiu	a3,a3,-8
200063ac:	0016c693          	xori	a3,a3,1
200063b0:	9336                	c.add	t1,a3
200063b2:	bef9                	c.j	20005f90 <__subdf3+0x304>
/cygdrive/d/Jenkins/workspace/build-system-3/source-packages/gcc-7.4.0-riscv-bsp-v5_1_0-branch/libgcc/soft-fp/subdf3.c:47 (discriminator 18)
200063b4:	4e85                	c.li	t4,1
200063b6:	bc058de3          	beqz	a1,20005f90 <__subdf3+0x304>
200063ba:	b7fd                	c.j	200063a8 <__subdf3+0x71c>
/cygdrive/d/Jenkins/workspace/build-system-3/source-packages/gcc-7.4.0-riscv-bsp-v5_1_0-branch/libgcc/soft-fp/subdf3.c:47 (discriminator 53)
200063bc:	d80590e3          	bnez	a1,2000613c <__subdf3+0x4b0>
/cygdrive/d/Jenkins/workspace/build-system-3/source-packages/gcc-7.4.0-riscv-bsp-v5_1_0-branch/libgcc/soft-fp/subdf3.c:47
200063c0:	00536313          	ori	t1,t1,5
200063c4:	4681                	c.li	a3,0
200063c6:	b1dd                	c.j	200060ac <__subdf3+0x420>
200063c8:	00a868b3          	or	a7,a6,a0
/cygdrive/d/Jenkins/workspace/build-system-3/source-packages/gcc-7.4.0-riscv-bsp-v5_1_0-branch/libgcc/soft-fp/subdf3.c:46 (discriminator 124)
200063cc:	0e0f9e63          	bnez	t6,200064c8 <__subdf3+0x83c>
200063d0:	00c7e733          	or	a4,a5,a2
/cygdrive/d/Jenkins/workspace/build-system-3/source-packages/gcc-7.4.0-riscv-bsp-v5_1_0-branch/libgcc/soft-fp/subdf3.c:46 (discriminator 126)
200063d4:	1e088063          	beqz	a7,200065b4 <__subdf3+0x928>
/cygdrive/d/Jenkins/workspace/build-system-3/source-packages/gcc-7.4.0-riscv-bsp-v5_1_0-branch/libgcc/soft-fp/subdf3.c:46 (discriminator 129)
200063d8:	cf71                	c.beqz	a4,200064b4 <__subdf3+0x828>
/cygdrive/d/Jenkins/workspace/build-system-3/source-packages/gcc-7.4.0-riscv-bsp-v5_1_0-branch/libgcc/soft-fp/subdf3.c:46 (discriminator 135)
200063da:	00c508b3          	add	a7,a0,a2
200063de:	97c2                	c.add	a5,a6
200063e0:	00a8b533          	sltu	a0,a7,a0
200063e4:	97aa                	c.add	a5,a0
200063e6:	4177f45b          	bbs	a5,23,200063ee <__subdf3+0x762>
200063ea:	b6fff06f          	j	20005f58 <__subdf3+0x2cc>
/cygdrive/d/Jenkins/workspace/build-system-3/source-packages/gcc-7.4.0-riscv-bsp-v5_1_0-branch/libgcc/soft-fp/subdf3.c:46 (discriminator 137)
200063ee:	ff800737          	lui	a4,0xff800
200063f2:	177d                	c.addi	a4,-1
200063f4:	8ff9                	c.and	a5,a4
200063f6:	4301                	c.li	t1,0
200063f8:	0078f713          	andi	a4,a7,7
200063fc:	4e05                	c.li	t3,1
200063fe:	b27d                	c.j	20005dac <__subdf3+0x120>
/cygdrive/d/Jenkins/workspace/build-system-3/source-packages/gcc-7.4.0-riscv-bsp-v5_1_0-branch/libgcc/soft-fp/subdf3.c:46 (discriminator 54)
20006400:	01d7d8b3          	srl	a7,a5,t4
20006404:	000ed8db          	beqc	t4,32,20006414 <__subdf3+0x788>
/cygdrive/d/Jenkins/workspace/build-system-3/source-packages/gcc-7.4.0-riscv-bsp-v5_1_0-branch/libgcc/soft-fp/subdf3.c:46 (discriminator 61)
20006408:	41d00eb3          	neg	t4,t4
2000640c:	01d797b3          	sll	a5,a5,t4
20006410:	00f66633          	or	a2,a2,a5
/cygdrive/d/Jenkins/workspace/build-system-3/source-packages/gcc-7.4.0-riscv-bsp-v5_1_0-branch/libgcc/soft-fp/subdf3.c:46 (discriminator 64)
20006414:	00c03633          	snez	a2,a2
20006418:	011668b3          	or	a7,a2,a7
2000641c:	df1ff06f          	j	2000620c <__subdf3+0x580>
/cygdrive/d/Jenkins/workspace/build-system-3/source-packages/gcc-7.4.0-riscv-bsp-v5_1_0-branch/libgcc/soft-fp/subdf3.c:46 (discriminator 72)
20006420:	7ff00713          	li	a4,2047
20006424:	12e30863          	beq	t1,a4,20006554 <__subdf3+0x8c8>
/cygdrive/d/Jenkins/workspace/build-system-3/source-packages/gcc-7.4.0-riscv-bsp-v5_1_0-branch/libgcc/soft-fp/subdf3.c:46 (discriminator 96)
20006428:	00800737          	lui	a4,0x800
2000642c:	41d00eb3          	neg	t4,t4
20006430:	00e86833          	or	a6,a6,a4
/cygdrive/d/Jenkins/workspace/build-system-3/source-packages/gcc-7.4.0-riscv-bsp-v5_1_0-branch/libgcc/soft-fp/subdf3.c:46 (discriminator 105)
20006434:	03800713          	li	a4,56
20006438:	13d74463          	blt	a4,t4,20006560 <__subdf3+0x8d4>
/cygdrive/d/Jenkins/workspace/build-system-3/source-packages/gcc-7.4.0-riscv-bsp-v5_1_0-branch/libgcc/soft-fp/subdf3.c:46 (discriminator 106)
2000643c:	477d                	c.li	a4,31
2000643e:	19d74363          	blt	a4,t4,200065c4 <__subdf3+0x938>
/cygdrive/d/Jenkins/workspace/build-system-3/source-packages/gcc-7.4.0-riscv-bsp-v5_1_0-branch/libgcc/soft-fp/subdf3.c:46 (discriminator 108)
20006442:	02000713          	li	a4,32
20006446:	41d70733          	sub	a4,a4,t4
2000644a:	00e818b3          	sll	a7,a6,a4
2000644e:	01d55e33          	srl	t3,a0,t4
20006452:	00e51733          	sll	a4,a0,a4
20006456:	01c8e8b3          	or	a7,a7,t3
2000645a:	00e03733          	snez	a4,a4
2000645e:	01d85833          	srl	a6,a6,t4
20006462:	00e8e8b3          	or	a7,a7,a4
20006466:	97c2                	c.add	a5,a6
/cygdrive/d/Jenkins/workspace/build-system-3/source-packages/gcc-7.4.0-riscv-bsp-v5_1_0-branch/libgcc/soft-fp/subdf3.c:46 (discriminator 122)
20006468:	98b2                	c.add	a7,a2
2000646a:	00c8b633          	sltu	a2,a7,a2
2000646e:	97b2                	c.add	a5,a2
/cygdrive/d/Jenkins/workspace/build-system-3/source-packages/gcc-7.4.0-riscv-bsp-v5_1_0-branch/libgcc/soft-fp/subdf3.c:45 (discriminator 122)
20006470:	8f9a                	c.mv	t6,t1
20006472:	b34d                	c.j	20006214 <__subdf3+0x588>
/cygdrive/d/Jenkins/workspace/build-system-3/source-packages/gcc-7.4.0-riscv-bsp-v5_1_0-branch/libgcc/soft-fp/subdf3.c:46 (discriminator 247)
20006474:	fff00713          	li	a4,-1
20006478:	12ee8063          	beq	t4,a4,20006598 <__subdf3+0x90c>
/cygdrive/d/Jenkins/workspace/build-system-3/source-packages/gcc-7.4.0-riscv-bsp-v5_1_0-branch/libgcc/soft-fp/subdf3.c:46 (discriminator 256)
2000647c:	7ff00713          	li	a4,2047
20006480:	fffece93          	not	t4,t4
20006484:	b2e31ae3          	bne	t1,a4,20005fb8 <__subdf3+0x32c>
/cygdrive/d/Jenkins/workspace/build-system-3/source-packages/gcc-7.4.0-riscv-bsp-v5_1_0-branch/libgcc/soft-fp/subdf3.c:46 (discriminator 268)
20006488:	00c7e733          	or	a4,a5,a2
2000648c:	f00708e3          	beqz	a4,2000639c <__subdf3+0x710>
/cygdrive/d/Jenkins/workspace/build-system-3/source-packages/gcc-7.4.0-riscv-bsp-v5_1_0-branch/libgcc/soft-fp/subdf3.c:46 (discriminator 270)
20006490:	7ff00e93          	li	t4,2047
20006494:	e367fc5b          	bbs	a5,22,200062cc <__subdf3+0x640>
/cygdrive/d/Jenkins/workspace/build-system-3/source-packages/gcc-7.4.0-riscv-bsp-v5_1_0-branch/libgcc/soft-fp/subdf3.c:46
20006498:	85b6                	c.mv	a1,a3
2000649a:	883e                	c.mv	a6,a5
2000649c:	8532                	c.mv	a0,a2
2000649e:	4341                	c.li	t1,16
200064a0:	84dff06f          	j	20005cec <__subdf3+0x60>
/cygdrive/d/Jenkins/workspace/build-system-3/source-packages/gcc-7.4.0-riscv-bsp-v5_1_0-branch/libgcc/soft-fp/subdf3.c:46 (discriminator 305)
200064a4:	01136733          	or	a4,t1,a7
200064a8:	980704e3          	beqz	a4,20005e30 <__subdf3+0x1a4>
200064ac:	00737713          	andi	a4,t1,7
/cygdrive/d/Jenkins/workspace/build-system-3/source-packages/gcc-7.4.0-riscv-bsp-v5_1_0-branch/libgcc/soft-fp/subdf3.c:46
200064b0:	8846                	c.mv	a6,a7
200064b2:	851a                	c.mv	a0,t1
/cygdrive/d/Jenkins/workspace/build-system-3/source-packages/gcc-7.4.0-riscv-bsp-v5_1_0-branch/libgcc/soft-fp/subdf3.c:45
200064b4:	87c2                	c.mv	a5,a6
200064b6:	88aa                	c.mv	a7,a0
200064b8:	aadff06f          	j	20005f64 <__subdf3+0x2d8>
/cygdrive/d/Jenkins/workspace/build-system-3/source-packages/gcc-7.4.0-riscv-bsp-v5_1_0-branch/libgcc/soft-fp/subdf3.c:46 (discriminator 277)
200064bc:	00a86533          	or	a0,a6,a0
200064c0:	00a038b3          	snez	a7,a0
200064c4:	b2dff06f          	j	20005ff0 <__subdf3+0x364>
/cygdrive/d/Jenkins/workspace/build-system-3/source-packages/gcc-7.4.0-riscv-bsp-v5_1_0-branch/libgcc/soft-fp/subdf3.c:46 (discriminator 127)
200064c8:	7ff00713          	li	a4,2047
200064cc:	12ef8463          	beq	t6,a4,200065f4 <__subdf3+0x968>
/cygdrive/d/Jenkins/workspace/build-system-3/source-packages/gcc-7.4.0-riscv-bsp-v5_1_0-branch/libgcc/soft-fp/subdf3.c:46 (discriminator 144)
200064d0:	16e30863          	beq	t1,a4,20006640 <__subdf3+0x9b4>
/cygdrive/d/Jenkins/workspace/build-system-3/source-packages/gcc-7.4.0-riscv-bsp-v5_1_0-branch/libgcc/soft-fp/subdf3.c:46 (discriminator 151)
200064d4:	10088863          	beqz	a7,200065e4 <__subdf3+0x958>
/cygdrive/d/Jenkins/workspace/build-system-3/source-packages/gcc-7.4.0-riscv-bsp-v5_1_0-branch/libgcc/soft-fp/subdf3.c:46 (discriminator 153)
200064d8:	00c7e7b3          	or	a5,a5,a2
200064dc:	e6079ee3          	bnez	a5,20006358 <__subdf3+0x6cc>
200064e0:	8376                	c.mv	t1,t4
/cygdrive/d/Jenkins/workspace/build-system-3/source-packages/gcc-7.4.0-riscv-bsp-v5_1_0-branch/libgcc/soft-fp/subdf3.c:46
200064e2:	85b6                	c.mv	a1,a3
200064e4:	7ff00e93          	li	t4,2047
200064e8:	805ff06f          	j	20005cec <__subdf3+0x60>
/cygdrive/d/Jenkins/workspace/build-system-3/source-packages/gcc-7.4.0-riscv-bsp-v5_1_0-branch/libgcc/soft-fp/subdf3.c:46 (discriminator 299)
200064ec:	0c088663          	beqz	a7,200065b8 <__subdf3+0x92c>
/cygdrive/d/Jenkins/workspace/build-system-3/source-packages/gcc-7.4.0-riscv-bsp-v5_1_0-branch/libgcc/soft-fp/subdf3.c:46 (discriminator 303)
200064f0:	40c50333          	sub	t1,a0,a2
200064f4:	40f808b3          	sub	a7,a6,a5
200064f8:	00653733          	sltu	a4,a0,t1
200064fc:	40e888b3          	sub	a7,a7,a4
20006500:	bb78f25b          	bbc	a7,23,200064a4 <__subdf3+0x818>
/cygdrive/d/Jenkins/workspace/build-system-3/source-packages/gcc-7.4.0-riscv-bsp-v5_1_0-branch/libgcc/soft-fp/subdf3.c:46 (discriminator 304)
20006504:	40a608b3          	sub	a7,a2,a0
20006508:	410787b3          	sub	a5,a5,a6
2000650c:	01163633          	sltu	a2,a2,a7
20006510:	8f91                	c.sub	a5,a2
20006512:	00f8e733          	or	a4,a7,a5
20006516:	85b6                	c.mv	a1,a3
20006518:	a45ff06f          	j	20005f5c <__subdf3+0x2d0>
/cygdrive/d/Jenkins/workspace/build-system-3/source-packages/gcc-7.4.0-riscv-bsp-v5_1_0-branch/libgcc/soft-fp/subdf3.c:46 (discriminator 307)
2000651c:	e20704e3          	beqz	a4,20006344 <__subdf3+0x6b8>
/cygdrive/d/Jenkins/workspace/build-system-3/source-packages/gcc-7.4.0-riscv-bsp-v5_1_0-branch/libgcc/soft-fp/subdf3.c:46 (discriminator 309)
20006520:	4168745b          	bbs	a6,22,20006528 <__subdf3+0x89c>
/cygdrive/d/Jenkins/workspace/build-system-3/source-packages/gcc-7.4.0-riscv-bsp-v5_1_0-branch/libgcc/soft-fp/subdf3.c:46
20006524:	01000e93          	li	t4,16
20006528:	7ff00e13          	li	t3,2047
2000652c:	e1c30ee3          	beq	t1,t3,20006348 <__subdf3+0x6bc>
/cygdrive/d/Jenkins/workspace/build-system-3/source-packages/gcc-7.4.0-riscv-bsp-v5_1_0-branch/libgcc/soft-fp/subdf3.c:46 (discriminator 322)
20006530:	e20894e3          	bnez	a7,20006358 <__subdf3+0x6cc>
20006534:	01d00333          	add	t1,zero,t4
/cygdrive/d/Jenkins/workspace/build-system-3/source-packages/gcc-7.4.0-riscv-bsp-v5_1_0-branch/libgcc/soft-fp/subdf3.c:46
20006538:	7ff00e93          	li	t4,2047
2000653c:	fb0ff06f          	j	20005cec <__subdf3+0x60>
/cygdrive/d/Jenkins/workspace/build-system-3/source-packages/gcc-7.4.0-riscv-bsp-v5_1_0-branch/libgcc/soft-fp/subdf3.c:46 (discriminator 74)
20006540:	fff00713          	li	a4,-1
20006544:	0eee8663          	beq	t4,a4,20006630 <__subdf3+0x9a4>
/cygdrive/d/Jenkins/workspace/build-system-3/source-packages/gcc-7.4.0-riscv-bsp-v5_1_0-branch/libgcc/soft-fp/subdf3.c:46 (discriminator 84)
20006548:	7ff00713          	li	a4,2047
2000654c:	fffece93          	not	t4,t4
20006550:	eee312e3          	bne	t1,a4,20006434 <__subdf3+0x7a8>
/cygdrive/d/Jenkins/workspace/build-system-3/source-packages/gcc-7.4.0-riscv-bsp-v5_1_0-branch/libgcc/soft-fp/subdf3.c:46 (discriminator 97)
20006554:	00c7e733          	or	a4,a5,a2
20006558:	e20716e3          	bnez	a4,20006384 <__subdf3+0x6f8>
/cygdrive/d/Jenkins/workspace/build-system-3/source-packages/gcc-7.4.0-riscv-bsp-v5_1_0-branch/libgcc/soft-fp/subdf3.c:37
2000655c:	4301                	c.li	t1,0
2000655e:	b6b9                	c.j	200060ac <__subdf3+0x420>
/cygdrive/d/Jenkins/workspace/build-system-3/source-packages/gcc-7.4.0-riscv-bsp-v5_1_0-branch/libgcc/soft-fp/subdf3.c:46 (discriminator 107)
20006560:	00a86533          	or	a0,a6,a0
20006564:	00a038b3          	snez	a7,a0
20006568:	f01ff06f          	j	20006468 <__subdf3+0x7dc>
/cygdrive/d/Jenkins/workspace/build-system-3/source-packages/gcc-7.4.0-riscv-bsp-v5_1_0-branch/libgcc/soft-fp/subdf3.c:46 (discriminator 279)
2000656c:	01d858b3          	srl	a7,a6,t4
20006570:	000ed8db          	beqc	t4,32,20006580 <__subdf3+0x8f4>
/cygdrive/d/Jenkins/workspace/build-system-3/source-packages/gcc-7.4.0-riscv-bsp-v5_1_0-branch/libgcc/soft-fp/subdf3.c:46 (discriminator 286)
20006574:	41d00eb3          	neg	t4,t4
20006578:	01d81833          	sll	a6,a6,t4
2000657c:	01056533          	or	a0,a0,a6
/cygdrive/d/Jenkins/workspace/build-system-3/source-packages/gcc-7.4.0-riscv-bsp-v5_1_0-branch/libgcc/soft-fp/subdf3.c:46 (discriminator 289)
20006580:	00a03533          	snez	a0,a0
20006584:	011568b3          	or	a7,a0,a7
20006588:	a69ff06f          	j	20005ff0 <__subdf3+0x364>
/cygdrive/d/Jenkins/workspace/build-system-3/source-packages/gcc-7.4.0-riscv-bsp-v5_1_0-branch/libgcc/soft-fp/subdf3.c:46 (discriminator 32)
2000658c:	00a867b3          	or	a5,a6,a0
20006590:	e00786e3          	beqz	a5,2000639c <__subdf3+0x710>
20006594:	c19ff06f          	j	200061ac <__subdf3+0x520>
/cygdrive/d/Jenkins/workspace/build-system-3/source-packages/gcc-7.4.0-riscv-bsp-v5_1_0-branch/libgcc/soft-fp/subdf3.c:46 (discriminator 255)
20006598:	40a608b3          	sub	a7,a2,a0
2000659c:	410787b3          	sub	a5,a5,a6
200065a0:	01163633          	sltu	a2,a2,a7
200065a4:	8f91                	c.sub	a5,a2
/cygdrive/d/Jenkins/workspace/build-system-3/source-packages/gcc-7.4.0-riscv-bsp-v5_1_0-branch/libgcc/soft-fp/subdf3.c:45 (discriminator 255)
200065a6:	8f9a                	c.mv	t6,t1
/cygdrive/d/Jenkins/workspace/build-system-3/source-packages/gcc-7.4.0-riscv-bsp-v5_1_0-branch/libgcc/soft-fp/subdf3.c:46 (discriminator 255)
200065a8:	85b6                	c.mv	a1,a3
200065aa:	4177f45b          	bbs	a5,23,200065b2 <__subdf3+0x926>
200065ae:	a57ff06f          	j	20006004 <__subdf3+0x378>
200065b2:	ba3d                	c.j	20005ef0 <__subdf3+0x264>
/cygdrive/d/Jenkins/workspace/build-system-3/source-packages/gcc-7.4.0-riscv-bsp-v5_1_0-branch/libgcc/soft-fp/subdf3.c:45
200065b4:	88b2                	c.mv	a7,a2
200065b6:	b25d                	c.j	20005f5c <__subdf3+0x2d0>
200065b8:	4701                	c.li	a4,0
200065ba:	bded                	c.j	200064b4 <__subdf3+0x828>
200065bc:	883e                	c.mv	a6,a5
200065be:	8532                	c.mv	a0,a2
200065c0:	85b6                	c.mv	a1,a3
200065c2:	bdcd                	c.j	200064b4 <__subdf3+0x828>
/cygdrive/d/Jenkins/workspace/build-system-3/source-packages/gcc-7.4.0-riscv-bsp-v5_1_0-branch/libgcc/soft-fp/subdf3.c:46 (discriminator 109)
200065c4:	01d858b3          	srl	a7,a6,t4
200065c8:	000ed8db          	beqc	t4,32,200065d8 <__subdf3+0x94c>
/cygdrive/d/Jenkins/workspace/build-system-3/source-packages/gcc-7.4.0-riscv-bsp-v5_1_0-branch/libgcc/soft-fp/subdf3.c:46 (discriminator 116)
200065cc:	41d00eb3          	neg	t4,t4
200065d0:	01d81833          	sll	a6,a6,t4
200065d4:	01056533          	or	a0,a0,a6
/cygdrive/d/Jenkins/workspace/build-system-3/source-packages/gcc-7.4.0-riscv-bsp-v5_1_0-branch/libgcc/soft-fp/subdf3.c:46 (discriminator 119)
200065d8:	00a03533          	snez	a0,a0
200065dc:	011568b3          	or	a7,a0,a7
200065e0:	e89ff06f          	j	20006468 <__subdf3+0x7dc>
/cygdrive/d/Jenkins/workspace/build-system-3/source-packages/gcc-7.4.0-riscv-bsp-v5_1_0-branch/libgcc/soft-fp/subdf3.c:46
200065e4:	883e                	c.mv	a6,a5
200065e6:	8532                	c.mv	a0,a2
/cygdrive/d/Jenkins/workspace/build-system-3/source-packages/gcc-7.4.0-riscv-bsp-v5_1_0-branch/libgcc/soft-fp/subdf3.c:37
200065e8:	00000313          	li	t1,0
/cygdrive/d/Jenkins/workspace/build-system-3/source-packages/gcc-7.4.0-riscv-bsp-v5_1_0-branch/libgcc/soft-fp/subdf3.c:46
200065ec:	7ff00e93          	li	t4,2047
200065f0:	efcff06f          	j	20005cec <__subdf3+0x60>
/cygdrive/d/Jenkins/workspace/build-system-3/source-packages/gcc-7.4.0-riscv-bsp-v5_1_0-branch/libgcc/soft-fp/subdf3.c:46 (discriminator 138)
200065f4:	06088063          	beqz	a7,20006654 <__subdf3+0x9c8>
/cygdrive/d/Jenkins/workspace/build-system-3/source-packages/gcc-7.4.0-riscv-bsp-v5_1_0-branch/libgcc/soft-fp/subdf3.c:46 (discriminator 140)
200065f8:	4168745b          	bbs	a6,22,20006600 <__subdf3+0x974>
/cygdrive/d/Jenkins/workspace/build-system-3/source-packages/gcc-7.4.0-riscv-bsp-v5_1_0-branch/libgcc/soft-fp/subdf3.c:46
200065fc:	01000e93          	li	t4,16
20006600:	7ff00713          	li	a4,2047
20006604:	ece31ae3          	bne	t1,a4,200064d8 <__subdf3+0x84c>
20006608:	00c7e733          	or	a4,a5,a2
2000660c:	ec070ae3          	beqz	a4,200064e0 <__subdf3+0x854>
/cygdrive/d/Jenkins/workspace/build-system-3/source-packages/gcc-7.4.0-riscv-bsp-v5_1_0-branch/libgcc/soft-fp/subdf3.c:46 (discriminator 147)
20006610:	4167f45b          	bbs	a5,22,20006618 <__subdf3+0x98c>
/cygdrive/d/Jenkins/workspace/build-system-3/source-packages/gcc-7.4.0-riscv-bsp-v5_1_0-branch/libgcc/soft-fp/subdf3.c:46
20006614:	01000e93          	li	t4,16
20006618:	ca0882e3          	beqz	a7,200062bc <__subdf3+0x630>
2000661c:	01d00333          	add	t1,zero,t4
20006620:	eecff06f          	j	20005d0c <__subdf3+0x80>
/cygdrive/d/Jenkins/workspace/build-system-3/source-packages/gcc-7.4.0-riscv-bsp-v5_1_0-branch/libgcc/soft-fp/subdf3.c:46 (discriminator 179)
20006624:	d0059ae3          	bnez	a1,20006338 <__subdf3+0x6ac>
/cygdrive/d/Jenkins/workspace/build-system-3/source-packages/gcc-7.4.0-riscv-bsp-v5_1_0-branch/libgcc/soft-fp/subdf3.c:46
20006628:	4681                	c.li	a3,0
2000662a:	4315                	c.li	t1,5
2000662c:	a81ff06f          	j	200060ac <__subdf3+0x420>
/cygdrive/d/Jenkins/workspace/build-system-3/source-packages/gcc-7.4.0-riscv-bsp-v5_1_0-branch/libgcc/soft-fp/subdf3.c:46 (discriminator 83)
20006630:	00c508b3          	add	a7,a0,a2
20006634:	97c2                	c.add	a5,a6
20006636:	00c8b633          	sltu	a2,a7,a2
2000663a:	97b2                	c.add	a5,a2
/cygdrive/d/Jenkins/workspace/build-system-3/source-packages/gcc-7.4.0-riscv-bsp-v5_1_0-branch/libgcc/soft-fp/subdf3.c:45 (discriminator 83)
2000663c:	8f9a                	c.mv	t6,t1
/cygdrive/d/Jenkins/workspace/build-system-3/source-packages/gcc-7.4.0-riscv-bsp-v5_1_0-branch/libgcc/soft-fp/subdf3.c:46 (discriminator 83)
2000663e:	bed9                	c.j	20006214 <__subdf3+0x588>
/cygdrive/d/Jenkins/workspace/build-system-3/source-packages/gcc-7.4.0-riscv-bsp-v5_1_0-branch/libgcc/soft-fp/subdf3.c:46 (discriminator 145)
20006640:	00c7e733          	or	a4,a5,a2
20006644:	f771                	c.bnez	a4,20006610 <__subdf3+0x984>
/cygdrive/d/Jenkins/workspace/build-system-3/source-packages/gcc-7.4.0-riscv-bsp-v5_1_0-branch/libgcc/soft-fp/subdf3.c:46
20006646:	e8089de3          	bnez	a7,200064e0 <__subdf3+0x854>
2000664a:	b969                	c.j	200062e4 <__subdf3+0x658>
/cygdrive/d/Jenkins/workspace/build-system-3/source-packages/gcc-7.4.0-riscv-bsp-v5_1_0-branch/libgcc/soft-fp/subdf3.c:46 (discriminator 163)
2000664c:	ce0696e3          	bnez	a3,20006338 <__subdf3+0x6ac>
/cygdrive/d/Jenkins/workspace/build-system-3/source-packages/gcc-7.4.0-riscv-bsp-v5_1_0-branch/libgcc/soft-fp/subdf3.c:46
20006650:	4315                	c.li	t1,5
20006652:	bca9                	c.j	200060ac <__subdf3+0x420>
20006654:	f9f318e3          	bne	t1,t6,200065e4 <__subdf3+0x958>
20006658:	00c7e733          	or	a4,a5,a2
2000665c:	c80704e3          	beqz	a4,200062e4 <__subdf3+0x658>
20006660:	fb1ff06f          	j	20006610 <__subdf3+0x984>
/cygdrive/d/Jenkins/workspace/build-system-3/source-packages/gcc-7.4.0-riscv-bsp-v5_1_0-branch/libgcc/soft-fp/subdf3.c:47
20006664:	4301                	c.li	t1,0
20006666:	7fe00e13          	li	t3,2046
2000666a:	4815                	c.li	a6,5
2000666c:	58fd                	c.li	a7,-1
2000666e:	57fd                	c.li	a5,-1
20006670:	a55ff06f          	j	200060c4 <__subdf3+0x438>
20006674:	8546                	c.mv	a0,a7
20006676:	8ef2                	c.mv	t4,t3
20006678:	00f00833          	add	a6,zero,a5
2000667c:	e70ff06f          	j	20005cec <__subdf3+0x60>
20006680:	00100313          	li	t1,1
20006684:	f48ff06f          	j	20005dcc <__subdf3+0x140>
20006688:	00800737          	lui	a4,0x800
2000668c:	869a                	c.mv	a3,t1
2000668e:	8f7d                	c.and	a4,a5
20006690:	8376                	c.mv	t1,t4
20006692:	b4a9                	c.j	200060dc <__subdf3+0x450>

20006694 <__floatsidf>:
__floatsidf():
/cygdrive/d/Jenkins/workspace/build-system-3/source-packages/gcc-7.4.0-riscv-bsp-v5_1_0-branch/libgcc/soft-fp/floatsidf.c:41
20006694:	c925                	c.beqz	a0,20006704 <__floatsidf+0x70>
/cygdrive/d/Jenkins/workspace/build-system-3/source-packages/gcc-7.4.0-riscv-bsp-v5_1_0-branch/libgcc/soft-fp/floatsidf.c:41 (discriminator 1)
20006696:	40a007b3          	neg	a5,a0
2000669a:	01f55613          	srli	a2,a0,0x1f
2000669e:	f2f5057f          	maxw	a0,a0,a5
200066a2:	af95077f          	clz32	a4,a0
200066a6:	41e00793          	li	a5,1054
200066aa:	8f99                	c.sub	a5,a4
200066ac:	46a9                	c.li	a3,10
200066ae:	7ff7f793          	andi	a5,a5,2047
200066b2:	02e6df63          	bge	a3,a4,200066f0 <__floatsidf+0x5c>
/cygdrive/d/Jenkins/workspace/build-system-3/source-packages/gcc-7.4.0-riscv-bsp-v5_1_0-branch/libgcc/soft-fp/floatsidf.c:41 (discriminator 21)
200066b6:	1755                	c.addi	a4,-11
200066b8:	00e516b3          	sll	a3,a0,a4
200066bc:	4c06a6db          	bfoz	a3,a3,19,0
200066c0:	00000713          	li	a4,0
/cygdrive/d/Jenkins/workspace/build-system-3/source-packages/gcc-7.4.0-riscv-bsp-v5_1_0-branch/libgcc/soft-fp/floatsidf.c:42
200066c4:	4581                	c.li	a1,0
200066c6:	853a                	c.mv	a0,a4
200066c8:	fff00737          	lui	a4,0xfff00
200066cc:	8f6d                	c.and	a4,a1
200066ce:	4c06a6db          	bfoz	a3,a3,19,0
200066d2:	8ed9                	c.or	a3,a4
200066d4:	01479713          	slli	a4,a5,0x14
200066d8:	801007b7          	lui	a5,0x80100
200066dc:	17fd                	c.addi	a5,-1
200066de:	8ff5                	c.and	a5,a3
200066e0:	8fd9                	c.or	a5,a4
200066e2:	7807a7db          	bfoz	a5,a5,30,0
200066e6:	01f61713          	slli	a4,a2,0x1f
200066ea:	00e7e5b3          	or	a1,a5,a4
/cygdrive/d/Jenkins/workspace/build-system-3/source-packages/gcc-7.4.0-riscv-bsp-v5_1_0-branch/libgcc/soft-fp/floatsidf.c:45
200066ee:	8082                	c.jr	ra
/cygdrive/d/Jenkins/workspace/build-system-3/source-packages/gcc-7.4.0-riscv-bsp-v5_1_0-branch/libgcc/soft-fp/floatsidf.c:41 (discriminator 20)
200066f0:	46ad                	c.li	a3,11
200066f2:	8e99                	c.sub	a3,a4
200066f4:	00d556b3          	srl	a3,a0,a3
200066f8:	0755                	c.addi	a4,21
200066fa:	00e51733          	sll	a4,a0,a4
200066fe:	4c06a6db          	bfoz	a3,a3,19,0
20006702:	b7c9                	c.j	200066c4 <__floatsidf+0x30>
20006704:	4601                	c.li	a2,0
20006706:	4781                	c.li	a5,0
20006708:	4681                	c.li	a3,0
/cygdrive/d/Jenkins/workspace/build-system-3/source-packages/gcc-7.4.0-riscv-bsp-v5_1_0-branch/libgcc/soft-fp/floatsidf.c:41
2000670a:	4701                	c.li	a4,0
2000670c:	bf65                	c.j	200066c4 <__floatsidf+0x30>
	...

20006710 <__extendsfdf2>:
__extendsfdf2():
/cygdrive/d/Jenkins/workspace/build-system-3/source-packages/gcc-7.4.0-riscv-bsp-v5_1_0-branch/libgcc/soft-fp/extendsfdf2.c:38
20006710:	e0050753          	fmv.x.w	a4,fa0
/cygdrive/d/Jenkins/workspace/build-system-3/source-packages/gcc-7.4.0-riscv-bsp-v5_1_0-branch/libgcc/soft-fp/extendsfdf2.c:44
20006714:	002027f3          	frrm	a5
20006718:	797727db          	bfoz	a5,a4,30,23
/cygdrive/d/Jenkins/workspace/build-system-3/source-packages/gcc-7.4.0-riscv-bsp-v5_1_0-branch/libgcc/soft-fp/extendsfdf2.c:47
2000671c:	00178593          	addi	a1,a5,1 # 80100001 <_DATA_LMA_START+0x600f8029>
20006720:	0ff5f593          	andi	a1,a1,255
20006724:	4505                	c.li	a0,1
/cygdrive/d/Jenkins/workspace/build-system-3/source-packages/gcc-7.4.0-riscv-bsp-v5_1_0-branch/libgcc/soft-fp/extendsfdf2.c:45
20006726:	580726db          	bfoz	a3,a4,22,0
2000672a:	01f75613          	srli	a2,a4,0x1f
/cygdrive/d/Jenkins/workspace/build-system-3/source-packages/gcc-7.4.0-riscv-bsp-v5_1_0-branch/libgcc/soft-fp/extendsfdf2.c:47
2000672e:	02b55d63          	bge	a0,a1,20006768 <__extendsfdf2+0x58>
/cygdrive/d/Jenkins/workspace/build-system-3/source-packages/gcc-7.4.0-riscv-bsp-v5_1_0-branch/libgcc/soft-fp/extendsfdf2.c:47 (discriminator 1)
20006732:	0036d713          	srli	a4,a3,0x3
20006736:	38078793          	addi	a5,a5,896
2000673a:	06f6                	c.slli	a3,0x1d
/cygdrive/d/Jenkins/workspace/build-system-3/source-packages/gcc-7.4.0-riscv-bsp-v5_1_0-branch/libgcc/soft-fp/extendsfdf2.c:51
2000673c:	4581                	c.li	a1,0
2000673e:	8536                	c.mv	a0,a3
20006740:	fff006b7          	lui	a3,0xfff00
20006744:	8eed                	c.and	a3,a1
20006746:	4c07275b          	bfoz	a4,a4,19,0
2000674a:	8ed9                	c.or	a3,a4
2000674c:	51e7a75b          	bfoz	a4,a5,20,30
20006750:	801007b7          	lui	a5,0x80100
20006754:	17fd                	c.addi	a5,-1
20006756:	8ff5                	c.and	a5,a3
20006758:	8fd9                	c.or	a5,a4
2000675a:	7807a7db          	bfoz	a5,a5,30,0
2000675e:	01f61713          	slli	a4,a2,0x1f
20006762:	00e7e5b3          	or	a1,a5,a4
20006766:	8082                	c.jr	ra
/cygdrive/d/Jenkins/workspace/build-system-3/source-packages/gcc-7.4.0-riscv-bsp-v5_1_0-branch/libgcc/soft-fp/extendsfdf2.c:47 (discriminator 2)
20006768:	e785                	c.bnez	a5,20006790 <__extendsfdf2+0x80>
/cygdrive/d/Jenkins/workspace/build-system-3/source-packages/gcc-7.4.0-riscv-bsp-v5_1_0-branch/libgcc/soft-fp/extendsfdf2.c:47 (discriminator 11)
2000676a:	cabd                	c.beqz	a3,200067e0 <__extendsfdf2+0xd0>
/cygdrive/d/Jenkins/workspace/build-system-3/source-packages/gcc-7.4.0-riscv-bsp-v5_1_0-branch/libgcc/soft-fp/extendsfdf2.c:47 (discriminator 15)
2000676c:	af9685ff          	clz32	a1,a3
20006770:	47a9                	c.li	a5,10
20006772:	06b7db63          	bge	a5,a1,200067e8 <__extendsfdf2+0xd8>
/cygdrive/d/Jenkins/workspace/build-system-3/source-packages/gcc-7.4.0-riscv-bsp-v5_1_0-branch/libgcc/soft-fp/extendsfdf2.c:47 (discriminator 29)
20006776:	ff558713          	addi	a4,a1,-11 # 7ff7fff5 <_DATA_LMA_START+0x5ff7801d>
2000677a:	00e69733          	sll	a4,a3,a4
2000677e:	4681                	c.li	a3,0
/cygdrive/d/Jenkins/workspace/build-system-3/source-packages/gcc-7.4.0-riscv-bsp-v5_1_0-branch/libgcc/soft-fp/extendsfdf2.c:47 (discriminator 37)
20006780:	38900793          	li	a5,905
20006784:	8f8d                	c.sub	a5,a1
20006786:	4c07275b          	bfoz	a4,a4,19,0
2000678a:	7ff7f793          	andi	a5,a5,2047
2000678e:	b77d                	c.j	2000673c <__extendsfdf2+0x2c>
/cygdrive/d/Jenkins/workspace/build-system-3/source-packages/gcc-7.4.0-riscv-bsp-v5_1_0-branch/libgcc/soft-fp/extendsfdf2.c:47 (discriminator 8)
20006790:	c6a1                	c.beqz	a3,200067d8 <__extendsfdf2+0xc8>
20006792:	00080737          	lui	a4,0x80
20006796:	0036d793          	srli	a5,a3,0x3
2000679a:	00100837          	lui	a6,0x100
2000679e:	8fd9                	c.or	a5,a4
200067a0:	187d                	c.addi	a6,-1
200067a2:	01d69713          	slli	a4,a3,0x1d
200067a6:	0107f7b3          	and	a5,a5,a6
/cygdrive/d/Jenkins/workspace/build-system-3/source-packages/gcc-7.4.0-riscv-bsp-v5_1_0-branch/libgcc/soft-fp/extendsfdf2.c:47 (discriminator 38)
200067aa:	4566f95b          	bbs	a3,22,200067fc <__extendsfdf2+0xec>
/cygdrive/d/Jenkins/workspace/build-system-3/source-packages/gcc-7.4.0-riscv-bsp-v5_1_0-branch/libgcc/soft-fp/extendsfdf2.c:51
200067ae:	4581                	c.li	a1,0
200067b0:	853a                	c.mv	a0,a4
200067b2:	fff00737          	lui	a4,0xfff00
200067b6:	8f6d                	c.and	a4,a1
200067b8:	0107f7b3          	and	a5,a5,a6
200067bc:	8fd9                	c.or	a5,a4
200067be:	7ff006b7          	lui	a3,0x7ff00
200067c2:	8edd                	c.or	a3,a5
200067c4:	01f61713          	slli	a4,a2,0x1f
200067c8:	7806a6db          	bfoz	a3,a3,30,0
200067cc:	00e6e5b3          	or	a1,a3,a4
/cygdrive/d/Jenkins/workspace/build-system-3/source-packages/gcc-7.4.0-riscv-bsp-v5_1_0-branch/libgcc/soft-fp/extendsfdf2.c:52
200067d0:	00186073          	csrsi	fflags,16
200067d4:	00008067          	ret
200067d8:	7ff00793          	li	a5,2047
200067dc:	4701                	c.li	a4,0
200067de:	bfb9                	c.j	2000673c <__extendsfdf2+0x2c>
200067e0:	4781                	c.li	a5,0
200067e2:	4701                	c.li	a4,0
200067e4:	f59ff06f          	j	2000673c <__extendsfdf2+0x2c>
/cygdrive/d/Jenkins/workspace/build-system-3/source-packages/gcc-7.4.0-riscv-bsp-v5_1_0-branch/libgcc/soft-fp/extendsfdf2.c:47 (discriminator 28)
200067e8:	472d                	c.li	a4,11
200067ea:	8f0d                	c.sub	a4,a1
200067ec:	01558793          	addi	a5,a1,21
200067f0:	00e6d733          	srl	a4,a3,a4
200067f4:	00f696b3          	sll	a3,a3,a5
200067f8:	f89ff06f          	j	20006780 <__extendsfdf2+0x70>
/cygdrive/d/Jenkins/workspace/build-system-3/source-packages/gcc-7.4.0-riscv-bsp-v5_1_0-branch/libgcc/soft-fp/extendsfdf2.c:51
200067fc:	4581                	c.li	a1,0
200067fe:	853a                	c.mv	a0,a4
20006800:	fff00737          	lui	a4,0xfff00
20006804:	8f6d                	c.and	a4,a1
20006806:	0107f7b3          	and	a5,a5,a6
2000680a:	8fd9                	c.or	a5,a4
2000680c:	7ff006b7          	lui	a3,0x7ff00
20006810:	8edd                	c.or	a3,a5
20006812:	01f61713          	slli	a4,a2,0x1f
20006816:	7806a6db          	bfoz	a3,a3,30,0
2000681a:	00e6e5b3          	or	a1,a3,a4
/cygdrive/d/Jenkins/workspace/build-system-3/source-packages/gcc-7.4.0-riscv-bsp-v5_1_0-branch/libgcc/soft-fp/extendsfdf2.c:55
2000681e:	8082                	c.jr	ra

20006820 <__truncdfsf2>:
__truncdfsf2():
/cygdrive/d/Jenkins/workspace/build-system-3/source-packages/gcc-7.4.0-riscv-bsp-v5_1_0-branch/libgcc/soft-fp/truncdfsf2.c:43
20006820:	00202873          	frrm	a6
/cygdrive/d/Jenkins/workspace/build-system-3/source-packages/gcc-7.4.0-riscv-bsp-v5_1_0-branch/libgcc/soft-fp/truncdfsf2.c:44
20006824:	7945a65b          	bfoz	a2,a1,30,20
/cygdrive/d/Jenkins/workspace/build-system-3/source-packages/gcc-7.4.0-riscv-bsp-v5_1_0-branch/libgcc/soft-fp/truncdfsf2.c:46
20006828:	00160693          	addi	a3,a2,1 # fff00001 <_DATA_LMA_START+0xdfef8029>
/cygdrive/d/Jenkins/workspace/build-system-3/source-packages/gcc-7.4.0-riscv-bsp-v5_1_0-branch/libgcc/soft-fp/truncdfsf2.c:44
2000682c:	0d65a8db          	bfoz	a7,a1,3,22
20006830:	01d55713          	srli	a4,a0,0x1d
/cygdrive/d/Jenkins/workspace/build-system-3/source-packages/gcc-7.4.0-riscv-bsp-v5_1_0-branch/libgcc/soft-fp/truncdfsf2.c:46
20006834:	7ff6f693          	andi	a3,a3,2047
20006838:	4785                	c.li	a5,1
/cygdrive/d/Jenkins/workspace/build-system-3/source-packages/gcc-7.4.0-riscv-bsp-v5_1_0-branch/libgcc/soft-fp/truncdfsf2.c:44
2000683a:	01176733          	or	a4,a4,a7
2000683e:	81fd                	c.srli	a1,0x1f
20006840:	00351893          	slli	a7,a0,0x3
/cygdrive/d/Jenkins/workspace/build-system-3/source-packages/gcc-7.4.0-riscv-bsp-v5_1_0-branch/libgcc/soft-fp/truncdfsf2.c:46
20006844:	0cd7da63          	bge	a5,a3,20006918 <__truncdfsf2+0xf8>
/cygdrive/d/Jenkins/workspace/build-system-3/source-packages/gcc-7.4.0-riscv-bsp-v5_1_0-branch/libgcc/soft-fp/truncdfsf2.c:46 (discriminator 1)
20006848:	c8060693          	addi	a3,a2,-896
2000684c:	0fe00793          	li	a5,254
20006850:	06d7c863          	blt	a5,a3,200068c0 <__truncdfsf2+0xa0>
/cygdrive/d/Jenkins/workspace/build-system-3/source-packages/gcc-7.4.0-riscv-bsp-v5_1_0-branch/libgcc/soft-fp/truncdfsf2.c:46 (discriminator 4)
20006854:	10d05e63          	blez	a3,20006970 <__truncdfsf2+0x150>
/cygdrive/d/Jenkins/workspace/build-system-3/source-packages/gcc-7.4.0-riscv-bsp-v5_1_0-branch/libgcc/soft-fp/truncdfsf2.c:46 (discriminator 18)
20006858:	051a                	c.slli	a0,0x6
2000685a:	00a03533          	snez	a0,a0
2000685e:	070e                	c.slli	a4,0x3
20006860:	8f49                	c.or	a4,a0
20006862:	01d8d893          	srli	a7,a7,0x1d
20006866:	01176733          	or	a4,a4,a7
2000686a:	00777613          	andi	a2,a4,7
2000686e:	4781                	c.li	a5,0
/cygdrive/d/Jenkins/workspace/build-system-3/source-packages/gcc-7.4.0-riscv-bsp-v5_1_0-branch/libgcc/soft-fp/truncdfsf2.c:38 (discriminator 18)
20006870:	4501                	c.li	a0,0
/cygdrive/d/Jenkins/workspace/build-system-3/source-packages/gcc-7.4.0-riscv-bsp-v5_1_0-branch/libgcc/soft-fp/truncdfsf2.c:50 (discriminator 18)
20006872:	ca49                	c.beqz	a2,20006904 <__truncdfsf2+0xe4>
/cygdrive/d/Jenkins/workspace/build-system-3/source-packages/gcc-7.4.0-riscv-bsp-v5_1_0-branch/libgcc/soft-fp/truncdfsf2.c:50 (discriminator 29)
20006874:	1628505b          	beqc	a6,2,200069d4 <__truncdfsf2+0x1b4>
20006878:	0838525b          	beqc	a6,3,200068fc <__truncdfsf2+0xdc>
2000687c:	14080463          	beqz	a6,200069c4 <__truncdfsf2+0x1a4>
20006880:	04000637          	lui	a2,0x4000
20006884:	00e67633          	and	a2,a2,a4
/cygdrive/d/Jenkins/workspace/build-system-3/source-packages/gcc-7.4.0-riscv-bsp-v5_1_0-branch/libgcc/soft-fp/truncdfsf2.c:50
20006888:	28078863          	beqz	a5,20006b18 <__truncdfsf2+0x2f8>
/cygdrive/d/Jenkins/workspace/build-system-3/source-packages/gcc-7.4.0-riscv-bsp-v5_1_0-branch/libgcc/soft-fp/truncdfsf2.c:50 (discriminator 44)
2000688c:	0027e513          	ori	a0,a5,2
/cygdrive/d/Jenkins/workspace/build-system-3/source-packages/gcc-7.4.0-riscv-bsp-v5_1_0-branch/libgcc/soft-fp/truncdfsf2.c:50
20006890:	26060663          	beqz	a2,20006afc <__truncdfsf2+0x2dc>
/cygdrive/d/Jenkins/workspace/build-system-3/source-packages/gcc-7.4.0-riscv-bsp-v5_1_0-branch/libgcc/soft-fp/truncdfsf2.c:50 (discriminator 47)
20006894:	00168693          	addi	a3,a3,1 # 7ff00001 <_DATA_LMA_START+0x5fef8029>
20006898:	0ff00613          	li	a2,255
2000689c:	6437275b          	bfoz	a4,a4,25,3
200068a0:	0ff6f793          	andi	a5,a3,255
200068a4:	0ac68a63          	beq	a3,a2,20006958 <__truncdfsf2+0x138>
/cygdrive/d/Jenkins/workspace/build-system-3/source-packages/gcc-7.4.0-riscv-bsp-v5_1_0-branch/libgcc/soft-fp/truncdfsf2.c:50 (discriminator 74)
200068a8:	07de                	c.slli	a5,0x17
200068aa:	5807275b          	bfoz	a4,a4,22,0
200068ae:	05fe                	c.slli	a1,0x1f
200068b0:	8fd9                	c.or	a5,a4
200068b2:	8fcd                	c.or	a5,a1
/cygdrive/d/Jenkins/workspace/build-system-3/source-packages/gcc-7.4.0-riscv-bsp-v5_1_0-branch/libgcc/soft-fp/truncdfsf2.c:51 (discriminator 74)
200068b4:	02051e63          	bnez	a0,200068f0 <__truncdfsf2+0xd0>
/cygdrive/d/Jenkins/workspace/build-system-3/source-packages/gcc-7.4.0-riscv-bsp-v5_1_0-branch/libgcc/soft-fp/truncdfsf2.c:54
200068b8:	f0078553          	fmv.w.x	fa0,a5
200068bc:	00008067          	ret
/cygdrive/d/Jenkins/workspace/build-system-3/source-packages/gcc-7.4.0-riscv-bsp-v5_1_0-branch/libgcc/soft-fp/truncdfsf2.c:46 (discriminator 3)
200068c0:	16080c63          	beqz	a6,20006a38 <__truncdfsf2+0x218>
/cygdrive/d/Jenkins/workspace/build-system-3/source-packages/gcc-7.4.0-riscv-bsp-v5_1_0-branch/libgcc/soft-fp/truncdfsf2.c:46 (discriminator 6)
200068c4:	1638545b          	beqc	a6,3,20006a2c <__truncdfsf2+0x20c>
/cygdrive/d/Jenkins/workspace/build-system-3/source-packages/gcc-7.4.0-riscv-bsp-v5_1_0-branch/libgcc/soft-fp/truncdfsf2.c:46 (discriminator 10)
200068c8:	1e285a5b          	beqc	a6,2,20006abc <__truncdfsf2+0x29c>
/cygdrive/d/Jenkins/workspace/build-system-3/source-packages/gcc-7.4.0-riscv-bsp-v5_1_0-branch/libgcc/soft-fp/truncdfsf2.c:50
200068cc:	00500513          	li	a0,5
200068d0:	16080a63          	beqz	a6,20006a44 <__truncdfsf2+0x224>
/cygdrive/d/Jenkins/workspace/build-system-3/source-packages/gcc-7.4.0-riscv-bsp-v5_1_0-branch/libgcc/soft-fp/truncdfsf2.c:50 (discriminator 52)
200068d4:	1e385a5b          	beqc	a6,3,20006ac8 <__truncdfsf2+0x2a8>
/cygdrive/d/Jenkins/workspace/build-system-3/source-packages/gcc-7.4.0-riscv-bsp-v5_1_0-branch/libgcc/soft-fp/truncdfsf2.c:50 (discriminator 56)
200068d8:	1a285e5b          	beqc	a6,2,20006a94 <__truncdfsf2+0x274>
/cygdrive/d/Jenkins/workspace/build-system-3/source-packages/gcc-7.4.0-riscv-bsp-v5_1_0-branch/libgcc/soft-fp/truncdfsf2.c:50
200068dc:	00800737          	lui	a4,0x800
200068e0:	7f0007b7          	lui	a5,0x7f000
200068e4:	177d                	c.addi	a4,-1
200068e6:	8f5d                	c.or	a4,a5
200068e8:	05fe                	c.slli	a1,0x1f
200068ea:	780727db          	bfoz	a5,a4,30,0
200068ee:	8fcd                	c.or	a5,a1
/cygdrive/d/Jenkins/workspace/build-system-3/source-packages/gcc-7.4.0-riscv-bsp-v5_1_0-branch/libgcc/soft-fp/truncdfsf2.c:51 (discriminator 1)
200068f0:	00152073          	csrs	fflags,a0
/cygdrive/d/Jenkins/workspace/build-system-3/source-packages/gcc-7.4.0-riscv-bsp-v5_1_0-branch/libgcc/soft-fp/truncdfsf2.c:54
200068f4:	f0078553          	fmv.w.x	fa0,a5
200068f8:	00008067          	ret
200068fc:	4505                	c.li	a0,1
/cygdrive/d/Jenkins/workspace/build-system-3/source-packages/gcc-7.4.0-riscv-bsp-v5_1_0-branch/libgcc/soft-fp/truncdfsf2.c:50 (discriminator 35)
200068fe:	e199                	c.bnez	a1,20006904 <__truncdfsf2+0xe4>
/cygdrive/d/Jenkins/workspace/build-system-3/source-packages/gcc-7.4.0-riscv-bsp-v5_1_0-branch/libgcc/soft-fp/truncdfsf2.c:50 (discriminator 41)
20006900:	00870713          	addi	a4,a4,8 # 800008 <FLASH_SIZE+0x700008>
20006904:	04000637          	lui	a2,0x4000
20006908:	8e79                	c.and	a2,a4
/cygdrive/d/Jenkins/workspace/build-system-3/source-packages/gcc-7.4.0-riscv-bsp-v5_1_0-branch/libgcc/soft-fp/truncdfsf2.c:50 (discriminator 37)
2000690a:	d3d9                	c.beqz	a5,20006890 <__truncdfsf2+0x70>
/cygdrive/d/Jenkins/workspace/build-system-3/source-packages/gcc-7.4.0-riscv-bsp-v5_1_0-branch/libgcc/soft-fp/truncdfsf2.c:50 (discriminator 42)
2000690c:	b805725b          	bbc	a0,0,20006890 <__truncdfsf2+0x70>
20006910:	87aa                	c.mv	a5,a0
/cygdrive/d/Jenkins/workspace/build-system-3/source-packages/gcc-7.4.0-riscv-bsp-v5_1_0-branch/libgcc/soft-fp/truncdfsf2.c:50
20006912:	0027e513          	ori	a0,a5,2
20006916:	bfad                	c.j	20006890 <__truncdfsf2+0x70>
20006918:	011768b3          	or	a7,a4,a7
/cygdrive/d/Jenkins/workspace/build-system-3/source-packages/gcc-7.4.0-riscv-bsp-v5_1_0-branch/libgcc/soft-fp/truncdfsf2.c:46 (discriminator 2)
2000691c:	e615                	c.bnez	a2,20006948 <__truncdfsf2+0x128>
/cygdrive/d/Jenkins/workspace/build-system-3/source-packages/gcc-7.4.0-riscv-bsp-v5_1_0-branch/libgcc/soft-fp/truncdfsf2.c:50 (discriminator 42)
2000691e:	01f59793          	slli	a5,a1,0x1f
/cygdrive/d/Jenkins/workspace/build-system-3/source-packages/gcc-7.4.0-riscv-bsp-v5_1_0-branch/libgcc/soft-fp/truncdfsf2.c:46 (discriminator 42)
20006922:	f8088be3          	beqz	a7,200068b8 <__truncdfsf2+0x98>
/cygdrive/d/Jenkins/workspace/build-system-3/source-packages/gcc-7.4.0-riscv-bsp-v5_1_0-branch/libgcc/soft-fp/truncdfsf2.c:50
20006926:	1828535b          	beqc	a6,2,20006aac <__truncdfsf2+0x28c>
2000692a:	1238555b          	beqc	a6,3,20006a54 <__truncdfsf2+0x234>
/cygdrive/d/Jenkins/workspace/build-system-3/source-packages/gcc-7.4.0-riscv-bsp-v5_1_0-branch/libgcc/soft-fp/truncdfsf2.c:46
2000692e:	4705                	c.li	a4,1
/cygdrive/d/Jenkins/workspace/build-system-3/source-packages/gcc-7.4.0-riscv-bsp-v5_1_0-branch/libgcc/soft-fp/truncdfsf2.c:50
20006930:	4789                	c.li	a5,2
20006932:	4605                	c.li	a2,1
20006934:	1a080463          	beqz	a6,20006adc <__truncdfsf2+0x2bc>
20006938:	83ed                	c.srli	a5,0x1b
2000693a:	0017c793          	xori	a5,a5,1
2000693e:	8b85                	c.andi	a5,1
/cygdrive/d/Jenkins/workspace/build-system-3/source-packages/gcc-7.4.0-riscv-bsp-v5_1_0-branch/libgcc/soft-fp/truncdfsf2.c:50 (discriminator 25)
20006940:	4505                	c.li	a0,1
20006942:	4681                	c.li	a3,0
/cygdrive/d/Jenkins/workspace/build-system-3/source-packages/gcc-7.4.0-riscv-bsp-v5_1_0-branch/libgcc/soft-fp/truncdfsf2.c:50
20006944:	fa05                	c.bnez	a2,20006874 <__truncdfsf2+0x54>
20006946:	bf7d                	c.j	20006904 <__truncdfsf2+0xe4>
/cygdrive/d/Jenkins/workspace/build-system-3/source-packages/gcc-7.4.0-riscv-bsp-v5_1_0-branch/libgcc/soft-fp/truncdfsf2.c:46 (discriminator 39)
20006948:	08089a63          	bnez	a7,200069dc <__truncdfsf2+0x1bc>
/cygdrive/d/Jenkins/workspace/build-system-3/source-packages/gcc-7.4.0-riscv-bsp-v5_1_0-branch/libgcc/soft-fp/truncdfsf2.c:50
2000694c:	05fe                	c.slli	a1,0x1f
2000694e:	7f8007b7          	lui	a5,0x7f800
20006952:	8fcd                	c.or	a5,a1
20006954:	f65ff06f          	j	200068b8 <__truncdfsf2+0x98>
20006958:	00556513          	ori	a0,a0,5
/cygdrive/d/Jenkins/workspace/build-system-3/source-packages/gcc-7.4.0-riscv-bsp-v5_1_0-branch/libgcc/soft-fp/truncdfsf2.c:50 (discriminator 49)
2000695c:	f6081ce3          	bnez	a6,200068d4 <__truncdfsf2+0xb4>
/cygdrive/d/Jenkins/workspace/build-system-3/source-packages/gcc-7.4.0-riscv-bsp-v5_1_0-branch/libgcc/soft-fp/truncdfsf2.c:50
20006960:	05fe                	c.slli	a1,0x1f
20006962:	7f8007b7          	lui	a5,0x7f800
20006966:	8fcd                	c.or	a5,a1
/cygdrive/d/Jenkins/workspace/build-system-3/source-packages/gcc-7.4.0-riscv-bsp-v5_1_0-branch/libgcc/soft-fp/truncdfsf2.c:51
20006968:	00152073          	csrs	fflags,a0
2000696c:	f89ff06f          	j	200068f4 <__truncdfsf2+0xd4>
/cygdrive/d/Jenkins/workspace/build-system-3/source-packages/gcc-7.4.0-riscv-bsp-v5_1_0-branch/libgcc/soft-fp/truncdfsf2.c:46 (discriminator 17)
20006970:	57a5                	c.li	a5,-23
20006972:	0af6c363          	blt	a3,a5,20006a18 <__truncdfsf2+0x1f8>
/cygdrive/d/Jenkins/workspace/build-system-3/source-packages/gcc-7.4.0-riscv-bsp-v5_1_0-branch/libgcc/soft-fp/truncdfsf2.c:46 (discriminator 20)
20006976:	4579                	c.li	a0,30
20006978:	008007b7          	lui	a5,0x800
2000697c:	8d15                	c.sub	a0,a3
2000697e:	437d                	c.li	t1,31
20006980:	8fd9                	c.or	a5,a4
20006982:	0ea34163          	blt	t1,a0,20006a64 <__truncdfsf2+0x244>
/cygdrive/d/Jenkins/workspace/build-system-3/source-packages/gcc-7.4.0-riscv-bsp-v5_1_0-branch/libgcc/soft-fp/truncdfsf2.c:46 (discriminator 22)
20006986:	c8260613          	addi	a2,a2,-894 # 3fffc82 <FLASH_SIZE+0x3effc82>
2000698a:	00c89733          	sll	a4,a7,a2
2000698e:	00e03733          	snez	a4,a4
20006992:	00c797b3          	sll	a5,a5,a2
20006996:	00a8d8b3          	srl	a7,a7,a0
2000699a:	8f5d                	c.or	a4,a5
2000699c:	00e8e733          	or	a4,a7,a4
/cygdrive/d/Jenkins/workspace/build-system-3/source-packages/gcc-7.4.0-riscv-bsp-v5_1_0-branch/libgcc/soft-fp/truncdfsf2.c:50 (discriminator 1)
200069a0:	01f59793          	slli	a5,a1,0x1f
200069a4:	db11                	c.beqz	a4,200068b8 <__truncdfsf2+0x98>
/cygdrive/d/Jenkins/workspace/build-system-3/source-packages/gcc-7.4.0-riscv-bsp-v5_1_0-branch/libgcc/soft-fp/truncdfsf2.c:50
200069a6:	00171793          	slli	a5,a4,0x1
200069aa:	0077f693          	andi	a3,a5,7
200069ae:	00777613          	andi	a2,a4,7
200069b2:	14069763          	bnez	a3,20006b00 <__truncdfsf2+0x2e0>
200069b6:	83ed                	c.srli	a5,0x1b
200069b8:	0017c793          	xori	a5,a5,1
200069bc:	8b85                	c.andi	a5,1
200069be:	4501                	c.li	a0,0
200069c0:	4681                	c.li	a3,0
200069c2:	b749                	c.j	20006944 <__truncdfsf2+0x124>
200069c4:	00f77613          	andi	a2,a4,15
200069c8:	aa465c5b          	beqc	a2,4,20006880 <__truncdfsf2+0x60>
200069cc:	00100513          	li	a0,1
/cygdrive/d/Jenkins/workspace/build-system-3/source-packages/gcc-7.4.0-riscv-bsp-v5_1_0-branch/libgcc/soft-fp/truncdfsf2.c:50 (discriminator 36)
200069d0:	0711                	c.addi	a4,4
200069d2:	bf0d                	c.j	20006904 <__truncdfsf2+0xe4>
200069d4:	4505                	c.li	a0,1
/cygdrive/d/Jenkins/workspace/build-system-3/source-packages/gcc-7.4.0-riscv-bsp-v5_1_0-branch/libgcc/soft-fp/truncdfsf2.c:50 (discriminator 34)
200069d6:	d59d                	c.beqz	a1,20006904 <__truncdfsf2+0xe4>
/cygdrive/d/Jenkins/workspace/build-system-3/source-packages/gcc-7.4.0-riscv-bsp-v5_1_0-branch/libgcc/soft-fp/truncdfsf2.c:50
200069d8:	0721                	c.addi	a4,8
200069da:	b72d                	c.j	20006904 <__truncdfsf2+0xe4>
/cygdrive/d/Jenkins/workspace/build-system-3/source-packages/gcc-7.4.0-riscv-bsp-v5_1_0-branch/libgcc/soft-fp/truncdfsf2.c:46 (discriminator 48)
200069dc:	7ff00793          	li	a5,2047
/cygdrive/d/Jenkins/workspace/build-system-3/source-packages/gcc-7.4.0-riscv-bsp-v5_1_0-branch/libgcc/soft-fp/truncdfsf2.c:38 (discriminator 48)
200069e0:	4501                	c.li	a0,0
/cygdrive/d/Jenkins/workspace/build-system-3/source-packages/gcc-7.4.0-riscv-bsp-v5_1_0-branch/libgcc/soft-fp/truncdfsf2.c:46 (discriminator 48)
200069e2:	00f61963          	bne	a2,a5,200069f4 <__truncdfsf2+0x1d4>
/cygdrive/d/Jenkins/workspace/build-system-3/source-packages/gcc-7.4.0-riscv-bsp-v5_1_0-branch/libgcc/soft-fp/truncdfsf2.c:46 (discriminator 51)
200069e6:	00400537          	lui	a0,0x400
200069ea:	8d79                	c.and	a0,a4
/cygdrive/d/Jenkins/workspace/build-system-3/source-packages/gcc-7.4.0-riscv-bsp-v5_1_0-branch/libgcc/soft-fp/truncdfsf2.c:38 (discriminator 51)
200069ec:	00153513          	seqz	a0,a0
200069f0:	00451513          	slli	a0,a0,0x4
/cygdrive/d/Jenkins/workspace/build-system-3/source-packages/gcc-7.4.0-riscv-bsp-v5_1_0-branch/libgcc/soft-fp/truncdfsf2.c:46 (discriminator 55)
200069f4:	070e                	c.slli	a4,0x3
200069f6:	020007b7          	lui	a5,0x2000
200069fa:	8f5d                	c.or	a4,a5
200069fc:	0ff00693          	li	a3,255
/cygdrive/d/Jenkins/workspace/build-system-3/source-packages/gcc-7.4.0-riscv-bsp-v5_1_0-branch/libgcc/soft-fp/truncdfsf2.c:50
20006a00:	0ff00793          	li	a5,255
20006a04:	00375713          	srli	a4,a4,0x3
20006a08:	08f68a63          	beq	a3,a5,20006a9c <__truncdfsf2+0x27c>
20006a0c:	5807275b          	bfoz	a4,a4,22,0
20006a10:	0ff6f793          	andi	a5,a3,255
20006a14:	e95ff06f          	j	200068a8 <__truncdfsf2+0x88>
20006a18:	08285a5b          	beqc	a6,2,20006aac <__truncdfsf2+0x28c>
20006a1c:	02385c5b          	beqc	a6,3,20006a54 <__truncdfsf2+0x234>
20006a20:	0a080863          	beqz	a6,20006ad0 <__truncdfsf2+0x2b0>
/cygdrive/d/Jenkins/workspace/build-system-3/source-packages/gcc-7.4.0-riscv-bsp-v5_1_0-branch/libgcc/soft-fp/truncdfsf2.c:46
20006a24:	4705                	c.li	a4,1
/cygdrive/d/Jenkins/workspace/build-system-3/source-packages/gcc-7.4.0-riscv-bsp-v5_1_0-branch/libgcc/soft-fp/truncdfsf2.c:50
20006a26:	4681                	c.li	a3,0
20006a28:	4785                	c.li	a5,1
20006a2a:	b5a9                	c.j	20006874 <__truncdfsf2+0x54>
/cygdrive/d/Jenkins/workspace/build-system-3/source-packages/gcc-7.4.0-riscv-bsp-v5_1_0-branch/libgcc/soft-fp/truncdfsf2.c:46 (discriminator 7)
20006a2c:	edb1                	c.bnez	a1,20006a88 <__truncdfsf2+0x268>
/cygdrive/d/Jenkins/workspace/build-system-3/source-packages/gcc-7.4.0-riscv-bsp-v5_1_0-branch/libgcc/soft-fp/truncdfsf2.c:50
20006a2e:	7f8007b7          	lui	a5,0x7f800
/cygdrive/d/Jenkins/workspace/build-system-3/source-packages/gcc-7.4.0-riscv-bsp-v5_1_0-branch/libgcc/soft-fp/truncdfsf2.c:46
20006a32:	4515                	c.li	a0,5
20006a34:	ebdff06f          	j	200068f0 <__truncdfsf2+0xd0>
/cygdrive/d/Jenkins/workspace/build-system-3/source-packages/gcc-7.4.0-riscv-bsp-v5_1_0-branch/libgcc/soft-fp/truncdfsf2.c:50
20006a38:	05fe                	c.slli	a1,0x1f
20006a3a:	7f8007b7          	lui	a5,0x7f800
20006a3e:	8fcd                	c.or	a5,a1
/cygdrive/d/Jenkins/workspace/build-system-3/source-packages/gcc-7.4.0-riscv-bsp-v5_1_0-branch/libgcc/soft-fp/truncdfsf2.c:46
20006a40:	4515                	c.li	a0,5
20006a42:	b57d                	c.j	200068f0 <__truncdfsf2+0xd0>
/cygdrive/d/Jenkins/workspace/build-system-3/source-packages/gcc-7.4.0-riscv-bsp-v5_1_0-branch/libgcc/soft-fp/truncdfsf2.c:50
20006a44:	577d                	c.li	a4,-1
20006a46:	4781                	c.li	a5,0
20006a48:	4515                	c.li	a0,5
20006a4a:	0fe00693          	li	a3,254
20006a4e:	0711                	c.addi	a4,4
20006a50:	eb5ff06f          	j	20006904 <__truncdfsf2+0xe4>
20006a54:	4605                	c.li	a2,1
/cygdrive/d/Jenkins/workspace/build-system-3/source-packages/gcc-7.4.0-riscv-bsp-v5_1_0-branch/libgcc/soft-fp/truncdfsf2.c:46
20006a56:	4705                	c.li	a4,1
/cygdrive/d/Jenkins/workspace/build-system-3/source-packages/gcc-7.4.0-riscv-bsp-v5_1_0-branch/libgcc/soft-fp/truncdfsf2.c:50
20006a58:	00200793          	li	a5,2
/cygdrive/d/Jenkins/workspace/build-system-3/source-packages/gcc-7.4.0-riscv-bsp-v5_1_0-branch/libgcc/soft-fp/truncdfsf2.c:50 (discriminator 19)
20006a5c:	ec059ee3          	bnez	a1,20006938 <__truncdfsf2+0x118>
/cygdrive/d/Jenkins/workspace/build-system-3/source-packages/gcc-7.4.0-riscv-bsp-v5_1_0-branch/libgcc/soft-fp/truncdfsf2.c:50 (discriminator 25)
20006a60:	07a1                	c.addi	a5,8
20006a62:	bdd9                	c.j	20006938 <__truncdfsf2+0x118>
/cygdrive/d/Jenkins/workspace/build-system-3/source-packages/gcc-7.4.0-riscv-bsp-v5_1_0-branch/libgcc/soft-fp/truncdfsf2.c:46 (discriminator 23)
20006a64:	5779                	c.li	a4,-2
20006a66:	8f15                	c.sub	a4,a3
20006a68:	00e7d733          	srl	a4,a5,a4
20006a6c:	000558db          	beqc	a0,32,20006a7c <__truncdfsf2+0x25c>
/cygdrive/d/Jenkins/workspace/build-system-3/source-packages/gcc-7.4.0-riscv-bsp-v5_1_0-branch/libgcc/soft-fp/truncdfsf2.c:46 (discriminator 31)
20006a70:	ca260613          	addi	a2,a2,-862
20006a74:	00c797b3          	sll	a5,a5,a2
20006a78:	00f8e8b3          	or	a7,a7,a5
/cygdrive/d/Jenkins/workspace/build-system-3/source-packages/gcc-7.4.0-riscv-bsp-v5_1_0-branch/libgcc/soft-fp/truncdfsf2.c:46 (discriminator 34)
20006a7c:	011038b3          	snez	a7,a7
20006a80:	00e8e733          	or	a4,a7,a4
20006a84:	f1dff06f          	j	200069a0 <__truncdfsf2+0x180>
20006a88:	577d                	c.li	a4,-1
20006a8a:	0fe00693          	li	a3,254
20006a8e:	4515                	c.li	a0,5
20006a90:	e05ff06f          	j	20006894 <__truncdfsf2+0x74>
/cygdrive/d/Jenkins/workspace/build-system-3/source-packages/gcc-7.4.0-riscv-bsp-v5_1_0-branch/libgcc/soft-fp/truncdfsf2.c:50 (discriminator 57)
20006a94:	e40584e3          	beqz	a1,200068dc <__truncdfsf2+0xbc>
20006a98:	4585                	c.li	a1,1
20006a9a:	b5d9                	c.j	20006960 <__truncdfsf2+0x140>
/cygdrive/d/Jenkins/workspace/build-system-3/source-packages/gcc-7.4.0-riscv-bsp-v5_1_0-branch/libgcc/soft-fp/truncdfsf2.c:50 (discriminator 64)
20006a9c:	cf21                	c.beqz	a4,20006af4 <__truncdfsf2+0x2d4>
/cygdrive/d/Jenkins/workspace/build-system-3/source-packages/gcc-7.4.0-riscv-bsp-v5_1_0-branch/libgcc/soft-fp/truncdfsf2.c:50
20006a9e:	4581                	c.li	a1,0
20006aa0:	0ff00793          	li	a5,255
20006aa4:	00400737          	lui	a4,0x400
20006aa8:	e01ff06f          	j	200068a8 <__truncdfsf2+0x88>
20006aac:	4605                	c.li	a2,1
/cygdrive/d/Jenkins/workspace/build-system-3/source-packages/gcc-7.4.0-riscv-bsp-v5_1_0-branch/libgcc/soft-fp/truncdfsf2.c:46
20006aae:	4705                	c.li	a4,1
/cygdrive/d/Jenkins/workspace/build-system-3/source-packages/gcc-7.4.0-riscv-bsp-v5_1_0-branch/libgcc/soft-fp/truncdfsf2.c:50
20006ab0:	00200793          	li	a5,2
/cygdrive/d/Jenkins/workspace/build-system-3/source-packages/gcc-7.4.0-riscv-bsp-v5_1_0-branch/libgcc/soft-fp/truncdfsf2.c:50 (discriminator 18)
20006ab4:	e80582e3          	beqz	a1,20006938 <__truncdfsf2+0x118>
/cygdrive/d/Jenkins/workspace/build-system-3/source-packages/gcc-7.4.0-riscv-bsp-v5_1_0-branch/libgcc/soft-fp/truncdfsf2.c:50
20006ab8:	07a1                	c.addi	a5,8
20006aba:	bdbd                	c.j	20006938 <__truncdfsf2+0x118>
/cygdrive/d/Jenkins/workspace/build-system-3/source-packages/gcc-7.4.0-riscv-bsp-v5_1_0-branch/libgcc/soft-fp/truncdfsf2.c:46 (discriminator 11)
20006abc:	d5f1                	c.beqz	a1,20006a88 <__truncdfsf2+0x268>
/cygdrive/d/Jenkins/workspace/build-system-3/source-packages/gcc-7.4.0-riscv-bsp-v5_1_0-branch/libgcc/soft-fp/truncdfsf2.c:50
20006abe:	ff8007b7          	lui	a5,0xff800
/cygdrive/d/Jenkins/workspace/build-system-3/source-packages/gcc-7.4.0-riscv-bsp-v5_1_0-branch/libgcc/soft-fp/truncdfsf2.c:46
20006ac2:	4515                	c.li	a0,5
20006ac4:	e2dff06f          	j	200068f0 <__truncdfsf2+0xd0>
/cygdrive/d/Jenkins/workspace/build-system-3/source-packages/gcc-7.4.0-riscv-bsp-v5_1_0-branch/libgcc/soft-fp/truncdfsf2.c:50 (discriminator 53)
20006ac8:	e8058ce3          	beqz	a1,20006960 <__truncdfsf2+0x140>
20006acc:	e11ff06f          	j	200068dc <__truncdfsf2+0xbc>
/cygdrive/d/Jenkins/workspace/build-system-3/source-packages/gcc-7.4.0-riscv-bsp-v5_1_0-branch/libgcc/soft-fp/truncdfsf2.c:50
20006ad0:	4785                	c.li	a5,1
20006ad2:	4681                	c.li	a3,0
/cygdrive/d/Jenkins/workspace/build-system-3/source-packages/gcc-7.4.0-riscv-bsp-v5_1_0-branch/libgcc/soft-fp/truncdfsf2.c:46
20006ad4:	4705                	c.li	a4,1
20006ad6:	4505                	c.li	a0,1
20006ad8:	ef9ff06f          	j	200069d0 <__truncdfsf2+0x1b0>
20006adc:	4705                	c.li	a4,1
/cygdrive/d/Jenkins/workspace/build-system-3/source-packages/gcc-7.4.0-riscv-bsp-v5_1_0-branch/libgcc/soft-fp/truncdfsf2.c:50
20006ade:	4789                	c.li	a5,2
20006ae0:	00100613          	li	a2,1
20006ae4:	0791                	c.addi	a5,4
20006ae6:	83ed                	c.srli	a5,0x1b
20006ae8:	0017c793          	xori	a5,a5,1
20006aec:	8b85                	c.andi	a5,1
20006aee:	4505                	c.li	a0,1
20006af0:	4681                	c.li	a3,0
20006af2:	bd89                	c.j	20006944 <__truncdfsf2+0x124>
20006af4:	0ff00793          	li	a5,255
20006af8:	4701                	c.li	a4,0
20006afa:	b37d                	c.j	200068a8 <__truncdfsf2+0x88>
20006afc:	830d                	c.srli	a4,0x3
20006afe:	b739                	c.j	20006a0c <__truncdfsf2+0x1ec>
/cygdrive/d/Jenkins/workspace/build-system-3/source-packages/gcc-7.4.0-riscv-bsp-v5_1_0-branch/libgcc/soft-fp/truncdfsf2.c:50 (discriminator 13)
20006b00:	ba285a5b          	beqc	a6,2,20006ab4 <__truncdfsf2+0x294>
20006b04:	b4385c5b          	beqc	a6,3,20006a5c <__truncdfsf2+0x23c>
20006b08:	e20818e3          	bnez	a6,20006938 <__truncdfsf2+0x118>
/cygdrive/d/Jenkins/workspace/build-system-3/source-packages/gcc-7.4.0-riscv-bsp-v5_1_0-branch/libgcc/soft-fp/truncdfsf2.c:50 (discriminator 16)
20006b0c:	00f7f693          	andi	a3,a5,15
20006b10:	a246d45b          	beqc	a3,4,20006938 <__truncdfsf2+0x118>
20006b14:	fd1ff06f          	j	20006ae4 <__truncdfsf2+0x2c4>
20006b18:	4505                	c.li	a0,1
/cygdrive/d/Jenkins/workspace/build-system-3/source-packages/gcc-7.4.0-riscv-bsp-v5_1_0-branch/libgcc/soft-fp/truncdfsf2.c:50 (discriminator 46)
20006b1a:	d6061de3          	bnez	a2,20006894 <__truncdfsf2+0x74>
20006b1e:	b5cd                	c.j	20006a00 <__truncdfsf2+0x1e0>

20006b20 <printf>:
printf():
20006b20:	7139                	c.addi16sp	sp,-64
20006b22:	d22e                	c.swsp	a1,36(sp)
20006b24:	104c                	c.addi4spn	a1,sp,36
20006b26:	ce06                	c.swsp	ra,28(sp)
20006b28:	d432                	c.swsp	a2,40(sp)
20006b2a:	d636                	c.swsp	a3,44(sp)
20006b2c:	d83a                	c.swsp	a4,48(sp)
20006b2e:	da3e                	c.swsp	a5,52(sp)
20006b30:	dc42                	c.swsp	a6,56(sp)
20006b32:	de46                	c.swsp	a7,60(sp)
20006b34:	c62e                	c.swsp	a1,12(sp)
20006b36:	28b9                	c.jal	20006b94 <vprintf>
20006b38:	40f2                	c.lwsp	ra,28(sp)
20006b3a:	6121                	c.addi16sp	sp,64
20006b3c:	8082                	c.jr	ra

20006b3e <sprintf>:
sprintf():
20006b3e:	7139                	c.addi16sp	sp,-64
20006b40:	d432                	c.swsp	a2,40(sp)
20006b42:	1030                	c.addi4spn	a2,sp,40
20006b44:	ce06                	c.swsp	ra,28(sp)
20006b46:	d636                	c.swsp	a3,44(sp)
20006b48:	d83a                	c.swsp	a4,48(sp)
20006b4a:	da3e                	c.swsp	a5,52(sp)
20006b4c:	dc42                	c.swsp	a6,56(sp)
20006b4e:	de46                	c.swsp	a7,60(sp)
20006b50:	c632                	c.swsp	a2,12(sp)
20006b52:	206d                	c.jal	20006bfc <vsprintf>
20006b54:	40f2                	c.lwsp	ra,28(sp)
20006b56:	6121                	c.addi16sp	sp,64
20006b58:	8082                	c.jr	ra

20006b5a <__vprintf_help>:
__vprintf_help():
20006b5a:	403002ef          	jal	t0,2000775c <__riscv_save_0>
20006b5e:	867fa7ab          	lwgp	a5,-1948 # 80064 <__printf_count>
20006b62:	0785                	c.addi	a5,1
20006b64:	86ffc3ab          	swgp	a5,-1948 # 80064 <__printf_count>
20006b68:	861f940b          	addigp	s0,-1952 # 80060 <__vprintf_buf_len>
20006b6c:	85ffa5ab          	lwgp	a1,-1956 # 8005c <__vprintf_buf>
20006b70:	401c                	c.lw	a5,0(s0)
20006b72:	00178713          	addi	a4,a5,1 # ff800001 <_DATA_LMA_START+0xdf7f8029>
20006b76:	97ae                	c.add	a5,a1
20006b78:	c018                	c.sw	a4,0(s0)
20006b7a:	00a78023          	sb	a0,0(a5)
20006b7e:	4007695b          	bnec	a4,64,20006b90 <__vprintf_help+0x36>
20006b82:	04000613          	li	a2,64
20006b86:	4505                	c.li	a0,1
20006b88:	99cfe0ef          	jal	ra,20004d24 <_write>
20006b8c:	00042023          	sw	zero,0(s0)
20006b90:	3f10006f          	j	20007780 <__riscv_restore_0>

20006b94 <vprintf>:
vprintf():
20006b94:	1141                	c.addi	sp,-16
20006b96:	c606                	c.swsp	ra,12(sp)
20006b98:	c422                	c.swsp	s0,8(sp)
20006b9a:	c226                	c.swsp	s1,4(sp)
20006b9c:	c04a                	c.swsp	s2,0(sp)
20006b9e:	0800                	c.addi4spn	s0,sp,16
20006ba0:	715d                	c.addi16sp	sp,-80
20006ba2:	00f10793          	addi	a5,sp,15
20006ba6:	20007637          	lui	a2,0x20007
20006baa:	9bc1                	c.andi	a5,-16
20006bac:	85df948b          	addigp	s1,-1956 # 8005c <__vprintf_buf>
20006bb0:	861f990b          	addigp	s2,-1952 # 80060 <__vprintf_buf_len>
20006bb4:	b5a60613          	addi	a2,a2,-1190 # 20006b5a <__vprintf_help>
20006bb8:	c09c                	c.sw	a5,0(s1)
20006bba:	00092023          	sw	zero,0(s2)
20006bbe:	284d                	c.jal	20006c70 <__printf_impl>
20006bc0:	00092603          	lw	a2,0(s2)
20006bc4:	408c                	c.lw	a1,0(s1)
20006bc6:	4505                	c.li	a0,1
20006bc8:	95cfe0ef          	jal	ra,20004d24 <_write>
20006bcc:	867fa52b          	lwgp	a0,-1948 # 80064 <__printf_count>
20006bd0:	ff040113          	addi	sp,s0,-16
20006bd4:	40b2                	c.lwsp	ra,12(sp)
20006bd6:	4422                	c.lwsp	s0,8(sp)
20006bd8:	4492                	c.lwsp	s1,4(sp)
20006bda:	4902                	c.lwsp	s2,0(sp)
20006bdc:	0141                	c.addi	sp,16
20006bde:	8082                	c.jr	ra

20006be0 <__vsprintf_help>:
__vsprintf_help():
20006be0:	867fa7ab          	lwgp	a5,-1948 # 80064 <__printf_count>
20006be4:	0785                	c.addi	a5,1
20006be6:	86ffc3ab          	swgp	a5,-1948 # 80064 <__printf_count>
20006bea:	121027ab          	lwgp	a5,2336 # 81120 <__vsprintf_buf>
20006bee:	00178693          	addi	a3,a5,1
20006bf2:	12d040ab          	swgp	a3,2336 # 81120 <__vsprintf_buf>
20006bf6:	00a78023          	sb	a0,0(a5)
20006bfa:	8082                	c.jr	ra

20006bfc <vsprintf>:
vsprintf():
20006bfc:	361002ef          	jal	t0,2000775c <__riscv_save_0>
20006c00:	87ae                	c.mv	a5,a1
20006c02:	85b2                	c.mv	a1,a2
20006c04:	20007637          	lui	a2,0x20007
20006c08:	12a040ab          	swgp	a0,2336 # 81120 <__vsprintf_buf>
20006c0c:	be060613          	addi	a2,a2,-1056 # 20006be0 <__vsprintf_help>
20006c10:	853e                	c.mv	a0,a5
20006c12:	28b9                	c.jal	20006c70 <__printf_impl>
20006c14:	121027ab          	lwgp	a5,2336 # 81120 <__vsprintf_buf>
20006c18:	00078023          	sb	zero,0(a5)
20006c1c:	867fa52b          	lwgp	a0,-1948 # 80064 <__printf_count>
20006c20:	3610006f          	j	20007780 <__riscv_restore_0>

20006c24 <__print_integral>:
__print_integral():
20006c24:	339002ef          	jal	t0,2000775c <__riscv_save_0>
20006c28:	1101                	c.addi	sp,-32
20006c2a:	842a                	c.mv	s0,a0
20006c2c:	84ae                	c.mv	s1,a1
20006c2e:	8932                	c.mv	s2,a2
20006c30:	c636                	c.swsp	a3,12(sp)
20006c32:	85be                	c.mv	a1,a5
20006c34:	ca32                	c.swsp	a2,20(sp)
20006c36:	853a                	c.mv	a0,a4
20006c38:	0830                	c.addi4spn	a2,sp,24
20006c3a:	215d                	c.jal	200070e0 <__int_to_poly>
20006c3c:	46b2                	c.lwsp	a3,12(sp)
20006c3e:	882a                	c.mv	a6,a0
20006c40:	083c                	c.addi4spn	a5,sp,24
20006c42:	0858                	c.addi4spn	a4,sp,20
20006c44:	864a                	c.mv	a2,s2
20006c46:	85a6                	c.mv	a1,s1
20006c48:	8522                	c.mv	a0,s0
20006c4a:	2955                	c.jal	200070fe <__print_integral_poly>
20006c4c:	200087b7          	lui	a5,0x20008
20006c50:	eb078793          	addi	a5,a5,-336 # 20007eb0 <__digits>
20006c54:	00a46563          	bltu	s0,a0,20006c5e <__print_integral+0x3a>
20006c58:	6105                	c.addi16sp	sp,32
20006c5a:	3270006f          	j	20007780 <__riscv_restore_0>
20006c5e:	00044703          	lbu	a4,0(s0)
20006c62:	0405                	c.addi	s0,1
20006c64:	973e                	c.add	a4,a5
20006c66:	00070703          	lb	a4,0(a4) # 400000 <FLASH_SIZE+0x300000>
20006c6a:	fee40fa3          	sb	a4,-1(s0)
20006c6e:	b7dd                	c.j	20006c54 <__print_integral+0x30>

20006c70 <__printf_impl>:
__printf_impl():
20006c70:	2bd002ef          	jal	t0,2000772c <__riscv_save_12>
20006c74:	a6010113          	addi	sp,sp,-1440
20006c78:	6b05                	c.lui	s6,0x1
20006c7a:	892a                	c.mv	s2,a0
20006c7c:	842e                	c.mv	s0,a1
20006c7e:	89b2                	c.mv	s3,a2
20006c80:	01c10a13          	addi	s4,sp,28
20006c84:	800b0b13          	addi	s6,s6,-2048 # 800 <clock_init_ram.constprop.5+0x20>
20006c88:	860fc3ab          	swgp	zero,-1948 # 80064 <__printf_count>
20006c8c:	c456                	c.swsp	s5,8(sp)
20006c8e:	00094503          	lbu	a0,0(s2)
20006c92:	e509                	c.bnez	a0,20006c9c <__printf_impl+0x2c>
20006c94:	5a010113          	addi	sp,sp,1440
20006c98:	2d10006f          	j	20007768 <__riscv_restore_12>
20006c9c:	00190493          	addi	s1,s2,1
20006ca0:	005555db          	beqc	a0,37,20006caa <__printf_impl+0x3a>
20006ca4:	9982                	c.jalr	s3
20006ca6:	8926                	c.mv	s2,s1
20006ca8:	b7dd                	c.j	20006c8e <__printf_impl+0x1e>
20006caa:	00194783          	lbu	a5,1(s2)
20006cae:	0057e8db          	bnec	a5,37,20006cbe <__printf_impl+0x4e>
20006cb2:	02500513          	li	a0,37
20006cb6:	9982                	c.jalr	s3
20006cb8:	00290493          	addi	s1,s2,2
20006cbc:	b7ed                	c.j	20006ca6 <__printf_impl+0x36>
20006cbe:	4681                	c.li	a3,0
20006cc0:	4701                	c.li	a4,0
20006cc2:	d002                	c.swsp	zero,32(sp)
20006cc4:	0004c783          	lbu	a5,0(s1)
20006cc8:	0007e7db          	bnec	a5,32,20006cd6 <__printf_impl+0x66>
20006ccc:	00276713          	ori	a4,a4,2
20006cd0:	0485                	c.addi	s1,1
20006cd2:	4685                	c.li	a3,1
20006cd4:	bfc5                	c.j	20006cc4 <__printf_impl+0x54>
20006cd6:	00d7e5db          	bnec	a5,45,20006ce0 <__printf_impl+0x70>
20006cda:	00476713          	ori	a4,a4,4
20006cde:	bfcd                	c.j	20006cd0 <__printf_impl+0x60>
20006ce0:	00b7e5db          	bnec	a5,43,20006cea <__printf_impl+0x7a>
20006ce4:	00876713          	ori	a4,a4,8
20006ce8:	b7e5                	c.j	20006cd0 <__printf_impl+0x60>
20006cea:	0037e5db          	bnec	a5,35,20006cf4 <__printf_impl+0x84>
20006cee:	01076713          	ori	a4,a4,16
20006cf2:	bff9                	c.j	20006cd0 <__printf_impl+0x60>
20006cf4:	0107e5db          	bnec	a5,48,20006cfe <__printf_impl+0x8e>
20006cf8:	02076713          	ori	a4,a4,32
20006cfc:	bfd1                	c.j	20006cd0 <__printf_impl+0x60>
20006cfe:	c291                	c.beqz	a3,20006d02 <__printf_impl+0x92>
20006d00:	d03a                	c.swsp	a4,32(sp)
20006d02:	04a7eadb          	bnec	a5,42,20006d56 <__printf_impl+0xe6>
20006d06:	00042c03          	lw	s8,0(s0)
20006d0a:	00440713          	addi	a4,s0,4
20006d0e:	000c5863          	bgez	s8,20006d1e <__printf_impl+0xae>
20006d12:	5782                	c.lwsp	a5,32(sp)
20006d14:	41800c33          	neg	s8,s8
20006d18:	0047e793          	ori	a5,a5,4
20006d1c:	d03e                	c.swsp	a5,32(sp)
20006d1e:	0485                	c.addi	s1,1
20006d20:	843a                	c.mv	s0,a4
20006d22:	0004c783          	lbu	a5,0(s1)
20006d26:	5cfd                	c.li	s9,-1
20006d28:	06e7e4db          	bnec	a5,46,20006d90 <__printf_impl+0x120>
20006d2c:	0014c783          	lbu	a5,1(s1)
20006d30:	04a7dbdb          	beqc	a5,42,20006d86 <__printf_impl+0x116>
20006d34:	0485                	c.addi	s1,1
20006d36:	4c81                	c.li	s9,0
20006d38:	4725                	c.li	a4,9
20006d3a:	4629                	c.li	a2,10
20006d3c:	0004c783          	lbu	a5,0(s1)
20006d40:	fd078793          	addi	a5,a5,-48
20006d44:	0ff7f693          	andi	a3,a5,255
20006d48:	04d76463          	bltu	a4,a3,20006d90 <__printf_impl+0x120>
20006d4c:	c4cc97ff          	maddr32	a5,s9,a2
20006d50:	0485                	c.addi	s1,1
20006d52:	8cbe                	c.mv	s9,a5
20006d54:	b7e5                	c.j	20006d3c <__printf_impl+0xcc>
20006d56:	fd078793          	addi	a5,a5,-48
20006d5a:	0ff7f793          	andi	a5,a5,255
20006d5e:	4725                	c.li	a4,9
20006d60:	4c01                	c.li	s8,0
20006d62:	fcf760e3          	bltu	a4,a5,20006d22 <__printf_impl+0xb2>
20006d66:	4725                	c.li	a4,9
20006d68:	4629                	c.li	a2,10
20006d6a:	a029                	c.j	20006d74 <__printf_impl+0x104>
20006d6c:	c4cc17ff          	maddr32	a5,s8,a2
20006d70:	0485                	c.addi	s1,1
20006d72:	8c3e                	c.mv	s8,a5
20006d74:	0004c783          	lbu	a5,0(s1)
20006d78:	fd078793          	addi	a5,a5,-48
20006d7c:	0ff7f693          	andi	a3,a5,255
20006d80:	fed776e3          	bgeu	a4,a3,20006d6c <__printf_impl+0xfc>
20006d84:	bf79                	c.j	20006d22 <__printf_impl+0xb2>
20006d86:	401c                	c.lw	a5,0(s0)
20006d88:	0489                	c.addi	s1,2
20006d8a:	0411                	c.addi	s0,4
20006d8c:	f2fc8cff          	maxw	s9,s9,a5
20006d90:	43200613          	li	a2,1074
20006d94:	f0cc867f          	minw	a2,s9,a2
20006d98:	0004c783          	lbu	a5,0(s1)
20006d9c:	4487efdb          	bnec	a5,104,20006dfa <__printf_impl+0x18a>
20006da0:	5782                	c.lwsp	a5,32(sp)
20006da2:	0014c703          	lbu	a4,1(s1)
20006da6:	448764db          	bnec	a4,104,20006dee <__printf_impl+0x17e>
20006daa:	0407e793          	ori	a5,a5,64
20006dae:	00248913          	addi	s2,s1,2
20006db2:	d03e                	c.swsp	a5,32(sp)
20006db4:	00094503          	lbu	a0,0(s2)
20006db8:	06700793          	li	a5,103
20006dbc:	0aa7e263          	bltu	a5,a0,20006e60 <__printf_impl+0x1f0>
20006dc0:	06500793          	li	a5,101
20006dc4:	06f57d63          	bgeu	a0,a5,20006e3e <__printf_impl+0x1ce>
20006dc8:	05800793          	li	a5,88
20006dcc:	5785555b          	beqc	a0,88,20006f36 <__printf_impl+0x2c6>
20006dd0:	04a7ef63          	bltu	a5,a0,20006e2e <__printf_impl+0x1be>
20006dd4:	04100793          	li	a5,65
20006dd8:	4615535b          	beqc	a0,65,20006e3e <__printf_impl+0x1ce>
20006ddc:	00f56763          	bltu	a0,a5,20006dea <__printf_impl+0x17a>
20006de0:	fbb50793          	addi	a5,a0,-69 # 3fffbb <FLASH_SIZE+0x2fffbb>
20006de4:	4709                	c.li	a4,2
20006de6:	04f77c63          	bgeu	a4,a5,20006e3e <__printf_impl+0x1ce>
20006dea:	84a2                	c.mv	s1,s0
20006dec:	a481                	c.j	2000702c <__printf_impl+0x3bc>
20006dee:	0807e793          	ori	a5,a5,128
20006df2:	d03e                	c.swsp	a5,32(sp)
20006df4:	00148913          	addi	s2,s1,1
20006df8:	bf75                	c.j	20006db4 <__printf_impl+0x144>
20006dfa:	40c7eddb          	bnec	a5,108,20006e14 <__printf_impl+0x1a4>
20006dfe:	5782                	c.lwsp	a5,32(sp)
20006e00:	0014c703          	lbu	a4,1(s1)
20006e04:	40c765db          	bnec	a4,108,20006e0e <__printf_impl+0x19e>
20006e08:	2007e793          	ori	a5,a5,512
20006e0c:	b74d                	c.j	20006dae <__printf_impl+0x13e>
20006e0e:	1007e793          	ori	a5,a5,256
20006e12:	b7c5                	c.j	20006df2 <__printf_impl+0x182>
20006e14:	00148913          	addi	s2,s1,1
20006e18:	41a7e7db          	bnec	a5,122,20006e26 <__printf_impl+0x1b6>
20006e1c:	5782                	c.lwsp	a5,32(sp)
20006e1e:	1007e793          	ori	a5,a5,256
20006e22:	d03e                	c.swsp	a5,32(sp)
20006e24:	bf41                	c.j	20006db4 <__printf_impl+0x144>
20006e26:	ff47dbdb          	beqc	a5,116,20006e1c <__printf_impl+0x1ac>
20006e2a:	8926                	c.mv	s2,s1
20006e2c:	b761                	c.j	20006db4 <__printf_impl+0x144>
20006e2e:	06300793          	li	a5,99
20006e32:	50355cdb          	beqc	a0,99,20006f4a <__printf_impl+0x2da>
20006e36:	04a7e463          	bltu	a5,a0,20006e7e <__printf_impl+0x20e>
20006e3a:	fa1568db          	bnec	a0,97,20006dea <__printf_impl+0x17a>
20006e3e:	041d                	c.addi	s0,7
20006e40:	9861                	c.andi	s0,-8
20006e42:	00042803          	lw	a6,0(s0)
20006e46:	00442883          	lw	a7,4(s0)
20006e4a:	02057b93          	andi	s7,a0,32
20006e4e:	87aa                	c.mv	a5,a0
20006e50:	86c2                	c.mv	a3,a6
20006e52:	8746                	c.mv	a4,a7
20006e54:	100c                	c.addi4spn	a1,sp,32
20006e56:	1048                	c.addi4spn	a0,sp,36
20006e58:	00840493          	addi	s1,s0,8
20006e5c:	2e0d                	c.jal	2000718e <__printf_float_impl>
20006e5e:	aa45                	c.j	2000700e <__printf_impl+0x39e>
20006e60:	07000793          	li	a5,112
20006e64:	4d0559db          	beqc	a0,112,20006f36 <__printf_impl+0x2c6>
20006e68:	04a7e163          	bltu	a5,a0,20006eaa <__printf_impl+0x23a>
20006e6c:	06e00793          	li	a5,110
20006e70:	5ae553db          	beqc	a0,110,20007016 <__printf_impl+0x3a6>
20006e74:	45a1                	c.li	a1,8
20006e76:	0ca7e163          	bltu	a5,a0,20006f38 <__printf_impl+0x2c8>
20006e7a:	f69568db          	bnec	a0,105,20006dea <__printf_impl+0x17a>
20006e7e:	5682                	c.lwsp	a3,32(sp)
20006e80:	0e66f05b          	bbc	a3,6,20006f60 <__printf_impl+0x2f0>
20006e84:	00040703          	lb	a4,0(s0)
20006e88:	00440493          	addi	s1,s0,4
20006e8c:	41f75793          	srai	a5,a4,0x1f
20006e90:	0e07df63          	bgez	a5,20006f8e <__printf_impl+0x31e>
20006e94:	40e00733          	neg	a4,a4
20006e98:	00e035b3          	snez	a1,a4
20006e9c:	40f007b3          	neg	a5,a5
20006ea0:	8f8d                	c.sub	a5,a1
20006ea2:	4006e693          	ori	a3,a3,1024
20006ea6:	d036                	c.swsp	a3,32(sp)
20006ea8:	a0dd                	c.j	20006f8e <__printf_impl+0x31e>
20006eaa:	515553db          	beqc	a0,117,20006fb0 <__printf_impl+0x340>
20006eae:	498554db          	beqc	a0,120,20006f36 <__printf_impl+0x2c6>
20006eb2:	f3356cdb          	bnec	a0,115,20006dea <__printf_impl+0x17a>
20006eb6:	00042a83          	lw	s5,0(s0)
20006eba:	85b2                	c.mv	a1,a2
20006ebc:	8556                	c.mv	a0,s5
20006ebe:	c632                	c.swsp	a2,12(sp)
20006ec0:	27a9                	c.jal	2000760a <strnlen>
20006ec2:	57fd                	c.li	a5,-1
20006ec4:	00440493          	addi	s1,s0,4
20006ec8:	00fc8563          	beq	s9,a5,20006ed2 <__printf_impl+0x262>
20006ecc:	4632                	c.lwsp	a2,12(sp)
20006ece:	f0c5057f          	minw	a0,a0,a2
20006ed2:	00aa8433          	add	s0,s5,a0
20006ed6:	4b81                	c.li	s7,0
20006ed8:	5782                	c.lwsp	a5,32(sp)
20006eda:	02d00693          	li	a3,45
20006ede:	40a7fb5b          	bbs	a5,10,20006ef4 <__printf_impl+0x284>
20006ee2:	02b00693          	li	a3,43
20006ee6:	4037f75b          	bbs	a5,3,20006ef4 <__printf_impl+0x284>
20006eea:	8cd2                	c.mv	s9,s4
20006eec:	0017f85b          	bbc	a5,1,20006efc <__printf_impl+0x28c>
20006ef0:	02000693          	li	a3,32
20006ef4:	01d10c93          	addi	s9,sp,29
20006ef8:	00d10e23          	sb	a3,28(sp)
20006efc:	0167f6b3          	and	a3,a5,s6
20006f00:	ca91                	c.beqz	a3,20006f14 <__printf_impl+0x2a4>
20006f02:	03000693          	li	a3,48
20006f06:	00dc8023          	sb	a3,0(s9)
20006f0a:	05800693          	li	a3,88
20006f0e:	00dc80a3          	sb	a3,1(s9)
20006f12:	0c89                	c.addi	s9,2
20006f14:	5627f35b          	bbs	a5,2,2000707a <__printf_impl+0x40a>
20006f18:	41540db3          	sub	s11,s0,s5
20006f1c:	4057fa5b          	bbs	a5,5,20006f30 <__printf_impl+0x2c0>
20006f20:	41bc0d33          	sub	s10,s8,s11
20006f24:	414c87b3          	sub	a5,s9,s4
20006f28:	40fd0d33          	sub	s10,s10,a5
20006f2c:	17a04663          	bgtz	s10,20007098 <__printf_impl+0x428>
20006f30:	8d52                	c.mv	s10,s4
20006f32:	9c52                	c.add	s8,s4
20006f34:	aaad                	c.j	200070ae <__printf_impl+0x43e>
20006f36:	45c1                	c.li	a1,16
20006f38:	5782                	c.lwsp	a5,32(sp)
20006f3a:	0667fd5b          	bbc	a5,6,20006fb4 <__printf_impl+0x344>
20006f3e:	00044703          	lbu	a4,0(s0)
20006f42:	00440493          	addi	s1,s0,4
20006f46:	4781                	c.li	a5,0
20006f48:	a859                	c.j	20006fde <__printf_impl+0x36e>
20006f4a:	401c                	c.lw	a5,0(s0)
20006f4c:	00440493          	addi	s1,s0,4
20006f50:	4b81                	c.li	s7,0
20006f52:	02510413          	addi	s0,sp,37
20006f56:	02f10223          	sb	a5,36(sp)
20006f5a:	02410a93          	addi	s5,sp,36
20006f5e:	bfad                	c.j	20006ed8 <__printf_impl+0x268>
20006f60:	0076f75b          	bbc	a3,7,20006f6e <__printf_impl+0x2fe>
20006f64:	00440493          	addi	s1,s0,4
20006f68:	00041703          	lh	a4,0(s0)
20006f6c:	b705                	c.j	20006e8c <__printf_impl+0x21c>
20006f6e:	0086f65b          	bbc	a3,8,20006f7a <__printf_impl+0x30a>
20006f72:	00440493          	addi	s1,s0,4
20006f76:	4018                	c.lw	a4,0(s0)
20006f78:	bf11                	c.j	20006e8c <__printf_impl+0x21c>
20006f7a:	be96fc5b          	bbc	a3,9,20006f72 <__printf_impl+0x302>
20006f7e:	041d                	c.addi	s0,7
20006f80:	9861                	c.andi	s0,-8
20006f82:	405c                	c.lw	a5,4(s0)
20006f84:	00840493          	addi	s1,s0,8
20006f88:	4018                	c.lw	a4,0(s0)
20006f8a:	0007c963          	bltz	a5,20006f9c <__printf_impl+0x32c>
20006f8e:	56fd                	c.li	a3,-1
20006f90:	45a9                	c.li	a1,10
20006f92:	4b81                	c.li	s7,0
20006f94:	04dc9a63          	bne	s9,a3,20006fe8 <__printf_impl+0x378>
20006f98:	4605                	c.li	a2,1
20006f9a:	a0b5                	c.j	20007006 <__printf_impl+0x396>
20006f9c:	ee071ce3          	bnez	a4,20006e94 <__printf_impl+0x224>
20006fa0:	800005b7          	lui	a1,0x80000
20006fa4:	eeb798e3          	bne	a5,a1,20006e94 <__printf_impl+0x224>
20006fa8:	4701                	c.li	a4,0
20006faa:	800007b7          	lui	a5,0x80000
20006fae:	bdd5                	c.j	20006ea2 <__printf_impl+0x232>
20006fb0:	45a9                	c.li	a1,10
20006fb2:	b759                	c.j	20006f38 <__printf_impl+0x2c8>
20006fb4:	0077f75b          	bbc	a5,7,20006fc2 <__printf_impl+0x352>
20006fb8:	00440493          	addi	s1,s0,4
20006fbc:	00045703          	lhu	a4,0(s0)
20006fc0:	b759                	c.j	20006f46 <__printf_impl+0x2d6>
20006fc2:	0087f65b          	bbc	a5,8,20006fce <__printf_impl+0x35e>
20006fc6:	00440493          	addi	s1,s0,4
20006fca:	4018                	c.lw	a4,0(s0)
20006fcc:	bfad                	c.j	20006f46 <__printf_impl+0x2d6>
20006fce:	be97fc5b          	bbc	a5,9,20006fc6 <__printf_impl+0x356>
20006fd2:	041d                	c.addi	s0,7
20006fd4:	9861                	c.andi	s0,-8
20006fd6:	4018                	c.lw	a4,0(s0)
20006fd8:	405c                	c.lw	a5,4(s0)
20006fda:	00840493          	addi	s1,s0,8
20006fde:	56fd                	c.li	a3,-1
20006fe0:	02057b93          	andi	s7,a0,32
20006fe4:	02dc8763          	beq	s9,a3,20007012 <__printf_impl+0x3a2>
20006fe8:	5682                	c.lwsp	a3,32(sp)
20006fea:	fdf6f693          	andi	a3,a3,-33
20006fee:	d036                	c.swsp	a3,32(sp)
20006ff0:	0105eb5b          	bnec	a1,16,20007006 <__printf_impl+0x396>
20006ff4:	5682                	c.lwsp	a3,32(sp)
20006ff6:	0046f85b          	bbc	a3,4,20007006 <__printf_impl+0x396>
20006ffa:	00f76533          	or	a0,a4,a5
20006ffe:	c501                	c.beqz	a0,20007006 <__printf_impl+0x396>
20007000:	0166e6b3          	or	a3,a3,s6
20007004:	d036                	c.swsp	a3,32(sp)
20007006:	86b2                	c.mv	a3,a2
20007008:	5602                	c.lwsp	a2,32(sp)
2000700a:	1048                	c.addi4spn	a0,sp,36
2000700c:	3921                	c.jal	20006c24 <__print_integral>
2000700e:	842a                	c.mv	s0,a0
20007010:	b7a9                	c.j	20006f5a <__printf_impl+0x2ea>
20007012:	4605                	c.li	a2,1
20007014:	bff1                	c.j	20006ff0 <__printf_impl+0x380>
20007016:	45a2                	c.lwsp	a1,8(sp)
20007018:	5682                	c.lwsp	a3,32(sp)
2000701a:	00440493          	addi	s1,s0,4
2000701e:	867fa7ab          	lwgp	a5,-1948 # 80064 <__printf_count>
20007022:	4018                	c.lw	a4,0(s0)
20007024:	0066f85b          	bbc	a3,6,20007034 <__printf_impl+0x3c4>
20007028:	00f70023          	sb	a5,0(a4)
2000702c:	1040                	c.addi4spn	s0,sp,36
2000702e:	4b81                	c.li	s7,0
20007030:	8aa2                	c.mv	s5,s0
20007032:	b55d                	c.j	20006ed8 <__printf_impl+0x268>
20007034:	0076f55b          	bbc	a3,7,2000703e <__printf_impl+0x3ce>
20007038:	00f71023          	sh	a5,0(a4)
2000703c:	bfc5                	c.j	2000702c <__printf_impl+0x3bc>
2000703e:	c31c                	c.sw	a5,0(a4)
20007040:	fe86f65b          	bbs	a3,8,2000702c <__printf_impl+0x3bc>
20007044:	be96f45b          	bbc	a3,9,2000702c <__printf_impl+0x3bc>
20007048:	87fd                	c.srai	a5,0x1f
2000704a:	c35c                	c.sw	a5,4(a4)
2000704c:	b7c5                	c.j	2000702c <__printf_impl+0x3bc>
2000704e:	000dc503          	lbu	a0,0(s11)
20007052:	0d85                	c.addi	s11,1
20007054:	01756533          	or	a0,a0,s7
20007058:	9982                	c.jalr	s3
2000705a:	41bc0d33          	sub	s10,s8,s11
2000705e:	ff9de8e3          	bltu	s11,s9,2000704e <__printf_impl+0x3de>
20007062:	8c56                	c.mv	s8,s5
20007064:	01841e63          	bne	s0,s8,20007080 <__printf_impl+0x410>
20007068:	41540433          	sub	s0,s0,s5
2000706c:	408d0433          	sub	s0,s10,s0
20007070:	00804f63          	bgtz	s0,2000708e <__printf_impl+0x41e>
20007074:	0905                	c.addi	s2,1
20007076:	8426                	c.mv	s0,s1
20007078:	b919                	c.j	20006c8e <__printf_impl+0x1e>
2000707a:	8dd2                	c.mv	s11,s4
2000707c:	9c52                	c.add	s8,s4
2000707e:	bff1                	c.j	2000705a <__printf_impl+0x3ea>
20007080:	000c4503          	lbu	a0,0(s8)
20007084:	0c05                	c.addi	s8,1
20007086:	01756533          	or	a0,a0,s7
2000708a:	9982                	c.jalr	s3
2000708c:	bfe1                	c.j	20007064 <__printf_impl+0x3f4>
2000708e:	02000513          	li	a0,32
20007092:	9982                	c.jalr	s3
20007094:	147d                	c.addi	s0,-1
20007096:	bfe9                	c.j	20007070 <__printf_impl+0x400>
20007098:	02000513          	li	a0,32
2000709c:	9982                	c.jalr	s3
2000709e:	1d7d                	c.addi	s10,-1
200070a0:	b571                	c.j	20006f2c <__printf_impl+0x2bc>
200070a2:	000d4503          	lbu	a0,0(s10)
200070a6:	0d05                	c.addi	s10,1
200070a8:	01756533          	or	a0,a0,s7
200070ac:	9982                	c.jalr	s3
200070ae:	41ac07b3          	sub	a5,s8,s10
200070b2:	ff9d68e3          	bltu	s10,s9,200070a2 <__printf_impl+0x432>
200070b6:	5682                	c.lwsp	a3,32(sp)
200070b8:	0056f65b          	bbc	a3,5,200070c4 <__printf_impl+0x454>
200070bc:	41b78db3          	sub	s11,a5,s11
200070c0:	01b04b63          	bgtz	s11,200070d6 <__printf_impl+0x466>
200070c4:	fb5408e3          	beq	s0,s5,20007074 <__printf_impl+0x404>
200070c8:	000ac503          	lbu	a0,0(s5)
200070cc:	0a85                	c.addi	s5,1
200070ce:	01756533          	or	a0,a0,s7
200070d2:	9982                	c.jalr	s3
200070d4:	bfc5                	c.j	200070c4 <__printf_impl+0x454>
200070d6:	03000513          	li	a0,48
200070da:	9982                	c.jalr	s3
200070dc:	1dfd                	c.addi	s11,-1
200070de:	b7cd                	c.j	200070c0 <__printf_impl+0x450>

200070e0 <__int_to_poly>:
__int_to_poly():
200070e0:	872a                	c.mv	a4,a0
200070e2:	87ae                	c.mv	a5,a1
200070e4:	4501                	c.li	a0,0
200070e6:	00f766b3          	or	a3,a4,a5
200070ea:	e291                	c.bnez	a3,200070ee <__int_to_poly+0xe>
200070ec:	8082                	c.jr	ra
200070ee:	00e61023          	sh	a4,0(a2)
200070f2:	0505                	c.addi	a0,1
200070f4:	df07077f          	wexti	a4,a4,16
200070f8:	0609                	c.addi	a2,2
200070fa:	83c1                	c.srli	a5,0x10
200070fc:	b7ed                	c.j	200070e6 <__int_to_poly+0x6>

200070fe <__print_integral_poly>:
__print_integral_poly():
200070fe:	65e002ef          	jal	t0,2000775c <__riscv_save_0>
20007102:	88c2                	c.mv	a7,a6
20007104:	84ba                	c.mv	s1,a4
20007106:	187d                	c.addi	a6,-1
20007108:	0b17875b          	lea.h	a4,a5,a7
2000710c:	8342                	c.mv	t1,a6
2000710e:	4401                	c.li	s0,0
20007110:	8e3a                	c.mv	t3,a4
20007112:	1779                	c.addi	a4,-2
20007114:	02035463          	bgez	t1,2000713c <__print_integral_poly+0x3e>
20007118:	05105063          	blez	a7,20007158 <__print_integral_poly+0x5a>
2000711c:	ffee5703          	lhu	a4,-2(t3)
20007120:	eb15                	c.bnez	a4,20007154 <__print_integral_poly+0x56>
20007122:	03005b63          	blez	a6,20007158 <__print_integral_poly+0x5a>
20007126:	8726                	c.mv	a4,s1
20007128:	16fd                	c.addi	a3,-1
2000712a:	3fd1                	c.jal	200070fe <__print_integral_poly>
2000712c:	87aa                	c.mv	a5,a0
2000712e:	0505                	c.addi	a0,1
20007130:	00878023          	sb	s0,0(a5) # 80000000 <_DATA_LMA_START+0x5fff8028>
20007134:	409c                	c.lw	a5,0(s1)
20007136:	0785                	c.addi	a5,1
20007138:	c09c                	c.sw	a5,0(s1)
2000713a:	a599                	c.j	20007780 <__riscv_restore_0>
2000713c:	00075e83          	lhu	t4,0(a4)
20007140:	0442                	c.slli	s0,0x10
20007142:	9476                	c.add	s0,t4
20007144:	02b45eb3          	divu	t4,s0,a1
20007148:	137d                	c.addi	t1,-1
2000714a:	02b47433          	remu	s0,s0,a1
2000714e:	01d71023          	sh	t4,0(a4)
20007152:	b7c1                	c.j	20007112 <__print_integral_poly+0x14>
20007154:	8846                	c.mv	a6,a7
20007156:	bfc1                	c.j	20007126 <__print_integral_poly+0x28>
20007158:	c011                	c.beqz	s0,2000715c <__print_integral_poly+0x5e>
2000715a:	16fd                	c.addi	a3,-1
2000715c:	00d04763          	bgtz	a3,2000716a <__print_integral_poly+0x6c>
20007160:	0085ee5b          	bnec	a1,8,2000717c <__print_integral_poly+0x7e>
20007164:	00467c5b          	bbc	a2,4,2000717c <__print_integral_poly+0x7e>
20007168:	4685                	c.li	a3,1
2000716a:	87aa                	c.mv	a5,a0
2000716c:	40a78733          	sub	a4,a5,a0
20007170:	00d74b63          	blt	a4,a3,20007186 <__print_integral_poly+0x88>
20007174:	4781                	c.li	a5,0
20007176:	f2f686ff          	maxw	a3,a3,a5
2000717a:	9536                	c.add	a0,a3
2000717c:	dc45                	c.beqz	s0,20007134 <__print_integral_poly+0x36>
2000717e:	00850023          	sb	s0,0(a0)
20007182:	0505                	c.addi	a0,1
20007184:	bf45                	c.j	20007134 <__print_integral_poly+0x36>
20007186:	0785                	c.addi	a5,1
20007188:	fe078fa3          	sb	zero,-1(a5)
2000718c:	b7c5                	c.j	2000716c <__print_integral_poly+0x6e>

2000718e <__printf_float_impl>:
__printf_float_impl():
2000718e:	59e002ef          	jal	t0,2000772c <__riscv_save_12>
20007192:	0df7fc13          	andi	s8,a5,223
20007196:	8b2a                	c.mv	s6,a0
20007198:	892e                	c.mv	s2,a1
2000719a:	7169                	c.addi16sp	sp,-304
2000719c:	84b2                	c.mv	s1,a2
2000719e:	8536                	c.mv	a0,a3
200071a0:	85ba                	c.mv	a1,a4
200071a2:	8a3e                	c.mv	s4,a5
200071a4:	467c6c5b          	bnec	s8,71,2000721c <__printf_float_impl+0x8e>
200071a8:	00092983          	lw	s3,0(s2)
200071ac:	0109c993          	xori	s3,s3,16
200071b0:	1049a9db          	bfoz	s3,s3,4,4
200071b4:	0604da63          	bgez	s1,20007228 <__printf_float_impl+0x9a>
200071b8:	4499                	c.li	s1,6
200071ba:	401c635b          	bnec	s8,65,200071c0 <__printf_float_impl+0x32>
200071be:	44b5                	c.li	s1,13
200071c0:	dff5047f          	wexti	s0,a0,31
200071c4:	8055                	c.srli	s0,0x15
200071c6:	8aaa                	c.mv	s5,a0
200071c8:	4c05ad5b          	bfoz	s10,a1,19,0
200071cc:	0005d863          	bgez	a1,200071dc <__printf_float_impl+0x4e>
200071d0:	00092783          	lw	a5,0(s2)
200071d4:	4007e793          	ori	a5,a5,1024
200071d8:	00f92023          	sw	a5,0(s2)
200071dc:	401c6a5b          	bnec	s8,65,200071f0 <__printf_float_impl+0x62>
200071e0:	00092783          	lw	a5,0(s2)
200071e4:	6705                	c.lui	a4,0x1
200071e6:	80070713          	addi	a4,a4,-2048 # 800 <clock_init_ram.constprop.5+0x20>
200071ea:	8fd9                	c.or	a5,a4
200071ec:	00f92023          	sw	a5,0(s2)
200071f0:	7ff00793          	li	a5,2047
200071f4:	04f41563          	bne	s0,a5,2000723e <__printf_float_impl+0xb0>
200071f8:	00092783          	lw	a5,0(s2)
200071fc:	00ad66b3          	or	a3,s10,a0
20007200:	fdf7f793          	andi	a5,a5,-33
20007204:	00f92023          	sw	a5,0(s2)
20007208:	c695                	c.beqz	a3,20007234 <__printf_float_impl+0xa6>
2000720a:	200085b7          	lui	a1,0x20008
2000720e:	ec058593          	addi	a1,a1,-320 # 20007ec0 <__digits+0x10>
20007212:	855a                	c.mv	a0,s6
20007214:	2ea5                	c.jal	2000758c <strcpy>
20007216:	050d                	c.addi	a0,3
20007218:	6155                	c.addi16sp	sp,304
2000721a:	a3b9                	c.j	20007768 <__riscv_restore_12>
2000721c:	4981                	c.li	s3,0
2000721e:	f81c6b5b          	bnec	s8,65,200071b4 <__printf_float_impl+0x26>
20007222:	01f65993          	srli	s3,a2,0x1f
20007226:	b779                	c.j	200071b4 <__printf_float_impl+0x26>
20007228:	fcc1                	c.bnez	s1,200071c0 <__printf_float_impl+0x32>
2000722a:	fb9c0493          	addi	s1,s8,-71
2000722e:	0014b493          	seqz	s1,s1
20007232:	b779                	c.j	200071c0 <__printf_float_impl+0x32>
20007234:	200085b7          	lui	a1,0x20008
20007238:	ec458593          	addi	a1,a1,-316 # 20007ec4 <__digits+0x14>
2000723c:	bfd9                	c.j	20007212 <__printf_float_impl+0x84>
2000723e:	e811                	c.bnez	s0,20007252 <__printf_float_impl+0xc4>
20007240:	00ad66b3          	or	a3,s10,a0
20007244:	c0300413          	li	s0,-1021
20007248:	18069463          	bnez	a3,200073d0 <__printf_float_impl+0x242>
2000724c:	03500413          	li	s0,53
20007250:	a829                	c.j	2000726a <__printf_float_impl+0xdc>
20007252:	00100db7          	lui	s11,0x100
20007256:	01adedb3          	or	s11,s11,s10
2000725a:	c0240413          	addi	s0,s0,-1022
2000725e:	03400793          	li	a5,52
20007262:	8aaa                	c.mv	s5,a0
20007264:	8d6e                	c.mv	s10,s11
20007266:	1687d363          	bge	a5,s0,200073cc <__printf_float_impl+0x23e>
2000726a:	fcb40413          	addi	s0,s0,-53
2000726e:	00445b93          	srli	s7,s0,0x4
20007272:	001b9c93          	slli	s9,s7,0x1
20007276:	8666                	c.mv	a2,s9
20007278:	4581                	c.li	a1,0
2000727a:	1008                	c.addi4spn	a0,sp,32
2000727c:	265d                	c.jal	20007622 <memset>
2000727e:	883d                	c.andi	s0,15
20007280:	1a0c                	c.addi4spn	a1,sp,304
20007282:	9cae                	c.add	s9,a1
20007284:	8622                	c.mv	a2,s0
20007286:	8556                	c.mv	a0,s5
20007288:	85ea                	c.mv	a1,s10
2000728a:	298d                	c.jal	200076fc <__ashldi3>
2000728c:	4641                	c.li	a2,16
2000728e:	eeac9823          	sh	a0,-272(s9)
20007292:	1014                	c.addi4spn	a3,sp,32
20007294:	0b85                	c.addi	s7,1
20007296:	8e01                	c.sub	a2,s0
20007298:	8556                	c.mv	a0,s5
2000729a:	85ea                	c.mv	a1,s10
2000729c:	0b768cdb          	lea.h	s9,a3,s7
200072a0:	2135                	c.jal	200076cc <__lshrdi3>
200072a2:	8666                	c.mv	a2,s9
200072a4:	3d35                	c.jal	200070e0 <__int_to_poly>
200072a6:	4c81                	c.li	s9,0
200072a8:	9baa                	c.add	s7,a0
200072aa:	57fd                	c.li	a5,-1
200072ac:	ce3e                	c.swsp	a5,28(sp)
200072ae:	4429                	c.li	s0,10
200072b0:	401c635b          	bnec	s8,65,200072b6 <__printf_float_impl+0x128>
200072b4:	4441                	c.li	s0,16
200072b6:	885e                	c.mv	a6,s7
200072b8:	101c                	c.addi4spn	a5,sp,32
200072ba:	4685                	c.li	a3,1
200072bc:	0878                	c.addi4spn	a4,sp,28
200072be:	4601                	c.li	a2,0
200072c0:	85a2                	c.mv	a1,s0
200072c2:	855a                	c.mv	a0,s6
200072c4:	3d2d                	c.jal	200070fe <__print_integral_poly>
200072c6:	02e00793          	li	a5,46
200072ca:	00f50023          	sb	a5,0(a0)
200072ce:	001bbb93          	seqz	s7,s7
200072d2:	0dba7a13          	andi	s4,s4,219
200072d6:	00150693          	addi	a3,a0,1
200072da:	87de                	c.mv	a5,s7
200072dc:	401a535b          	beqc	s4,65,200072e2 <__printf_float_impl+0x154>
200072e0:	4781                	c.li	a5,0
200072e2:	00148713          	addi	a4,s1,1
200072e6:	973e                	c.add	a4,a5
200072e8:	fffc8893          	addi	a7,s9,-1
200072ec:	001c9613          	slli	a2,s9,0x1
200072f0:	112c                	c.addi4spn	a1,sp,168
200072f2:	95b2                	c.add	a1,a2
200072f4:	8846                	c.mv	a6,a7
200072f6:	4781                	c.li	a5,0
200072f8:	15f9                	c.addi	a1,-2
200072fa:	16085e63          	bgez	a6,20007476 <__printf_float_impl+0x2e8>
200072fe:	01905863          	blez	s9,2000730e <__printf_float_impl+0x180>
20007302:	1a0c                	c.addi4spn	a1,sp,304
20007304:	962e                	c.add	a2,a1
20007306:	f7665603          	lhu	a2,-138(a2)
2000730a:	e211                	c.bnez	a2,2000730e <__printf_float_impl+0x180>
2000730c:	8cc6                	c.mv	s9,a7
2000730e:	160b8d63          	beqz	s7,20007488 <__printf_float_impl+0x2fa>
20007312:	4672                	c.lwsp	a2,28(sp)
20007314:	0017bb93          	seqz	s7,a5
20007318:	167d                	c.addi	a2,-1
2000731a:	ce32                	c.swsp	a2,28(sp)
2000731c:	0685                	c.addi	a3,1
2000731e:	fef68fa3          	sb	a5,-1(a3)
20007322:	f379                	c.bnez	a4,200072e8 <__printf_float_impl+0x15a>
20007324:	567c655b          	bnec	s8,71,2000748e <__printf_float_impl+0x300>
20007328:	47f2                	c.lwsp	a5,28(sp)
2000732a:	fff48713          	addi	a4,s1,-1
2000732e:	1897d263          	bge	a5,s1,200074b2 <__printf_float_impl+0x324>
20007332:	5671                	c.li	a2,-4
20007334:	16c7cf63          	blt	a5,a2,200074b2 <__printf_float_impl+0x324>
20007338:	40f704b3          	sub	s1,a4,a5
2000733c:	04600c13          	li	s8,70
20007340:	0489                	c.addi	s1,2
20007342:	9526                	c.add	a0,s1
20007344:	fff54683          	lbu	a3,-1(a0)
20007348:	40145713          	srai	a4,s0,0x1
2000734c:	fff50793          	addi	a5,a0,-1
20007350:	00e6a6b3          	slt	a3,a3,a4
20007354:	0016c693          	xori	a3,a3,1
20007358:	863e                	c.mv	a2,a5
2000735a:	1acb7763          	bgeu	s6,a2,20007508 <__printf_float_impl+0x37a>
2000735e:	18069363          	bnez	a3,200074e4 <__printf_float_impl+0x356>
20007362:	17fd                	c.addi	a5,-1
20007364:	00178513          	addi	a0,a5,1
20007368:	00fb7763          	bgeu	s6,a5,20007376 <__printf_float_impl+0x1e8>
2000736c:	00098563          	beqz	s3,20007376 <__printf_float_impl+0x1e8>
20007370:	0007c703          	lbu	a4,0(a5)
20007374:	d77d                	c.beqz	a4,20007362 <__printf_float_impl+0x1d4>
20007376:	fff54783          	lbu	a5,-1(a0)
2000737a:	00e7e7db          	bnec	a5,46,20007388 <__printf_float_impl+0x1fa>
2000737e:	00092783          	lw	a5,0(s2)
20007382:	4047f35b          	bbs	a5,4,20007388 <__printf_float_impl+0x1fa>
20007386:	157d                	c.addi	a0,-1
20007388:	20008737          	lui	a4,0x20008
2000738c:	46bd                	c.li	a3,15
2000738e:	eb070713          	addi	a4,a4,-336 # 20007eb0 <__digits>
20007392:	1aab6963          	bltu	s6,a0,20007544 <__printf_float_impl+0x3b6>
20007396:	5c5c625b          	bnec	s8,69,2000755a <__printf_float_impl+0x3cc>
2000739a:	01850023          	sb	s8,0(a0)
2000739e:	4772                	c.lwsp	a4,28(sp)
200073a0:	02d00793          	li	a5,45
200073a4:	00074463          	bltz	a4,200073ac <__printf_float_impl+0x21e>
200073a8:	02b00793          	li	a5,43
200073ac:	00f500a3          	sb	a5,1(a0)
200073b0:	47f2                	c.lwsp	a5,28(sp)
200073b2:	4689                	c.li	a3,2
200073b4:	40f00733          	neg	a4,a5
200073b8:	f2f7077f          	maxw	a4,a4,a5
200073bc:	41f75793          	srai	a5,a4,0x1f
200073c0:	4601                	c.li	a2,0
200073c2:	45a9                	c.li	a1,10
200073c4:	0509                	c.addi	a0,2
200073c6:	85fff0ef          	jal	ra,20006c24 <__print_integral>
200073ca:	b5b9                	c.j	20007218 <__printf_float_impl+0x8a>
200073cc:	06804263          	bgtz	s0,20007430 <__printf_float_impl+0x2a2>
200073d0:	40800433          	neg	s0,s0
200073d4:	00445b93          	srli	s7,s0,0x4
200073d8:	001b9d93          	slli	s11,s7,0x1
200073dc:	866e                	c.mv	a2,s11
200073de:	4581                	c.li	a1,0
200073e0:	1128                	c.addi4spn	a0,sp,168
200073e2:	2481                	c.jal	20007622 <memset>
200073e4:	112c                	c.addi4spn	a1,sp,168
200073e6:	883d                	c.andi	s0,15
200073e8:	9dae                	c.add	s11,a1
200073ea:	02540413          	addi	s0,s0,37
200073ee:	876e                	c.mv	a4,s11
200073f0:	4c81                	c.li	s9,0
200073f2:	001c8793          	addi	a5,s9,1
200073f6:	8622                	c.mv	a2,s0
200073f8:	8556                	c.mv	a0,s5
200073fa:	85ea                	c.mv	a1,s10
200073fc:	c63a                	c.swsp	a4,12(sp)
200073fe:	c43e                	c.swsp	a5,8(sp)
20007400:	24f1                	c.jal	200076cc <__lshrdi3>
20007402:	4732                	c.lwsp	a4,12(sp)
20007404:	1441                	c.addi	s0,-16
20007406:	00a71023          	sh	a0,0(a4)
2000740a:	47a2                	c.lwsp	a5,8(sp)
2000740c:	0709                	c.addi	a4,2
2000740e:	00045f63          	bgez	s0,2000742c <__printf_float_impl+0x29e>
20007412:	0afd8ddb          	lea.h	s11,s11,a5
20007416:	40800633          	neg	a2,s0
2000741a:	8556                	c.mv	a0,s5
2000741c:	85ea                	c.mv	a1,s10
2000741e:	0c89                	c.addi	s9,2
20007420:	2cf1                	c.jal	200076fc <__ashldi3>
20007422:	9cde                	c.add	s9,s7
20007424:	00ad9023          	sh	a0,0(s11) # 100000 <FLASH_SIZE>
20007428:	4b81                	c.li	s7,0
2000742a:	b541                	c.j	200072aa <__printf_float_impl+0x11c>
2000742c:	8cbe                	c.mv	s9,a5
2000742e:	b7d1                	c.j	200073f2 <__printf_float_impl+0x264>
20007430:	03500613          	li	a2,53
20007434:	8e01                	c.sub	a2,s0
20007436:	85ee                	c.mv	a1,s11
20007438:	2c51                	c.jal	200076cc <__lshrdi3>
2000743a:	1010                	c.addi4spn	a2,sp,32
2000743c:	3155                	c.jal	200070e0 <__int_to_poly>
2000743e:	02500793          	li	a5,37
20007442:	8baa                	c.mv	s7,a0
20007444:	40878433          	sub	s0,a5,s0
20007448:	0a810d13          	addi	s10,sp,168
2000744c:	4c81                	c.li	s9,0
2000744e:	0c85                	c.addi	s9,1
20007450:	00045a63          	bgez	s0,20007464 <__printf_float_impl+0x2d6>
20007454:	40800633          	neg	a2,s0
20007458:	8556                	c.mv	a0,s5
2000745a:	85ee                	c.mv	a1,s11
2000745c:	2445                	c.jal	200076fc <__ashldi3>
2000745e:	00ad1023          	sh	a0,0(s10)
20007462:	b5a1                	c.j	200072aa <__printf_float_impl+0x11c>
20007464:	8622                	c.mv	a2,s0
20007466:	8556                	c.mv	a0,s5
20007468:	85ee                	c.mv	a1,s11
2000746a:	248d                	c.jal	200076cc <__lshrdi3>
2000746c:	1441                	c.addi	s0,-16
2000746e:	00ad1023          	sh	a0,0(s10)
20007472:	0d09                	c.addi	s10,2
20007474:	bfe9                	c.j	2000744e <__printf_float_impl+0x2c0>
20007476:	0005d303          	lhu	t1,0(a1)
2000747a:	187d                	c.addi	a6,-1
2000747c:	c48317ff          	maddr32	a5,t1,s0
20007480:	00f59023          	sh	a5,0(a1)
20007484:	83c1                	c.srli	a5,0x10
20007486:	bd8d                	c.j	200072f8 <__printf_float_impl+0x16a>
20007488:	177d                	c.addi	a4,-1
2000748a:	4b81                	c.li	s7,0
2000748c:	bd41                	c.j	2000731c <__printf_float_impl+0x18e>
2000748e:	8726                	c.mv	a4,s1
20007490:	ea6c585b          	beqc	s8,70,20007340 <__printf_float_impl+0x1b2>
20007494:	47f2                	c.lwsp	a5,28(sp)
20007496:	001b0613          	addi	a2,s6,1
2000749a:	02f04463          	bgtz	a5,200074c2 <__printf_float_impl+0x334>
2000749e:	c785                	c.beqz	a5,200074c6 <__printf_float_impl+0x338>
200074a0:	40f507b3          	sub	a5,a0,a5
200074a4:	02d7e963          	bltu	a5,a3,200074d6 <__printf_float_impl+0x348>
200074a8:	001b0783          	lb	a5,1(s6)
200074ac:	00fb0023          	sb	a5,0(s6)
200074b0:	a819                	c.j	200074c6 <__printf_float_impl+0x338>
200074b2:	04500c13          	li	s8,69
200074b6:	bff9                	c.j	20007494 <__printf_float_impl+0x306>
200074b8:	fff50783          	lb	a5,-1(a0)
200074bc:	157d                	c.addi	a0,-1
200074be:	00f500a3          	sb	a5,1(a0)
200074c2:	fec51be3          	bne	a0,a2,200074b8 <__printf_float_impl+0x32a>
200074c6:	02e00793          	li	a5,46
200074ca:	001b0513          	addi	a0,s6,1
200074ce:	00fb00a3          	sb	a5,1(s6)
200074d2:	84ba                	c.mv	s1,a4
200074d4:	b5b5                	c.j	20007340 <__printf_float_impl+0x1b2>
200074d6:	0785                	c.addi	a5,1
200074d8:	fff7c603          	lbu	a2,-1(a5)
200074dc:	0505                	c.addi	a0,1
200074de:	fec50fa3          	sb	a2,-1(a0)
200074e2:	b7c9                	c.j	200074a4 <__printf_float_impl+0x316>
200074e4:	167d                	c.addi	a2,-1
200074e6:	00064703          	lbu	a4,0(a2)
200074ea:	a6e758db          	beqc	a4,46,2000735a <__printf_float_impl+0x1cc>
200074ee:	0705                	c.addi	a4,1
200074f0:	0ff77713          	andi	a4,a4,255
200074f4:	00875663          	bge	a4,s0,20007500 <__printf_float_impl+0x372>
200074f8:	00e60023          	sb	a4,0(a2)
200074fc:	4681                	c.li	a3,0
200074fe:	bdb1                	c.j	2000735a <__printf_float_impl+0x1cc>
20007500:	8f01                	c.sub	a4,s0
20007502:	00e60023          	sb	a4,0(a2)
20007506:	bd91                	c.j	2000735a <__printf_float_impl+0x1cc>
20007508:	873e                	c.mv	a4,a5
2000750a:	e4068ce3          	beqz	a3,20007362 <__printf_float_impl+0x1d4>
2000750e:	02eb6363          	bltu	s6,a4,20007534 <__printf_float_impl+0x3a6>
20007512:	4705                	c.li	a4,1
20007514:	00eb0023          	sb	a4,0(s6)
20007518:	4772                	c.lwsp	a4,28(sp)
2000751a:	0705                	c.addi	a4,1
2000751c:	ce3a                	c.swsp	a4,28(sp)
2000751e:	426c515b          	beqc	s8,70,20007540 <__printf_float_impl+0x3b2>
20007522:	001b0703          	lb	a4,1(s6)
20007526:	00eb0123          	sb	a4,2(s6)
2000752a:	02e00713          	li	a4,46
2000752e:	00eb00a3          	sb	a4,1(s6)
20007532:	bd05                	c.j	20007362 <__printf_float_impl+0x1d4>
20007534:	fff70683          	lb	a3,-1(a4)
20007538:	177d                	c.addi	a4,-1
2000753a:	00d700a3          	sb	a3,1(a4)
2000753e:	bfc1                	c.j	2000750e <__printf_float_impl+0x380>
20007540:	87aa                	c.mv	a5,a0
20007542:	b505                	c.j	20007362 <__printf_float_impl+0x1d4>
20007544:	000b4783          	lbu	a5,0(s6)
20007548:	00f6e763          	bltu	a3,a5,20007556 <__printf_float_impl+0x3c8>
2000754c:	97ba                	c.add	a5,a4
2000754e:	00078783          	lb	a5,0(a5)
20007552:	00fb0023          	sb	a5,0(s6)
20007556:	0b05                	c.addi	s6,1
20007558:	bd2d                	c.j	20007392 <__printf_float_impl+0x204>
2000755a:	ca1c6f5b          	bnec	s8,65,20007218 <__printf_float_impl+0x8a>
2000755e:	05000793          	li	a5,80
20007562:	00f50023          	sb	a5,0(a0)
20007566:	4772                	c.lwsp	a4,28(sp)
20007568:	02d00793          	li	a5,45
2000756c:	00074463          	bltz	a4,20007574 <__printf_float_impl+0x3e6>
20007570:	02b00793          	li	a5,43
20007574:	00f500a3          	sb	a5,1(a0)
20007578:	47f2                	c.lwsp	a5,28(sp)
2000757a:	4685                	c.li	a3,1
2000757c:	40f00733          	neg	a4,a5
20007580:	f2f7077f          	maxw	a4,a4,a5
20007584:	070a                	c.slli	a4,0x2
20007586:	41f75793          	srai	a5,a4,0x1f
2000758a:	bd1d                	c.j	200073c0 <__printf_float_impl+0x232>

2000758c <strcpy>:
strcpy():
2000758c:	00b567b3          	or	a5,a0,a1
20007590:	8b8d                	c.andi	a5,3
20007592:	e3ad                	c.bnez	a5,200075f4 <strcpy+0x68>
20007594:	4198                	c.lw	a4,0(a1)
20007596:	200707db          	ffb	a5,a4,zero
2000759a:	e3a9                	c.bnez	a5,200075dc <strcpy+0x50>
2000759c:	00a007b3          	add	a5,zero,a0
200075a0:	0591                	c.addi	a1,4
200075a2:	0791                	c.addi	a5,4
200075a4:	fee7ae23          	sw	a4,-4(a5)
200075a8:	4198                	c.lw	a4,0(a1)
200075aa:	200706db          	ffb	a3,a4,zero
200075ae:	daed                	c.beqz	a3,200075a0 <strcpy+0x14>
200075b0:	0005c703          	lbu	a4,0(a1)
200075b4:	0015c683          	lbu	a3,1(a1)
200075b8:	0025c603          	lbu	a2,2(a1)
200075bc:	00e78023          	sb	a4,0(a5)
200075c0:	00070863          	beqz	a4,200075d0 <strcpy+0x44>
200075c4:	00d780a3          	sb	a3,1(a5)
200075c8:	c681                	c.beqz	a3,200075d0 <strcpy+0x44>
200075ca:	00c78123          	sb	a2,2(a5)
200075ce:	e219                	c.bnez	a2,200075d4 <strcpy+0x48>
200075d0:	00008067          	ret
200075d4:	000781a3          	sb	zero,3(a5)
200075d8:	00008067          	ret
200075dc:	0005c703          	lbu	a4,0(a1)
200075e0:	87aa                	c.mv	a5,a0
200075e2:	0015c683          	lbu	a3,1(a1)
200075e6:	0025c603          	lbu	a2,2(a1)
200075ea:	00e78023          	sb	a4,0(a5)
200075ee:	fb79                	c.bnez	a4,200075c4 <strcpy+0x38>
200075f0:	fe1ff06f          	j	200075d0 <strcpy+0x44>
200075f4:	00a007b3          	add	a5,zero,a0
200075f8:	0005c703          	lbu	a4,0(a1)
200075fc:	0785                	c.addi	a5,1
200075fe:	fee78fa3          	sb	a4,-1(a5)
20007602:	0585                	c.addi	a1,1
20007604:	fb75                	c.bnez	a4,200075f8 <strcpy+0x6c>
20007606:	8082                	c.jr	ra
20007608:	0001                	c.nop

2000760a <strnlen>:
strnlen():
2000760a:	95aa                	c.add	a1,a0
2000760c:	87aa                	c.mv	a5,a0
2000760e:	00b78563          	beq	a5,a1,20007618 <strnlen+0xe>
20007612:	0007c703          	lbu	a4,0(a5)
20007616:	e701                	c.bnez	a4,2000761e <strnlen+0x14>
20007618:	40a78533          	sub	a0,a5,a0
2000761c:	8082                	c.jr	ra
2000761e:	0785                	c.addi	a5,1
20007620:	b7fd                	c.j	2000760e <strnlen+0x4>

20007622 <memset>:
memset():
20007622:	433d                	c.li	t1,15
20007624:	872a                	c.mv	a4,a0
20007626:	02c37363          	bgeu	t1,a2,2000764c <memset+0x2a>
2000762a:	00f77793          	andi	a5,a4,15
2000762e:	e3c1                	c.bnez	a5,200076ae <memset+0x8c>
20007630:	e5b5                	c.bnez	a1,2000769c <memset+0x7a>
20007632:	ff067693          	andi	a3,a2,-16
20007636:	8a3d                	c.andi	a2,15
20007638:	96ba                	c.add	a3,a4
2000763a:	c30c                	c.sw	a1,0(a4)
2000763c:	c34c                	c.sw	a1,4(a4)
2000763e:	c70c                	c.sw	a1,8(a4)
20007640:	c74c                	c.sw	a1,12(a4)
20007642:	0741                	c.addi	a4,16
20007644:	fed76be3          	bltu	a4,a3,2000763a <memset+0x18>
20007648:	e211                	c.bnez	a2,2000764c <memset+0x2a>
2000764a:	8082                	c.jr	ra
2000764c:	40c306b3          	sub	a3,t1,a2
20007650:	068a                	c.slli	a3,0x2
20007652:	00000297          	auipc	t0,0x0
20007656:	005686b3          	add	a3,a3,t0
2000765a:	00c68067          	jr	12(a3)
2000765e:	00b70723          	sb	a1,14(a4)
20007662:	00b706a3          	sb	a1,13(a4)
20007666:	00b70623          	sb	a1,12(a4)
2000766a:	00b705a3          	sb	a1,11(a4)
2000766e:	00b70523          	sb	a1,10(a4)
20007672:	00b704a3          	sb	a1,9(a4)
20007676:	00b70423          	sb	a1,8(a4)
2000767a:	00b703a3          	sb	a1,7(a4)
2000767e:	00b70323          	sb	a1,6(a4)
20007682:	00b702a3          	sb	a1,5(a4)
20007686:	00b70223          	sb	a1,4(a4)
2000768a:	00b701a3          	sb	a1,3(a4)
2000768e:	00b70123          	sb	a1,2(a4)
20007692:	00b700a3          	sb	a1,1(a4)
20007696:	00b70023          	sb	a1,0(a4)
2000769a:	8082                	c.jr	ra
2000769c:	0ff5f593          	andi	a1,a1,255
200076a0:	00859693          	slli	a3,a1,0x8
200076a4:	8dd5                	c.or	a1,a3
200076a6:	01059693          	slli	a3,a1,0x10
200076aa:	8dd5                	c.or	a1,a3
200076ac:	b759                	c.j	20007632 <memset+0x10>
200076ae:	00279693          	slli	a3,a5,0x2
200076b2:	00000297          	auipc	t0,0x0
200076b6:	9696                	c.add	a3,t0
200076b8:	8286                	c.mv	t0,ra
200076ba:	fa8680e7          	jalr	-88(a3)
200076be:	8096                	c.mv	ra,t0
200076c0:	17c1                	c.addi	a5,-16
200076c2:	8f1d                	c.sub	a4,a5
200076c4:	963e                	c.add	a2,a5
200076c6:	f8c373e3          	bgeu	t1,a2,2000764c <memset+0x2a>
200076ca:	b79d                	c.j	20007630 <memset+0xe>

200076cc <__lshrdi3>:
__lshrdi3():
/cygdrive/d/Jenkins/workspace/build-system-3/source-packages/gcc-7.4.0-riscv-bsp-v5_1_0-branch/libgcc/libgcc2.c:406
200076cc:	ce11                	c.beqz	a2,200076e8 <__lshrdi3+0x1c>
/cygdrive/d/Jenkins/workspace/build-system-3/source-packages/gcc-7.4.0-riscv-bsp-v5_1_0-branch/libgcc/libgcc2.c:410
200076ce:	02000793          	li	a5,32
200076d2:	8f91                	c.sub	a5,a2
/cygdrive/d/Jenkins/workspace/build-system-3/source-packages/gcc-7.4.0-riscv-bsp-v5_1_0-branch/libgcc/libgcc2.c:413
200076d4:	00f05c63          	blez	a5,200076ec <__lshrdi3+0x20>
/cygdrive/d/Jenkins/workspace/build-system-3/source-packages/gcc-7.4.0-riscv-bsp-v5_1_0-branch/libgcc/libgcc2.c:423
200076d8:	00c55533          	srl	a0,a0,a2
/cygdrive/d/Jenkins/workspace/build-system-3/source-packages/gcc-7.4.0-riscv-bsp-v5_1_0-branch/libgcc/libgcc2.c:420
200076dc:	00f597b3          	sll	a5,a1,a5
/cygdrive/d/Jenkins/workspace/build-system-3/source-packages/gcc-7.4.0-riscv-bsp-v5_1_0-branch/libgcc/libgcc2.c:422
200076e0:	00c5d633          	srl	a2,a1,a2
/cygdrive/d/Jenkins/workspace/build-system-3/source-packages/gcc-7.4.0-riscv-bsp-v5_1_0-branch/libgcc/libgcc2.c:423
200076e4:	8d5d                	c.or	a0,a5
/cygdrive/d/Jenkins/workspace/build-system-3/source-packages/gcc-7.4.0-riscv-bsp-v5_1_0-branch/libgcc/libgcc2.c:426
200076e6:	85b2                	c.mv	a1,a2
/cygdrive/d/Jenkins/workspace/build-system-3/source-packages/gcc-7.4.0-riscv-bsp-v5_1_0-branch/libgcc/libgcc2.c:427
200076e8:	00008067          	ret
/cygdrive/d/Jenkins/workspace/build-system-3/source-packages/gcc-7.4.0-riscv-bsp-v5_1_0-branch/libgcc/libgcc2.c:416
200076ec:	40f00533          	neg	a0,a5
/cygdrive/d/Jenkins/workspace/build-system-3/source-packages/gcc-7.4.0-riscv-bsp-v5_1_0-branch/libgcc/libgcc2.c:415
200076f0:	4601                	c.li	a2,0
/cygdrive/d/Jenkins/workspace/build-system-3/source-packages/gcc-7.4.0-riscv-bsp-v5_1_0-branch/libgcc/libgcc2.c:416
200076f2:	00a5d533          	srl	a0,a1,a0
/cygdrive/d/Jenkins/workspace/build-system-3/source-packages/gcc-7.4.0-riscv-bsp-v5_1_0-branch/libgcc/libgcc2.c:426
200076f6:	85b2                	c.mv	a1,a2
200076f8:	bfc5                	c.j	200076e8 <__lshrdi3+0x1c>
200076fa:	0001                	c.nop

200076fc <__ashldi3>:
__ashldi3():
/cygdrive/d/Jenkins/workspace/build-system-3/source-packages/gcc-7.4.0-riscv-bsp-v5_1_0-branch/libgcc/libgcc2.c:434
200076fc:	ce11                	c.beqz	a2,20007718 <__ashldi3+0x1c>
/cygdrive/d/Jenkins/workspace/build-system-3/source-packages/gcc-7.4.0-riscv-bsp-v5_1_0-branch/libgcc/libgcc2.c:438
200076fe:	02000793          	li	a5,32
20007702:	8f91                	c.sub	a5,a2
/cygdrive/d/Jenkins/workspace/build-system-3/source-packages/gcc-7.4.0-riscv-bsp-v5_1_0-branch/libgcc/libgcc2.c:441
20007704:	00f05c63          	blez	a5,2000771c <__ashldi3+0x20>
/cygdrive/d/Jenkins/workspace/build-system-3/source-packages/gcc-7.4.0-riscv-bsp-v5_1_0-branch/libgcc/libgcc2.c:451
20007708:	00c595b3          	sll	a1,a1,a2
/cygdrive/d/Jenkins/workspace/build-system-3/source-packages/gcc-7.4.0-riscv-bsp-v5_1_0-branch/libgcc/libgcc2.c:448
2000770c:	00f557b3          	srl	a5,a0,a5
/cygdrive/d/Jenkins/workspace/build-system-3/source-packages/gcc-7.4.0-riscv-bsp-v5_1_0-branch/libgcc/libgcc2.c:450
20007710:	00c51633          	sll	a2,a0,a2
/cygdrive/d/Jenkins/workspace/build-system-3/source-packages/gcc-7.4.0-riscv-bsp-v5_1_0-branch/libgcc/libgcc2.c:451
20007714:	8ddd                	c.or	a1,a5
/cygdrive/d/Jenkins/workspace/build-system-3/source-packages/gcc-7.4.0-riscv-bsp-v5_1_0-branch/libgcc/libgcc2.c:454
20007716:	8532                	c.mv	a0,a2
/cygdrive/d/Jenkins/workspace/build-system-3/source-packages/gcc-7.4.0-riscv-bsp-v5_1_0-branch/libgcc/libgcc2.c:455
20007718:	00008067          	ret
/cygdrive/d/Jenkins/workspace/build-system-3/source-packages/gcc-7.4.0-riscv-bsp-v5_1_0-branch/libgcc/libgcc2.c:444
2000771c:	40f005b3          	neg	a1,a5
/cygdrive/d/Jenkins/workspace/build-system-3/source-packages/gcc-7.4.0-riscv-bsp-v5_1_0-branch/libgcc/libgcc2.c:443
20007720:	4601                	c.li	a2,0
/cygdrive/d/Jenkins/workspace/build-system-3/source-packages/gcc-7.4.0-riscv-bsp-v5_1_0-branch/libgcc/libgcc2.c:444
20007722:	00b515b3          	sll	a1,a0,a1
/cygdrive/d/Jenkins/workspace/build-system-3/source-packages/gcc-7.4.0-riscv-bsp-v5_1_0-branch/libgcc/libgcc2.c:454
20007726:	8532                	c.mv	a0,a2
20007728:	bfc5                	c.j	20007718 <__ashldi3+0x1c>
2000772a:	0001                	c.nop

2000772c <__riscv_save_12>:
__riscv_save_12():
/cygdrive/d/Jenkins/workspace/build-system-3/source-packages/gcc-7.4.0-riscv-bsp-v5_1_0-branch/libgcc/config/riscv/save-restore.S:336
2000772c:	7139                	c.addi16sp	sp,-64
/cygdrive/d/Jenkins/workspace/build-system-3/source-packages/gcc-7.4.0-riscv-bsp-v5_1_0-branch/libgcc/config/riscv/save-restore.S:338
2000772e:	4301                	c.li	t1,0
/cygdrive/d/Jenkins/workspace/build-system-3/source-packages/gcc-7.4.0-riscv-bsp-v5_1_0-branch/libgcc/config/riscv/save-restore.S:339
20007730:	c66e                	c.swsp	s11,12(sp)
/cygdrive/d/Jenkins/workspace/build-system-3/source-packages/gcc-7.4.0-riscv-bsp-v5_1_0-branch/libgcc/config/riscv/save-restore.S:341
20007732:	a019                	c.j	20007738 <__riscv_save_10+0x4>

20007734 <__riscv_save_10>:
__riscv_save_8():
/cygdrive/d/Jenkins/workspace/build-system-3/source-packages/gcc-7.4.0-riscv-bsp-v5_1_0-branch/libgcc/config/riscv/save-restore.S:348
20007734:	7139                	c.addi16sp	sp,-64
/cygdrive/d/Jenkins/workspace/build-system-3/source-packages/gcc-7.4.0-riscv-bsp-v5_1_0-branch/libgcc/config/riscv/save-restore.S:350
20007736:	5341                	c.li	t1,-16
/cygdrive/d/Jenkins/workspace/build-system-3/source-packages/gcc-7.4.0-riscv-bsp-v5_1_0-branch/libgcc/config/riscv/save-restore.S:352
20007738:	c86a                	c.swsp	s10,16(sp)
/cygdrive/d/Jenkins/workspace/build-system-3/source-packages/gcc-7.4.0-riscv-bsp-v5_1_0-branch/libgcc/config/riscv/save-restore.S:354
2000773a:	ca66                	c.swsp	s9,20(sp)
/cygdrive/d/Jenkins/workspace/build-system-3/source-packages/gcc-7.4.0-riscv-bsp-v5_1_0-branch/libgcc/config/riscv/save-restore.S:356
2000773c:	cc62                	c.swsp	s8,24(sp)
/cygdrive/d/Jenkins/workspace/build-system-3/source-packages/gcc-7.4.0-riscv-bsp-v5_1_0-branch/libgcc/config/riscv/save-restore.S:358
2000773e:	ce5e                	c.swsp	s7,28(sp)
/cygdrive/d/Jenkins/workspace/build-system-3/source-packages/gcc-7.4.0-riscv-bsp-v5_1_0-branch/libgcc/config/riscv/save-restore.S:360
20007740:	a019                	c.j	20007746 <__riscv_save_4+0x4>

20007742 <__riscv_save_4>:
__riscv_save_7():
/cygdrive/d/Jenkins/workspace/build-system-3/source-packages/gcc-7.4.0-riscv-bsp-v5_1_0-branch/libgcc/config/riscv/save-restore.S:371
20007742:	7139                	c.addi16sp	sp,-64
/cygdrive/d/Jenkins/workspace/build-system-3/source-packages/gcc-7.4.0-riscv-bsp-v5_1_0-branch/libgcc/config/riscv/save-restore.S:373
20007744:	5301                	c.li	t1,-32
/cygdrive/d/Jenkins/workspace/build-system-3/source-packages/gcc-7.4.0-riscv-bsp-v5_1_0-branch/libgcc/config/riscv/save-restore.S:375
20007746:	d05a                	c.swsp	s6,32(sp)
/cygdrive/d/Jenkins/workspace/build-system-3/source-packages/gcc-7.4.0-riscv-bsp-v5_1_0-branch/libgcc/config/riscv/save-restore.S:377
20007748:	d256                	c.swsp	s5,36(sp)
/cygdrive/d/Jenkins/workspace/build-system-3/source-packages/gcc-7.4.0-riscv-bsp-v5_1_0-branch/libgcc/config/riscv/save-restore.S:379
2000774a:	d452                	c.swsp	s4,40(sp)
/cygdrive/d/Jenkins/workspace/build-system-3/source-packages/gcc-7.4.0-riscv-bsp-v5_1_0-branch/libgcc/config/riscv/save-restore.S:381
2000774c:	d64e                	c.swsp	s3,44(sp)
/cygdrive/d/Jenkins/workspace/build-system-3/source-packages/gcc-7.4.0-riscv-bsp-v5_1_0-branch/libgcc/config/riscv/save-restore.S:383
2000774e:	d84a                	c.swsp	s2,48(sp)
/cygdrive/d/Jenkins/workspace/build-system-3/source-packages/gcc-7.4.0-riscv-bsp-v5_1_0-branch/libgcc/config/riscv/save-restore.S:385
20007750:	da26                	c.swsp	s1,52(sp)
/cygdrive/d/Jenkins/workspace/build-system-3/source-packages/gcc-7.4.0-riscv-bsp-v5_1_0-branch/libgcc/config/riscv/save-restore.S:387
20007752:	dc22                	c.swsp	s0,56(sp)
/cygdrive/d/Jenkins/workspace/build-system-3/source-packages/gcc-7.4.0-riscv-bsp-v5_1_0-branch/libgcc/config/riscv/save-restore.S:389
20007754:	de06                	c.swsp	ra,60(sp)
/cygdrive/d/Jenkins/workspace/build-system-3/source-packages/gcc-7.4.0-riscv-bsp-v5_1_0-branch/libgcc/config/riscv/save-restore.S:393
20007756:	40610133          	sub	sp,sp,t1
/cygdrive/d/Jenkins/workspace/build-system-3/source-packages/gcc-7.4.0-riscv-bsp-v5_1_0-branch/libgcc/config/riscv/save-restore.S:394
2000775a:	8282                	c.jr	t0

2000775c <__riscv_save_0>:
__riscv_save_1():
/cygdrive/d/Jenkins/workspace/build-system-3/source-packages/gcc-7.4.0-riscv-bsp-v5_1_0-branch/libgcc/config/riscv/save-restore.S:404
2000775c:	1141                	c.addi	sp,-16
/cygdrive/d/Jenkins/workspace/build-system-3/source-packages/gcc-7.4.0-riscv-bsp-v5_1_0-branch/libgcc/config/riscv/save-restore.S:406
2000775e:	c04a                	c.swsp	s2,0(sp)
/cygdrive/d/Jenkins/workspace/build-system-3/source-packages/gcc-7.4.0-riscv-bsp-v5_1_0-branch/libgcc/config/riscv/save-restore.S:407
20007760:	c226                	c.swsp	s1,4(sp)
/cygdrive/d/Jenkins/workspace/build-system-3/source-packages/gcc-7.4.0-riscv-bsp-v5_1_0-branch/libgcc/config/riscv/save-restore.S:409
20007762:	c422                	c.swsp	s0,8(sp)
/cygdrive/d/Jenkins/workspace/build-system-3/source-packages/gcc-7.4.0-riscv-bsp-v5_1_0-branch/libgcc/config/riscv/save-restore.S:411
20007764:	c606                	c.swsp	ra,12(sp)
/cygdrive/d/Jenkins/workspace/build-system-3/source-packages/gcc-7.4.0-riscv-bsp-v5_1_0-branch/libgcc/config/riscv/save-restore.S:413
20007766:	8282                	c.jr	t0

20007768 <__riscv_restore_12>:
__riscv_restore_12():
/cygdrive/d/Jenkins/workspace/build-system-3/source-packages/gcc-7.4.0-riscv-bsp-v5_1_0-branch/libgcc/config/riscv/save-restore.S:432
20007768:	4db2                	c.lwsp	s11,12(sp)
/cygdrive/d/Jenkins/workspace/build-system-3/source-packages/gcc-7.4.0-riscv-bsp-v5_1_0-branch/libgcc/config/riscv/save-restore.S:434
2000776a:	0141                	c.addi	sp,16

2000776c <__riscv_restore_10>:
__riscv_restore_10():
/cygdrive/d/Jenkins/workspace/build-system-3/source-packages/gcc-7.4.0-riscv-bsp-v5_1_0-branch/libgcc/config/riscv/save-restore.S:442
2000776c:	4d02                	c.lwsp	s10,0(sp)
/cygdrive/d/Jenkins/workspace/build-system-3/source-packages/gcc-7.4.0-riscv-bsp-v5_1_0-branch/libgcc/config/riscv/save-restore.S:444
2000776e:	4c92                	c.lwsp	s9,4(sp)
/cygdrive/d/Jenkins/workspace/build-system-3/source-packages/gcc-7.4.0-riscv-bsp-v5_1_0-branch/libgcc/config/riscv/save-restore.S:446
20007770:	4c22                	c.lwsp	s8,8(sp)
/cygdrive/d/Jenkins/workspace/build-system-3/source-packages/gcc-7.4.0-riscv-bsp-v5_1_0-branch/libgcc/config/riscv/save-restore.S:448
20007772:	4bb2                	c.lwsp	s7,12(sp)
/cygdrive/d/Jenkins/workspace/build-system-3/source-packages/gcc-7.4.0-riscv-bsp-v5_1_0-branch/libgcc/config/riscv/save-restore.S:450
20007774:	0141                	c.addi	sp,16

20007776 <__riscv_restore_4>:
__riscv_restore_5():
/cygdrive/d/Jenkins/workspace/build-system-3/source-packages/gcc-7.4.0-riscv-bsp-v5_1_0-branch/libgcc/config/riscv/save-restore.S:462
20007776:	4b02                	c.lwsp	s6,0(sp)
/cygdrive/d/Jenkins/workspace/build-system-3/source-packages/gcc-7.4.0-riscv-bsp-v5_1_0-branch/libgcc/config/riscv/save-restore.S:464
20007778:	4a92                	c.lwsp	s5,4(sp)
/cygdrive/d/Jenkins/workspace/build-system-3/source-packages/gcc-7.4.0-riscv-bsp-v5_1_0-branch/libgcc/config/riscv/save-restore.S:466
2000777a:	4a22                	c.lwsp	s4,8(sp)
/cygdrive/d/Jenkins/workspace/build-system-3/source-packages/gcc-7.4.0-riscv-bsp-v5_1_0-branch/libgcc/config/riscv/save-restore.S:468
2000777c:	49b2                	c.lwsp	s3,12(sp)
/cygdrive/d/Jenkins/workspace/build-system-3/source-packages/gcc-7.4.0-riscv-bsp-v5_1_0-branch/libgcc/config/riscv/save-restore.S:470
2000777e:	0141                	c.addi	sp,16

20007780 <__riscv_restore_0>:
__riscv_restore_3():
/cygdrive/d/Jenkins/workspace/build-system-3/source-packages/gcc-7.4.0-riscv-bsp-v5_1_0-branch/libgcc/config/riscv/save-restore.S:485
20007780:	4902                	c.lwsp	s2,0(sp)
/cygdrive/d/Jenkins/workspace/build-system-3/source-packages/gcc-7.4.0-riscv-bsp-v5_1_0-branch/libgcc/config/riscv/save-restore.S:487
20007782:	4492                	c.lwsp	s1,4(sp)
/cygdrive/d/Jenkins/workspace/build-system-3/source-packages/gcc-7.4.0-riscv-bsp-v5_1_0-branch/libgcc/config/riscv/save-restore.S:489
20007784:	4422                	c.lwsp	s0,8(sp)
/cygdrive/d/Jenkins/workspace/build-system-3/source-packages/gcc-7.4.0-riscv-bsp-v5_1_0-branch/libgcc/config/riscv/save-restore.S:491
20007786:	40b2                	c.lwsp	ra,12(sp)
/cygdrive/d/Jenkins/workspace/build-system-3/source-packages/gcc-7.4.0-riscv-bsp-v5_1_0-branch/libgcc/config/riscv/save-restore.S:493
20007788:	0141                	c.addi	sp,16
/cygdrive/d/Jenkins/workspace/build-system-3/source-packages/gcc-7.4.0-riscv-bsp-v5_1_0-branch/libgcc/config/riscv/save-restore.S:495
2000778a:	8082                	c.jr	ra
